

Microchip MPLAB XC8 Assembler V2.20 build 20200408173844 
                                                                                               Thu Jun 08 16:18:07 2023

Microchip MPLAB XC8 C Compiler v2.20 (Free license) build 20200408173844 Og1 
     1                           	processor	16F707
     2                           	pagewidth 120
     3                           	opt	flic
     4                           	psect	strings,global,class=STRING,delta=2,noexec
     5                           	psect	cinit,global,class=CODE,merge=1,delta=2
     6                           	psect	bssBANK1,global,class=BANK1,space=1,delta=1,noexec
     7                           	psect	cstackBANK1,global,class=BANK1,space=1,delta=1,noexec
     8                           	psect	cstackCOMMON,global,class=COMMON,space=1,delta=1,noexec
     9                           	psect	cstackBANK0,global,class=BANK0,space=1,delta=1,noexec
    10                           	psect	maintext,global,class=CODE,split=1,delta=2
    11                           	psect	text1,local,class=CODE,merge=1,delta=2
    12                           	psect	text2,local,class=CODE,merge=1,delta=2
    13                           	psect	text3,local,class=CODE,merge=1,delta=2
    14                           	psect	text4,local,class=CODE,merge=1,delta=2
    15                           	psect	text5,local,class=CODE,merge=1,delta=2
    16                           	psect	text6,local,class=CODE,merge=1,delta=2
    17                           	psect	text7,local,class=CODE,merge=1,delta=2
    18                           	psect	text8,local,class=CODE,merge=1,delta=2,group=1
    19                           	psect	text9,local,class=CODE,merge=1,delta=2
    20                           	psect	text10,local,class=CODE,merge=1,delta=2
    21                           	psect	text11,local,class=CODE,merge=1,delta=2,group=1
    22                           	psect	text12,local,class=CODE,merge=1,delta=2,group=1
    23                           	psect	text13,local,class=CODE,merge=1,delta=2,group=1
    24                           	psect	text14,local,class=CODE,merge=1,delta=2,group=1
    25                           	psect	text15,local,class=CODE,merge=1,delta=2,group=1
    26                           	psect	text16,local,class=CODE,merge=1,delta=2,group=1
    27                           	psect	text17,local,class=CODE,merge=1,delta=2,group=1
    28                           	psect	text18,local,class=CODE,merge=1,delta=2
    29                           	psect	text19,local,class=CODE,merge=1,delta=2
    30                           	psect	text20,local,class=CODE,merge=1,delta=2
    31                           	psect	text21,local,class=CODE,merge=1,delta=2
    32                           	psect	text22,local,class=CODE,merge=1,delta=2
    33                           	psect	text23,local,class=CODE,merge=1,delta=2
    34                           	psect	intentry,global,class=CODE,delta=2
    35                           	psect	config,global,abs,ovrld,class=CONFIG,space=4,delta=2,noexec
    36                           	dabs	1,0x7E,2
    37  0000                     
    38                           ; Version 2.20
    39                           ; Generated 12/02/2020 GMT
    40                           ; 
    41                           ; Copyright © 2020, Microchip Technology Inc. and its subsidiaries ("Microchip")
    42                           ; All rights reserved.
    43                           ; 
    44                           ; This software is developed by Microchip Technology Inc. and its subsidiaries ("Microch
      +                          ip").
    45                           ; 
    46                           ; Redistribution and use in source and binary forms, with or without modification, are
    47                           ; permitted provided that the following conditions are met:
    48                           ; 
    49                           ;     1. Redistributions of source code must retain the above copyright notice, this lis
      +                          t of
    50                           ;        conditions and the following disclaimer.
    51                           ; 
    52                           ;     2. Redistributions in binary form must reproduce the above copyright notice, this 
      +                          list
    53                           ;        of conditions and the following disclaimer in the documentation and/or other
    54                           ;        materials provided with the distribution.
    55                           ; 
    56                           ;     3. Microchip's name may not be used to endorse or promote products derived from th
      +                          is
    57                           ;        software without specific prior written permission.
    58                           ; 
    59                           ; THIS SOFTWARE IS PROVIDED BY MICROCHIP "AS IS" AND ANY EXPRESS OR IMPLIED WARRANTIES,
    60                           ; INCLUDING, BUT NOT LIMITED TO, THE IMPLIED WARRANTIES OF MERCHANTABILITY AND FITNESS F
      +                          OR
    61                           ; PURPOSE ARE DISCLAIMED.  IN NO EVENT SHALL MICROCHIP BE LIABLE FOR ANY DIRECT, INDIREC
      +                          T,
    62                           ; INCIDENTAL, SPECIAL, EXEMPLARY, OR CONSEQUENTIAL DAMAGES (INCLUDING BUT NOT LIMITED TO
    63                           ; PROCUREMENT OF SUBSTITUTE GOODS OR SERVICES; LOSS OF USE, DATA OR PROFITS; OR BUSINESS
    64                           ; INTERRUPTION) HOWSOEVER CAUSED AND ON ANY THEORY OF LIABILITY, WHETHER IN CONTRACT, ST
      +                          RICT
    65                           ; LIABILITY, OR TORT (INCLUDING NEGLIGENCE OR OTHERWISE) ARISING IN ANY WAY OUT OF THE U
      +                          SE OF
    66                           ; THIS SOFTWARE, EVEN IF ADVISED OF THE POSSIBILITY OF SUCH DAMAGE.
    67                           ; 
    68                           ; 
    69                           ; Code-generator required, PIC16F707 Definitions
    70                           ; 
    71                           ; SFR Addresses
    72  0000                     	;# 
    73  0001                     	;# 
    74  0002                     	;# 
    75  0003                     	;# 
    76  0004                     	;# 
    77  0005                     	;# 
    78  0006                     	;# 
    79  0007                     	;# 
    80  0008                     	;# 
    81  0009                     	;# 
    82  000A                     	;# 
    83  000B                     	;# 
    84  000C                     	;# 
    85  000D                     	;# 
    86  000E                     	;# 
    87  000E                     	;# 
    88  000F                     	;# 
    89  0010                     	;# 
    90  0011                     	;# 
    91  0012                     	;# 
    92  0013                     	;# 
    93  0014                     	;# 
    94  0015                     	;# 
    95  0015                     	;# 
    96  0016                     	;# 
    97  0017                     	;# 
    98  0018                     	;# 
    99  0019                     	;# 
   100  001A                     	;# 
   101  001B                     	;# 
   102  001B                     	;# 
   103  001C                     	;# 
   104  001D                     	;# 
   105  001E                     	;# 
   106  001F                     	;# 
   107  0081                     	;# 
   108  0085                     	;# 
   109  0086                     	;# 
   110  0087                     	;# 
   111  0088                     	;# 
   112  0089                     	;# 
   113  008C                     	;# 
   114  008D                     	;# 
   115  008E                     	;# 
   116  008F                     	;# 
   117  0090                     	;# 
   118  0091                     	;# 
   119  0092                     	;# 
   120  0093                     	;# 
   121  0093                     	;# 
   122  0094                     	;# 
   123  0095                     	;# 
   124  0096                     	;# 
   125  0097                     	;# 
   126  0098                     	;# 
   127  0099                     	;# 
   128  009A                     	;# 
   129  009A                     	;# 
   130  009B                     	;# 
   131  009C                     	;# 
   132  009D                     	;# 
   133  009E                     	;# 
   134  009F                     	;# 
   135  0105                     	;# 
   136  0106                     	;# 
   137  0107                     	;# 
   138  0108                     	;# 
   139  0109                     	;# 
   140  010C                     	;# 
   141  010D                     	;# 
   142  010E                     	;# 
   143  010F                     	;# 
   144  0110                     	;# 
   145  0111                     	;# 
   146  0112                     	;# 
   147  0113                     	;# 
   148  0114                     	;# 
   149  0185                     	;# 
   150  0186                     	;# 
   151  0187                     	;# 
   152  0188                     	;# 
   153  0189                     	;# 
   154  018C                     	;# 
   155  0000                     	;# 
   156  0001                     	;# 
   157  0002                     	;# 
   158  0003                     	;# 
   159  0004                     	;# 
   160  0005                     	;# 
   161  0006                     	;# 
   162  0007                     	;# 
   163  0008                     	;# 
   164  0009                     	;# 
   165  000A                     	;# 
   166  000B                     	;# 
   167  000C                     	;# 
   168  000D                     	;# 
   169  000E                     	;# 
   170  000E                     	;# 
   171  000F                     	;# 
   172  0010                     	;# 
   173  0011                     	;# 
   174  0012                     	;# 
   175  0013                     	;# 
   176  0014                     	;# 
   177  0015                     	;# 
   178  0015                     	;# 
   179  0016                     	;# 
   180  0017                     	;# 
   181  0018                     	;# 
   182  0019                     	;# 
   183  001A                     	;# 
   184  001B                     	;# 
   185  001B                     	;# 
   186  001C                     	;# 
   187  001D                     	;# 
   188  001E                     	;# 
   189  001F                     	;# 
   190  0081                     	;# 
   191  0085                     	;# 
   192  0086                     	;# 
   193  0087                     	;# 
   194  0088                     	;# 
   195  0089                     	;# 
   196  008C                     	;# 
   197  008D                     	;# 
   198  008E                     	;# 
   199  008F                     	;# 
   200  0090                     	;# 
   201  0091                     	;# 
   202  0092                     	;# 
   203  0093                     	;# 
   204  0093                     	;# 
   205  0094                     	;# 
   206  0095                     	;# 
   207  0096                     	;# 
   208  0097                     	;# 
   209  0098                     	;# 
   210  0099                     	;# 
   211  009A                     	;# 
   212  009A                     	;# 
   213  009B                     	;# 
   214  009C                     	;# 
   215  009D                     	;# 
   216  009E                     	;# 
   217  009F                     	;# 
   218  0105                     	;# 
   219  0106                     	;# 
   220  0107                     	;# 
   221  0108                     	;# 
   222  0109                     	;# 
   223  010C                     	;# 
   224  010D                     	;# 
   225  010E                     	;# 
   226  010F                     	;# 
   227  0110                     	;# 
   228  0111                     	;# 
   229  0112                     	;# 
   230  0113                     	;# 
   231  0114                     	;# 
   232  0185                     	;# 
   233  0186                     	;# 
   234  0187                     	;# 
   235  0188                     	;# 
   236  0189                     	;# 
   237  018C                     	;# 
   238  0000                     	;# 
   239  0001                     	;# 
   240  0002                     	;# 
   241  0003                     	;# 
   242  0004                     	;# 
   243  0005                     	;# 
   244  0006                     	;# 
   245  0007                     	;# 
   246  0008                     	;# 
   247  0009                     	;# 
   248  000A                     	;# 
   249  000B                     	;# 
   250  000C                     	;# 
   251  000D                     	;# 
   252  000E                     	;# 
   253  000E                     	;# 
   254  000F                     	;# 
   255  0010                     	;# 
   256  0011                     	;# 
   257  0012                     	;# 
   258  0013                     	;# 
   259  0014                     	;# 
   260  0015                     	;# 
   261  0015                     	;# 
   262  0016                     	;# 
   263  0017                     	;# 
   264  0018                     	;# 
   265  0019                     	;# 
   266  001A                     	;# 
   267  001B                     	;# 
   268  001B                     	;# 
   269  001C                     	;# 
   270  001D                     	;# 
   271  001E                     	;# 
   272  001F                     	;# 
   273  0081                     	;# 
   274  0085                     	;# 
   275  0086                     	;# 
   276  0087                     	;# 
   277  0088                     	;# 
   278  0089                     	;# 
   279  008C                     	;# 
   280  008D                     	;# 
   281  008E                     	;# 
   282  008F                     	;# 
   283  0090                     	;# 
   284  0091                     	;# 
   285  0092                     	;# 
   286  0093                     	;# 
   287  0093                     	;# 
   288  0094                     	;# 
   289  0095                     	;# 
   290  0096                     	;# 
   291  0097                     	;# 
   292  0098                     	;# 
   293  0099                     	;# 
   294  009A                     	;# 
   295  009A                     	;# 
   296  009B                     	;# 
   297  009C                     	;# 
   298  009D                     	;# 
   299  009E                     	;# 
   300  009F                     	;# 
   301  0105                     	;# 
   302  0106                     	;# 
   303  0107                     	;# 
   304  0108                     	;# 
   305  0109                     	;# 
   306  010C                     	;# 
   307  010D                     	;# 
   308  010E                     	;# 
   309  010F                     	;# 
   310  0110                     	;# 
   311  0111                     	;# 
   312  0112                     	;# 
   313  0113                     	;# 
   314  0114                     	;# 
   315  0185                     	;# 
   316  0186                     	;# 
   317  0187                     	;# 
   318  0188                     	;# 
   319  0189                     	;# 
   320  018C                     	;# 
   321                           
   322                           	psect	strings
   323  1000                     __pstrings:
   324  1000                     stringtab:
   325  1000                     __stringtab:
   326  1000                     stringcode:	
   327                           ;	String table - string pointers are 1 byte each
   328                           
   329  1000                     stringdir:
   330  1000  3010               	movlw	high stringdir
   331  1001  008A               	movwf	10
   332  1002  0804               	movf	4,w
   333  1003  0A84               	incf	4,f
   334  1004  0782               	addwf	2,f
   335  1005                     __stringbase:
   336  1005  3400               	retlw	0
   337  1006                     __end_of__stringtab:
   338  1006                     conversion_newton@R_tab:
   339  1006  3400               	retlw	0
   340  1007  3400               	retlw	0
   341  1008  34FA               	retlw	250
   342  1009  3444               	retlw	68
   343  100A  3400               	retlw	0
   344  100B  3440               	retlw	64
   345  100C  341C               	retlw	28
   346  100D  3445               	retlw	69
   347  100E  3400               	retlw	0
   348  100F  3480               	retlw	128
   349  1010  3422               	retlw	34
   350  1011  3445               	retlw	69
   351  1012  3400               	retlw	0
   352  1013  34C0               	retlw	192
   353  1014  3428               	retlw	40
   354  1015  3445               	retlw	69
   355  1016  3400               	retlw	0
   356  1017  3440               	retlw	64
   357  1018  3435               	retlw	53
   358  1019  3445               	retlw	69
   359  101A  3400               	retlw	0
   360  101B  3400               	retlw	0
   361  101C  3448               	retlw	72
   362  101D  3445               	retlw	69
   363  101E  3400               	retlw	0
   364  101F  3480               	retlw	128
   365  1020  3454               	retlw	84
   366  1021  3445               	retlw	69
   367  1022  3400               	retlw	0
   368  1023  34C0               	retlw	192
   369  1024  345A               	retlw	90
   370  1025  3445               	retlw	69
   371  1026  3400               	retlw	0
   372  1027  34C0               	retlw	192
   373  1028  3473               	retlw	115
   374  1029  3445               	retlw	69
   375  102A  3400               	retlw	0
   376  102B  3460               	retlw	96
   377  102C  3486               	retlw	134
   378  102D  3445               	retlw	69
   379  102E  3400               	retlw	0
   380  102F  3400               	retlw	0
   381  1030  3496               	retlw	150
   382  1031  3445               	retlw	69
   383  1032  3400               	retlw	0
   384  1033  34E0               	retlw	224
   385  1034  34AB               	retlw	171
   386  1035  3445               	retlw	69
   387  1036  3400               	retlw	0
   388  1037  3480               	retlw	128
   389  1038  34D4               	retlw	212
   390  1039  3445               	retlw	69
   391  103A  3400               	retlw	0
   392  103B  34D0               	retlw	208
   393  103C  3404               	retlw	4
   394  103D  3446               	retlw	70
   395  103E  3400               	retlw	0
   396  103F  34E0               	retlw	224
   397  1040  342B               	retlw	43
   398  1041  3446               	retlw	70
   399  1042  3400               	retlw	0
   400  1043  3400               	retlw	0
   401  1044  347A               	retlw	122
   402  1045  3446               	retlw	70
   403  1046  3400               	retlw	0
   404  1047  34F0               	retlw	240
   405  1048  34D2               	retlw	210
   406  1049  3446               	retlw	70
   407  104A  3400               	retlw	0
   408  104B  34C8               	retlw	200
   409  104C  342F               	retlw	47
   410  104D  3447               	retlw	71
   411  104E  3400               	retlw	0
   412  104F  34E8               	retlw	232
   413  1050  347D               	retlw	125
   414  1051  3447               	retlw	71
   415  1052  3400               	retlw	0
   416  1053  348C               	retlw	140
   417  1054  34B9               	retlw	185
   418  1055  3447               	retlw	71
   419  1056                     __end_ofconversion_newton@R_tab:
   420  1056                     conversion_newton@F_tab:
   421  1056  3400               	retlw	0
   422  1057  3400               	retlw	0
   423  1058  348C               	retlw	140
   424  1059  3442               	retlw	66
   425  105A  3400               	retlw	0
   426  105B  3400               	retlw	0
   427  105C  340C               	retlw	12
   428  105D  3442               	retlw	66
   429  105E  3400               	retlw	0
   430  105F  3400               	retlw	0
   431  1060  34F0               	retlw	240
   432  1061  3441               	retlw	65
   433  1062  3400               	retlw	0
   434  1063  3400               	retlw	0
   435  1064  34E0               	retlw	224
   436  1065  3441               	retlw	65
   437  1066  3400               	retlw	0
   438  1067  3400               	retlw	0
   439  1068  34C8               	retlw	200
   440  1069  3441               	retlw	65
   441  106A  3400               	retlw	0
   442  106B  3400               	retlw	0
   443  106C  34A0               	retlw	160
   444  106D  3441               	retlw	65
   445  106E  3400               	retlw	0
   446  106F  3400               	retlw	0
   447  1070  3498               	retlw	152
   448  1071  3441               	retlw	65
   449  1072  3400               	retlw	0
   450  1073  3400               	retlw	0
   451  1074  3490               	retlw	144
   452  1075  3441               	retlw	65
   453  1076  3400               	retlw	0
   454  1077  3400               	retlw	0
   455  1078  3470               	retlw	112
   456  1079  3441               	retlw	65
   457  107A  3400               	retlw	0
   458  107B  3400               	retlw	0
   459  107C  3450               	retlw	80
   460  107D  3441               	retlw	65
   461  107E  3400               	retlw	0
   462  107F  3400               	retlw	0
   463  1080  3420               	retlw	32
   464  1081  3441               	retlw	65
   465  1082  3400               	retlw	0
   466  1083  3400               	retlw	0
   467  1084  34E0               	retlw	224
   468  1085  3440               	retlw	64
   469  1086  34CD               	retlw	205
   470  1087  34CC               	retlw	204
   471  1088  34AC               	retlw	172
   472  1089  3440               	retlw	64
   473  108A  3400               	retlw	0
   474  108B  3400               	retlw	0
   475  108C  3480               	retlw	128
   476  108D  3440               	retlw	64
   477  108E  3400               	retlw	0
   478  108F  3400               	retlw	0
   479  1090  3440               	retlw	64
   480  1091  3440               	retlw	64
   481  1092  34CD               	retlw	205
   482  1093  34CC               	retlw	204
   483  1094  340C               	retlw	12
   484  1095  3440               	retlw	64
   485  1096  3400               	retlw	0
   486  1097  3400               	retlw	0
   487  1098  34C0               	retlw	192
   488  1099  343F               	retlw	63
   489  109A  3466               	retlw	102
   490  109B  3466               	retlw	102
   491  109C  3466               	retlw	102
   492  109D  343F               	retlw	63
   493  109E  3466               	retlw	102
   494  109F  3466               	retlw	102
   495  10A0  34E6               	retlw	230
   496  10A1  343E               	retlw	62
   497  10A2  348F               	retlw	143
   498  10A3  34C2               	retlw	194
   499  10A4  34F5               	retlw	245
   500  10A5  343D               	retlw	61
   501  10A6                     __end_ofconversion_newton@F_tab:
   502  0007                     _PORTCbits	set	7
   503  0019                     _TXREG	set	25
   504  001E                     _ADRES	set	30
   505  0008                     _PORTD	set	8
   506  0006                     _PORTBbits	set	6
   507  001F                     _ADCON0	set	31
   508  0018                     _RCSTA	set	24
   509  006C                     _TMRAIF	set	108
   510  0060                     _TMR1IF	set	96
   511  0080                     _TMR1ON	set	128
   512  0082                     _T1SYNC	set	130
   513  0085                     _T1CKPS1	set	133
   514  0084                     _T1CKPS0	set	132
   515  0086                     _TMRCS0	set	134
   516  0087                     _TMRCS1	set	135
   517  0083                     _T1OSCEN	set	131
   518  00F9                     _GO_nDONE	set	249
   519  009D                     _FVRCON	set	157
   520  009F                     _ADCON1	set	159
   521  0088                     _TRISD	set	136
   522  0085                     _TRISA	set	133
   523  0090                     _OSCCON	set	144
   524  0086                     _TRISB	set	134
   525  0095                     _WPUB	set	149
   526  0098                     _TXSTA	set	152
   527  0099                     _SPBRG	set	153
   528  0087                     _TRISC	set	135
   529  0460                     _TMR1IE	set	1120
   530  047F                     _TMR1GE	set	1151
   531  0110                     _TMRA	set	272
   532  0114                     _DACCON1	set	276
   533  0113                     _DACCON0	set	275
   534  0185                     _ANSELA	set	389
   535  0188                     _ANSELD	set	392
   536  0186                     _ANSELB	set	390
   537                           
   538                           	psect	cinit
   539  000F                     start_initialization:	
   540                           ; #config settings
   541                           
   542  000F                     __initialization:
   543                           
   544                           ; Clear objects allocated to BANK1
   545  000F  1683               	bsf	3,5	;RP0=1, select bank1
   546  0010  1303               	bcf	3,6	;RP1=0, select bank1
   547  0011  01D9               	clrf	__pbssBANK1& (0+127)
   548  0012                     end_of_initialization:	
   549                           ;End of C runtime variable initialization code
   550                           
   551  0012                     __end_of__initialization:
   552  0012  0183               	clrf	3
   553  0013  160A  118A  2DDB   	ljmp	_main	;jump to C main() function
   554                           
   555                           	psect	bssBANK1
   556  00D9                     __pbssBANK1:
   557  00D9                     _Fincompt1:
   558  00D9                     	ds	1
   559                           
   560                           	psect	cstackBANK1
   561  00A0                     __pcstackBANK1:
   562  00A0                     ?_Voltage_Value:
   563  00A0                     ?_Resistance_Value:	
   564                           ; 4 bytes @ 0x0
   565                           
   566  00A0                     ?_conversion_newton:	
   567                           ; 4 bytes @ 0x0
   568                           
   569  00A0                     Resistance_Value@Voltage:	
   570                           ; 4 bytes @ 0x0
   571                           
   572  00A0                     conversion_newton@Rc:	
   573                           ; 4 bytes @ 0x0
   574                           
   575                           
   576                           ; 4 bytes @ 0x0
   577  00A0                     	ds	4
   578  00A4                     ??_Voltage_Value:
   579  00A4                     ??_conversion_newton:	
   580                           ; 1 bytes @ 0x4
   581                           
   582  00A4                     Resistance_Value@R:	
   583                           ; 1 bytes @ 0x4
   584                           
   585                           
   586                           ; 2 bytes @ 0x4
   587  00A4                     	ds	4
   588  00A8                     Voltage_Value@sensor:
   589                           
   590                           ; 1 bytes @ 0x8
   591  00A8                     	ds	21
   592  00BD                     _conversion_newton$772:
   593                           
   594                           ; 4 bytes @ 0x1D
   595  00BD                     	ds	4
   596  00C1                     conversion_newton@F:
   597                           
   598                           ; 4 bytes @ 0x21
   599  00C1                     	ds	4
   600  00C5                     conversion_newton@n:
   601                           
   602                           ; 2 bytes @ 0x25
   603  00C5                     	ds	2
   604  00C7                     ?_Get_Newton:
   605  00C7                     Get_Newton@INTER1:	
   606                           ; 4 bytes @ 0x27
   607                           
   608                           
   609                           ; 1 bytes @ 0x27
   610  00C7                     	ds	1
   611  00C8                     Get_Newton@sensor_Channel:
   612                           
   613                           ; 1 bytes @ 0x28
   614  00C8                     	ds	5
   615  00CD                     Get_Newton@R:
   616                           
   617                           ; 2 bytes @ 0x2D
   618  00CD                     	ds	2
   619  00CF                     Get_Newton@Vs:
   620                           
   621                           ; 4 bytes @ 0x2F
   622  00CF                     	ds	4
   623  00D3                     Get_Newton@Rc:
   624                           
   625                           ; 4 bytes @ 0x33
   626  00D3                     	ds	4
   627  00D7                     Get_Newton@INTER0:
   628                           
   629                           ; 1 bytes @ 0x37
   630  00D7                     	ds	1
   631  00D8                     Get_Newton@sensor_value:
   632                           
   633                           ; 1 bytes @ 0x38
   634  00D8                     	ds	1
   635                           
   636                           	psect	cstackCOMMON
   637  0070                     __pcstackCOMMON:
   638  0070                     ?_PORT_Init:
   639  0070                     ?_TIMER_init_timer1:	
   640                           ; 1 bytes @ 0x0
   641                           
   642  0070                     ?_PORT_Select_Mux0:	
   643                           ; 1 bytes @ 0x0
   644                           
   645  0070                     ?_PORT_Blink_LED:	
   646                           ; 1 bytes @ 0x0
   647                           
   648  0070                     ?_ADC_GetValue:	
   649                           ; 1 bytes @ 0x0
   650                           
   651  0070                     ?_PORT_Choose_Mux:	
   652                           ; 1 bytes @ 0x0
   653                           
   654  0070                     ?_PORT_Start_ADC:	
   655                           ; 1 bytes @ 0x0
   656                           
   657  0070                     ?_PORT_Get_Value_Adc:	
   658                           ; 1 bytes @ 0x0
   659                           
   660  0070                     ?_main:	
   661                           ; 1 bytes @ 0x0
   662                           
   663  0070                     ?_PORT_Init_Serial:	
   664                           ; 1 bytes @ 0x0
   665                           
   666  0070                     ?_isr:	
   667                           ; 1 bytes @ 0x0
   668                           
   669  0070                     ??_isr:	
   670                           ; 1 bytes @ 0x0
   671                           
   672                           
   673                           ; 1 bytes @ 0x0
   674  0070                     	ds	2
   675  0072                     ?___flge:
   676  0072                     ??_PORT_Init:	
   677                           ; 1 bit 
   678                           
   679  0072                     ??_TIMER_init_timer1:	
   680                           ; 1 bytes @ 0x2
   681                           
   682  0072                     ??_PORT_Select_Mux0:	
   683                           ; 1 bytes @ 0x2
   684                           
   685  0072                     ??_PORT_Blink_LED:	
   686                           ; 1 bytes @ 0x2
   687                           
   688  0072                     ??_PORT_Choose_Mux:	
   689                           ; 1 bytes @ 0x2
   690                           
   691  0072                     ??_PORT_Start_ADC:	
   692                           ; 1 bytes @ 0x2
   693                           
   694  0072                     ??_PORT_Get_Value_Adc:	
   695                           ; 1 bytes @ 0x2
   696                           
   697  0072                     ??_PORT_Init_Serial:	
   698                           ; 1 bytes @ 0x2
   699                           
   700  0072                     ?_PORT_Change_Gain:	
   701                           ; 1 bytes @ 0x2
   702                           
   703  0072                     ?__Umul8_16:	
   704                           ; 2 bytes @ 0x2
   705                           
   706  0072                     ?___wmul:	
   707                           ; 2 bytes @ 0x2
   708                           
   709  0072                     PORT_Choose_Mux@_value:	
   710                           ; 2 bytes @ 0x2
   711                           
   712  0072                     PORT_Change_Gain@INTER1:	
   713                           ; 1 bytes @ 0x2
   714                           
   715  0072                     __Umul8_16@multiplicand:	
   716                           ; 1 bytes @ 0x2
   717                           
   718  0072                     ___wmul@multiplier:	
   719                           ; 1 bytes @ 0x2
   720                           
   721  0072                     ___flge@ff1:	
   722                           ; 2 bytes @ 0x2
   723                           
   724                           
   725                           ; 4 bytes @ 0x2
   726  0072                     	ds	1
   727  0073                     ??_PORT_Change_Gain:
   728  0073                     ??_ADC_GetValue:	
   729                           ; 1 bytes @ 0x3
   730                           
   731  0073                     ADC_GetValue@channel:	
   732                           ; 1 bytes @ 0x3
   733                           
   734  0073                     PORT_Change_Gain@INTER0:	
   735                           ; 1 bytes @ 0x3
   736                           
   737                           
   738                           ; 1 bytes @ 0x3
   739  0073                     	ds	1
   740  0074                     ??__Umul8_16:
   741  0074                     ___wmul@multiplicand:	
   742                           ; 1 bytes @ 0x4
   743                           
   744                           
   745                           ; 2 bytes @ 0x4
   746  0074                     	ds	2
   747  0076                     ??___wmul:
   748  0076                     ___wmul@product:	
   749                           ; 1 bytes @ 0x6
   750                           
   751  0076                     __Umul8_16@product:	
   752                           ; 2 bytes @ 0x6
   753                           
   754  0076                     ___flge@ff2:	
   755                           ; 2 bytes @ 0x6
   756                           
   757                           
   758                           ; 4 bytes @ 0x6
   759  0076                     	ds	2
   760  0078                     ?___xxtofl:
   761  0078                     __Umul8_16@word_mpld:	
   762                           ; 4 bytes @ 0x8
   763                           
   764  0078                     ___xxtofl@val:	
   765                           ; 2 bytes @ 0x8
   766                           
   767                           
   768                           ; 4 bytes @ 0x8
   769  0078                     	ds	2
   770  007A                     __Umul8_16@multiplier:
   771                           
   772                           ; 1 bytes @ 0xA
   773  007A                     	ds	1
   774  007B                     ??___flsub:
   775                           
   776                           ; 1 bytes @ 0xB
   777  007B                     	ds	1
   778  007C                     ??_Get_Newton:
   779  007C                     ??_main:	
   780                           ; 1 bytes @ 0xC
   781                           
   782  007C                     ??_Resistance_Value:	
   783                           ; 1 bytes @ 0xC
   784                           
   785                           
   786                           	psect	cstackBANK0
   787  0020                     __pcstackBANK0:	
   788                           ; 1 bytes @ 0xC
   789                           
   790  0020                     ??___flge:
   791  0020                     ??___xxtofl:	
   792                           ; 1 bytes @ 0x0
   793                           
   794  0020                     ?___fladd:	
   795                           ; 1 bytes @ 0x0
   796                           
   797  0020                     ___fladd@b:	
   798                           ; 4 bytes @ 0x0
   799                           
   800                           
   801                           ; 4 bytes @ 0x0
   802  0020                     	ds	4
   803  0024                     ___xxtofl@sign:
   804  0024                     ___fladd@a:	
   805                           ; 1 bytes @ 0x4
   806                           
   807                           
   808                           ; 4 bytes @ 0x4
   809  0024                     	ds	1
   810  0025                     ___xxtofl@exp:
   811                           
   812                           ; 1 bytes @ 0x5
   813  0025                     	ds	1
   814  0026                     ___xxtofl@arg:
   815                           
   816                           ; 4 bytes @ 0x6
   817  0026                     	ds	2
   818  0028                     ??___fladd:
   819                           
   820                           ; 1 bytes @ 0x8
   821  0028                     	ds	8
   822  0030                     ___fladd@signs:
   823                           
   824                           ; 1 bytes @ 0x10
   825  0030                     	ds	1
   826  0031                     ___fladd@aexp:
   827                           
   828                           ; 1 bytes @ 0x11
   829  0031                     	ds	1
   830  0032                     ___fladd@bexp:
   831                           
   832                           ; 1 bytes @ 0x12
   833  0032                     	ds	1
   834  0033                     ___fladd@grs:
   835                           
   836                           ; 1 bytes @ 0x13
   837  0033                     	ds	1
   838  0034                     ?___flsub:
   839  0034                     ___flsub@a:	
   840                           ; 4 bytes @ 0x14
   841                           
   842                           
   843                           ; 4 bytes @ 0x14
   844  0034                     	ds	4
   845  0038                     ___flsub@b:
   846                           
   847                           ; 4 bytes @ 0x18
   848  0038                     	ds	4
   849  003C                     ?___fldiv:
   850  003C                     ___fldiv@a:	
   851                           ; 4 bytes @ 0x1C
   852                           
   853                           
   854                           ; 4 bytes @ 0x1C
   855  003C                     	ds	4
   856  0040                     ___fldiv@b:
   857                           
   858                           ; 4 bytes @ 0x20
   859  0040                     	ds	4
   860  0044                     ??___fldiv:
   861                           
   862                           ; 1 bytes @ 0x24
   863  0044                     	ds	5
   864  0049                     ___fldiv@rem:
   865                           
   866                           ; 4 bytes @ 0x29
   867  0049                     	ds	4
   868  004D                     ___fldiv@sign:
   869                           
   870                           ; 1 bytes @ 0x2D
   871  004D                     	ds	1
   872  004E                     ___fldiv@new_exp:
   873                           
   874                           ; 2 bytes @ 0x2E
   875  004E                     	ds	2
   876  0050                     ___fldiv@grs:
   877                           
   878                           ; 4 bytes @ 0x30
   879  0050                     	ds	4
   880  0054                     ___fldiv@bexp:
   881                           
   882                           ; 1 bytes @ 0x34
   883  0054                     	ds	1
   884  0055                     ___fldiv@aexp:
   885                           
   886                           ; 1 bytes @ 0x35
   887  0055                     	ds	1
   888  0056                     ?___flmul:
   889  0056                     ___flmul@b:	
   890                           ; 4 bytes @ 0x36
   891                           
   892                           
   893                           ; 4 bytes @ 0x36
   894  0056                     	ds	4
   895  005A                     ___flmul@a:
   896                           
   897                           ; 4 bytes @ 0x3A
   898  005A                     	ds	4
   899  005E                     ??___flmul:
   900                           
   901                           ; 1 bytes @ 0x3E
   902  005E                     	ds	5
   903  0063                     ___flmul@sign:
   904                           
   905                           ; 1 bytes @ 0x43
   906  0063                     	ds	1
   907  0064                     ___flmul@grs:
   908                           
   909                           ; 4 bytes @ 0x44
   910  0064                     	ds	4
   911  0068                     ___flmul@aexp:
   912                           
   913                           ; 1 bytes @ 0x48
   914  0068                     	ds	1
   915  0069                     ___flmul@bexp:
   916                           
   917                           ; 1 bytes @ 0x49
   918  0069                     	ds	1
   919  006A                     ___flmul@prod:
   920                           
   921                           ; 4 bytes @ 0x4A
   922  006A                     	ds	4
   923  006E                     ___flmul@temp:
   924                           
   925                           ; 2 bytes @ 0x4E
   926  006E                     	ds	2
   927                           
   928                           	psect	maintext
   929  15DB                     __pmaintext:	
   930 ;;
   931 ;;Main: autosize = 0, tempsize = 0, incstack = 0, save=0
   932 ;;
   933 ;; *************** function _main *****************
   934 ;; Defined at:
   935 ;;		line 24 in file "main.c"
   936 ;; Parameters:    Size  Location     Type
   937 ;;		None
   938 ;; Auto vars:     Size  Location     Type
   939 ;;		None
   940 ;; Return value:  Size  Location     Type
   941 ;;                  1    wreg      void 
   942 ;; Registers used:
   943 ;;		wreg, fsr0l, fsr0h, status,2, status,0, btemp+1, pclath, cstack
   944 ;; Tracked objects:
   945 ;;		On entry : B00/0
   946 ;;		On exit  : 0/0
   947 ;;		Unchanged: 0/0
   948 ;; Data sizes:     COMMON   BANK0   BANK1   BANK3   BANK2
   949 ;;      Params:         0       0       0       0       0
   950 ;;      Locals:         0       0       0       0       0
   951 ;;      Temps:          0       0       0       0       0
   952 ;;      Totals:         0       0       0       0       0
   953 ;;Total ram usage:        0 bytes
   954 ;; Hardware stack levels required when called:    5
   955 ;; This function calls:
   956 ;;		_Get_Newton
   957 ;;		_PORT_Blink_LED
   958 ;;		_PORT_Init
   959 ;;		_PORT_Select_Mux0
   960 ;;		_TIMER_init_timer1
   961 ;; This function is called by:
   962 ;;		Startup code after reset
   963 ;; This function uses a non-reentrant model
   964 ;;
   965                           
   966                           
   967                           ;psect for function _main
   968  15DB                     _main:
   969  15DB                     l2439:	
   970                           ;incstack = 0
   971                           ; Regs used in _main: [wreg-fsr0h+status,2+status,0+btemp+1+pclath+cstack]
   972                           
   973                           
   974                           ;main.c: 31:     PORT_Init();
   975  15DB  120A  158A  2001  160A  118A  	fcall	_PORT_Init
   976                           
   977                           ;main.c: 32:     TIMER_init_timer1();
   978  15E0  160A  118A  251C  160A  118A  	fcall	_TIMER_init_timer1
   979  15E5                     l2441:
   980                           
   981                           ;main.c: 34:     PORT_Select_Mux0();
   982  15E5  160A  118A  24E0  160A  118A  	fcall	_PORT_Select_Mux0
   983  15EA                     l2443:
   984  15EA  1683               	bsf	3,5	;RP0=1, select bank1
   985  15EB  1303               	bcf	3,6	;RP1=0, select bank1
   986  15EC  0859               	movf	_Fincompt1^(0+128),w
   987  15ED  1D03               	btfss	3,2
   988  15EE  2DF0               	goto	u3601
   989  15EF  2DF1               	goto	u3600
   990  15F0                     u3601:
   991  15F0  2DEA               	goto	l2443
   992  15F1                     u3600:
   993  15F1                     l2445:
   994                           
   995                           ;main.c: 39:         Fincompt1 = 0;
   996  15F1  01D9               	clrf	_Fincompt1^(0+128)
   997  15F2                     l2447:
   998                           
   999                           ;main.c: 40:         PORT_Blink_LED();
  1000  15F2  160A  118A  24E8  160A  118A  	fcall	_PORT_Blink_LED
  1001  15F7                     l2449:
  1002                           
  1003                           ;main.c: 44:         Get_Newton(0,0,0);
  1004  15F7  1683               	bsf	3,5	;RP0=1, select bank1
  1005  15F8  1303               	bcf	3,6	;RP1=0, select bank1
  1006  15F9  01C7               	clrf	Get_Newton@INTER1^(0+128)
  1007  15FA  01C8               	clrf	Get_Newton@sensor_Channel^(0+128)
  1008  15FB  3000               	movlw	0
  1009  15FC  160A  118A  261A  160A  118A  	fcall	_Get_Newton
  1010  1601                     l2451:
  1011                           
  1012                           ;main.c: 45:         Get_Newton(0,1,0);
  1013  1601  1683               	bsf	3,5	;RP0=1, select bank1
  1014  1602  1303               	bcf	3,6	;RP1=0, select bank1
  1015  1603  01C7               	clrf	Get_Newton@INTER1^(0+128)
  1016  1604  0AC7               	incf	Get_Newton@INTER1^(0+128),f
  1017  1605  01C8               	clrf	Get_Newton@sensor_Channel^(0+128)
  1018  1606  3000               	movlw	0
  1019  1607  160A  118A  261A  160A  118A  	fcall	_Get_Newton
  1020  160C                     l2453:
  1021                           
  1022                           ;main.c: 46:         Get_Newton(1,0,0);
  1023  160C  1683               	bsf	3,5	;RP0=1, select bank1
  1024  160D  1303               	bcf	3,6	;RP1=0, select bank1
  1025  160E  01C7               	clrf	Get_Newton@INTER1^(0+128)
  1026  160F  01C8               	clrf	Get_Newton@sensor_Channel^(0+128)
  1027  1610  3001               	movlw	1
  1028  1611  160A  118A  261A  160A  118A  	fcall	_Get_Newton
  1029  1616  2DEA               	goto	l2443
  1030  1617  120A  118A  280C   	ljmp	start
  1031  161A                     __end_of_main:
  1032                           
  1033                           	psect	text1
  1034  151C                     __ptext1:	
  1035 ;; *************** function _TIMER_init_timer1 *****************
  1036 ;; Defined at:
  1037 ;;		line 8 in file "timer.c"
  1038 ;; Parameters:    Size  Location     Type
  1039 ;;		None
  1040 ;; Auto vars:     Size  Location     Type
  1041 ;;		None
  1042 ;; Return value:  Size  Location     Type
  1043 ;;                  1    wreg      void 
  1044 ;; Registers used:
  1045 ;;		wreg
  1046 ;; Tracked objects:
  1047 ;;		On entry : 0/0
  1048 ;;		On exit  : 0/0
  1049 ;;		Unchanged: 0/0
  1050 ;; Data sizes:     COMMON   BANK0   BANK1   BANK3   BANK2
  1051 ;;      Params:         0       0       0       0       0
  1052 ;;      Locals:         0       0       0       0       0
  1053 ;;      Temps:          0       0       0       0       0
  1054 ;;      Totals:         0       0       0       0       0
  1055 ;;Total ram usage:        0 bytes
  1056 ;; Hardware stack levels used:    1
  1057 ;; Hardware stack levels required when called:    1
  1058 ;; This function calls:
  1059 ;;		Nothing
  1060 ;; This function is called by:
  1061 ;;		_main
  1062 ;; This function uses a non-reentrant model
  1063 ;;
  1064                           
  1065                           
  1066                           ;psect for function _TIMER_init_timer1
  1067  151C                     _TIMER_init_timer1:
  1068  151C                     l2409:	
  1069                           ;incstack = 0
  1070                           ; Regs used in _TIMER_init_timer1: [wreg]
  1071                           
  1072                           
  1073                           ;timer.c: 10:     TMRA = 65535-5000;
  1074  151C  3077               	movlw	119
  1075  151D  1283               	bcf	3,5	;RP0=0, select bank2
  1076  151E  1703               	bsf	3,6	;RP1=1, select bank2
  1077  151F  0090               	movwf	16	;volatile
  1078  1520                     l2411:
  1079                           
  1080                           ;timer.c: 24:     T1OSCEN=0;
  1081  1520  1283               	bcf	3,5	;RP0=0, select bank0
  1082  1521  1303               	bcf	3,6	;RP1=0, select bank0
  1083  1522  1190               	bcf	16,3	;volatile
  1084  1523                     l2413:
  1085                           
  1086                           ;timer.c: 36:     TMRCS1=0;
  1087  1523  1390               	bcf	16,7	;volatile
  1088  1524                     l2415:
  1089                           
  1090                           ;timer.c: 37:     TMRCS0=0;
  1091  1524  1310               	bcf	16,6	;volatile
  1092  1525                     l2417:
  1093                           
  1094                           ;timer.c: 46:     T1CKPS0=1;
  1095  1525  1610               	bsf	16,4	;volatile
  1096  1526                     l2419:
  1097                           
  1098                           ;timer.c: 47:     T1CKPS1=1;
  1099  1526  1690               	bsf	16,5	;volatile
  1100  1527                     l2421:
  1101                           
  1102                           ;timer.c: 56:     T1SYNC=1;
  1103  1527  1510               	bsf	16,2	;volatile
  1104  1528                     l2423:
  1105                           
  1106                           ;timer.c: 62:     TMR1ON=1;
  1107  1528  1410               	bsf	16,0	;volatile
  1108  1529                     l2425:
  1109                           
  1110                           ;timer.c: 71:     TMR1GE=0;
  1111  1529  1683               	bsf	3,5	;RP0=1, select bank1
  1112  152A  1303               	bcf	3,6	;RP1=0, select bank1
  1113  152B  138F               	bcf	15,7	;volatile
  1114  152C                     l2427:
  1115                           
  1116                           ;timer.c: 75:     TMR1IE=1;
  1117  152C  140C               	bsf	12,0	;volatile
  1118  152D                     l210:
  1119  152D  0008               	return
  1120  152E                     __end_of_TIMER_init_timer1:
  1121                           
  1122                           	psect	text2
  1123  14E0                     __ptext2:	
  1124 ;; *************** function _PORT_Select_Mux0 *****************
  1125 ;; Defined at:
  1126 ;;		line 149 in file "port.c"
  1127 ;; Parameters:    Size  Location     Type
  1128 ;;		None
  1129 ;; Auto vars:     Size  Location     Type
  1130 ;;		None
  1131 ;; Return value:  Size  Location     Type
  1132 ;;                  1    wreg      void 
  1133 ;; Registers used:
  1134 ;;		wreg, status,2, status,0, btemp+1
  1135 ;; Tracked objects:
  1136 ;;		On entry : 0/0
  1137 ;;		On exit  : 0/0
  1138 ;;		Unchanged: 0/0
  1139 ;; Data sizes:     COMMON   BANK0   BANK1   BANK3   BANK2
  1140 ;;      Params:         0       0       0       0       0
  1141 ;;      Locals:         0       0       0       0       0
  1142 ;;      Temps:          0       0       0       0       0
  1143 ;;      Totals:         0       0       0       0       0
  1144 ;;Total ram usage:        0 bytes
  1145 ;; Hardware stack levels used:    1
  1146 ;; Hardware stack levels required when called:    1
  1147 ;; This function calls:
  1148 ;;		Nothing
  1149 ;; This function is called by:
  1150 ;;		_main
  1151 ;; This function uses a non-reentrant model
  1152 ;;
  1153                           
  1154                           
  1155                           ;psect for function _PORT_Select_Mux0
  1156  14E0                     _PORT_Select_Mux0:
  1157  14E0                     l2429:	
  1158                           ;incstack = 0
  1159                           ; Regs used in _PORT_Select_Mux0: [wreg+status,2+status,0+btemp+1]
  1160                           
  1161                           
  1162                           ;port.c: 150:     PORTD |= 0x20;
  1163  14E0  1283               	bcf	3,5	;RP0=0, select bank0
  1164  14E1  1303               	bcf	3,6	;RP1=0, select bank0
  1165  14E2  1688               	bsf	8,5	;volatile
  1166  14E3                     l2431:
  1167                           
  1168                           ;port.c: 151:     PORTD &= 0xEF;
  1169  14E3  30EF               	movlw	239
  1170  14E4  00FF               	movwf	btemp+1
  1171  14E5  087F               	movf	btemp+1,w
  1172  14E6  0588               	andwf	8,f	;volatile
  1173  14E7                     l170:
  1174  14E7  0008               	return
  1175  14E8                     __end_of_PORT_Select_Mux0:
  1176                           
  1177                           	psect	text3
  1178  0801                     __ptext3:	
  1179 ;; *************** function _PORT_Init *****************
  1180 ;; Defined at:
  1181 ;;		line 44 in file "port.c"
  1182 ;; Parameters:    Size  Location     Type
  1183 ;;		None
  1184 ;; Auto vars:     Size  Location     Type
  1185 ;;		None
  1186 ;; Return value:  Size  Location     Type
  1187 ;;                  1    wreg      void 
  1188 ;; Registers used:
  1189 ;;		wreg, status,2, status,0, pclath, cstack
  1190 ;; Tracked objects:
  1191 ;;		On entry : 0/0
  1192 ;;		On exit  : 0/0
  1193 ;;		Unchanged: 0/0
  1194 ;; Data sizes:     COMMON   BANK0   BANK1   BANK3   BANK2
  1195 ;;      Params:         0       0       0       0       0
  1196 ;;      Locals:         0       0       0       0       0
  1197 ;;      Temps:          1       0       0       0       0
  1198 ;;      Totals:         1       0       0       0       0
  1199 ;;Total ram usage:        1 bytes
  1200 ;; Hardware stack levels used:    1
  1201 ;; Hardware stack levels required when called:    2
  1202 ;; This function calls:
  1203 ;;		_PORT_Init_Serial
  1204 ;; This function is called by:
  1205 ;;		_main
  1206 ;; This function uses a non-reentrant model
  1207 ;;
  1208                           
  1209                           
  1210                           ;psect for function _PORT_Init
  1211  0801                     _PORT_Init:
  1212  0801                     l2377:	
  1213                           ;incstack = 0
  1214                           ; Regs used in _PORT_Init: [wreg+status,2+status,0+pclath+cstack]
  1215                           
  1216                           
  1217                           ;port.c: 47:     WPUB=0;
  1218  0801  1683               	bsf	3,5	;RP0=1, select bank1
  1219  0802  1303               	bcf	3,6	;RP1=0, select bank1
  1220  0803  0195               	clrf	21	;volatile
  1221                           
  1222                           ;port.c: 48:     ANSELB = 0;
  1223  0804  1683               	bsf	3,5	;RP0=1, select bank3
  1224  0805  1703               	bsf	3,6	;RP1=1, select bank3
  1225  0806  0186               	clrf	6	;volatile
  1226  0807                     l2379:
  1227                           
  1228                           ;port.c: 51:     TRISB = 0xFE;
  1229  0807  30FE               	movlw	254
  1230  0808  1683               	bsf	3,5	;RP0=1, select bank1
  1231  0809  1303               	bcf	3,6	;RP1=0, select bank1
  1232  080A  0086               	movwf	6	;volatile
  1233  080B                     l2381:
  1234                           
  1235                           ;port.c: 54:     OSCCON = 0x30;
  1236  080B  3030               	movlw	48
  1237  080C  0090               	movwf	16	;volatile
  1238  080D                     l2383:	
  1239                           ;port.c: 55:     for( ; (OSCCON & 0xC) != 0xC ; );
  1240                           
  1241  080D  300C               	movlw	12
  1242  080E  0510               	andwf	16,w	;volatile
  1243  080F  00F2               	movwf	??_PORT_Init
  1244  0810  300C               	movlw	12
  1245  0811  0672               	xorwf	??_PORT_Init,w
  1246  0812  1D03               	btfss	3,2
  1247  0813  2815               	goto	u3571
  1248  0814  2816               	goto	u3570
  1249  0815                     u3571:
  1250  0815  280D               	goto	l2383
  1251  0816                     u3570:
  1252  0816                     l2385:
  1253                           
  1254                           ;port.c: 59:     ANSELD = 0x00;
  1255  0816  1683               	bsf	3,5	;RP0=1, select bank3
  1256  0817  1703               	bsf	3,6	;RP1=1, select bank3
  1257  0818  0188               	clrf	8	;volatile
  1258  0819                     l2387:
  1259                           
  1260                           ;port.c: 62:     TRISA = 0xFF;
  1261  0819  30FF               	movlw	255
  1262  081A  1683               	bsf	3,5	;RP0=1, select bank1
  1263  081B  1303               	bcf	3,6	;RP1=0, select bank1
  1264  081C  0085               	movwf	5	;volatile
  1265  081D                     l2389:
  1266                           
  1267                           ;port.c: 64:     TRISD = 0xC0;
  1268  081D  30C0               	movlw	192
  1269  081E  0088               	movwf	8	;volatile
  1270  081F                     l2391:
  1271                           
  1272                           ;port.c: 66:     PORT_Init_Serial();
  1273  081F  120A  118A  27D3  120A  158A  	fcall	_PORT_Init_Serial
  1274  0824                     l2393:
  1275                           
  1276                           ;port.c: 68:     ANSELA = 0x01;
  1277  0824  3001               	movlw	1
  1278  0825  1683               	bsf	3,5	;RP0=1, select bank3
  1279  0826  1703               	bsf	3,6	;RP1=1, select bank3
  1280  0827  0085               	movwf	5	;volatile
  1281  0828                     l2395:
  1282                           
  1283                           ;port.c: 70:     ADCON0=0x01;
  1284  0828  3001               	movlw	1
  1285  0829  1283               	bcf	3,5	;RP0=0, select bank0
  1286  082A  1303               	bcf	3,6	;RP1=0, select bank0
  1287  082B  009F               	movwf	31	;volatile
  1288  082C                     l2397:
  1289                           
  1290                           ;port.c: 71:     ADCON1=0x60;
  1291  082C  3060               	movlw	96
  1292  082D  1683               	bsf	3,5	;RP0=1, select bank1
  1293  082E  1303               	bcf	3,6	;RP1=0, select bank1
  1294  082F  009F               	movwf	31	;volatile
  1295  0830                     l2399:
  1296                           
  1297                           ;port.c: 73:     FVRCON=0;
  1298  0830  019D               	clrf	29	;volatile
  1299  0831                     l2401:
  1300                           
  1301                           ;port.c: 74:     DACCON0=0x0;
  1302  0831  1283               	bcf	3,5	;RP0=0, select bank2
  1303  0832  1703               	bsf	3,6	;RP1=1, select bank2
  1304  0833  0193               	clrf	19	;volatile
  1305  0834                     l2403:
  1306                           
  1307                           ;port.c: 75:     DACCON0=0x60;
  1308  0834  3060               	movlw	96
  1309  0835  0093               	movwf	19	;volatile
  1310  0836                     l2405:
  1311                           
  1312                           ;port.c: 76:     DACCON0|=0x80;
  1313  0836  1793               	bsf	19,7	;volatile
  1314  0837                     l2407:
  1315                           
  1316                           ;port.c: 78:     DACCON1=0x18;
  1317  0837  3018               	movlw	24
  1318  0838  0094               	movwf	20	;volatile
  1319  0839                     l139:
  1320  0839  0008               	return
  1321  083A                     __end_of_PORT_Init:
  1322                           
  1323                           	psect	text4
  1324  07D3                     __ptext4:	
  1325 ;; *************** function _PORT_Init_Serial *****************
  1326 ;; Defined at:
  1327 ;;		line 15 in file "port.c"
  1328 ;; Parameters:    Size  Location     Type
  1329 ;;		None
  1330 ;; Auto vars:     Size  Location     Type
  1331 ;;		None
  1332 ;; Return value:  Size  Location     Type
  1333 ;;                  1    wreg      void 
  1334 ;; Registers used:
  1335 ;;		wreg, status,2
  1336 ;; Tracked objects:
  1337 ;;		On entry : 0/0
  1338 ;;		On exit  : 0/0
  1339 ;;		Unchanged: 0/0
  1340 ;; Data sizes:     COMMON   BANK0   BANK1   BANK3   BANK2
  1341 ;;      Params:         0       0       0       0       0
  1342 ;;      Locals:         0       0       0       0       0
  1343 ;;      Temps:          0       0       0       0       0
  1344 ;;      Totals:         0       0       0       0       0
  1345 ;;Total ram usage:        0 bytes
  1346 ;; Hardware stack levels used:    1
  1347 ;; Hardware stack levels required when called:    1
  1348 ;; This function calls:
  1349 ;;		Nothing
  1350 ;; This function is called by:
  1351 ;;		_PORT_Init
  1352 ;; This function uses a non-reentrant model
  1353 ;;
  1354                           
  1355                           
  1356                           ;psect for function _PORT_Init_Serial
  1357  07D3                     _PORT_Init_Serial:
  1358  07D3                     l2355:	
  1359                           ;incstack = 0
  1360                           ; Regs used in _PORT_Init_Serial: [wreg+status,2]
  1361                           
  1362                           
  1363                           ;port.c: 18:     TRISC = 0xFC;
  1364  07D3  30FC               	movlw	252
  1365  07D4  1683               	bsf	3,5	;RP0=1, select bank1
  1366  07D5  1303               	bcf	3,6	;RP1=0, select bank1
  1367  07D6  0087               	movwf	7	;volatile
  1368                           
  1369                           ;port.c: 21:     SPBRG = 25;
  1370  07D7  3019               	movlw	25
  1371  07D8  0099               	movwf	25	;volatile
  1372  07D9                     l2357:
  1373                           
  1374                           ;port.c: 25:     TXSTA = TXSTA & 0xDF;
  1375  07D9  0818               	movf	24,w	;volatile
  1376  07DA  39DF               	andlw	223
  1377  07DB  0098               	movwf	24	;volatile
  1378  07DC                     l2359:
  1379                           
  1380                           ;port.c: 26:     TXSTA = TXSTA | 1;
  1381  07DC  0818               	movf	24,w	;volatile
  1382  07DD  3801               	iorlw	1
  1383  07DE  0098               	movwf	24	;volatile
  1384  07DF                     l2361:
  1385                           
  1386                           ;port.c: 27:     TXSTA = TXSTA & 0xFB;
  1387  07DF  0818               	movf	24,w	;volatile
  1388  07E0  39FB               	andlw	251
  1389  07E1  0098               	movwf	24	;volatile
  1390  07E2                     l2363:
  1391                           
  1392                           ;port.c: 30:     RCSTA = RCSTA | 0x20;
  1393  07E2  1283               	bcf	3,5	;RP0=0, select bank0
  1394  07E3  1303               	bcf	3,6	;RP1=0, select bank0
  1395  07E4  0818               	movf	24,w	;volatile
  1396  07E5  3820               	iorlw	32
  1397  07E6  0098               	movwf	24	;volatile
  1398  07E7                     l2365:
  1399                           
  1400                           ;port.c: 31:     RCSTA = RCSTA & 0xDF;
  1401  07E7  0818               	movf	24,w	;volatile
  1402  07E8  39DF               	andlw	223
  1403  07E9  0098               	movwf	24	;volatile
  1404  07EA                     l2367:
  1405                           
  1406                           ;port.c: 32:     RCSTA = RCSTA | 0x04;
  1407  07EA  0818               	movf	24,w	;volatile
  1408  07EB  3804               	iorlw	4
  1409  07EC  0098               	movwf	24	;volatile
  1410  07ED                     l2369:
  1411                           
  1412                           ;port.c: 33:     RCSTA = RCSTA | 0x02;
  1413  07ED  0818               	movf	24,w	;volatile
  1414  07EE  3802               	iorlw	2
  1415  07EF  0098               	movwf	24	;volatile
  1416  07F0                     l2371:
  1417                           
  1418                           ;port.c: 35:     TXSTA = TXSTA & 0xEF;
  1419  07F0  1683               	bsf	3,5	;RP0=1, select bank1
  1420  07F1  1303               	bcf	3,6	;RP1=0, select bank1
  1421  07F2  0818               	movf	24,w	;volatile
  1422  07F3  39EF               	andlw	239
  1423  07F4  0098               	movwf	24	;volatile
  1424  07F5                     l2373:
  1425                           
  1426                           ;port.c: 36:     TXSTA = TXSTA | 0x20;
  1427  07F5  0818               	movf	24,w	;volatile
  1428  07F6  3820               	iorlw	32
  1429  07F7  0098               	movwf	24	;volatile
  1430  07F8                     l2375:
  1431                           
  1432                           ;port.c: 37:     RCSTA = RCSTA | 0x80;
  1433  07F8  1283               	bcf	3,5	;RP0=0, select bank0
  1434  07F9  1303               	bcf	3,6	;RP1=0, select bank0
  1435  07FA  0818               	movf	24,w	;volatile
  1436  07FB  3880               	iorlw	128
  1437  07FC  0098               	movwf	24	;volatile
  1438  07FD                     l133:
  1439  07FD  0008               	return
  1440  07FE                     __end_of_PORT_Init_Serial:
  1441                           
  1442                           	psect	text5
  1443  14E8                     __ptext5:	
  1444 ;; *************** function _PORT_Blink_LED *****************
  1445 ;; Defined at:
  1446 ;;		line 84 in file "port.c"
  1447 ;; Parameters:    Size  Location     Type
  1448 ;;		None
  1449 ;; Auto vars:     Size  Location     Type
  1450 ;;		None
  1451 ;; Return value:  Size  Location     Type
  1452 ;;                  1    wreg      void 
  1453 ;; Registers used:
  1454 ;;		status,0
  1455 ;; Tracked objects:
  1456 ;;		On entry : 0/0
  1457 ;;		On exit  : 0/0
  1458 ;;		Unchanged: 0/0
  1459 ;; Data sizes:     COMMON   BANK0   BANK1   BANK3   BANK2
  1460 ;;      Params:         0       0       0       0       0
  1461 ;;      Locals:         0       0       0       0       0
  1462 ;;      Temps:          0       0       0       0       0
  1463 ;;      Totals:         0       0       0       0       0
  1464 ;;Total ram usage:        0 bytes
  1465 ;; Hardware stack levels used:    1
  1466 ;; Hardware stack levels required when called:    1
  1467 ;; This function calls:
  1468 ;;		Nothing
  1469 ;; This function is called by:
  1470 ;;		_main
  1471 ;; This function uses a non-reentrant model
  1472 ;;
  1473                           
  1474                           
  1475                           ;psect for function _PORT_Blink_LED
  1476  14E8                     _PORT_Blink_LED:
  1477  14E8                     l2433:	
  1478                           ;incstack = 0
  1479                           ; Regs used in _PORT_Blink_LED: [status,0]
  1480                           
  1481                           
  1482                           ;port.c: 85:     PORTBbits.RB0 = !PORTBbits.RB0;
  1483  14E8  1003               	clrc
  1484  14E9  1283               	bcf	3,5	;RP0=0, select bank0
  1485  14EA  1303               	bcf	3,6	;RP1=0, select bank0
  1486  14EB  1C06               	btfss	6,0	;volatile
  1487  14EC  1403               	setc
  1488  14ED  1803               	btfsc	3,0
  1489  14EE  2CF0               	goto	u3581
  1490  14EF  2CF4               	goto	u3580
  1491  14F0                     u3581:
  1492  14F0  1283               	bcf	3,5	;RP0=0, select bank0
  1493  14F1  1303               	bcf	3,6	;RP1=0, select bank0
  1494  14F2  1406               	bsf	6,0	;volatile
  1495  14F3  2CF7               	goto	u3594
  1496  14F4                     u3580:
  1497  14F4  1283               	bcf	3,5	;RP0=0, select bank0
  1498  14F5  1303               	bcf	3,6	;RP1=0, select bank0
  1499  14F6  1006               	bcf	6,0	;volatile
  1500  14F7                     u3594:
  1501  14F7                     l142:
  1502  14F7  0008               	return
  1503  14F8                     __end_of_PORT_Blink_LED:
  1504                           
  1505                           	psect	text6
  1506  161A                     __ptext6:	
  1507 ;; *************** function _Get_Newton *****************
  1508 ;; Defined at:
  1509 ;;		line 241 in file "main.c"
  1510 ;; Parameters:    Size  Location     Type
  1511 ;;  INTER0          1    wreg     unsigned char 
  1512 ;;  INTER1          1   39[BANK1 ] unsigned char 
  1513 ;;  sensor_Chann    1   40[BANK1 ] unsigned char 
  1514 ;; Auto vars:     Size  Location     Type
  1515 ;;  INTER0          1   55[BANK1 ] unsigned char 
  1516 ;;  Rc              4   51[BANK1 ] float 
  1517 ;;  Vs              4   47[BANK1 ] float 
  1518 ;;  F               4    0        float 
  1519 ;;  R               2   45[BANK1 ] unsigned int 
  1520 ;;  sensor_value    1   56[BANK1 ] unsigned char 
  1521 ;; Return value:  Size  Location     Type
  1522 ;;                  4   39[BANK1 ] float 
  1523 ;; Registers used:
  1524 ;;		wreg, fsr0l, fsr0h, status,2, status,0, btemp+1, pclath, cstack
  1525 ;; Tracked objects:
  1526 ;;		On entry : 0/0
  1527 ;;		On exit  : 0/0
  1528 ;;		Unchanged: 0/0
  1529 ;; Data sizes:     COMMON   BANK0   BANK1   BANK3   BANK2
  1530 ;;      Params:         0       0       2       0       0
  1531 ;;      Locals:         0       0      16       0       0
  1532 ;;      Temps:          0       0       0       0       0
  1533 ;;      Totals:         0       0      18       0       0
  1534 ;;Total ram usage:       18 bytes
  1535 ;; Hardware stack levels used:    1
  1536 ;; Hardware stack levels required when called:    4
  1537 ;; This function calls:
  1538 ;;		_ADC_GetValue
  1539 ;;		_PORT_Change_Gain
  1540 ;;		_Resistance_Value
  1541 ;;		_Voltage_Value
  1542 ;;		_conversion_newton
  1543 ;; This function is called by:
  1544 ;;		_main
  1545 ;; This function uses a non-reentrant model
  1546 ;;
  1547                           
  1548                           
  1549                           ;psect for function _Get_Newton
  1550  161A                     _Get_Newton:
  1551                           
  1552                           ;incstack = 0
  1553                           ; Regs used in _Get_Newton: [wreg-fsr0h+status,2+status,0+btemp+1+pclath+cstack]
  1554                           ;Get_Newton@INTER0 stored from wreg
  1555  161A  1683               	bsf	3,5	;RP0=1, select bank1
  1556  161B  1303               	bcf	3,6	;RP1=0, select bank1
  1557  161C  00D7               	movwf	Get_Newton@INTER0^(0+128)
  1558  161D                     l2435:
  1559                           
  1560                           ;main.c: 243:     unsigned char sensor_value;;main.c: 244:     unsigned int R;;main.c: 2
      +                          45:     float Vs,F,Rc;;main.c: 247:     PORT_Change_Gain(INTER0,INTER1);
  1561  161D  0847               	movf	Get_Newton@INTER1^(0+128),w
  1562  161E  00FF               	movwf	btemp+1
  1563  161F  087F               	movf	btemp+1,w
  1564  1620  00F2               	movwf	PORT_Change_Gain@INTER1
  1565  1621  0857               	movf	Get_Newton@INTER0^(0+128),w
  1566  1622  160A  118A  2547  160A  118A  	fcall	_PORT_Change_Gain
  1567                           
  1568                           ;main.c: 249:     sensor_value = ADC_GetValue(sensor_Channel);
  1569  1627  1683               	bsf	3,5	;RP0=1, select bank1
  1570  1628  1303               	bcf	3,6	;RP1=0, select bank1
  1571  1629  0848               	movf	Get_Newton@sensor_Channel^(0+128),w
  1572  162A  160A  118A  250A  160A  118A  	fcall	_ADC_GetValue
  1573  162F  00FF               	movwf	btemp+1
  1574  1630  087F               	movf	btemp+1,w
  1575  1631  1683               	bsf	3,5	;RP0=1, select bank1
  1576  1632  1303               	bcf	3,6	;RP1=0, select bank1
  1577  1633  00D8               	movwf	Get_Newton@sensor_value^(0+128)
  1578                           
  1579                           ;main.c: 250:     Vs = Voltage_Value(sensor_value);
  1580  1634  0858               	movf	Get_Newton@sensor_value^(0+128),w
  1581  1635  160A  118A  266D  160A  118A  	fcall	_Voltage_Value
  1582  163A  1683               	bsf	3,5	;RP0=1, select bank1
  1583  163B  1303               	bcf	3,6	;RP1=0, select bank1
  1584  163C  0823               	movf	(?_Voltage_Value+3)^(0+128),w
  1585  163D  00D2               	movwf	(Get_Newton@Vs+3)^(0+128)
  1586  163E  0822               	movf	(?_Voltage_Value+2)^(0+128),w
  1587  163F  00D1               	movwf	(Get_Newton@Vs+2)^(0+128)
  1588  1640  0821               	movf	(?_Voltage_Value+1)^(0+128),w
  1589  1641  00D0               	movwf	(Get_Newton@Vs+1)^(0+128)
  1590  1642  0820               	movf	?_Voltage_Value^(0+128),w
  1591  1643  00CF               	movwf	Get_Newton@Vs^(0+128)
  1592                           
  1593                           ;main.c: 251:     Rc = Resistance_Value(Vs, R);
  1594  1644  0852               	movf	(Get_Newton@Vs+3)^(0+128),w
  1595  1645  00A3               	movwf	(Resistance_Value@Voltage+3)^(0+128)
  1596  1646  0851               	movf	(Get_Newton@Vs+2)^(0+128),w
  1597  1647  00A2               	movwf	(Resistance_Value@Voltage+2)^(0+128)
  1598  1648  0850               	movf	(Get_Newton@Vs+1)^(0+128),w
  1599  1649  00A1               	movwf	(Resistance_Value@Voltage+1)^(0+128)
  1600  164A  084F               	movf	Get_Newton@Vs^(0+128),w
  1601  164B  00A0               	movwf	Resistance_Value@Voltage^(0+128)
  1602  164C  084E               	movf	(Get_Newton@R+1)^(0+128),w
  1603  164D  00A5               	movwf	(Resistance_Value@R+1)^(0+128)
  1604  164E  084D               	movf	Get_Newton@R^(0+128),w
  1605  164F  00A4               	movwf	Resistance_Value@R^(0+128)
  1606  1650  160A  118A  26CE  160A  118A  	fcall	_Resistance_Value
  1607  1655  1683               	bsf	3,5	;RP0=1, select bank1
  1608  1656  1303               	bcf	3,6	;RP1=0, select bank1
  1609  1657  0823               	movf	(?_Resistance_Value+3)^(0+128),w
  1610  1658  00D6               	movwf	(Get_Newton@Rc+3)^(0+128)
  1611  1659  0822               	movf	(?_Resistance_Value+2)^(0+128),w
  1612  165A  00D5               	movwf	(Get_Newton@Rc+2)^(0+128)
  1613  165B  0821               	movf	(?_Resistance_Value+1)^(0+128),w
  1614  165C  00D4               	movwf	(Get_Newton@Rc+1)^(0+128)
  1615  165D  0820               	movf	?_Resistance_Value^(0+128),w
  1616  165E  00D3               	movwf	Get_Newton@Rc^(0+128)
  1617  165F                     l2437:
  1618  165F  0856               	movf	(Get_Newton@Rc+3)^(0+128),w
  1619  1660  00A3               	movwf	(conversion_newton@Rc+3)^(0+128)
  1620  1661  0855               	movf	(Get_Newton@Rc+2)^(0+128),w
  1621  1662  00A2               	movwf	(conversion_newton@Rc+2)^(0+128)
  1622  1663  0854               	movf	(Get_Newton@Rc+1)^(0+128),w
  1623  1664  00A1               	movwf	(conversion_newton@Rc+1)^(0+128)
  1624  1665  0853               	movf	Get_Newton@Rc^(0+128),w
  1625  1666  00A0               	movwf	conversion_newton@Rc^(0+128)
  1626  1667  120A  118A  2016  160A  118A  	fcall	_conversion_newton
  1627  166C                     l73:
  1628  166C  0008               	return
  1629  166D                     __end_of_Get_Newton:
  1630                           
  1631                           	psect	text7
  1632  0016                     __ptext7:	
  1633 ;; *************** function _conversion_newton *****************
  1634 ;; Defined at:
  1635 ;;		line 172 in file "main.c"
  1636 ;; Parameters:    Size  Location     Type
  1637 ;;  Rc              4    0[BANK1 ] float 
  1638 ;; Auto vars:     Size  Location     Type
  1639 ;;  F               4   33[BANK1 ] float 
  1640 ;;  n               2   37[BANK1 ] int 
  1641 ;; Return value:  Size  Location     Type
  1642 ;;                  4    0[BANK1 ] float 
  1643 ;; Registers used:
  1644 ;;		wreg, fsr0l, fsr0h, status,2, status,0, btemp+1, pclath, cstack
  1645 ;; Tracked objects:
  1646 ;;		On entry : 0/0
  1647 ;;		On exit  : 0/0
  1648 ;;		Unchanged: 0/0
  1649 ;; Data sizes:     COMMON   BANK0   BANK1   BANK3   BANK2
  1650 ;;      Params:         0       0       4       0       0
  1651 ;;      Locals:         0       0      10       0       0
  1652 ;;      Temps:          0       0      25       0       0
  1653 ;;      Totals:         0       0      39       0       0
  1654 ;;Total ram usage:       39 bytes
  1655 ;; Hardware stack levels used:    1
  1656 ;; Hardware stack levels required when called:    3
  1657 ;; This function calls:
  1658 ;;		___fladd
  1659 ;;		___fldiv
  1660 ;;		___flge
  1661 ;;		___flmul
  1662 ;;		___flsub
  1663 ;; This function is called by:
  1664 ;;		_Get_Newton
  1665 ;; This function uses a non-reentrant model
  1666 ;;
  1667                           
  1668                           
  1669                           ;psect for function _conversion_newton
  1670  0016                     _conversion_newton:
  1671  0016                     l2247:	
  1672                           ;incstack = 0
  1673                           ; Regs used in _conversion_newton: [wreg-fsr0h+status,2+status,0+btemp+1+pclath+cstack]
  1674                           
  1675                           
  1676                           ;main.c: 173:      float F;;main.c: 174:      int n;;main.c: 175:      const float F_tab
      +                          [20]={70,35,30,28,25,20,19,18,15,13,10,7, 5.4, 4, 3, 2.2, 1.5, 0.9, 0.45, 0.12};;main.c:
      +                           176:      const float R_tab[20]={2000,2500,2600,2700,2900,3200,3400,3500,3900,4300,4800
      +                          ,5500,6800,8500,11000,16000,27000,45000,65000,95000};;main.c: 179:      if (Rc <= R_tab[
      +                          1])
  1677  0016  3005               	movlw	low (((conversion_newton@R_tab+4)-__stringbase)| (0+32768))
  1678  0017  0084               	movwf	4
  1679  0018  160A  118A  2000  120A  118A  	fcall	stringdir
  1680  001D  1683               	bsf	3,5	;RP0=1, select bank1
  1681  001E  1303               	bcf	3,6	;RP1=0, select bank1
  1682  001F  00A4               	movwf	??_conversion_newton^(0+128)
  1683  0020  160A  118A  2000  120A  118A  	fcall	stringdir
  1684  0025  00A5               	movwf	(??_conversion_newton^(0+128)+1)
  1685  0026  160A  118A  2000  120A  118A  	fcall	stringdir
  1686  002B  00A6               	movwf	(??_conversion_newton^(0+128)+2)
  1687  002C  160A  118A  2000  120A  118A  	fcall	stringdir
  1688  0031  00A7               	movwf	(??_conversion_newton^(0+128)+3)
  1689  0032  0827               	movf	(??_conversion_newton+3)^(0+128),w
  1690  0033  00F5               	movwf	___flge@ff1+3
  1691  0034  0826               	movf	(??_conversion_newton+2)^(0+128),w
  1692  0035  00F4               	movwf	___flge@ff1+2
  1693  0036  0825               	movf	(??_conversion_newton+1)^(0+128),w
  1694  0037  00F3               	movwf	___flge@ff1+1
  1695  0038  0824               	movf	??_conversion_newton^(0+128),w
  1696  0039  00F2               	movwf	___flge@ff1
  1697  003A  0823               	movf	(conversion_newton@Rc+3)^(0+128),w
  1698  003B  00F9               	movwf	___flge@ff2+3
  1699  003C  0822               	movf	(conversion_newton@Rc+2)^(0+128),w
  1700  003D  00F8               	movwf	___flge@ff2+2
  1701  003E  0821               	movf	(conversion_newton@Rc+1)^(0+128),w
  1702  003F  00F7               	movwf	___flge@ff2+1
  1703  0040  0820               	movf	conversion_newton@Rc^(0+128),w
  1704  0041  00F6               	movwf	___flge@ff2
  1705  0042  160A  118A  275C  120A  118A  	fcall	___flge
  1706  0047  1C03               	btfss	3,0
  1707  0048  284A               	goto	u3251
  1708  0049  284B               	goto	u3250
  1709  004A                     u3251:
  1710  004A  284F               	goto	l2251
  1711  004B                     u3250:
  1712  004B                     l2249:
  1713                           
  1714                           ;main.c: 180:          {;main.c: 181:          n = 0;
  1715  004B  1683               	bsf	3,5	;RP0=1, select bank1
  1716  004C  1303               	bcf	3,6	;RP1=0, select bank1
  1717  004D  01C5               	clrf	conversion_newton@n^(0+128)
  1718  004E  01C6               	clrf	(conversion_newton@n+1)^(0+128)
  1719  004F                     l2251:
  1720                           
  1721                           ;main.c: 183:      if ((Rc <= R_tab[2]) && (Rc > R_tab[1]))
  1722  004F  3009               	movlw	low (((conversion_newton@R_tab+8)-__stringbase)| (0+32768))
  1723  0050  0084               	movwf	4
  1724  0051  160A  118A  2000  120A  118A  	fcall	stringdir
  1725  0056  1683               	bsf	3,5	;RP0=1, select bank1
  1726  0057  1303               	bcf	3,6	;RP1=0, select bank1
  1727  0058  00A4               	movwf	??_conversion_newton^(0+128)
  1728  0059  160A  118A  2000  120A  118A  	fcall	stringdir
  1729  005E  00A5               	movwf	(??_conversion_newton^(0+128)+1)
  1730  005F  160A  118A  2000  120A  118A  	fcall	stringdir
  1731  0064  00A6               	movwf	(??_conversion_newton^(0+128)+2)
  1732  0065  160A  118A  2000  120A  118A  	fcall	stringdir
  1733  006A  00A7               	movwf	(??_conversion_newton^(0+128)+3)
  1734  006B  0827               	movf	(??_conversion_newton+3)^(0+128),w
  1735  006C  00F5               	movwf	___flge@ff1+3
  1736  006D  0826               	movf	(??_conversion_newton+2)^(0+128),w
  1737  006E  00F4               	movwf	___flge@ff1+2
  1738  006F  0825               	movf	(??_conversion_newton+1)^(0+128),w
  1739  0070  00F3               	movwf	___flge@ff1+1
  1740  0071  0824               	movf	??_conversion_newton^(0+128),w
  1741  0072  00F2               	movwf	___flge@ff1
  1742  0073  0823               	movf	(conversion_newton@Rc+3)^(0+128),w
  1743  0074  00F9               	movwf	___flge@ff2+3
  1744  0075  0822               	movf	(conversion_newton@Rc+2)^(0+128),w
  1745  0076  00F8               	movwf	___flge@ff2+2
  1746  0077  0821               	movf	(conversion_newton@Rc+1)^(0+128),w
  1747  0078  00F7               	movwf	___flge@ff2+1
  1748  0079  0820               	movf	conversion_newton@Rc^(0+128),w
  1749  007A  00F6               	movwf	___flge@ff2
  1750  007B  160A  118A  275C  120A  118A  	fcall	___flge
  1751  0080  1C03               	btfss	3,0
  1752  0081  2883               	goto	u3261
  1753  0082  2884               	goto	u3260
  1754  0083                     u3261:
  1755  0083  28C0               	goto	l2257
  1756  0084                     u3260:
  1757  0084                     l2253:
  1758  0084  3005               	movlw	low (((conversion_newton@R_tab+4)-__stringbase)| (0+32768))
  1759  0085  0084               	movwf	4
  1760  0086  160A  118A  2000  120A  118A  	fcall	stringdir
  1761  008B  1683               	bsf	3,5	;RP0=1, select bank1
  1762  008C  1303               	bcf	3,6	;RP1=0, select bank1
  1763  008D  00A4               	movwf	??_conversion_newton^(0+128)
  1764  008E  160A  118A  2000  120A  118A  	fcall	stringdir
  1765  0093  00A5               	movwf	(??_conversion_newton^(0+128)+1)
  1766  0094  160A  118A  2000  120A  118A  	fcall	stringdir
  1767  0099  00A6               	movwf	(??_conversion_newton^(0+128)+2)
  1768  009A  160A  118A  2000  120A  118A  	fcall	stringdir
  1769  009F  00A7               	movwf	(??_conversion_newton^(0+128)+3)
  1770  00A0  0827               	movf	(??_conversion_newton+3)^(0+128),w
  1771  00A1  00F5               	movwf	___flge@ff1+3
  1772  00A2  0826               	movf	(??_conversion_newton+2)^(0+128),w
  1773  00A3  00F4               	movwf	___flge@ff1+2
  1774  00A4  0825               	movf	(??_conversion_newton+1)^(0+128),w
  1775  00A5  00F3               	movwf	___flge@ff1+1
  1776  00A6  0824               	movf	??_conversion_newton^(0+128),w
  1777  00A7  00F2               	movwf	___flge@ff1
  1778  00A8  0823               	movf	(conversion_newton@Rc+3)^(0+128),w
  1779  00A9  00F9               	movwf	___flge@ff2+3
  1780  00AA  0822               	movf	(conversion_newton@Rc+2)^(0+128),w
  1781  00AB  00F8               	movwf	___flge@ff2+2
  1782  00AC  0821               	movf	(conversion_newton@Rc+1)^(0+128),w
  1783  00AD  00F7               	movwf	___flge@ff2+1
  1784  00AE  0820               	movf	conversion_newton@Rc^(0+128),w
  1785  00AF  00F6               	movwf	___flge@ff2
  1786  00B0  160A  118A  275C  120A  118A  	fcall	___flge
  1787  00B5  1803               	btfsc	3,0
  1788  00B6  28B8               	goto	u3271
  1789  00B7  28B9               	goto	u3270
  1790  00B8                     u3271:
  1791  00B8  28C0               	goto	l2257
  1792  00B9                     u3270:
  1793  00B9                     l2255:
  1794                           
  1795                           ;main.c: 184:          {;main.c: 185:          n = 1;
  1796  00B9  3001               	movlw	1
  1797  00BA  1683               	bsf	3,5	;RP0=1, select bank1
  1798  00BB  1303               	bcf	3,6	;RP1=0, select bank1
  1799  00BC  00C5               	movwf	conversion_newton@n^(0+128)
  1800  00BD  3000               	movlw	0
  1801  00BE  00C6               	movwf	(conversion_newton@n^(0+128)+1)
  1802                           
  1803                           ;main.c: 186:          }
  1804  00BF  2C84               	goto	l2309
  1805  00C0                     l2257:
  1806  00C0  300D               	movlw	low (((conversion_newton@R_tab+12)-__stringbase)| (0+32768))
  1807  00C1  0084               	movwf	4
  1808  00C2  160A  118A  2000  120A  118A  	fcall	stringdir
  1809  00C7  1683               	bsf	3,5	;RP0=1, select bank1
  1810  00C8  1303               	bcf	3,6	;RP1=0, select bank1
  1811  00C9  00A4               	movwf	??_conversion_newton^(0+128)
  1812  00CA  160A  118A  2000  120A  118A  	fcall	stringdir
  1813  00CF  00A5               	movwf	(??_conversion_newton^(0+128)+1)
  1814  00D0  160A  118A  2000  120A  118A  	fcall	stringdir
  1815  00D5  00A6               	movwf	(??_conversion_newton^(0+128)+2)
  1816  00D6  160A  118A  2000  120A  118A  	fcall	stringdir
  1817  00DB  00A7               	movwf	(??_conversion_newton^(0+128)+3)
  1818  00DC  0827               	movf	(??_conversion_newton+3)^(0+128),w
  1819  00DD  00F5               	movwf	___flge@ff1+3
  1820  00DE  0826               	movf	(??_conversion_newton+2)^(0+128),w
  1821  00DF  00F4               	movwf	___flge@ff1+2
  1822  00E0  0825               	movf	(??_conversion_newton+1)^(0+128),w
  1823  00E1  00F3               	movwf	___flge@ff1+1
  1824  00E2  0824               	movf	??_conversion_newton^(0+128),w
  1825  00E3  00F2               	movwf	___flge@ff1
  1826  00E4  0823               	movf	(conversion_newton@Rc+3)^(0+128),w
  1827  00E5  00F9               	movwf	___flge@ff2+3
  1828  00E6  0822               	movf	(conversion_newton@Rc+2)^(0+128),w
  1829  00E7  00F8               	movwf	___flge@ff2+2
  1830  00E8  0821               	movf	(conversion_newton@Rc+1)^(0+128),w
  1831  00E9  00F7               	movwf	___flge@ff2+1
  1832  00EA  0820               	movf	conversion_newton@Rc^(0+128),w
  1833  00EB  00F6               	movwf	___flge@ff2
  1834  00EC  160A  118A  275C  120A  118A  	fcall	___flge
  1835  00F1  1C03               	btfss	3,0
  1836  00F2  28F4               	goto	u3281
  1837  00F3  28F5               	goto	u3280
  1838  00F4                     u3281:
  1839  00F4  2931               	goto	l2263
  1840  00F5                     u3280:
  1841  00F5                     l2259:
  1842  00F5  3009               	movlw	low (((conversion_newton@R_tab+8)-__stringbase)| (0+32768))
  1843  00F6  0084               	movwf	4
  1844  00F7  160A  118A  2000  120A  118A  	fcall	stringdir
  1845  00FC  1683               	bsf	3,5	;RP0=1, select bank1
  1846  00FD  1303               	bcf	3,6	;RP1=0, select bank1
  1847  00FE  00A4               	movwf	??_conversion_newton^(0+128)
  1848  00FF  160A  118A  2000  120A  118A  	fcall	stringdir
  1849  0104  00A5               	movwf	(??_conversion_newton^(0+128)+1)
  1850  0105  160A  118A  2000  120A  118A  	fcall	stringdir
  1851  010A  00A6               	movwf	(??_conversion_newton^(0+128)+2)
  1852  010B  160A  118A  2000  120A  118A  	fcall	stringdir
  1853  0110  00A7               	movwf	(??_conversion_newton^(0+128)+3)
  1854  0111  0827               	movf	(??_conversion_newton+3)^(0+128),w
  1855  0112  00F5               	movwf	___flge@ff1+3
  1856  0113  0826               	movf	(??_conversion_newton+2)^(0+128),w
  1857  0114  00F4               	movwf	___flge@ff1+2
  1858  0115  0825               	movf	(??_conversion_newton+1)^(0+128),w
  1859  0116  00F3               	movwf	___flge@ff1+1
  1860  0117  0824               	movf	??_conversion_newton^(0+128),w
  1861  0118  00F2               	movwf	___flge@ff1
  1862  0119  0823               	movf	(conversion_newton@Rc+3)^(0+128),w
  1863  011A  00F9               	movwf	___flge@ff2+3
  1864  011B  0822               	movf	(conversion_newton@Rc+2)^(0+128),w
  1865  011C  00F8               	movwf	___flge@ff2+2
  1866  011D  0821               	movf	(conversion_newton@Rc+1)^(0+128),w
  1867  011E  00F7               	movwf	___flge@ff2+1
  1868  011F  0820               	movf	conversion_newton@Rc^(0+128),w
  1869  0120  00F6               	movwf	___flge@ff2
  1870  0121  160A  118A  275C  120A  118A  	fcall	___flge
  1871  0126  1803               	btfsc	3,0
  1872  0127  2929               	goto	u3291
  1873  0128  292A               	goto	u3290
  1874  0129                     u3291:
  1875  0129  2931               	goto	l2263
  1876  012A                     u3290:
  1877  012A                     l2261:
  1878                           
  1879                           ;main.c: 188:          {;main.c: 189:          n = 2;
  1880  012A  3002               	movlw	2
  1881  012B  1683               	bsf	3,5	;RP0=1, select bank1
  1882  012C  1303               	bcf	3,6	;RP1=0, select bank1
  1883  012D  00C5               	movwf	conversion_newton@n^(0+128)
  1884  012E  3000               	movlw	0
  1885  012F  00C6               	movwf	(conversion_newton@n^(0+128)+1)
  1886                           
  1887                           ;main.c: 190:          }
  1888  0130  2C84               	goto	l2309
  1889  0131                     l2263:
  1890  0131  3011               	movlw	low (((conversion_newton@R_tab+16)-__stringbase)| (0+32768))
  1891  0132  0084               	movwf	4
  1892  0133  160A  118A  2000  120A  118A  	fcall	stringdir
  1893  0138  1683               	bsf	3,5	;RP0=1, select bank1
  1894  0139  1303               	bcf	3,6	;RP1=0, select bank1
  1895  013A  00A4               	movwf	??_conversion_newton^(0+128)
  1896  013B  160A  118A  2000  120A  118A  	fcall	stringdir
  1897  0140  00A5               	movwf	(??_conversion_newton^(0+128)+1)
  1898  0141  160A  118A  2000  120A  118A  	fcall	stringdir
  1899  0146  00A6               	movwf	(??_conversion_newton^(0+128)+2)
  1900  0147  160A  118A  2000  120A  118A  	fcall	stringdir
  1901  014C  00A7               	movwf	(??_conversion_newton^(0+128)+3)
  1902  014D  0827               	movf	(??_conversion_newton+3)^(0+128),w
  1903  014E  00F5               	movwf	___flge@ff1+3
  1904  014F  0826               	movf	(??_conversion_newton+2)^(0+128),w
  1905  0150  00F4               	movwf	___flge@ff1+2
  1906  0151  0825               	movf	(??_conversion_newton+1)^(0+128),w
  1907  0152  00F3               	movwf	___flge@ff1+1
  1908  0153  0824               	movf	??_conversion_newton^(0+128),w
  1909  0154  00F2               	movwf	___flge@ff1
  1910  0155  0823               	movf	(conversion_newton@Rc+3)^(0+128),w
  1911  0156  00F9               	movwf	___flge@ff2+3
  1912  0157  0822               	movf	(conversion_newton@Rc+2)^(0+128),w
  1913  0158  00F8               	movwf	___flge@ff2+2
  1914  0159  0821               	movf	(conversion_newton@Rc+1)^(0+128),w
  1915  015A  00F7               	movwf	___flge@ff2+1
  1916  015B  0820               	movf	conversion_newton@Rc^(0+128),w
  1917  015C  00F6               	movwf	___flge@ff2
  1918  015D  160A  118A  275C  120A  118A  	fcall	___flge
  1919  0162  1C03               	btfss	3,0
  1920  0163  2965               	goto	u3301
  1921  0164  2966               	goto	u3300
  1922  0165                     u3301:
  1923  0165  29A2               	goto	l2269
  1924  0166                     u3300:
  1925  0166                     l2265:
  1926  0166  300D               	movlw	low (((conversion_newton@R_tab+12)-__stringbase)| (0+32768))
  1927  0167  0084               	movwf	4
  1928  0168  160A  118A  2000  120A  118A  	fcall	stringdir
  1929  016D  1683               	bsf	3,5	;RP0=1, select bank1
  1930  016E  1303               	bcf	3,6	;RP1=0, select bank1
  1931  016F  00A4               	movwf	??_conversion_newton^(0+128)
  1932  0170  160A  118A  2000  120A  118A  	fcall	stringdir
  1933  0175  00A5               	movwf	(??_conversion_newton^(0+128)+1)
  1934  0176  160A  118A  2000  120A  118A  	fcall	stringdir
  1935  017B  00A6               	movwf	(??_conversion_newton^(0+128)+2)
  1936  017C  160A  118A  2000  120A  118A  	fcall	stringdir
  1937  0181  00A7               	movwf	(??_conversion_newton^(0+128)+3)
  1938  0182  0827               	movf	(??_conversion_newton+3)^(0+128),w
  1939  0183  00F5               	movwf	___flge@ff1+3
  1940  0184  0826               	movf	(??_conversion_newton+2)^(0+128),w
  1941  0185  00F4               	movwf	___flge@ff1+2
  1942  0186  0825               	movf	(??_conversion_newton+1)^(0+128),w
  1943  0187  00F3               	movwf	___flge@ff1+1
  1944  0188  0824               	movf	??_conversion_newton^(0+128),w
  1945  0189  00F2               	movwf	___flge@ff1
  1946  018A  0823               	movf	(conversion_newton@Rc+3)^(0+128),w
  1947  018B  00F9               	movwf	___flge@ff2+3
  1948  018C  0822               	movf	(conversion_newton@Rc+2)^(0+128),w
  1949  018D  00F8               	movwf	___flge@ff2+2
  1950  018E  0821               	movf	(conversion_newton@Rc+1)^(0+128),w
  1951  018F  00F7               	movwf	___flge@ff2+1
  1952  0190  0820               	movf	conversion_newton@Rc^(0+128),w
  1953  0191  00F6               	movwf	___flge@ff2
  1954  0192  160A  118A  275C  120A  118A  	fcall	___flge
  1955  0197  1803               	btfsc	3,0
  1956  0198  299A               	goto	u3311
  1957  0199  299B               	goto	u3310
  1958  019A                     u3311:
  1959  019A  29A2               	goto	l2269
  1960  019B                     u3310:
  1961  019B                     l2267:
  1962                           
  1963                           ;main.c: 192:          {;main.c: 193:          n = 3;
  1964  019B  3003               	movlw	3
  1965  019C  1683               	bsf	3,5	;RP0=1, select bank1
  1966  019D  1303               	bcf	3,6	;RP1=0, select bank1
  1967  019E  00C5               	movwf	conversion_newton@n^(0+128)
  1968  019F  3000               	movlw	0
  1969  01A0  00C6               	movwf	(conversion_newton@n^(0+128)+1)
  1970                           
  1971                           ;main.c: 194:          }
  1972  01A1  2C84               	goto	l2309
  1973  01A2                     l2269:
  1974  01A2  3015               	movlw	low (((conversion_newton@R_tab+20)-__stringbase)| (0+32768))
  1975  01A3  0084               	movwf	4
  1976  01A4  160A  118A  2000  120A  118A  	fcall	stringdir
  1977  01A9  1683               	bsf	3,5	;RP0=1, select bank1
  1978  01AA  1303               	bcf	3,6	;RP1=0, select bank1
  1979  01AB  00A4               	movwf	??_conversion_newton^(0+128)
  1980  01AC  160A  118A  2000  120A  118A  	fcall	stringdir
  1981  01B1  00A5               	movwf	(??_conversion_newton^(0+128)+1)
  1982  01B2  160A  118A  2000  120A  118A  	fcall	stringdir
  1983  01B7  00A6               	movwf	(??_conversion_newton^(0+128)+2)
  1984  01B8  160A  118A  2000  120A  118A  	fcall	stringdir
  1985  01BD  00A7               	movwf	(??_conversion_newton^(0+128)+3)
  1986  01BE  0827               	movf	(??_conversion_newton+3)^(0+128),w
  1987  01BF  00F5               	movwf	___flge@ff1+3
  1988  01C0  0826               	movf	(??_conversion_newton+2)^(0+128),w
  1989  01C1  00F4               	movwf	___flge@ff1+2
  1990  01C2  0825               	movf	(??_conversion_newton+1)^(0+128),w
  1991  01C3  00F3               	movwf	___flge@ff1+1
  1992  01C4  0824               	movf	??_conversion_newton^(0+128),w
  1993  01C5  00F2               	movwf	___flge@ff1
  1994  01C6  0823               	movf	(conversion_newton@Rc+3)^(0+128),w
  1995  01C7  00F9               	movwf	___flge@ff2+3
  1996  01C8  0822               	movf	(conversion_newton@Rc+2)^(0+128),w
  1997  01C9  00F8               	movwf	___flge@ff2+2
  1998  01CA  0821               	movf	(conversion_newton@Rc+1)^(0+128),w
  1999  01CB  00F7               	movwf	___flge@ff2+1
  2000  01CC  0820               	movf	conversion_newton@Rc^(0+128),w
  2001  01CD  00F6               	movwf	___flge@ff2
  2002  01CE  160A  118A  275C  120A  118A  	fcall	___flge
  2003  01D3  1C03               	btfss	3,0
  2004  01D4  29D6               	goto	u3321
  2005  01D5  29D7               	goto	u3320
  2006  01D6                     u3321:
  2007  01D6  2A13               	goto	l2275
  2008  01D7                     u3320:
  2009  01D7                     l2271:
  2010  01D7  3011               	movlw	low (((conversion_newton@R_tab+16)-__stringbase)| (0+32768))
  2011  01D8  0084               	movwf	4
  2012  01D9  160A  118A  2000  120A  118A  	fcall	stringdir
  2013  01DE  1683               	bsf	3,5	;RP0=1, select bank1
  2014  01DF  1303               	bcf	3,6	;RP1=0, select bank1
  2015  01E0  00A4               	movwf	??_conversion_newton^(0+128)
  2016  01E1  160A  118A  2000  120A  118A  	fcall	stringdir
  2017  01E6  00A5               	movwf	(??_conversion_newton^(0+128)+1)
  2018  01E7  160A  118A  2000  120A  118A  	fcall	stringdir
  2019  01EC  00A6               	movwf	(??_conversion_newton^(0+128)+2)
  2020  01ED  160A  118A  2000  120A  118A  	fcall	stringdir
  2021  01F2  00A7               	movwf	(??_conversion_newton^(0+128)+3)
  2022  01F3  0827               	movf	(??_conversion_newton+3)^(0+128),w
  2023  01F4  00F5               	movwf	___flge@ff1+3
  2024  01F5  0826               	movf	(??_conversion_newton+2)^(0+128),w
  2025  01F6  00F4               	movwf	___flge@ff1+2
  2026  01F7  0825               	movf	(??_conversion_newton+1)^(0+128),w
  2027  01F8  00F3               	movwf	___flge@ff1+1
  2028  01F9  0824               	movf	??_conversion_newton^(0+128),w
  2029  01FA  00F2               	movwf	___flge@ff1
  2030  01FB  0823               	movf	(conversion_newton@Rc+3)^(0+128),w
  2031  01FC  00F9               	movwf	___flge@ff2+3
  2032  01FD  0822               	movf	(conversion_newton@Rc+2)^(0+128),w
  2033  01FE  00F8               	movwf	___flge@ff2+2
  2034  01FF  0821               	movf	(conversion_newton@Rc+1)^(0+128),w
  2035  0200  00F7               	movwf	___flge@ff2+1
  2036  0201  0820               	movf	conversion_newton@Rc^(0+128),w
  2037  0202  00F6               	movwf	___flge@ff2
  2038  0203  160A  118A  275C  120A  118A  	fcall	___flge
  2039  0208  1803               	btfsc	3,0
  2040  0209  2A0B               	goto	u3331
  2041  020A  2A0C               	goto	u3330
  2042  020B                     u3331:
  2043  020B  2A13               	goto	l2275
  2044  020C                     u3330:
  2045  020C                     l2273:
  2046                           
  2047                           ;main.c: 196:          {;main.c: 197:          n = 4;
  2048  020C  3004               	movlw	4
  2049  020D  1683               	bsf	3,5	;RP0=1, select bank1
  2050  020E  1303               	bcf	3,6	;RP1=0, select bank1
  2051  020F  00C5               	movwf	conversion_newton@n^(0+128)
  2052  0210  3000               	movlw	0
  2053  0211  00C6               	movwf	(conversion_newton@n^(0+128)+1)
  2054                           
  2055                           ;main.c: 198:          }
  2056  0212  2C84               	goto	l2309
  2057  0213                     l2275:
  2058  0213  3019               	movlw	low (((conversion_newton@R_tab+24)-__stringbase)| (0+32768))
  2059  0214  0084               	movwf	4
  2060  0215  160A  118A  2000  120A  118A  	fcall	stringdir
  2061  021A  1683               	bsf	3,5	;RP0=1, select bank1
  2062  021B  1303               	bcf	3,6	;RP1=0, select bank1
  2063  021C  00A4               	movwf	??_conversion_newton^(0+128)
  2064  021D  160A  118A  2000  120A  118A  	fcall	stringdir
  2065  0222  00A5               	movwf	(??_conversion_newton^(0+128)+1)
  2066  0223  160A  118A  2000  120A  118A  	fcall	stringdir
  2067  0228  00A6               	movwf	(??_conversion_newton^(0+128)+2)
  2068  0229  160A  118A  2000  120A  118A  	fcall	stringdir
  2069  022E  00A7               	movwf	(??_conversion_newton^(0+128)+3)
  2070  022F  0827               	movf	(??_conversion_newton+3)^(0+128),w
  2071  0230  00F5               	movwf	___flge@ff1+3
  2072  0231  0826               	movf	(??_conversion_newton+2)^(0+128),w
  2073  0232  00F4               	movwf	___flge@ff1+2
  2074  0233  0825               	movf	(??_conversion_newton+1)^(0+128),w
  2075  0234  00F3               	movwf	___flge@ff1+1
  2076  0235  0824               	movf	??_conversion_newton^(0+128),w
  2077  0236  00F2               	movwf	___flge@ff1
  2078  0237  0823               	movf	(conversion_newton@Rc+3)^(0+128),w
  2079  0238  00F9               	movwf	___flge@ff2+3
  2080  0239  0822               	movf	(conversion_newton@Rc+2)^(0+128),w
  2081  023A  00F8               	movwf	___flge@ff2+2
  2082  023B  0821               	movf	(conversion_newton@Rc+1)^(0+128),w
  2083  023C  00F7               	movwf	___flge@ff2+1
  2084  023D  0820               	movf	conversion_newton@Rc^(0+128),w
  2085  023E  00F6               	movwf	___flge@ff2
  2086  023F  160A  118A  275C  120A  118A  	fcall	___flge
  2087  0244  1C03               	btfss	3,0
  2088  0245  2A47               	goto	u3341
  2089  0246  2A48               	goto	u3340
  2090  0247                     u3341:
  2091  0247  2A84               	goto	l2281
  2092  0248                     u3340:
  2093  0248                     l2277:
  2094  0248  3015               	movlw	low (((conversion_newton@R_tab+20)-__stringbase)| (0+32768))
  2095  0249  0084               	movwf	4
  2096  024A  160A  118A  2000  120A  118A  	fcall	stringdir
  2097  024F  1683               	bsf	3,5	;RP0=1, select bank1
  2098  0250  1303               	bcf	3,6	;RP1=0, select bank1
  2099  0251  00A4               	movwf	??_conversion_newton^(0+128)
  2100  0252  160A  118A  2000  120A  118A  	fcall	stringdir
  2101  0257  00A5               	movwf	(??_conversion_newton^(0+128)+1)
  2102  0258  160A  118A  2000  120A  118A  	fcall	stringdir
  2103  025D  00A6               	movwf	(??_conversion_newton^(0+128)+2)
  2104  025E  160A  118A  2000  120A  118A  	fcall	stringdir
  2105  0263  00A7               	movwf	(??_conversion_newton^(0+128)+3)
  2106  0264  0827               	movf	(??_conversion_newton+3)^(0+128),w
  2107  0265  00F5               	movwf	___flge@ff1+3
  2108  0266  0826               	movf	(??_conversion_newton+2)^(0+128),w
  2109  0267  00F4               	movwf	___flge@ff1+2
  2110  0268  0825               	movf	(??_conversion_newton+1)^(0+128),w
  2111  0269  00F3               	movwf	___flge@ff1+1
  2112  026A  0824               	movf	??_conversion_newton^(0+128),w
  2113  026B  00F2               	movwf	___flge@ff1
  2114  026C  0823               	movf	(conversion_newton@Rc+3)^(0+128),w
  2115  026D  00F9               	movwf	___flge@ff2+3
  2116  026E  0822               	movf	(conversion_newton@Rc+2)^(0+128),w
  2117  026F  00F8               	movwf	___flge@ff2+2
  2118  0270  0821               	movf	(conversion_newton@Rc+1)^(0+128),w
  2119  0271  00F7               	movwf	___flge@ff2+1
  2120  0272  0820               	movf	conversion_newton@Rc^(0+128),w
  2121  0273  00F6               	movwf	___flge@ff2
  2122  0274  160A  118A  275C  120A  118A  	fcall	___flge
  2123  0279  1803               	btfsc	3,0
  2124  027A  2A7C               	goto	u3351
  2125  027B  2A7D               	goto	u3350
  2126  027C                     u3351:
  2127  027C  2A84               	goto	l2281
  2128  027D                     u3350:
  2129  027D                     l2279:
  2130                           
  2131                           ;main.c: 200:          {;main.c: 201:          n = 5;
  2132  027D  3005               	movlw	5
  2133  027E  1683               	bsf	3,5	;RP0=1, select bank1
  2134  027F  1303               	bcf	3,6	;RP1=0, select bank1
  2135  0280  00C5               	movwf	conversion_newton@n^(0+128)
  2136  0281  3000               	movlw	0
  2137  0282  00C6               	movwf	(conversion_newton@n^(0+128)+1)
  2138                           
  2139                           ;main.c: 202:          }
  2140  0283  2C84               	goto	l2309
  2141  0284                     l2281:
  2142  0284  301D               	movlw	low (((conversion_newton@R_tab+28)-__stringbase)| (0+32768))
  2143  0285  0084               	movwf	4
  2144  0286  160A  118A  2000  120A  118A  	fcall	stringdir
  2145  028B  1683               	bsf	3,5	;RP0=1, select bank1
  2146  028C  1303               	bcf	3,6	;RP1=0, select bank1
  2147  028D  00A4               	movwf	??_conversion_newton^(0+128)
  2148  028E  160A  118A  2000  120A  118A  	fcall	stringdir
  2149  0293  00A5               	movwf	(??_conversion_newton^(0+128)+1)
  2150  0294  160A  118A  2000  120A  118A  	fcall	stringdir
  2151  0299  00A6               	movwf	(??_conversion_newton^(0+128)+2)
  2152  029A  160A  118A  2000  120A  118A  	fcall	stringdir
  2153  029F  00A7               	movwf	(??_conversion_newton^(0+128)+3)
  2154  02A0  0827               	movf	(??_conversion_newton+3)^(0+128),w
  2155  02A1  00F5               	movwf	___flge@ff1+3
  2156  02A2  0826               	movf	(??_conversion_newton+2)^(0+128),w
  2157  02A3  00F4               	movwf	___flge@ff1+2
  2158  02A4  0825               	movf	(??_conversion_newton+1)^(0+128),w
  2159  02A5  00F3               	movwf	___flge@ff1+1
  2160  02A6  0824               	movf	??_conversion_newton^(0+128),w
  2161  02A7  00F2               	movwf	___flge@ff1
  2162  02A8  0823               	movf	(conversion_newton@Rc+3)^(0+128),w
  2163  02A9  00F9               	movwf	___flge@ff2+3
  2164  02AA  0822               	movf	(conversion_newton@Rc+2)^(0+128),w
  2165  02AB  00F8               	movwf	___flge@ff2+2
  2166  02AC  0821               	movf	(conversion_newton@Rc+1)^(0+128),w
  2167  02AD  00F7               	movwf	___flge@ff2+1
  2168  02AE  0820               	movf	conversion_newton@Rc^(0+128),w
  2169  02AF  00F6               	movwf	___flge@ff2
  2170  02B0  160A  118A  275C  120A  118A  	fcall	___flge
  2171  02B5  1C03               	btfss	3,0
  2172  02B6  2AB8               	goto	u3361
  2173  02B7  2AB9               	goto	u3360
  2174  02B8                     u3361:
  2175  02B8  2AF5               	goto	l2287
  2176  02B9                     u3360:
  2177  02B9                     l2283:
  2178  02B9  3019               	movlw	low (((conversion_newton@R_tab+24)-__stringbase)| (0+32768))
  2179  02BA  0084               	movwf	4
  2180  02BB  160A  118A  2000  120A  118A  	fcall	stringdir
  2181  02C0  1683               	bsf	3,5	;RP0=1, select bank1
  2182  02C1  1303               	bcf	3,6	;RP1=0, select bank1
  2183  02C2  00A4               	movwf	??_conversion_newton^(0+128)
  2184  02C3  160A  118A  2000  120A  118A  	fcall	stringdir
  2185  02C8  00A5               	movwf	(??_conversion_newton^(0+128)+1)
  2186  02C9  160A  118A  2000  120A  118A  	fcall	stringdir
  2187  02CE  00A6               	movwf	(??_conversion_newton^(0+128)+2)
  2188  02CF  160A  118A  2000  120A  118A  	fcall	stringdir
  2189  02D4  00A7               	movwf	(??_conversion_newton^(0+128)+3)
  2190  02D5  0827               	movf	(??_conversion_newton+3)^(0+128),w
  2191  02D6  00F5               	movwf	___flge@ff1+3
  2192  02D7  0826               	movf	(??_conversion_newton+2)^(0+128),w
  2193  02D8  00F4               	movwf	___flge@ff1+2
  2194  02D9  0825               	movf	(??_conversion_newton+1)^(0+128),w
  2195  02DA  00F3               	movwf	___flge@ff1+1
  2196  02DB  0824               	movf	??_conversion_newton^(0+128),w
  2197  02DC  00F2               	movwf	___flge@ff1
  2198  02DD  0823               	movf	(conversion_newton@Rc+3)^(0+128),w
  2199  02DE  00F9               	movwf	___flge@ff2+3
  2200  02DF  0822               	movf	(conversion_newton@Rc+2)^(0+128),w
  2201  02E0  00F8               	movwf	___flge@ff2+2
  2202  02E1  0821               	movf	(conversion_newton@Rc+1)^(0+128),w
  2203  02E2  00F7               	movwf	___flge@ff2+1
  2204  02E3  0820               	movf	conversion_newton@Rc^(0+128),w
  2205  02E4  00F6               	movwf	___flge@ff2
  2206  02E5  160A  118A  275C  120A  118A  	fcall	___flge
  2207  02EA  1803               	btfsc	3,0
  2208  02EB  2AED               	goto	u3371
  2209  02EC  2AEE               	goto	u3370
  2210  02ED                     u3371:
  2211  02ED  2AF5               	goto	l2287
  2212  02EE                     u3370:
  2213  02EE                     l2285:
  2214                           
  2215                           ;main.c: 204:          {;main.c: 205:          n = 6;
  2216  02EE  3006               	movlw	6
  2217  02EF  1683               	bsf	3,5	;RP0=1, select bank1
  2218  02F0  1303               	bcf	3,6	;RP1=0, select bank1
  2219  02F1  00C5               	movwf	conversion_newton@n^(0+128)
  2220  02F2  3000               	movlw	0
  2221  02F3  00C6               	movwf	(conversion_newton@n^(0+128)+1)
  2222                           
  2223                           ;main.c: 206:          }
  2224  02F4  2C84               	goto	l2309
  2225  02F5                     l2287:
  2226  02F5  3021               	movlw	low (((conversion_newton@R_tab+32)-__stringbase)| (0+32768))
  2227  02F6  0084               	movwf	4
  2228  02F7  160A  118A  2000  120A  118A  	fcall	stringdir
  2229  02FC  1683               	bsf	3,5	;RP0=1, select bank1
  2230  02FD  1303               	bcf	3,6	;RP1=0, select bank1
  2231  02FE  00A4               	movwf	??_conversion_newton^(0+128)
  2232  02FF  160A  118A  2000  120A  118A  	fcall	stringdir
  2233  0304  00A5               	movwf	(??_conversion_newton^(0+128)+1)
  2234  0305  160A  118A  2000  120A  118A  	fcall	stringdir
  2235  030A  00A6               	movwf	(??_conversion_newton^(0+128)+2)
  2236  030B  160A  118A  2000  120A  118A  	fcall	stringdir
  2237  0310  00A7               	movwf	(??_conversion_newton^(0+128)+3)
  2238  0311  0827               	movf	(??_conversion_newton+3)^(0+128),w
  2239  0312  00F5               	movwf	___flge@ff1+3
  2240  0313  0826               	movf	(??_conversion_newton+2)^(0+128),w
  2241  0314  00F4               	movwf	___flge@ff1+2
  2242  0315  0825               	movf	(??_conversion_newton+1)^(0+128),w
  2243  0316  00F3               	movwf	___flge@ff1+1
  2244  0317  0824               	movf	??_conversion_newton^(0+128),w
  2245  0318  00F2               	movwf	___flge@ff1
  2246  0319  0823               	movf	(conversion_newton@Rc+3)^(0+128),w
  2247  031A  00F9               	movwf	___flge@ff2+3
  2248  031B  0822               	movf	(conversion_newton@Rc+2)^(0+128),w
  2249  031C  00F8               	movwf	___flge@ff2+2
  2250  031D  0821               	movf	(conversion_newton@Rc+1)^(0+128),w
  2251  031E  00F7               	movwf	___flge@ff2+1
  2252  031F  0820               	movf	conversion_newton@Rc^(0+128),w
  2253  0320  00F6               	movwf	___flge@ff2
  2254  0321  160A  118A  275C  120A  118A  	fcall	___flge
  2255  0326  1C03               	btfss	3,0
  2256  0327  2B29               	goto	u3381
  2257  0328  2B2A               	goto	u3380
  2258  0329                     u3381:
  2259  0329  2B66               	goto	l2293
  2260  032A                     u3380:
  2261  032A                     l2289:
  2262  032A  301D               	movlw	low (((conversion_newton@R_tab+28)-__stringbase)| (0+32768))
  2263  032B  0084               	movwf	4
  2264  032C  160A  118A  2000  120A  118A  	fcall	stringdir
  2265  0331  1683               	bsf	3,5	;RP0=1, select bank1
  2266  0332  1303               	bcf	3,6	;RP1=0, select bank1
  2267  0333  00A4               	movwf	??_conversion_newton^(0+128)
  2268  0334  160A  118A  2000  120A  118A  	fcall	stringdir
  2269  0339  00A5               	movwf	(??_conversion_newton^(0+128)+1)
  2270  033A  160A  118A  2000  120A  118A  	fcall	stringdir
  2271  033F  00A6               	movwf	(??_conversion_newton^(0+128)+2)
  2272  0340  160A  118A  2000  120A  118A  	fcall	stringdir
  2273  0345  00A7               	movwf	(??_conversion_newton^(0+128)+3)
  2274  0346  0827               	movf	(??_conversion_newton+3)^(0+128),w
  2275  0347  00F5               	movwf	___flge@ff1+3
  2276  0348  0826               	movf	(??_conversion_newton+2)^(0+128),w
  2277  0349  00F4               	movwf	___flge@ff1+2
  2278  034A  0825               	movf	(??_conversion_newton+1)^(0+128),w
  2279  034B  00F3               	movwf	___flge@ff1+1
  2280  034C  0824               	movf	??_conversion_newton^(0+128),w
  2281  034D  00F2               	movwf	___flge@ff1
  2282  034E  0823               	movf	(conversion_newton@Rc+3)^(0+128),w
  2283  034F  00F9               	movwf	___flge@ff2+3
  2284  0350  0822               	movf	(conversion_newton@Rc+2)^(0+128),w
  2285  0351  00F8               	movwf	___flge@ff2+2
  2286  0352  0821               	movf	(conversion_newton@Rc+1)^(0+128),w
  2287  0353  00F7               	movwf	___flge@ff2+1
  2288  0354  0820               	movf	conversion_newton@Rc^(0+128),w
  2289  0355  00F6               	movwf	___flge@ff2
  2290  0356  160A  118A  275C  120A  118A  	fcall	___flge
  2291  035B  1803               	btfsc	3,0
  2292  035C  2B5E               	goto	u3391
  2293  035D  2B5F               	goto	u3390
  2294  035E                     u3391:
  2295  035E  2B66               	goto	l2293
  2296  035F                     u3390:
  2297  035F                     l2291:
  2298                           
  2299                           ;main.c: 208:          {;main.c: 209:          n = 7;
  2300  035F  3007               	movlw	7
  2301  0360  1683               	bsf	3,5	;RP0=1, select bank1
  2302  0361  1303               	bcf	3,6	;RP1=0, select bank1
  2303  0362  00C5               	movwf	conversion_newton@n^(0+128)
  2304  0363  3000               	movlw	0
  2305  0364  00C6               	movwf	(conversion_newton@n^(0+128)+1)
  2306                           
  2307                           ;main.c: 210:          }
  2308  0365  2C84               	goto	l2309
  2309  0366                     l2293:
  2310  0366  3025               	movlw	low (((conversion_newton@R_tab+36)-__stringbase)| (0+32768))
  2311  0367  0084               	movwf	4
  2312  0368  160A  118A  2000  120A  118A  	fcall	stringdir
  2313  036D  1683               	bsf	3,5	;RP0=1, select bank1
  2314  036E  1303               	bcf	3,6	;RP1=0, select bank1
  2315  036F  00A4               	movwf	??_conversion_newton^(0+128)
  2316  0370  160A  118A  2000  120A  118A  	fcall	stringdir
  2317  0375  00A5               	movwf	(??_conversion_newton^(0+128)+1)
  2318  0376  160A  118A  2000  120A  118A  	fcall	stringdir
  2319  037B  00A6               	movwf	(??_conversion_newton^(0+128)+2)
  2320  037C  160A  118A  2000  120A  118A  	fcall	stringdir
  2321  0381  00A7               	movwf	(??_conversion_newton^(0+128)+3)
  2322  0382  0827               	movf	(??_conversion_newton+3)^(0+128),w
  2323  0383  00F5               	movwf	___flge@ff1+3
  2324  0384  0826               	movf	(??_conversion_newton+2)^(0+128),w
  2325  0385  00F4               	movwf	___flge@ff1+2
  2326  0386  0825               	movf	(??_conversion_newton+1)^(0+128),w
  2327  0387  00F3               	movwf	___flge@ff1+1
  2328  0388  0824               	movf	??_conversion_newton^(0+128),w
  2329  0389  00F2               	movwf	___flge@ff1
  2330  038A  0823               	movf	(conversion_newton@Rc+3)^(0+128),w
  2331  038B  00F9               	movwf	___flge@ff2+3
  2332  038C  0822               	movf	(conversion_newton@Rc+2)^(0+128),w
  2333  038D  00F8               	movwf	___flge@ff2+2
  2334  038E  0821               	movf	(conversion_newton@Rc+1)^(0+128),w
  2335  038F  00F7               	movwf	___flge@ff2+1
  2336  0390  0820               	movf	conversion_newton@Rc^(0+128),w
  2337  0391  00F6               	movwf	___flge@ff2
  2338  0392  160A  118A  275C  120A  118A  	fcall	___flge
  2339  0397  1C03               	btfss	3,0
  2340  0398  2B9A               	goto	u3401
  2341  0399  2B9B               	goto	u3400
  2342  039A                     u3401:
  2343  039A  2BD7               	goto	l2299
  2344  039B                     u3400:
  2345  039B                     l2295:
  2346  039B  3021               	movlw	low (((conversion_newton@R_tab+32)-__stringbase)| (0+32768))
  2347  039C  0084               	movwf	4
  2348  039D  160A  118A  2000  120A  118A  	fcall	stringdir
  2349  03A2  1683               	bsf	3,5	;RP0=1, select bank1
  2350  03A3  1303               	bcf	3,6	;RP1=0, select bank1
  2351  03A4  00A4               	movwf	??_conversion_newton^(0+128)
  2352  03A5  160A  118A  2000  120A  118A  	fcall	stringdir
  2353  03AA  00A5               	movwf	(??_conversion_newton^(0+128)+1)
  2354  03AB  160A  118A  2000  120A  118A  	fcall	stringdir
  2355  03B0  00A6               	movwf	(??_conversion_newton^(0+128)+2)
  2356  03B1  160A  118A  2000  120A  118A  	fcall	stringdir
  2357  03B6  00A7               	movwf	(??_conversion_newton^(0+128)+3)
  2358  03B7  0827               	movf	(??_conversion_newton+3)^(0+128),w
  2359  03B8  00F5               	movwf	___flge@ff1+3
  2360  03B9  0826               	movf	(??_conversion_newton+2)^(0+128),w
  2361  03BA  00F4               	movwf	___flge@ff1+2
  2362  03BB  0825               	movf	(??_conversion_newton+1)^(0+128),w
  2363  03BC  00F3               	movwf	___flge@ff1+1
  2364  03BD  0824               	movf	??_conversion_newton^(0+128),w
  2365  03BE  00F2               	movwf	___flge@ff1
  2366  03BF  0823               	movf	(conversion_newton@Rc+3)^(0+128),w
  2367  03C0  00F9               	movwf	___flge@ff2+3
  2368  03C1  0822               	movf	(conversion_newton@Rc+2)^(0+128),w
  2369  03C2  00F8               	movwf	___flge@ff2+2
  2370  03C3  0821               	movf	(conversion_newton@Rc+1)^(0+128),w
  2371  03C4  00F7               	movwf	___flge@ff2+1
  2372  03C5  0820               	movf	conversion_newton@Rc^(0+128),w
  2373  03C6  00F6               	movwf	___flge@ff2
  2374  03C7  160A  118A  275C  120A  118A  	fcall	___flge
  2375  03CC  1803               	btfsc	3,0
  2376  03CD  2BCF               	goto	u3411
  2377  03CE  2BD0               	goto	u3410
  2378  03CF                     u3411:
  2379  03CF  2BD7               	goto	l2299
  2380  03D0                     u3410:
  2381  03D0                     l2297:
  2382                           
  2383                           ;main.c: 212:          {;main.c: 213:          n = 8;
  2384  03D0  3008               	movlw	8
  2385  03D1  1683               	bsf	3,5	;RP0=1, select bank1
  2386  03D2  1303               	bcf	3,6	;RP1=0, select bank1
  2387  03D3  00C5               	movwf	conversion_newton@n^(0+128)
  2388  03D4  3000               	movlw	0
  2389  03D5  00C6               	movwf	(conversion_newton@n^(0+128)+1)
  2390                           
  2391                           ;main.c: 214:          }
  2392  03D6  2C84               	goto	l2309
  2393  03D7                     l2299:
  2394  03D7  3029               	movlw	low (((conversion_newton@R_tab+40)-__stringbase)| (0+32768))
  2395  03D8  0084               	movwf	4
  2396  03D9  160A  118A  2000  120A  118A  	fcall	stringdir
  2397  03DE  1683               	bsf	3,5	;RP0=1, select bank1
  2398  03DF  1303               	bcf	3,6	;RP1=0, select bank1
  2399  03E0  00A4               	movwf	??_conversion_newton^(0+128)
  2400  03E1  160A  118A  2000  120A  118A  	fcall	stringdir
  2401  03E6  00A5               	movwf	(??_conversion_newton^(0+128)+1)
  2402  03E7  160A  118A  2000  120A  118A  	fcall	stringdir
  2403  03EC  00A6               	movwf	(??_conversion_newton^(0+128)+2)
  2404  03ED  160A  118A  2000  120A  118A  	fcall	stringdir
  2405  03F2  00A7               	movwf	(??_conversion_newton^(0+128)+3)
  2406  03F3  0827               	movf	(??_conversion_newton+3)^(0+128),w
  2407  03F4  00F5               	movwf	___flge@ff1+3
  2408  03F5  0826               	movf	(??_conversion_newton+2)^(0+128),w
  2409  03F6  00F4               	movwf	___flge@ff1+2
  2410  03F7  0825               	movf	(??_conversion_newton+1)^(0+128),w
  2411  03F8  00F3               	movwf	___flge@ff1+1
  2412  03F9  0824               	movf	??_conversion_newton^(0+128),w
  2413  03FA  00F2               	movwf	___flge@ff1
  2414  03FB  0823               	movf	(conversion_newton@Rc+3)^(0+128),w
  2415  03FC  00F9               	movwf	___flge@ff2+3
  2416  03FD  0822               	movf	(conversion_newton@Rc+2)^(0+128),w
  2417  03FE  00F8               	movwf	___flge@ff2+2
  2418  03FF  0821               	movf	(conversion_newton@Rc+1)^(0+128),w
  2419  0400  00F7               	movwf	___flge@ff2+1
  2420  0401  0820               	movf	conversion_newton@Rc^(0+128),w
  2421  0402  00F6               	movwf	___flge@ff2
  2422  0403  160A  118A  275C  120A  118A  	fcall	___flge
  2423  0408  1C03               	btfss	3,0
  2424  0409  2C0B               	goto	u3421
  2425  040A  2C0C               	goto	u3420
  2426  040B                     u3421:
  2427  040B  2C48               	goto	l2305
  2428  040C                     u3420:
  2429  040C                     l2301:
  2430  040C  3025               	movlw	low (((conversion_newton@R_tab+36)-__stringbase)| (0+32768))
  2431  040D  0084               	movwf	4
  2432  040E  160A  118A  2000  120A  118A  	fcall	stringdir
  2433  0413  1683               	bsf	3,5	;RP0=1, select bank1
  2434  0414  1303               	bcf	3,6	;RP1=0, select bank1
  2435  0415  00A4               	movwf	??_conversion_newton^(0+128)
  2436  0416  160A  118A  2000  120A  118A  	fcall	stringdir
  2437  041B  00A5               	movwf	(??_conversion_newton^(0+128)+1)
  2438  041C  160A  118A  2000  120A  118A  	fcall	stringdir
  2439  0421  00A6               	movwf	(??_conversion_newton^(0+128)+2)
  2440  0422  160A  118A  2000  120A  118A  	fcall	stringdir
  2441  0427  00A7               	movwf	(??_conversion_newton^(0+128)+3)
  2442  0428  0827               	movf	(??_conversion_newton+3)^(0+128),w
  2443  0429  00F5               	movwf	___flge@ff1+3
  2444  042A  0826               	movf	(??_conversion_newton+2)^(0+128),w
  2445  042B  00F4               	movwf	___flge@ff1+2
  2446  042C  0825               	movf	(??_conversion_newton+1)^(0+128),w
  2447  042D  00F3               	movwf	___flge@ff1+1
  2448  042E  0824               	movf	??_conversion_newton^(0+128),w
  2449  042F  00F2               	movwf	___flge@ff1
  2450  0430  0823               	movf	(conversion_newton@Rc+3)^(0+128),w
  2451  0431  00F9               	movwf	___flge@ff2+3
  2452  0432  0822               	movf	(conversion_newton@Rc+2)^(0+128),w
  2453  0433  00F8               	movwf	___flge@ff2+2
  2454  0434  0821               	movf	(conversion_newton@Rc+1)^(0+128),w
  2455  0435  00F7               	movwf	___flge@ff2+1
  2456  0436  0820               	movf	conversion_newton@Rc^(0+128),w
  2457  0437  00F6               	movwf	___flge@ff2
  2458  0438  160A  118A  275C  120A  118A  	fcall	___flge
  2459  043D  1803               	btfsc	3,0
  2460  043E  2C40               	goto	u3431
  2461  043F  2C41               	goto	u3430
  2462  0440                     u3431:
  2463  0440  2C48               	goto	l2305
  2464  0441                     u3430:
  2465  0441                     l2303:
  2466                           
  2467                           ;main.c: 216:          {;main.c: 217:          n = 9;
  2468  0441  3009               	movlw	9
  2469  0442  1683               	bsf	3,5	;RP0=1, select bank1
  2470  0443  1303               	bcf	3,6	;RP1=0, select bank1
  2471  0444  00C5               	movwf	conversion_newton@n^(0+128)
  2472  0445  3000               	movlw	0
  2473  0446  00C6               	movwf	(conversion_newton@n^(0+128)+1)
  2474                           
  2475                           ;main.c: 218:          }
  2476  0447  2C84               	goto	l2309
  2477  0448                     l2305:
  2478  0448  3029               	movlw	low (((conversion_newton@R_tab+40)-__stringbase)| (0+32768))
  2479  0449  0084               	movwf	4
  2480  044A  160A  118A  2000  120A  118A  	fcall	stringdir
  2481  044F  1683               	bsf	3,5	;RP0=1, select bank1
  2482  0450  1303               	bcf	3,6	;RP1=0, select bank1
  2483  0451  00A4               	movwf	??_conversion_newton^(0+128)
  2484  0452  160A  118A  2000  120A  118A  	fcall	stringdir
  2485  0457  00A5               	movwf	(??_conversion_newton^(0+128)+1)
  2486  0458  160A  118A  2000  120A  118A  	fcall	stringdir
  2487  045D  00A6               	movwf	(??_conversion_newton^(0+128)+2)
  2488  045E  160A  118A  2000  120A  118A  	fcall	stringdir
  2489  0463  00A7               	movwf	(??_conversion_newton^(0+128)+3)
  2490  0464  0827               	movf	(??_conversion_newton+3)^(0+128),w
  2491  0465  00F5               	movwf	___flge@ff1+3
  2492  0466  0826               	movf	(??_conversion_newton+2)^(0+128),w
  2493  0467  00F4               	movwf	___flge@ff1+2
  2494  0468  0825               	movf	(??_conversion_newton+1)^(0+128),w
  2495  0469  00F3               	movwf	___flge@ff1+1
  2496  046A  0824               	movf	??_conversion_newton^(0+128),w
  2497  046B  00F2               	movwf	___flge@ff1
  2498  046C  0823               	movf	(conversion_newton@Rc+3)^(0+128),w
  2499  046D  00F9               	movwf	___flge@ff2+3
  2500  046E  0822               	movf	(conversion_newton@Rc+2)^(0+128),w
  2501  046F  00F8               	movwf	___flge@ff2+2
  2502  0470  0821               	movf	(conversion_newton@Rc+1)^(0+128),w
  2503  0471  00F7               	movwf	___flge@ff2+1
  2504  0472  0820               	movf	conversion_newton@Rc^(0+128),w
  2505  0473  00F6               	movwf	___flge@ff2
  2506  0474  160A  118A  275C  120A  118A  	fcall	___flge
  2507  0479  1803               	btfsc	3,0
  2508  047A  2C7C               	goto	u3441
  2509  047B  2C7D               	goto	u3440
  2510  047C                     u3441:
  2511  047C  2C84               	goto	l62
  2512  047D                     u3440:
  2513  047D                     l2307:
  2514                           
  2515                           ;main.c: 220:          {;main.c: 221:          n = 10;
  2516  047D  300A               	movlw	10
  2517  047E  1683               	bsf	3,5	;RP0=1, select bank1
  2518  047F  1303               	bcf	3,6	;RP1=0, select bank1
  2519  0480  00C5               	movwf	conversion_newton@n^(0+128)
  2520  0481  3000               	movlw	0
  2521  0482  00C6               	movwf	(conversion_newton@n^(0+128)+1)
  2522  0483  2C84               	goto	l2309
  2523  0484                     l62:
  2524  0484                     l2309:
  2525                           
  2526                           ;main.c: 223:      F = (((F_tab[n]-F_tab[n+1])/(R_tab[n+1]-R_tab[n]))*(Rc-R_tab[n]))+F_t
      +                          ab[n];
  2527  0484  1683               	bsf	3,5	;RP0=1, select bank1
  2528  0485  1303               	bcf	3,6	;RP1=0, select bank1
  2529  0486  0845               	movf	conversion_newton@n^(0+128),w
  2530  0487  00A4               	movwf	??_conversion_newton^(0+128)
  2531  0488  3001               	movlw	1
  2532  0489                     u3455:
  2533  0489  1003               	clrc
  2534  048A  0DA4               	rlf	??_conversion_newton^(0+128),f
  2535  048B  3EFF               	addlw	-1
  2536  048C  1D03               	skipz
  2537  048D  2C89               	goto	u3455
  2538  048E  1003               	clrc
  2539  048F  0D24               	rlf	??_conversion_newton^(0+128),w
  2540  0490  3E01               	addlw	low ((conversion_newton@R_tab-__stringbase)| (0+32768))
  2541  0491  0084               	movwf	4
  2542  0492  160A  118A  2000  120A  118A  	fcall	stringdir
  2543  0497  00A5               	movwf	(??_conversion_newton+1)^(0+128)
  2544  0498  160A  118A  2000  120A  118A  	fcall	stringdir
  2545  049D  00A6               	movwf	((??_conversion_newton+1)^(0+128)+1)
  2546  049E  160A  118A  2000  120A  118A  	fcall	stringdir
  2547  04A3  00A7               	movwf	((??_conversion_newton+1)^(0+128)+2)
  2548  04A4  160A  118A  2000  120A  118A  	fcall	stringdir
  2549  04A9  00A8               	movwf	((??_conversion_newton+1)^(0+128)+3)
  2550  04AA  0828               	movf	(??_conversion_newton+4)^(0+128),w
  2551  04AB  1283               	bcf	3,5	;RP0=0, select bank0
  2552  04AC  1303               	bcf	3,6	;RP1=0, select bank0
  2553  04AD  00B7               	movwf	___flsub@a+3
  2554  04AE  1683               	bsf	3,5	;RP0=1, select bank1
  2555  04AF  1303               	bcf	3,6	;RP1=0, select bank1
  2556  04B0  0827               	movf	(??_conversion_newton+3)^(0+128),w
  2557  04B1  1283               	bcf	3,5	;RP0=0, select bank0
  2558  04B2  1303               	bcf	3,6	;RP1=0, select bank0
  2559  04B3  00B6               	movwf	___flsub@a+2
  2560  04B4  1683               	bsf	3,5	;RP0=1, select bank1
  2561  04B5  1303               	bcf	3,6	;RP1=0, select bank1
  2562  04B6  0826               	movf	(??_conversion_newton+2)^(0+128),w
  2563  04B7  1283               	bcf	3,5	;RP0=0, select bank0
  2564  04B8  1303               	bcf	3,6	;RP1=0, select bank0
  2565  04B9  00B5               	movwf	___flsub@a+1
  2566  04BA  1683               	bsf	3,5	;RP0=1, select bank1
  2567  04BB  1303               	bcf	3,6	;RP1=0, select bank1
  2568  04BC  0825               	movf	(??_conversion_newton+1)^(0+128),w
  2569  04BD  1283               	bcf	3,5	;RP0=0, select bank0
  2570  04BE  1303               	bcf	3,6	;RP1=0, select bank0
  2571  04BF  00B4               	movwf	___flsub@a
  2572  04C0  1683               	bsf	3,5	;RP0=1, select bank1
  2573  04C1  1303               	bcf	3,6	;RP1=0, select bank1
  2574  04C2  0823               	movf	(conversion_newton@Rc+3)^(0+128),w
  2575  04C3  1283               	bcf	3,5	;RP0=0, select bank0
  2576  04C4  1303               	bcf	3,6	;RP1=0, select bank0
  2577  04C5  00BB               	movwf	___flsub@b+3
  2578  04C6  1683               	bsf	3,5	;RP0=1, select bank1
  2579  04C7  1303               	bcf	3,6	;RP1=0, select bank1
  2580  04C8  0822               	movf	(conversion_newton@Rc+2)^(0+128),w
  2581  04C9  1283               	bcf	3,5	;RP0=0, select bank0
  2582  04CA  1303               	bcf	3,6	;RP1=0, select bank0
  2583  04CB  00BA               	movwf	___flsub@b+2
  2584  04CC  1683               	bsf	3,5	;RP0=1, select bank1
  2585  04CD  1303               	bcf	3,6	;RP1=0, select bank1
  2586  04CE  0821               	movf	(conversion_newton@Rc+1)^(0+128),w
  2587  04CF  1283               	bcf	3,5	;RP0=0, select bank0
  2588  04D0  1303               	bcf	3,6	;RP1=0, select bank0
  2589  04D1  00B9               	movwf	___flsub@b+1
  2590  04D2  1683               	bsf	3,5	;RP0=1, select bank1
  2591  04D3  1303               	bcf	3,6	;RP1=0, select bank1
  2592  04D4  0820               	movf	conversion_newton@Rc^(0+128),w
  2593  04D5  1283               	bcf	3,5	;RP0=0, select bank0
  2594  04D6  1303               	bcf	3,6	;RP1=0, select bank0
  2595  04D7  00B8               	movwf	___flsub@b
  2596  04D8  160A  118A  256B  120A  118A  	fcall	___flsub
  2597  04DD  1283               	bcf	3,5	;RP0=0, select bank0
  2598  04DE  1303               	bcf	3,6	;RP1=0, select bank0
  2599  04DF  0837               	movf	?___flsub+3,w
  2600  04E0  00D9               	movwf	___flmul@b+3
  2601  04E1  0836               	movf	?___flsub+2,w
  2602  04E2  00D8               	movwf	___flmul@b+2
  2603  04E3  0835               	movf	?___flsub+1,w
  2604  04E4  00D7               	movwf	___flmul@b+1
  2605  04E5  0834               	movf	?___flsub,w
  2606  04E6  00D6               	movwf	___flmul@b
  2607  04E7  1683               	bsf	3,5	;RP0=1, select bank1
  2608  04E8  1303               	bcf	3,6	;RP1=0, select bank1
  2609  04E9  0845               	movf	conversion_newton@n^(0+128),w
  2610  04EA  00A9               	movwf	(??_conversion_newton+5)^(0+128)
  2611  04EB  3001               	movlw	1
  2612  04EC                     u3465:
  2613  04EC  1003               	clrc
  2614  04ED  0DA9               	rlf	(??_conversion_newton+5)^(0+128),f
  2615  04EE  3EFF               	addlw	-1
  2616  04EF  1D03               	skipz
  2617  04F0  2CEC               	goto	u3465
  2618  04F1  1003               	clrc
  2619  04F2  0D29               	rlf	(??_conversion_newton+5)^(0+128),w
  2620  04F3  3E01               	addlw	low ((conversion_newton@R_tab-__stringbase)| (0+32768))
  2621  04F4  0084               	movwf	4
  2622  04F5  160A  118A  2000  120A  118A  	fcall	stringdir
  2623  04FA  00AA               	movwf	(??_conversion_newton+6)^(0+128)
  2624  04FB  160A  118A  2000  120A  118A  	fcall	stringdir
  2625  0500  00AB               	movwf	((??_conversion_newton+6)^(0+128)+1)
  2626  0501  160A  118A  2000  120A  118A  	fcall	stringdir
  2627  0506  00AC               	movwf	((??_conversion_newton+6)^(0+128)+2)
  2628  0507  160A  118A  2000  120A  118A  	fcall	stringdir
  2629  050C  00AD               	movwf	((??_conversion_newton+6)^(0+128)+3)
  2630  050D  082D               	movf	(??_conversion_newton+9)^(0+128),w
  2631  050E  1283               	bcf	3,5	;RP0=0, select bank0
  2632  050F  1303               	bcf	3,6	;RP1=0, select bank0
  2633  0510  00B7               	movwf	___flsub@a+3
  2634  0511  1683               	bsf	3,5	;RP0=1, select bank1
  2635  0512  1303               	bcf	3,6	;RP1=0, select bank1
  2636  0513  082C               	movf	(??_conversion_newton+8)^(0+128),w
  2637  0514  1283               	bcf	3,5	;RP0=0, select bank0
  2638  0515  1303               	bcf	3,6	;RP1=0, select bank0
  2639  0516  00B6               	movwf	___flsub@a+2
  2640  0517  1683               	bsf	3,5	;RP0=1, select bank1
  2641  0518  1303               	bcf	3,6	;RP1=0, select bank1
  2642  0519  082B               	movf	(??_conversion_newton+7)^(0+128),w
  2643  051A  1283               	bcf	3,5	;RP0=0, select bank0
  2644  051B  1303               	bcf	3,6	;RP1=0, select bank0
  2645  051C  00B5               	movwf	___flsub@a+1
  2646  051D  1683               	bsf	3,5	;RP0=1, select bank1
  2647  051E  1303               	bcf	3,6	;RP1=0, select bank1
  2648  051F  082A               	movf	(??_conversion_newton+6)^(0+128),w
  2649  0520  1283               	bcf	3,5	;RP0=0, select bank0
  2650  0521  1303               	bcf	3,6	;RP1=0, select bank0
  2651  0522  00B4               	movwf	___flsub@a
  2652  0523  1683               	bsf	3,5	;RP0=1, select bank1
  2653  0524  1303               	bcf	3,6	;RP1=0, select bank1
  2654  0525  0845               	movf	conversion_newton@n^(0+128),w
  2655  0526  00AE               	movwf	(??_conversion_newton+10)^(0+128)
  2656  0527  3001               	movlw	1
  2657  0528                     u3475:
  2658  0528  1003               	clrc
  2659  0529  0DAE               	rlf	(??_conversion_newton+10)^(0+128),f
  2660  052A  3EFF               	addlw	-1
  2661  052B  1D03               	skipz
  2662  052C  2D28               	goto	u3475
  2663  052D  1003               	clrc
  2664  052E  0D2E               	rlf	(??_conversion_newton+10)^(0+128),w
  2665  052F  3E05               	addlw	low (((conversion_newton@R_tab-__stringbase)| (0+32768)+4))
  2666  0530  0084               	movwf	4
  2667  0531  160A  118A  2000  120A  118A  	fcall	stringdir
  2668  0536  00AF               	movwf	(??_conversion_newton+11)^(0+128)
  2669  0537  160A  118A  2000  120A  118A  	fcall	stringdir
  2670  053C  00B0               	movwf	((??_conversion_newton+11)^(0+128)+1)
  2671  053D  160A  118A  2000  120A  118A  	fcall	stringdir
  2672  0542  00B1               	movwf	((??_conversion_newton+11)^(0+128)+2)
  2673  0543  160A  118A  2000  120A  118A  	fcall	stringdir
  2674  0548  00B2               	movwf	((??_conversion_newton+11)^(0+128)+3)
  2675  0549  0832               	movf	(??_conversion_newton+14)^(0+128),w
  2676  054A  1283               	bcf	3,5	;RP0=0, select bank0
  2677  054B  1303               	bcf	3,6	;RP1=0, select bank0
  2678  054C  00BB               	movwf	___flsub@b+3
  2679  054D  1683               	bsf	3,5	;RP0=1, select bank1
  2680  054E  1303               	bcf	3,6	;RP1=0, select bank1
  2681  054F  0831               	movf	(??_conversion_newton+13)^(0+128),w
  2682  0550  1283               	bcf	3,5	;RP0=0, select bank0
  2683  0551  1303               	bcf	3,6	;RP1=0, select bank0
  2684  0552  00BA               	movwf	___flsub@b+2
  2685  0553  1683               	bsf	3,5	;RP0=1, select bank1
  2686  0554  1303               	bcf	3,6	;RP1=0, select bank1
  2687  0555  0830               	movf	(??_conversion_newton+12)^(0+128),w
  2688  0556  1283               	bcf	3,5	;RP0=0, select bank0
  2689  0557  1303               	bcf	3,6	;RP1=0, select bank0
  2690  0558  00B9               	movwf	___flsub@b+1
  2691  0559  1683               	bsf	3,5	;RP0=1, select bank1
  2692  055A  1303               	bcf	3,6	;RP1=0, select bank1
  2693  055B  082F               	movf	(??_conversion_newton+11)^(0+128),w
  2694  055C  1283               	bcf	3,5	;RP0=0, select bank0
  2695  055D  1303               	bcf	3,6	;RP1=0, select bank0
  2696  055E  00B8               	movwf	___flsub@b
  2697  055F  160A  118A  256B  120A  118A  	fcall	___flsub
  2698  0564  1283               	bcf	3,5	;RP0=0, select bank0
  2699  0565  1303               	bcf	3,6	;RP1=0, select bank0
  2700  0566  0837               	movf	?___flsub+3,w
  2701  0567  00BF               	movwf	___fldiv@a+3
  2702  0568  0836               	movf	?___flsub+2,w
  2703  0569  00BE               	movwf	___fldiv@a+2
  2704  056A  0835               	movf	?___flsub+1,w
  2705  056B  00BD               	movwf	___fldiv@a+1
  2706  056C  0834               	movf	?___flsub,w
  2707  056D  00BC               	movwf	___fldiv@a
  2708  056E  1683               	bsf	3,5	;RP0=1, select bank1
  2709  056F  1303               	bcf	3,6	;RP1=0, select bank1
  2710  0570  0845               	movf	conversion_newton@n^(0+128),w
  2711  0571  00B3               	movwf	(??_conversion_newton+15)^(0+128)
  2712  0572  3001               	movlw	1
  2713  0573                     u3485:
  2714  0573  1003               	clrc
  2715  0574  0DB3               	rlf	(??_conversion_newton+15)^(0+128),f
  2716  0575  3EFF               	addlw	-1
  2717  0576  1D03               	skipz
  2718  0577  2D73               	goto	u3485
  2719  0578  1003               	clrc
  2720  0579  0D33               	rlf	(??_conversion_newton+15)^(0+128),w
  2721  057A  3E55               	addlw	low (((conversion_newton@F_tab-__stringbase)| (0+32768)+4))
  2722  057B  0084               	movwf	4
  2723  057C  160A  118A  2000  120A  118A  	fcall	stringdir
  2724  0581  00B4               	movwf	(??_conversion_newton+16)^(0+128)
  2725  0582  160A  118A  2000  120A  118A  	fcall	stringdir
  2726  0587  00B5               	movwf	((??_conversion_newton+16)^(0+128)+1)
  2727  0588  160A  118A  2000  120A  118A  	fcall	stringdir
  2728  058D  00B6               	movwf	((??_conversion_newton+16)^(0+128)+2)
  2729  058E  160A  118A  2000  120A  118A  	fcall	stringdir
  2730  0593  00B7               	movwf	((??_conversion_newton+16)^(0+128)+3)
  2731  0594  0837               	movf	(??_conversion_newton+19)^(0+128),w
  2732  0595  1283               	bcf	3,5	;RP0=0, select bank0
  2733  0596  1303               	bcf	3,6	;RP1=0, select bank0
  2734  0597  00B7               	movwf	___flsub@a+3
  2735  0598  1683               	bsf	3,5	;RP0=1, select bank1
  2736  0599  1303               	bcf	3,6	;RP1=0, select bank1
  2737  059A  0836               	movf	(??_conversion_newton+18)^(0+128),w
  2738  059B  1283               	bcf	3,5	;RP0=0, select bank0
  2739  059C  1303               	bcf	3,6	;RP1=0, select bank0
  2740  059D  00B6               	movwf	___flsub@a+2
  2741  059E  1683               	bsf	3,5	;RP0=1, select bank1
  2742  059F  1303               	bcf	3,6	;RP1=0, select bank1
  2743  05A0  0835               	movf	(??_conversion_newton+17)^(0+128),w
  2744  05A1  1283               	bcf	3,5	;RP0=0, select bank0
  2745  05A2  1303               	bcf	3,6	;RP1=0, select bank0
  2746  05A3  00B5               	movwf	___flsub@a+1
  2747  05A4  1683               	bsf	3,5	;RP0=1, select bank1
  2748  05A5  1303               	bcf	3,6	;RP1=0, select bank1
  2749  05A6  0834               	movf	(??_conversion_newton+16)^(0+128),w
  2750  05A7  1283               	bcf	3,5	;RP0=0, select bank0
  2751  05A8  1303               	bcf	3,6	;RP1=0, select bank0
  2752  05A9  00B4               	movwf	___flsub@a
  2753  05AA  1683               	bsf	3,5	;RP0=1, select bank1
  2754  05AB  1303               	bcf	3,6	;RP1=0, select bank1
  2755  05AC  0845               	movf	conversion_newton@n^(0+128),w
  2756  05AD  00B8               	movwf	(??_conversion_newton+20)^(0+128)
  2757  05AE  3001               	movlw	1
  2758  05AF                     u3495:
  2759  05AF  1003               	clrc
  2760  05B0  0DB8               	rlf	(??_conversion_newton+20)^(0+128),f
  2761  05B1  3EFF               	addlw	-1
  2762  05B2  1D03               	skipz
  2763  05B3  2DAF               	goto	u3495
  2764  05B4  1003               	clrc
  2765  05B5  0D38               	rlf	(??_conversion_newton+20)^(0+128),w
  2766  05B6  3E51               	addlw	low ((conversion_newton@F_tab-__stringbase)| (0+32768))
  2767  05B7  0084               	movwf	4
  2768  05B8  160A  118A  2000  120A  118A  	fcall	stringdir
  2769  05BD  00B9               	movwf	(??_conversion_newton+21)^(0+128)
  2770  05BE  160A  118A  2000  120A  118A  	fcall	stringdir
  2771  05C3  00BA               	movwf	((??_conversion_newton+21)^(0+128)+1)
  2772  05C4  160A  118A  2000  120A  118A  	fcall	stringdir
  2773  05C9  00BB               	movwf	((??_conversion_newton+21)^(0+128)+2)
  2774  05CA  160A  118A  2000  120A  118A  	fcall	stringdir
  2775  05CF  00BC               	movwf	((??_conversion_newton+21)^(0+128)+3)
  2776  05D0  083C               	movf	(??_conversion_newton+24)^(0+128),w
  2777  05D1  1283               	bcf	3,5	;RP0=0, select bank0
  2778  05D2  1303               	bcf	3,6	;RP1=0, select bank0
  2779  05D3  00BB               	movwf	___flsub@b+3
  2780  05D4  1683               	bsf	3,5	;RP0=1, select bank1
  2781  05D5  1303               	bcf	3,6	;RP1=0, select bank1
  2782  05D6  083B               	movf	(??_conversion_newton+23)^(0+128),w
  2783  05D7  1283               	bcf	3,5	;RP0=0, select bank0
  2784  05D8  1303               	bcf	3,6	;RP1=0, select bank0
  2785  05D9  00BA               	movwf	___flsub@b+2
  2786  05DA  1683               	bsf	3,5	;RP0=1, select bank1
  2787  05DB  1303               	bcf	3,6	;RP1=0, select bank1
  2788  05DC  083A               	movf	(??_conversion_newton+22)^(0+128),w
  2789  05DD  1283               	bcf	3,5	;RP0=0, select bank0
  2790  05DE  1303               	bcf	3,6	;RP1=0, select bank0
  2791  05DF  00B9               	movwf	___flsub@b+1
  2792  05E0  1683               	bsf	3,5	;RP0=1, select bank1
  2793  05E1  1303               	bcf	3,6	;RP1=0, select bank1
  2794  05E2  0839               	movf	(??_conversion_newton+21)^(0+128),w
  2795  05E3  1283               	bcf	3,5	;RP0=0, select bank0
  2796  05E4  1303               	bcf	3,6	;RP1=0, select bank0
  2797  05E5  00B8               	movwf	___flsub@b
  2798  05E6  160A  118A  256B  120A  118A  	fcall	___flsub
  2799  05EB  1283               	bcf	3,5	;RP0=0, select bank0
  2800  05EC  1303               	bcf	3,6	;RP1=0, select bank0
  2801  05ED  0837               	movf	?___flsub+3,w
  2802  05EE  00C3               	movwf	___fldiv@b+3
  2803  05EF  0836               	movf	?___flsub+2,w
  2804  05F0  00C2               	movwf	___fldiv@b+2
  2805  05F1  0835               	movf	?___flsub+1,w
  2806  05F2  00C1               	movwf	___fldiv@b+1
  2807  05F3  0834               	movf	?___flsub,w
  2808  05F4  00C0               	movwf	___fldiv@b
  2809  05F5  120A  158A  203A  120A  118A  	fcall	___fldiv
  2810  05FA  1283               	bcf	3,5	;RP0=0, select bank0
  2811  05FB  1303               	bcf	3,6	;RP1=0, select bank0
  2812  05FC  083F               	movf	?___fldiv+3,w
  2813  05FD  00DD               	movwf	___flmul@a+3
  2814  05FE  083E               	movf	?___fldiv+2,w
  2815  05FF  00DC               	movwf	___flmul@a+2
  2816  0600  083D               	movf	?___fldiv+1,w
  2817  0601  00DB               	movwf	___flmul@a+1
  2818  0602  083C               	movf	?___fldiv,w
  2819  0603  00DA               	movwf	___flmul@a
  2820  0604  120A  158A  249F  120A  118A  	fcall	___flmul
  2821  0609  1283               	bcf	3,5	;RP0=0, select bank0
  2822  060A  1303               	bcf	3,6	;RP1=0, select bank0
  2823  060B  0859               	movf	?___flmul+3,w
  2824  060C  1683               	bsf	3,5	;RP0=1, select bank1
  2825  060D  1303               	bcf	3,6	;RP1=0, select bank1
  2826  060E  00C0               	movwf	(_conversion_newton$772+3)^(0+128)
  2827  060F  1283               	bcf	3,5	;RP0=0, select bank0
  2828  0610  1303               	bcf	3,6	;RP1=0, select bank0
  2829  0611  0858               	movf	?___flmul+2,w
  2830  0612  1683               	bsf	3,5	;RP0=1, select bank1
  2831  0613  1303               	bcf	3,6	;RP1=0, select bank1
  2832  0614  00BF               	movwf	(_conversion_newton$772+2)^(0+128)
  2833  0615  1283               	bcf	3,5	;RP0=0, select bank0
  2834  0616  1303               	bcf	3,6	;RP1=0, select bank0
  2835  0617  0857               	movf	?___flmul+1,w
  2836  0618  1683               	bsf	3,5	;RP0=1, select bank1
  2837  0619  1303               	bcf	3,6	;RP1=0, select bank1
  2838  061A  00BE               	movwf	(_conversion_newton$772+1)^(0+128)
  2839  061B  1283               	bcf	3,5	;RP0=0, select bank0
  2840  061C  1303               	bcf	3,6	;RP1=0, select bank0
  2841  061D  0856               	movf	?___flmul,w
  2842  061E  1683               	bsf	3,5	;RP0=1, select bank1
  2843  061F  1303               	bcf	3,6	;RP1=0, select bank1
  2844  0620  00BD               	movwf	_conversion_newton$772^(0+128)
  2845  0621                     l2311:
  2846                           
  2847                           ;main.c: 223:      F = (((F_tab[n]-F_tab[n+1])/(R_tab[n+1]-R_tab[n]))*(Rc-R_tab[n]))+F_t
      +                          ab[n];
  2848  0621  0845               	movf	conversion_newton@n^(0+128),w
  2849  0622  00A4               	movwf	??_conversion_newton^(0+128)
  2850  0623  3001               	movlw	1
  2851  0624                     u3505:
  2852  0624  1003               	clrc
  2853  0625  0DA4               	rlf	??_conversion_newton^(0+128),f
  2854  0626  3EFF               	addlw	-1
  2855  0627  1D03               	skipz
  2856  0628  2E24               	goto	u3505
  2857  0629  1003               	clrc
  2858  062A  0D24               	rlf	??_conversion_newton^(0+128),w
  2859  062B  3E51               	addlw	low ((conversion_newton@F_tab-__stringbase)| (0+32768))
  2860  062C  0084               	movwf	4
  2861  062D  160A  118A  2000  120A  118A  	fcall	stringdir
  2862  0632  00A5               	movwf	(??_conversion_newton+1)^(0+128)
  2863  0633  160A  118A  2000  120A  118A  	fcall	stringdir
  2864  0638  00A6               	movwf	((??_conversion_newton+1)^(0+128)+1)
  2865  0639  160A  118A  2000  120A  118A  	fcall	stringdir
  2866  063E  00A7               	movwf	((??_conversion_newton+1)^(0+128)+2)
  2867  063F  160A  118A  2000  120A  118A  	fcall	stringdir
  2868  0644  00A8               	movwf	((??_conversion_newton+1)^(0+128)+3)
  2869  0645  0828               	movf	(??_conversion_newton+4)^(0+128),w
  2870  0646  1283               	bcf	3,5	;RP0=0, select bank0
  2871  0647  1303               	bcf	3,6	;RP1=0, select bank0
  2872  0648  00A3               	movwf	___fladd@b+3
  2873  0649  1683               	bsf	3,5	;RP0=1, select bank1
  2874  064A  1303               	bcf	3,6	;RP1=0, select bank1
  2875  064B  0827               	movf	(??_conversion_newton+3)^(0+128),w
  2876  064C  1283               	bcf	3,5	;RP0=0, select bank0
  2877  064D  1303               	bcf	3,6	;RP1=0, select bank0
  2878  064E  00A2               	movwf	___fladd@b+2
  2879  064F  1683               	bsf	3,5	;RP0=1, select bank1
  2880  0650  1303               	bcf	3,6	;RP1=0, select bank1
  2881  0651  0826               	movf	(??_conversion_newton+2)^(0+128),w
  2882  0652  1283               	bcf	3,5	;RP0=0, select bank0
  2883  0653  1303               	bcf	3,6	;RP1=0, select bank0
  2884  0654  00A1               	movwf	___fladd@b+1
  2885  0655  1683               	bsf	3,5	;RP0=1, select bank1
  2886  0656  1303               	bcf	3,6	;RP1=0, select bank1
  2887  0657  0825               	movf	(??_conversion_newton+1)^(0+128),w
  2888  0658  1283               	bcf	3,5	;RP0=0, select bank0
  2889  0659  1303               	bcf	3,6	;RP1=0, select bank0
  2890  065A  00A0               	movwf	___fladd@b
  2891  065B  1683               	bsf	3,5	;RP0=1, select bank1
  2892  065C  1303               	bcf	3,6	;RP1=0, select bank1
  2893  065D  0840               	movf	(_conversion_newton$772+3)^(0+128),w
  2894  065E  1283               	bcf	3,5	;RP0=0, select bank0
  2895  065F  1303               	bcf	3,6	;RP1=0, select bank0
  2896  0660  00A7               	movwf	___fladd@a+3
  2897  0661  1683               	bsf	3,5	;RP0=1, select bank1
  2898  0662  1303               	bcf	3,6	;RP1=0, select bank1
  2899  0663  083F               	movf	(_conversion_newton$772+2)^(0+128),w
  2900  0664  1283               	bcf	3,5	;RP0=0, select bank0
  2901  0665  1303               	bcf	3,6	;RP1=0, select bank0
  2902  0666  00A6               	movwf	___fladd@a+2
  2903  0667  1683               	bsf	3,5	;RP0=1, select bank1
  2904  0668  1303               	bcf	3,6	;RP1=0, select bank1
  2905  0669  083E               	movf	(_conversion_newton$772+1)^(0+128),w
  2906  066A  1283               	bcf	3,5	;RP0=0, select bank0
  2907  066B  1303               	bcf	3,6	;RP1=0, select bank0
  2908  066C  00A5               	movwf	___fladd@a+1
  2909  066D  1683               	bsf	3,5	;RP0=1, select bank1
  2910  066E  1303               	bcf	3,6	;RP1=0, select bank1
  2911  066F  083D               	movf	_conversion_newton$772^(0+128),w
  2912  0670  1283               	bcf	3,5	;RP0=0, select bank0
  2913  0671  1303               	bcf	3,6	;RP1=0, select bank0
  2914  0672  00A4               	movwf	___fladd@a
  2915  0673  120A  158A  2217  120A  118A  	fcall	___fladd
  2916  0678  1283               	bcf	3,5	;RP0=0, select bank0
  2917  0679  1303               	bcf	3,6	;RP1=0, select bank0
  2918  067A  0823               	movf	?___fladd+3,w
  2919  067B  1683               	bsf	3,5	;RP0=1, select bank1
  2920  067C  1303               	bcf	3,6	;RP1=0, select bank1
  2921  067D  00C4               	movwf	(conversion_newton@F+3)^(0+128)
  2922  067E  1283               	bcf	3,5	;RP0=0, select bank0
  2923  067F  1303               	bcf	3,6	;RP1=0, select bank0
  2924  0680  0822               	movf	?___fladd+2,w
  2925  0681  1683               	bsf	3,5	;RP0=1, select bank1
  2926  0682  1303               	bcf	3,6	;RP1=0, select bank1
  2927  0683  00C3               	movwf	(conversion_newton@F+2)^(0+128)
  2928  0684  1283               	bcf	3,5	;RP0=0, select bank0
  2929  0685  1303               	bcf	3,6	;RP1=0, select bank0
  2930  0686  0821               	movf	?___fladd+1,w
  2931  0687  1683               	bsf	3,5	;RP0=1, select bank1
  2932  0688  1303               	bcf	3,6	;RP1=0, select bank1
  2933  0689  00C2               	movwf	(conversion_newton@F+1)^(0+128)
  2934  068A  1283               	bcf	3,5	;RP0=0, select bank0
  2935  068B  1303               	bcf	3,6	;RP1=0, select bank0
  2936  068C  0820               	movf	?___fladd,w
  2937  068D  1683               	bsf	3,5	;RP0=1, select bank1
  2938  068E  1303               	bcf	3,6	;RP1=0, select bank1
  2939  068F  00C1               	movwf	conversion_newton@F^(0+128)
  2940  0690                     l2313:
  2941                           
  2942                           ;main.c: 226:      if (Rc <= R_tab[10])
  2943  0690  3029               	movlw	low (((conversion_newton@R_tab+40)-__stringbase)| (0+32768))
  2944  0691  0084               	movwf	4
  2945  0692  160A  118A  2000  120A  118A  	fcall	stringdir
  2946  0697  00A4               	movwf	??_conversion_newton^(0+128)
  2947  0698  160A  118A  2000  120A  118A  	fcall	stringdir
  2948  069D  00A5               	movwf	(??_conversion_newton^(0+128)+1)
  2949  069E  160A  118A  2000  120A  118A  	fcall	stringdir
  2950  06A3  00A6               	movwf	(??_conversion_newton^(0+128)+2)
  2951  06A4  160A  118A  2000  120A  118A  	fcall	stringdir
  2952  06A9  00A7               	movwf	(??_conversion_newton^(0+128)+3)
  2953  06AA  0827               	movf	(??_conversion_newton+3)^(0+128),w
  2954  06AB  00F5               	movwf	___flge@ff1+3
  2955  06AC  0826               	movf	(??_conversion_newton+2)^(0+128),w
  2956  06AD  00F4               	movwf	___flge@ff1+2
  2957  06AE  0825               	movf	(??_conversion_newton+1)^(0+128),w
  2958  06AF  00F3               	movwf	___flge@ff1+1
  2959  06B0  0824               	movf	??_conversion_newton^(0+128),w
  2960  06B1  00F2               	movwf	___flge@ff1
  2961  06B2  0823               	movf	(conversion_newton@Rc+3)^(0+128),w
  2962  06B3  00F9               	movwf	___flge@ff2+3
  2963  06B4  0822               	movf	(conversion_newton@Rc+2)^(0+128),w
  2964  06B5  00F8               	movwf	___flge@ff2+2
  2965  06B6  0821               	movf	(conversion_newton@Rc+1)^(0+128),w
  2966  06B7  00F7               	movwf	___flge@ff2+1
  2967  06B8  0820               	movf	conversion_newton@Rc^(0+128),w
  2968  06B9  00F6               	movwf	___flge@ff2
  2969  06BA  160A  118A  275C  120A  118A  	fcall	___flge
  2970  06BF  1C03               	btfss	3,0
  2971  06C0  2EC2               	goto	u3511
  2972  06C1  2EC3               	goto	u3510
  2973  06C2                     u3511:
  2974  06C2  2ECD               	goto	l2317
  2975  06C3                     u3510:
  2976  06C3                     l2315:
  2977                           
  2978                           ;main.c: 227:          {;main.c: 228:          F = 70;
  2979  06C3  3042               	movlw	66
  2980  06C4  1683               	bsf	3,5	;RP0=1, select bank1
  2981  06C5  1303               	bcf	3,6	;RP1=0, select bank1
  2982  06C6  00C4               	movwf	(conversion_newton@F+3)^(0+128)
  2983  06C7  308C               	movlw	140
  2984  06C8  00C3               	movwf	(conversion_newton@F+2)^(0+128)
  2985  06C9  3000               	movlw	0
  2986  06CA  00C2               	movwf	(conversion_newton@F+1)^(0+128)
  2987  06CB  3000               	movlw	0
  2988  06CC  00C1               	movwf	conversion_newton@F^(0+128)
  2989  06CD                     l2317:
  2990                           
  2991                           ;main.c: 230:      if (Rc > R_tab[10])
  2992  06CD  3029               	movlw	low (((conversion_newton@R_tab+40)-__stringbase)| (0+32768))
  2993  06CE  0084               	movwf	4
  2994  06CF  160A  118A  2000  120A  118A  	fcall	stringdir
  2995  06D4  1683               	bsf	3,5	;RP0=1, select bank1
  2996  06D5  1303               	bcf	3,6	;RP1=0, select bank1
  2997  06D6  00A4               	movwf	??_conversion_newton^(0+128)
  2998  06D7  160A  118A  2000  120A  118A  	fcall	stringdir
  2999  06DC  00A5               	movwf	(??_conversion_newton^(0+128)+1)
  3000  06DD  160A  118A  2000  120A  118A  	fcall	stringdir
  3001  06E2  00A6               	movwf	(??_conversion_newton^(0+128)+2)
  3002  06E3  160A  118A  2000  120A  118A  	fcall	stringdir
  3003  06E8  00A7               	movwf	(??_conversion_newton^(0+128)+3)
  3004  06E9  0827               	movf	(??_conversion_newton+3)^(0+128),w
  3005  06EA  00F5               	movwf	___flge@ff1+3
  3006  06EB  0826               	movf	(??_conversion_newton+2)^(0+128),w
  3007  06EC  00F4               	movwf	___flge@ff1+2
  3008  06ED  0825               	movf	(??_conversion_newton+1)^(0+128),w
  3009  06EE  00F3               	movwf	___flge@ff1+1
  3010  06EF  0824               	movf	??_conversion_newton^(0+128),w
  3011  06F0  00F2               	movwf	___flge@ff1
  3012  06F1  0823               	movf	(conversion_newton@Rc+3)^(0+128),w
  3013  06F2  00F9               	movwf	___flge@ff2+3
  3014  06F3  0822               	movf	(conversion_newton@Rc+2)^(0+128),w
  3015  06F4  00F8               	movwf	___flge@ff2+2
  3016  06F5  0821               	movf	(conversion_newton@Rc+1)^(0+128),w
  3017  06F6  00F7               	movwf	___flge@ff2+1
  3018  06F7  0820               	movf	conversion_newton@Rc^(0+128),w
  3019  06F8  00F6               	movwf	___flge@ff2
  3020  06F9  160A  118A  275C  120A  118A  	fcall	___flge
  3021  06FE  1803               	btfsc	3,0
  3022  06FF  2F01               	goto	u3521
  3023  0700  2F02               	goto	u3520
  3024  0701                     u3521:
  3025  0701  2F0C               	goto	l69
  3026  0702                     u3520:
  3027  0702                     l2319:
  3028                           
  3029                           ;main.c: 231:          {;main.c: 232:          F = 0.12;
  3030  0702  303D               	movlw	61
  3031  0703  1683               	bsf	3,5	;RP0=1, select bank1
  3032  0704  1303               	bcf	3,6	;RP1=0, select bank1
  3033  0705  00C4               	movwf	(conversion_newton@F+3)^(0+128)
  3034  0706  30F5               	movlw	245
  3035  0707  00C3               	movwf	(conversion_newton@F+2)^(0+128)
  3036  0708  30C2               	movlw	194
  3037  0709  00C2               	movwf	(conversion_newton@F+1)^(0+128)
  3038  070A  308F               	movlw	143
  3039  070B  00C1               	movwf	conversion_newton@F^(0+128)
  3040  070C                     l69:	
  3041                           ;main.c: 233:          }
  3042                           
  3043                           
  3044                           ;main.c: 235:      return F;
  3045  070C  1683               	bsf	3,5	;RP0=1, select bank1
  3046  070D  1303               	bcf	3,6	;RP1=0, select bank1
  3047  070E  0844               	movf	(conversion_newton@F+3)^(0+128),w
  3048  070F  00A3               	movwf	(?_conversion_newton+3)^(0+128)
  3049  0710  0843               	movf	(conversion_newton@F+2)^(0+128),w
  3050  0711  00A2               	movwf	(?_conversion_newton+2)^(0+128)
  3051  0712  0842               	movf	(conversion_newton@F+1)^(0+128),w
  3052  0713  00A1               	movwf	(?_conversion_newton+1)^(0+128)
  3053  0714  0841               	movf	conversion_newton@F^(0+128),w
  3054  0715  00A0               	movwf	?_conversion_newton^(0+128)
  3055  0716                     l70:
  3056  0716  0008               	return
  3057  0717                     __end_of_conversion_newton:
  3058                           
  3059                           	psect	text8
  3060  175C                     __ptext8:	
  3061 ;; *************** function ___flge *****************
  3062 ;; Defined at:
  3063 ;;		line 4 in file "C:\Program Files\Microchip\xc8\v2.20\pic\sources\c90\common\flge.c"
  3064 ;; Parameters:    Size  Location     Type
  3065 ;;  ff1             4    2[COMMON] float 
  3066 ;;  ff2             4    6[COMMON] float 
  3067 ;; Auto vars:     Size  Location     Type
  3068 ;;		None
  3069 ;; Return value:  Size  Location     Type
  3070 ;;		None               void
  3071 ;; Registers used:
  3072 ;;		wreg, status,2, status,0
  3073 ;; Tracked objects:
  3074 ;;		On entry : 0/0
  3075 ;;		On exit  : 0/0
  3076 ;;		Unchanged: 0/0
  3077 ;; Data sizes:     COMMON   BANK0   BANK1   BANK3   BANK2
  3078 ;;      Params:         8       0       0       0       0
  3079 ;;      Locals:         0       0       0       0       0
  3080 ;;      Temps:          0       4       0       0       0
  3081 ;;      Totals:         8       4       0       0       0
  3082 ;;Total ram usage:       12 bytes
  3083 ;; Hardware stack levels used:    1
  3084 ;; Hardware stack levels required when called:    1
  3085 ;; This function calls:
  3086 ;;		Nothing
  3087 ;; This function is called by:
  3088 ;;		_conversion_newton
  3089 ;; This function uses a non-reentrant model
  3090 ;;
  3091                           
  3092                           
  3093                           ;psect for function ___flge
  3094  175C                     ___flge:
  3095  175C                     l1879:	
  3096                           ;incstack = 0
  3097                           ; Regs used in ___flge: [wreg+status,2+status,0]
  3098                           
  3099  175C  3000               	movlw	0
  3100  175D  0572               	andwf	___flge@ff1,w
  3101  175E  1283               	bcf	3,5	;RP0=0, select bank0
  3102  175F  1303               	bcf	3,6	;RP1=0, select bank0
  3103  1760  00A0               	movwf	??___flge
  3104  1761  3000               	movlw	0
  3105  1762  0573               	andwf	___flge@ff1+1,w
  3106  1763  00A1               	movwf	??___flge+1
  3107  1764  3080               	movlw	128
  3108  1765  0574               	andwf	___flge@ff1+2,w
  3109  1766  00A2               	movwf	??___flge+2
  3110  1767  307F               	movlw	127
  3111  1768  0575               	andwf	___flge@ff1+3,w
  3112  1769  00A3               	movwf	??___flge+3
  3113  176A  0823               	movf	??___flge+3,w
  3114  176B  0422               	iorwf	??___flge+2,w
  3115  176C  0421               	iorwf	??___flge+1,w
  3116  176D  0420               	iorwf	??___flge,w
  3117  176E  1D03               	skipz
  3118  176F  2F71               	goto	u2381
  3119  1770  2F72               	goto	u2380
  3120  1771                     u2381:
  3121  1771  2F7A               	goto	l395
  3122  1772                     u2380:
  3123  1772                     l1881:
  3124  1772  3000               	movlw	0
  3125  1773  00F5               	movwf	___flge@ff1+3
  3126  1774  3000               	movlw	0
  3127  1775  00F4               	movwf	___flge@ff1+2
  3128  1776  3000               	movlw	0
  3129  1777  00F3               	movwf	___flge@ff1+1
  3130  1778  3000               	movlw	0
  3131  1779  00F2               	movwf	___flge@ff1
  3132  177A                     l395:
  3133  177A  3000               	movlw	0
  3134  177B  0576               	andwf	___flge@ff2,w
  3135  177C  00A0               	movwf	??___flge
  3136  177D  3000               	movlw	0
  3137  177E  0577               	andwf	___flge@ff2+1,w
  3138  177F  00A1               	movwf	??___flge+1
  3139  1780  3080               	movlw	128
  3140  1781  0578               	andwf	___flge@ff2+2,w
  3141  1782  00A2               	movwf	??___flge+2
  3142  1783  307F               	movlw	127
  3143  1784  0579               	andwf	___flge@ff2+3,w
  3144  1785  00A3               	movwf	??___flge+3
  3145  1786  0823               	movf	??___flge+3,w
  3146  1787  0422               	iorwf	??___flge+2,w
  3147  1788  0421               	iorwf	??___flge+1,w
  3148  1789  0420               	iorwf	??___flge,w
  3149  178A  1D03               	skipz
  3150  178B  2F8D               	goto	u2391
  3151  178C  2F8E               	goto	u2390
  3152  178D                     u2391:
  3153  178D  2F96               	goto	l1885
  3154  178E                     u2390:
  3155  178E                     l1883:
  3156  178E  3000               	movlw	0
  3157  178F  00F9               	movwf	___flge@ff2+3
  3158  1790  3000               	movlw	0
  3159  1791  00F8               	movwf	___flge@ff2+2
  3160  1792  3000               	movlw	0
  3161  1793  00F7               	movwf	___flge@ff2+1
  3162  1794  3000               	movlw	0
  3163  1795  00F6               	movwf	___flge@ff2
  3164  1796                     l1885:
  3165  1796  1FF5               	btfss	___flge@ff1+3,7
  3166  1797  2F99               	goto	u2401
  3167  1798  2F9A               	goto	u2400
  3168  1799                     u2401:
  3169  1799  2FBE               	goto	l1889
  3170  179A                     u2400:
  3171  179A                     l1887:
  3172  179A  3000               	movlw	0
  3173  179B  00A0               	movwf	??___flge
  3174  179C  3000               	movlw	0
  3175  179D  00A1               	movwf	??___flge+1
  3176  179E  3000               	movlw	0
  3177  179F  00A2               	movwf	??___flge+2
  3178  17A0  3080               	movlw	128
  3179  17A1  00A3               	movwf	??___flge+3
  3180  17A2  0872               	movf	___flge@ff1,w
  3181  17A3  02A0               	subwf	??___flge,f
  3182  17A4  0873               	movf	___flge@ff1+1,w
  3183  17A5  1C03               	skipc
  3184  17A6  0F73               	incfsz	___flge@ff1+1,w
  3185  17A7  2FA9               	goto	u2411
  3186  17A8  2FAA               	goto	u2412
  3187  17A9                     u2411:
  3188  17A9  02A1               	subwf	??___flge+1,f
  3189  17AA                     u2412:
  3190  17AA  0874               	movf	___flge@ff1+2,w
  3191  17AB  1C03               	skipc
  3192  17AC  0F74               	incfsz	___flge@ff1+2,w
  3193  17AD  2FAF               	goto	u2413
  3194  17AE  2FB0               	goto	u2414
  3195  17AF                     u2413:
  3196  17AF  02A2               	subwf	??___flge+2,f
  3197  17B0                     u2414:
  3198  17B0  0875               	movf	___flge@ff1+3,w
  3199  17B1  1C03               	skipc
  3200  17B2  0F75               	incfsz	___flge@ff1+3,w
  3201  17B3  2FB5               	goto	u2415
  3202  17B4  2FB6               	goto	u2416
  3203  17B5                     u2415:
  3204  17B5  02A3               	subwf	??___flge+3,f
  3205  17B6                     u2416:
  3206  17B6  0823               	movf	??___flge+3,w
  3207  17B7  00F5               	movwf	___flge@ff1+3
  3208  17B8  0822               	movf	??___flge+2,w
  3209  17B9  00F4               	movwf	___flge@ff1+2
  3210  17BA  0821               	movf	??___flge+1,w
  3211  17BB  00F3               	movwf	___flge@ff1+1
  3212  17BC  0820               	movf	??___flge,w
  3213  17BD  00F2               	movwf	___flge@ff1
  3214  17BE                     l1889:
  3215  17BE  1FF9               	btfss	___flge@ff2+3,7
  3216  17BF  2FC1               	goto	u2421
  3217  17C0  2FC2               	goto	u2420
  3218  17C1                     u2421:
  3219  17C1  2FE6               	goto	l398
  3220  17C2                     u2420:
  3221  17C2                     l1891:
  3222  17C2  3000               	movlw	0
  3223  17C3  00A0               	movwf	??___flge
  3224  17C4  3000               	movlw	0
  3225  17C5  00A1               	movwf	??___flge+1
  3226  17C6  3000               	movlw	0
  3227  17C7  00A2               	movwf	??___flge+2
  3228  17C8  3080               	movlw	128
  3229  17C9  00A3               	movwf	??___flge+3
  3230  17CA  0876               	movf	___flge@ff2,w
  3231  17CB  02A0               	subwf	??___flge,f
  3232  17CC  0877               	movf	___flge@ff2+1,w
  3233  17CD  1C03               	skipc
  3234  17CE  0F77               	incfsz	___flge@ff2+1,w
  3235  17CF  2FD1               	goto	u2431
  3236  17D0  2FD2               	goto	u2432
  3237  17D1                     u2431:
  3238  17D1  02A1               	subwf	??___flge+1,f
  3239  17D2                     u2432:
  3240  17D2  0878               	movf	___flge@ff2+2,w
  3241  17D3  1C03               	skipc
  3242  17D4  0F78               	incfsz	___flge@ff2+2,w
  3243  17D5  2FD7               	goto	u2433
  3244  17D6  2FD8               	goto	u2434
  3245  17D7                     u2433:
  3246  17D7  02A2               	subwf	??___flge+2,f
  3247  17D8                     u2434:
  3248  17D8  0879               	movf	___flge@ff2+3,w
  3249  17D9  1C03               	skipc
  3250  17DA  0F79               	incfsz	___flge@ff2+3,w
  3251  17DB  2FDD               	goto	u2435
  3252  17DC  2FDE               	goto	u2436
  3253  17DD                     u2435:
  3254  17DD  02A3               	subwf	??___flge+3,f
  3255  17DE                     u2436:
  3256  17DE  0823               	movf	??___flge+3,w
  3257  17DF  00F9               	movwf	___flge@ff2+3
  3258  17E0  0822               	movf	??___flge+2,w
  3259  17E1  00F8               	movwf	___flge@ff2+2
  3260  17E2  0821               	movf	??___flge+1,w
  3261  17E3  00F7               	movwf	___flge@ff2+1
  3262  17E4  0820               	movf	??___flge,w
  3263  17E5  00F6               	movwf	___flge@ff2
  3264  17E6                     l398:
  3265  17E6  3080               	movlw	128
  3266  17E7  06F5               	xorwf	___flge@ff1+3,f
  3267  17E8  3080               	movlw	128
  3268  17E9  06F9               	xorwf	___flge@ff2+3,f
  3269  17EA  0879               	movf	___flge@ff2+3,w
  3270  17EB  0275               	subwf	___flge@ff1+3,w
  3271  17EC  1D03               	skipz
  3272  17ED  2FF8               	goto	u2445
  3273  17EE  0878               	movf	___flge@ff2+2,w
  3274  17EF  0274               	subwf	___flge@ff1+2,w
  3275  17F0  1D03               	skipz
  3276  17F1  2FF8               	goto	u2445
  3277  17F2  0877               	movf	___flge@ff2+1,w
  3278  17F3  0273               	subwf	___flge@ff1+1,w
  3279  17F4  1D03               	skipz
  3280  17F5  2FF8               	goto	u2445
  3281  17F6  0876               	movf	___flge@ff2,w
  3282  17F7  0272               	subwf	___flge@ff1,w
  3283  17F8                     u2445:
  3284  17F8  1803               	skipnc
  3285  17F9  2FFB               	goto	u2441
  3286  17FA  2FFC               	goto	u2440
  3287  17FB                     u2441:
  3288  17FB  2FFE               	goto	l1895
  3289  17FC                     u2440:
  3290  17FC                     l1893:
  3291  17FC  1003               	clrc
  3292  17FD  2FFF               	goto	l399
  3293  17FE                     l1895:
  3294  17FE  1403               	setc
  3295  17FF                     l399:
  3296  17FF  0008               	return
  3297  1800                     __end_of___flge:
  3298                           
  3299                           	psect	text9
  3300  166D                     __ptext9:	
  3301 ;; *************** function _Voltage_Value *****************
  3302 ;; Defined at:
  3303 ;;		line 152 in file "main.c"
  3304 ;; Parameters:    Size  Location     Type
  3305 ;;  sensor          1    wreg     unsigned char 
  3306 ;; Auto vars:     Size  Location     Type
  3307 ;;  sensor          1    8[BANK1 ] unsigned char 
  3308 ;; Return value:  Size  Location     Type
  3309 ;;                  4    0[BANK1 ] float 
  3310 ;; Registers used:
  3311 ;;		wreg, status,2, status,0, btemp+1, pclath, cstack
  3312 ;; Tracked objects:
  3313 ;;		On entry : 0/0
  3314 ;;		On exit  : 0/0
  3315 ;;		Unchanged: 0/0
  3316 ;; Data sizes:     COMMON   BANK0   BANK1   BANK3   BANK2
  3317 ;;      Params:         0       0       4       0       0
  3318 ;;      Locals:         0       0       1       0       0
  3319 ;;      Temps:          0       0       4       0       0
  3320 ;;      Totals:         0       0       9       0       0
  3321 ;;Total ram usage:        9 bytes
  3322 ;; Hardware stack levels used:    1
  3323 ;; Hardware stack levels required when called:    3
  3324 ;; This function calls:
  3325 ;;		___fldiv
  3326 ;;		___flmul
  3327 ;;		___xxtofl
  3328 ;; This function is called by:
  3329 ;;		_Get_Newton
  3330 ;; This function uses a non-reentrant model
  3331 ;;
  3332                           
  3333                           
  3334                           ;psect for function _Voltage_Value
  3335  166D                     _Voltage_Value:
  3336                           
  3337                           ;incstack = 0
  3338                           ; Regs used in _Voltage_Value: [wreg+status,2+status,0+btemp+1+pclath+cstack]
  3339                           ;Voltage_Value@sensor stored from wreg
  3340  166D  1683               	bsf	3,5	;RP0=1, select bank1
  3341  166E  1303               	bcf	3,6	;RP1=0, select bank1
  3342  166F  00A8               	movwf	Voltage_Value@sensor^(0+128)
  3343  1670                     l2239:
  3344                           
  3345                           ;main.c: 154:     return (float) sensor * 5/256;
  3346  1670  3043               	movlw	67
  3347  1671  1283               	bcf	3,5	;RP0=0, select bank0
  3348  1672  1303               	bcf	3,6	;RP1=0, select bank0
  3349  1673  00BF               	movwf	___fldiv@a+3
  3350  1674  3080               	movlw	128
  3351  1675  00BE               	movwf	___fldiv@a+2
  3352  1676  3000               	movlw	0
  3353  1677  00BD               	movwf	___fldiv@a+1
  3354  1678  3000               	movlw	0
  3355  1679  00BC               	movwf	___fldiv@a
  3356  167A  3040               	movlw	64
  3357  167B  00D9               	movwf	___flmul@b+3
  3358  167C  30A0               	movlw	160
  3359  167D  00D8               	movwf	___flmul@b+2
  3360  167E  3000               	movlw	0
  3361  167F  00D7               	movwf	___flmul@b+1
  3362  1680  3000               	movlw	0
  3363  1681  00D6               	movwf	___flmul@b
  3364  1682  1683               	bsf	3,5	;RP0=1, select bank1
  3365  1683  1303               	bcf	3,6	;RP1=0, select bank1
  3366  1684  0828               	movf	Voltage_Value@sensor^(0+128),w
  3367  1685  00A4               	movwf	??_Voltage_Value^(0+128)
  3368  1686  01A5               	clrf	(??_Voltage_Value^(0+128)+1)
  3369  1687  01A6               	clrf	(??_Voltage_Value^(0+128)+2)
  3370  1688  01A7               	clrf	(??_Voltage_Value^(0+128)+3)
  3371  1689  0827               	movf	(??_Voltage_Value+3)^(0+128),w
  3372  168A  00FB               	movwf	___xxtofl@val+3
  3373  168B  0826               	movf	(??_Voltage_Value+2)^(0+128),w
  3374  168C  00FA               	movwf	___xxtofl@val+2
  3375  168D  0825               	movf	(??_Voltage_Value+1)^(0+128),w
  3376  168E  00F9               	movwf	___xxtofl@val+1
  3377  168F  0824               	movf	??_Voltage_Value^(0+128),w
  3378  1690  00F8               	movwf	___xxtofl@val
  3379  1691  3000               	movlw	0
  3380  1692  120A  118A  2717  160A  118A  	fcall	___xxtofl
  3381  1697  087B               	movf	?___xxtofl+3,w
  3382  1698  1283               	bcf	3,5	;RP0=0, select bank0
  3383  1699  1303               	bcf	3,6	;RP1=0, select bank0
  3384  169A  00DD               	movwf	___flmul@a+3
  3385  169B  087A               	movf	?___xxtofl+2,w
  3386  169C  00DC               	movwf	___flmul@a+2
  3387  169D  0879               	movf	?___xxtofl+1,w
  3388  169E  00DB               	movwf	___flmul@a+1
  3389  169F  0878               	movf	?___xxtofl,w
  3390  16A0  00DA               	movwf	___flmul@a
  3391  16A1  120A  158A  249F  160A  118A  	fcall	___flmul
  3392  16A6  1283               	bcf	3,5	;RP0=0, select bank0
  3393  16A7  1303               	bcf	3,6	;RP1=0, select bank0
  3394  16A8  0859               	movf	?___flmul+3,w
  3395  16A9  00C3               	movwf	___fldiv@b+3
  3396  16AA  0858               	movf	?___flmul+2,w
  3397  16AB  00C2               	movwf	___fldiv@b+2
  3398  16AC  0857               	movf	?___flmul+1,w
  3399  16AD  00C1               	movwf	___fldiv@b+1
  3400  16AE  0856               	movf	?___flmul,w
  3401  16AF  00C0               	movwf	___fldiv@b
  3402  16B0  120A  158A  203A  160A  118A  	fcall	___fldiv
  3403  16B5  1283               	bcf	3,5	;RP0=0, select bank0
  3404  16B6  1303               	bcf	3,6	;RP1=0, select bank0
  3405  16B7  083F               	movf	?___fldiv+3,w
  3406  16B8  1683               	bsf	3,5	;RP0=1, select bank1
  3407  16B9  1303               	bcf	3,6	;RP1=0, select bank1
  3408  16BA  00A3               	movwf	(?_Voltage_Value+3)^(0+128)
  3409  16BB  1283               	bcf	3,5	;RP0=0, select bank0
  3410  16BC  1303               	bcf	3,6	;RP1=0, select bank0
  3411  16BD  083E               	movf	?___fldiv+2,w
  3412  16BE  1683               	bsf	3,5	;RP0=1, select bank1
  3413  16BF  1303               	bcf	3,6	;RP1=0, select bank1
  3414  16C0  00A2               	movwf	(?_Voltage_Value+2)^(0+128)
  3415  16C1  1283               	bcf	3,5	;RP0=0, select bank0
  3416  16C2  1303               	bcf	3,6	;RP1=0, select bank0
  3417  16C3  083D               	movf	?___fldiv+1,w
  3418  16C4  1683               	bsf	3,5	;RP0=1, select bank1
  3419  16C5  1303               	bcf	3,6	;RP1=0, select bank1
  3420  16C6  00A1               	movwf	(?_Voltage_Value+1)^(0+128)
  3421  16C7  1283               	bcf	3,5	;RP0=0, select bank0
  3422  16C8  1303               	bcf	3,6	;RP1=0, select bank0
  3423  16C9  083C               	movf	?___fldiv,w
  3424  16CA  1683               	bsf	3,5	;RP0=1, select bank1
  3425  16CB  1303               	bcf	3,6	;RP1=0, select bank1
  3426  16CC  00A0               	movwf	?_Voltage_Value^(0+128)
  3427  16CD                     l38:
  3428  16CD  0008               	return
  3429  16CE                     __end_of_Voltage_Value:
  3430                           
  3431                           	psect	text10
  3432  16CE                     __ptext10:	
  3433 ;; *************** function _Resistance_Value *****************
  3434 ;; Defined at:
  3435 ;;		line 163 in file "main.c"
  3436 ;; Parameters:    Size  Location     Type
  3437 ;;  Voltage         4    0[BANK1 ] float 
  3438 ;;  R               2    4[BANK1 ] int 
  3439 ;; Auto vars:     Size  Location     Type
  3440 ;;		None
  3441 ;; Return value:  Size  Location     Type
  3442 ;;                  4    0[BANK1 ] float 
  3443 ;; Registers used:
  3444 ;;		wreg, status,2, status,0, btemp+1, pclath, cstack
  3445 ;; Tracked objects:
  3446 ;;		On entry : 0/0
  3447 ;;		On exit  : 0/0
  3448 ;;		Unchanged: 0/0
  3449 ;; Data sizes:     COMMON   BANK0   BANK1   BANK3   BANK2
  3450 ;;      Params:         0       0       6       0       0
  3451 ;;      Locals:         0       0       0       0       0
  3452 ;;      Temps:          0       0       0       0       0
  3453 ;;      Totals:         0       0       6       0       0
  3454 ;;Total ram usage:        6 bytes
  3455 ;; Hardware stack levels used:    1
  3456 ;; Hardware stack levels required when called:    3
  3457 ;; This function calls:
  3458 ;;		___fldiv
  3459 ;;		___flmul
  3460 ;;		___flsub
  3461 ;;		___wmul
  3462 ;;		___xxtofl
  3463 ;; This function is called by:
  3464 ;;		_Get_Newton
  3465 ;; This function uses a non-reentrant model
  3466 ;;
  3467                           
  3468                           
  3469                           ;psect for function _Resistance_Value
  3470  16CE                     _Resistance_Value:
  3471  16CE                     l2243:	
  3472                           ;incstack = 0
  3473                           ; Regs used in _Resistance_Value: [wreg+status,2+status,0+btemp+1+pclath+cstack]
  3474                           
  3475                           
  3476                           ;main.c: 164:     return (float) (R * 5)/(5 -(2*Voltage));
  3477  16CE  3040               	movlw	64
  3478  16CF  1283               	bcf	3,5	;RP0=0, select bank0
  3479  16D0  1303               	bcf	3,6	;RP1=0, select bank0
  3480  16D1  00BB               	movwf	___flsub@b+3
  3481  16D2  30A0               	movlw	160
  3482  16D3  00BA               	movwf	___flsub@b+2
  3483  16D4  3000               	movlw	0
  3484  16D5  00B9               	movwf	___flsub@b+1
  3485  16D6  3000               	movlw	0
  3486  16D7  00B8               	movwf	___flsub@b
  3487  16D8  1683               	bsf	3,5	;RP0=1, select bank1
  3488  16D9  1303               	bcf	3,6	;RP1=0, select bank1
  3489  16DA  0823               	movf	(Resistance_Value@Voltage+3)^(0+128),w
  3490  16DB  1283               	bcf	3,5	;RP0=0, select bank0
  3491  16DC  1303               	bcf	3,6	;RP1=0, select bank0
  3492  16DD  00DD               	movwf	___flmul@a+3
  3493  16DE  1683               	bsf	3,5	;RP0=1, select bank1
  3494  16DF  1303               	bcf	3,6	;RP1=0, select bank1
  3495  16E0  0822               	movf	(Resistance_Value@Voltage+2)^(0+128),w
  3496  16E1  1283               	bcf	3,5	;RP0=0, select bank0
  3497  16E2  1303               	bcf	3,6	;RP1=0, select bank0
  3498  16E3  00DC               	movwf	___flmul@a+2
  3499  16E4  1683               	bsf	3,5	;RP0=1, select bank1
  3500  16E5  1303               	bcf	3,6	;RP1=0, select bank1
  3501  16E6  0821               	movf	(Resistance_Value@Voltage+1)^(0+128),w
  3502  16E7  1283               	bcf	3,5	;RP0=0, select bank0
  3503  16E8  1303               	bcf	3,6	;RP1=0, select bank0
  3504  16E9  00DB               	movwf	___flmul@a+1
  3505  16EA  1683               	bsf	3,5	;RP0=1, select bank1
  3506  16EB  1303               	bcf	3,6	;RP1=0, select bank1
  3507  16EC  0820               	movf	Resistance_Value@Voltage^(0+128),w
  3508  16ED  1283               	bcf	3,5	;RP0=0, select bank0
  3509  16EE  1303               	bcf	3,6	;RP1=0, select bank0
  3510  16EF  00DA               	movwf	___flmul@a
  3511  16F0  3040               	movlw	64
  3512  16F1  00D9               	movwf	___flmul@b+3
  3513  16F2  3000               	movlw	0
  3514  16F3  00D8               	movwf	___flmul@b+2
  3515  16F4  3000               	movlw	0
  3516  16F5  00D7               	movwf	___flmul@b+1
  3517  16F6  3000               	movlw	0
  3518  16F7  00D6               	movwf	___flmul@b
  3519  16F8  120A  158A  249F  160A  118A  	fcall	___flmul
  3520  16FD  1283               	bcf	3,5	;RP0=0, select bank0
  3521  16FE  1303               	bcf	3,6	;RP1=0, select bank0
  3522  16FF  0859               	movf	?___flmul+3,w
  3523  1700  00B7               	movwf	___flsub@a+3
  3524  1701  0858               	movf	?___flmul+2,w
  3525  1702  00B6               	movwf	___flsub@a+2
  3526  1703  0857               	movf	?___flmul+1,w
  3527  1704  00B5               	movwf	___flsub@a+1
  3528  1705  0856               	movf	?___flmul,w
  3529  1706  00B4               	movwf	___flsub@a
  3530  1707  160A  118A  256B  160A  118A  	fcall	___flsub
  3531  170C  1283               	bcf	3,5	;RP0=0, select bank0
  3532  170D  1303               	bcf	3,6	;RP1=0, select bank0
  3533  170E  0837               	movf	?___flsub+3,w
  3534  170F  00BF               	movwf	___fldiv@a+3
  3535  1710  0836               	movf	?___flsub+2,w
  3536  1711  00BE               	movwf	___fldiv@a+2
  3537  1712  0835               	movf	?___flsub+1,w
  3538  1713  00BD               	movwf	___fldiv@a+1
  3539  1714  0834               	movf	?___flsub,w
  3540  1715  00BC               	movwf	___fldiv@a
  3541  1716  3005               	movlw	5
  3542  1717  00F4               	movwf	___wmul@multiplicand
  3543  1718  3000               	movlw	0
  3544  1719  00F5               	movwf	___wmul@multiplicand+1
  3545  171A  1683               	bsf	3,5	;RP0=1, select bank1
  3546  171B  1303               	bcf	3,6	;RP1=0, select bank1
  3547  171C  0825               	movf	(Resistance_Value@R+1)^(0+128),w
  3548  171D  00F3               	movwf	___wmul@multiplier+1
  3549  171E  0824               	movf	Resistance_Value@R^(0+128),w
  3550  171F  00F2               	movwf	___wmul@multiplier
  3551  1720  160A  118A  258F  160A  118A  	fcall	___wmul
  3552  1725  0872               	movf	?___wmul,w
  3553  1726  00F8               	movwf	___xxtofl@val
  3554  1727  0873               	movf	?___wmul+1,w
  3555  1728  00F9               	movwf	___xxtofl@val+1
  3556  1729  3000               	movlw	0
  3557  172A  1BF9               	btfsc	___xxtofl@val+1,7
  3558  172B  30FF               	movlw	255
  3559  172C  00FA               	movwf	___xxtofl@val+2
  3560  172D  00FB               	movwf	___xxtofl@val+3
  3561  172E  3001               	movlw	1
  3562  172F  120A  118A  2717  160A  118A  	fcall	___xxtofl
  3563  1734  087B               	movf	?___xxtofl+3,w
  3564  1735  1283               	bcf	3,5	;RP0=0, select bank0
  3565  1736  1303               	bcf	3,6	;RP1=0, select bank0
  3566  1737  00C3               	movwf	___fldiv@b+3
  3567  1738  087A               	movf	?___xxtofl+2,w
  3568  1739  00C2               	movwf	___fldiv@b+2
  3569  173A  0879               	movf	?___xxtofl+1,w
  3570  173B  00C1               	movwf	___fldiv@b+1
  3571  173C  0878               	movf	?___xxtofl,w
  3572  173D  00C0               	movwf	___fldiv@b
  3573  173E  120A  158A  203A  160A  118A  	fcall	___fldiv
  3574  1743  1283               	bcf	3,5	;RP0=0, select bank0
  3575  1744  1303               	bcf	3,6	;RP1=0, select bank0
  3576  1745  083F               	movf	?___fldiv+3,w
  3577  1746  1683               	bsf	3,5	;RP0=1, select bank1
  3578  1747  1303               	bcf	3,6	;RP1=0, select bank1
  3579  1748  00A3               	movwf	(?_Resistance_Value+3)^(0+128)
  3580  1749  1283               	bcf	3,5	;RP0=0, select bank0
  3581  174A  1303               	bcf	3,6	;RP1=0, select bank0
  3582  174B  083E               	movf	?___fldiv+2,w
  3583  174C  1683               	bsf	3,5	;RP0=1, select bank1
  3584  174D  1303               	bcf	3,6	;RP1=0, select bank1
  3585  174E  00A2               	movwf	(?_Resistance_Value+2)^(0+128)
  3586  174F  1283               	bcf	3,5	;RP0=0, select bank0
  3587  1750  1303               	bcf	3,6	;RP1=0, select bank0
  3588  1751  083D               	movf	?___fldiv+1,w
  3589  1752  1683               	bsf	3,5	;RP0=1, select bank1
  3590  1753  1303               	bcf	3,6	;RP1=0, select bank1
  3591  1754  00A1               	movwf	(?_Resistance_Value+1)^(0+128)
  3592  1755  1283               	bcf	3,5	;RP0=0, select bank0
  3593  1756  1303               	bcf	3,6	;RP1=0, select bank0
  3594  1757  083C               	movf	?___fldiv,w
  3595  1758  1683               	bsf	3,5	;RP0=1, select bank1
  3596  1759  1303               	bcf	3,6	;RP1=0, select bank1
  3597  175A  00A0               	movwf	?_Resistance_Value^(0+128)
  3598  175B                     l41:
  3599  175B  0008               	return
  3600  175C                     __end_of_Resistance_Value:
  3601                           
  3602                           	psect	text11
  3603  0717                     __ptext11:	
  3604 ;; *************** function ___xxtofl *****************
  3605 ;; Defined at:
  3606 ;;		line 10 in file "C:\Program Files\Microchip\xc8\v2.20\pic\sources\c90\common\xxtofl.c"
  3607 ;; Parameters:    Size  Location     Type
  3608 ;;  sign            1    wreg     unsigned char 
  3609 ;;  val             4    8[COMMON] long 
  3610 ;; Auto vars:     Size  Location     Type
  3611 ;;  sign            1    4[BANK0 ] unsigned char 
  3612 ;;  arg             4    6[BANK0 ] unsigned long 
  3613 ;;  exp             1    5[BANK0 ] unsigned char 
  3614 ;; Return value:  Size  Location     Type
  3615 ;;                  4    8[COMMON] unsigned char 
  3616 ;; Registers used:
  3617 ;;		wreg, status,2, status,0, btemp+1
  3618 ;; Tracked objects:
  3619 ;;		On entry : 0/0
  3620 ;;		On exit  : 0/0
  3621 ;;		Unchanged: 0/0
  3622 ;; Data sizes:     COMMON   BANK0   BANK1   BANK3   BANK2
  3623 ;;      Params:         4       0       0       0       0
  3624 ;;      Locals:         0       6       0       0       0
  3625 ;;      Temps:          0       4       0       0       0
  3626 ;;      Totals:         4      10       0       0       0
  3627 ;;Total ram usage:       14 bytes
  3628 ;; Hardware stack levels used:    1
  3629 ;; Hardware stack levels required when called:    1
  3630 ;; This function calls:
  3631 ;;		Nothing
  3632 ;; This function is called by:
  3633 ;;		_Voltage_Value
  3634 ;;		_Resistance_Value
  3635 ;; This function uses a non-reentrant model
  3636 ;;
  3637                           
  3638                           
  3639                           ;psect for function ___xxtofl
  3640  0717                     ___xxtofl:
  3641                           
  3642                           ;incstack = 0
  3643                           ; Regs used in ___xxtofl: [wreg+status,2+status,0+btemp+1]
  3644                           ;___xxtofl@sign stored from wreg
  3645  0717  1283               	bcf	3,5	;RP0=0, select bank0
  3646  0718  1303               	bcf	3,6	;RP1=0, select bank0
  3647  0719  00A4               	movwf	___xxtofl@sign
  3648  071A                     l2191:
  3649  071A  0824               	movf	___xxtofl@sign,w
  3650  071B  1903               	btfsc	3,2
  3651  071C  2F1E               	goto	u3111
  3652  071D  2F1F               	goto	u3110
  3653  071E                     u3111:
  3654  071E  2F33               	goto	l2197
  3655  071F                     u3110:
  3656  071F                     l2193:
  3657  071F  1FFB               	btfss	___xxtofl@val+3,7
  3658  0720  2F22               	goto	u3121
  3659  0721  2F23               	goto	u3120
  3660  0722                     u3121:
  3661  0722  2F33               	goto	l2197
  3662  0723                     u3120:
  3663  0723                     l2195:
  3664  0723  0978               	comf	___xxtofl@val,w
  3665  0724  00A6               	movwf	___xxtofl@arg
  3666  0725  0979               	comf	___xxtofl@val+1,w
  3667  0726  00A7               	movwf	___xxtofl@arg+1
  3668  0727  097A               	comf	___xxtofl@val+2,w
  3669  0728  00A8               	movwf	___xxtofl@arg+2
  3670  0729  097B               	comf	___xxtofl@val+3,w
  3671  072A  00A9               	movwf	___xxtofl@arg+3
  3672  072B  0AA6               	incf	___xxtofl@arg,f
  3673  072C  1903               	skipnz
  3674  072D  0AA7               	incf	___xxtofl@arg+1,f
  3675  072E  1903               	skipnz
  3676  072F  0AA8               	incf	___xxtofl@arg+2,f
  3677  0730  1903               	skipnz
  3678  0731  0AA9               	incf	___xxtofl@arg+3,f
  3679  0732  2F3B               	goto	l654
  3680  0733                     l2197:
  3681  0733  087B               	movf	___xxtofl@val+3,w
  3682  0734  00A9               	movwf	___xxtofl@arg+3
  3683  0735  087A               	movf	___xxtofl@val+2,w
  3684  0736  00A8               	movwf	___xxtofl@arg+2
  3685  0737  0879               	movf	___xxtofl@val+1,w
  3686  0738  00A7               	movwf	___xxtofl@arg+1
  3687  0739  0878               	movf	___xxtofl@val,w
  3688  073A  00A6               	movwf	___xxtofl@arg
  3689  073B                     l654:
  3690  073B  087B               	movf	___xxtofl@val+3,w
  3691  073C  047A               	iorwf	___xxtofl@val+2,w
  3692  073D  0479               	iorwf	___xxtofl@val+1,w
  3693  073E  0478               	iorwf	___xxtofl@val,w
  3694  073F  1D03               	skipz
  3695  0740  2F42               	goto	u3131
  3696  0741  2F43               	goto	u3130
  3697  0742                     u3131:
  3698  0742  2F4C               	goto	l2203
  3699  0743                     u3130:
  3700  0743                     l2199:
  3701  0743  3000               	movlw	0
  3702  0744  00FB               	movwf	?___xxtofl+3
  3703  0745  3000               	movlw	0
  3704  0746  00FA               	movwf	?___xxtofl+2
  3705  0747  3000               	movlw	0
  3706  0748  00F9               	movwf	?___xxtofl+1
  3707  0749  3000               	movlw	0
  3708  074A  00F8               	movwf	?___xxtofl
  3709  074B  2FD2               	goto	l656
  3710  074C                     l2203:
  3711  074C  3096               	movlw	150
  3712  074D  00FF               	movwf	btemp+1
  3713  074E  087F               	movf	btemp+1,w
  3714  074F  00A5               	movwf	___xxtofl@exp
  3715  0750  2F5E               	goto	l2209
  3716  0751                     l2205:
  3717  0751  3001               	movlw	1
  3718  0752  00FF               	movwf	btemp+1
  3719  0753  087F               	movf	btemp+1,w
  3720  0754  07A5               	addwf	___xxtofl@exp,f
  3721  0755                     l2207:
  3722  0755  3001               	movlw	1
  3723  0756                     u3145:
  3724  0756  1003               	clrc
  3725  0757  0CA9               	rrf	___xxtofl@arg+3,f
  3726  0758  0CA8               	rrf	___xxtofl@arg+2,f
  3727  0759  0CA7               	rrf	___xxtofl@arg+1,f
  3728  075A  0CA6               	rrf	___xxtofl@arg,f
  3729  075B  3EFF               	addlw	-1
  3730  075C  1D03               	skipz
  3731  075D  2F56               	goto	u3145
  3732  075E                     l2209:
  3733  075E  30FE               	movlw	254
  3734  075F  0529               	andwf	___xxtofl@arg+3,w
  3735  0760  1D03               	btfss	3,2
  3736  0761  2F63               	goto	u3151
  3737  0762  2F64               	goto	u3150
  3738  0763                     u3151:
  3739  0763  2F51               	goto	l2205
  3740  0764                     u3150:
  3741  0764  2F80               	goto	l2217
  3742  0765                     l2211:
  3743  0765  3001               	movlw	1
  3744  0766  00FF               	movwf	btemp+1
  3745  0767  087F               	movf	btemp+1,w
  3746  0768  07A5               	addwf	___xxtofl@exp,f
  3747  0769                     l2213:
  3748  0769  3001               	movlw	1
  3749  076A  07A6               	addwf	___xxtofl@arg,f
  3750  076B  3000               	movlw	0
  3751  076C  1803               	skipnc
  3752  076D  3001               	movlw	1
  3753  076E  07A7               	addwf	___xxtofl@arg+1,f
  3754  076F  3000               	movlw	0
  3755  0770  1803               	skipnc
  3756  0771  3001               	movlw	1
  3757  0772  07A8               	addwf	___xxtofl@arg+2,f
  3758  0773  3000               	movlw	0
  3759  0774  1803               	skipnc
  3760  0775  3001               	movlw	1
  3761  0776  07A9               	addwf	___xxtofl@arg+3,f
  3762  0777                     l2215:
  3763  0777  3001               	movlw	1
  3764  0778                     u3165:
  3765  0778  1003               	clrc
  3766  0779  0CA9               	rrf	___xxtofl@arg+3,f
  3767  077A  0CA8               	rrf	___xxtofl@arg+2,f
  3768  077B  0CA7               	rrf	___xxtofl@arg+1,f
  3769  077C  0CA6               	rrf	___xxtofl@arg,f
  3770  077D  3EFF               	addlw	-1
  3771  077E  1D03               	skipz
  3772  077F  2F78               	goto	u3165
  3773  0780                     l2217:
  3774  0780  30FF               	movlw	255
  3775  0781  0529               	andwf	___xxtofl@arg+3,w
  3776  0782  1D03               	btfss	3,2
  3777  0783  2F85               	goto	u3171
  3778  0784  2F86               	goto	u3170
  3779  0785                     u3171:
  3780  0785  2F65               	goto	l2211
  3781  0786                     u3170:
  3782  0786  2F92               	goto	l2221
  3783  0787                     l2219:
  3784  0787  3001               	movlw	1
  3785  0788  02A5               	subwf	___xxtofl@exp,f
  3786  0789  3001               	movlw	1
  3787  078A  00A0               	movwf	??___xxtofl
  3788  078B                     u3185:
  3789  078B  1003               	clrc
  3790  078C  0DA6               	rlf	___xxtofl@arg,f
  3791  078D  0DA7               	rlf	___xxtofl@arg+1,f
  3792  078E  0DA8               	rlf	___xxtofl@arg+2,f
  3793  078F  0DA9               	rlf	___xxtofl@arg+3,f
  3794  0790  0BA0               	decfsz	??___xxtofl,f
  3795  0791  2F8B               	goto	u3185
  3796  0792                     l2221:
  3797  0792  1BA8               	btfsc	___xxtofl@arg+2,7
  3798  0793  2F95               	goto	u3191
  3799  0794  2F96               	goto	u3190
  3800  0795                     u3191:
  3801  0795  2F9C               	goto	l667
  3802  0796                     u3190:
  3803  0796                     l2223:
  3804  0796  3002               	movlw	2
  3805  0797  0225               	subwf	___xxtofl@exp,w
  3806  0798  1803               	skipnc
  3807  0799  2F9B               	goto	u3201
  3808  079A  2F9C               	goto	u3200
  3809  079B                     u3201:
  3810  079B  2F87               	goto	l2219
  3811  079C                     u3200:
  3812  079C                     l667:
  3813  079C  1825               	btfsc	___xxtofl@exp,0
  3814  079D  2F9F               	goto	u3211
  3815  079E  2FA0               	goto	u3210
  3816  079F                     u3211:
  3817  079F  2FA8               	goto	l668
  3818  07A0                     u3210:
  3819  07A0                     l2225:
  3820  07A0  30FF               	movlw	255
  3821  07A1  05A6               	andwf	___xxtofl@arg,f
  3822  07A2  30FF               	movlw	255
  3823  07A3  05A7               	andwf	___xxtofl@arg+1,f
  3824  07A4  307F               	movlw	127
  3825  07A5  05A8               	andwf	___xxtofl@arg+2,f
  3826  07A6  30FF               	movlw	255
  3827  07A7  05A9               	andwf	___xxtofl@arg+3,f
  3828  07A8                     l668:
  3829  07A8  1003               	clrc
  3830  07A9  0CA5               	rrf	___xxtofl@exp,f
  3831  07AA                     l2227:
  3832  07AA  0825               	movf	___xxtofl@exp,w
  3833  07AB  00A0               	movwf	??___xxtofl
  3834  07AC  01A1               	clrf	??___xxtofl+1
  3835  07AD  01A2               	clrf	??___xxtofl+2
  3836  07AE  01A3               	clrf	??___xxtofl+3
  3837  07AF  3018               	movlw	24
  3838  07B0                     u3225:
  3839  07B0  1003               	clrc
  3840  07B1  0DA0               	rlf	??___xxtofl,f
  3841  07B2  0DA1               	rlf	??___xxtofl+1,f
  3842  07B3  0DA2               	rlf	??___xxtofl+2,f
  3843  07B4  0DA3               	rlf	??___xxtofl+3,f
  3844  07B5                     u3220:
  3845  07B5  3EFF               	addlw	-1
  3846  07B6  1D03               	skipz
  3847  07B7  2FB0               	goto	u3225
  3848  07B8  0820               	movf	??___xxtofl,w
  3849  07B9  04A6               	iorwf	___xxtofl@arg,f
  3850  07BA  0821               	movf	??___xxtofl+1,w
  3851  07BB  04A7               	iorwf	___xxtofl@arg+1,f
  3852  07BC  0822               	movf	??___xxtofl+2,w
  3853  07BD  04A8               	iorwf	___xxtofl@arg+2,f
  3854  07BE  0823               	movf	??___xxtofl+3,w
  3855  07BF  04A9               	iorwf	___xxtofl@arg+3,f
  3856  07C0                     l2229:
  3857  07C0  0824               	movf	___xxtofl@sign,w
  3858  07C1  1903               	btfsc	3,2
  3859  07C2  2FC4               	goto	u3231
  3860  07C3  2FC5               	goto	u3230
  3861  07C4                     u3231:
  3862  07C4  2FCA               	goto	l2235
  3863  07C5                     u3230:
  3864  07C5                     l2231:
  3865  07C5  1FFB               	btfss	___xxtofl@val+3,7
  3866  07C6  2FC8               	goto	u3241
  3867  07C7  2FC9               	goto	u3240
  3868  07C8                     u3241:
  3869  07C8  2FCA               	goto	l2235
  3870  07C9                     u3240:
  3871  07C9                     l2233:
  3872  07C9  17A9               	bsf	___xxtofl@arg+3,7
  3873  07CA                     l2235:
  3874  07CA  0829               	movf	___xxtofl@arg+3,w
  3875  07CB  00FB               	movwf	?___xxtofl+3
  3876  07CC  0828               	movf	___xxtofl@arg+2,w
  3877  07CD  00FA               	movwf	?___xxtofl+2
  3878  07CE  0827               	movf	___xxtofl@arg+1,w
  3879  07CF  00F9               	movwf	?___xxtofl+1
  3880  07D0  0826               	movf	___xxtofl@arg,w
  3881  07D1  00F8               	movwf	?___xxtofl
  3882  07D2                     l656:
  3883  07D2  0008               	return
  3884  07D3                     __end_of___xxtofl:
  3885                           
  3886                           	psect	text12
  3887  158F                     __ptext12:	
  3888 ;; *************** function ___wmul *****************
  3889 ;; Defined at:
  3890 ;;		line 15 in file "C:\Program Files\Microchip\xc8\v2.20\pic\sources\c90\common\Umul16.c"
  3891 ;; Parameters:    Size  Location     Type
  3892 ;;  multiplier      2    2[COMMON] unsigned int 
  3893 ;;  multiplicand    2    4[COMMON] unsigned int 
  3894 ;; Auto vars:     Size  Location     Type
  3895 ;;  product         2    6[COMMON] unsigned int 
  3896 ;; Return value:  Size  Location     Type
  3897 ;;                  2    2[COMMON] unsigned int 
  3898 ;; Registers used:
  3899 ;;		wreg, status,2, status,0
  3900 ;; Tracked objects:
  3901 ;;		On entry : 0/0
  3902 ;;		On exit  : 0/0
  3903 ;;		Unchanged: 0/0
  3904 ;; Data sizes:     COMMON   BANK0   BANK1   BANK3   BANK2
  3905 ;;      Params:         4       0       0       0       0
  3906 ;;      Locals:         2       0       0       0       0
  3907 ;;      Temps:          0       0       0       0       0
  3908 ;;      Totals:         6       0       0       0       0
  3909 ;;Total ram usage:        6 bytes
  3910 ;; Hardware stack levels used:    1
  3911 ;; Hardware stack levels required when called:    1
  3912 ;; This function calls:
  3913 ;;		Nothing
  3914 ;; This function is called by:
  3915 ;;		_Resistance_Value
  3916 ;; This function uses a non-reentrant model
  3917 ;;
  3918                           
  3919                           
  3920                           ;psect for function ___wmul
  3921  158F                     ___wmul:
  3922  158F                     l1865:	
  3923                           ;incstack = 0
  3924                           ; Regs used in ___wmul: [wreg+status,2+status,0]
  3925                           
  3926  158F  01F6               	clrf	___wmul@product
  3927  1590  01F7               	clrf	___wmul@product+1
  3928  1591                     l1867:
  3929  1591  1C72               	btfss	___wmul@multiplier,0
  3930  1592  2D94               	goto	u2341
  3931  1593  2D95               	goto	u2340
  3932  1594                     u2341:
  3933  1594  2D9B               	goto	l221
  3934  1595                     u2340:
  3935  1595                     l1869:
  3936  1595  0874               	movf	___wmul@multiplicand,w
  3937  1596  07F6               	addwf	___wmul@product,f
  3938  1597  1803               	skipnc
  3939  1598  0AF7               	incf	___wmul@product+1,f
  3940  1599  0875               	movf	___wmul@multiplicand+1,w
  3941  159A  07F7               	addwf	___wmul@product+1,f
  3942  159B                     l221:
  3943  159B  3001               	movlw	1
  3944  159C                     u2355:
  3945  159C  1003               	clrc
  3946  159D  0DF4               	rlf	___wmul@multiplicand,f
  3947  159E  0DF5               	rlf	___wmul@multiplicand+1,f
  3948  159F  3EFF               	addlw	-1
  3949  15A0  1D03               	skipz
  3950  15A1  2D9C               	goto	u2355
  3951  15A2                     l1871:
  3952  15A2  3001               	movlw	1
  3953  15A3                     u2365:
  3954  15A3  1003               	clrc
  3955  15A4  0CF3               	rrf	___wmul@multiplier+1,f
  3956  15A5  0CF2               	rrf	___wmul@multiplier,f
  3957  15A6  3EFF               	addlw	-1
  3958  15A7  1D03               	skipz
  3959  15A8  2DA3               	goto	u2365
  3960  15A9                     l1873:
  3961  15A9  0872               	movf	___wmul@multiplier,w
  3962  15AA  0473               	iorwf	___wmul@multiplier+1,w
  3963  15AB  1D03               	btfss	3,2
  3964  15AC  2DAE               	goto	u2371
  3965  15AD  2DAF               	goto	u2370
  3966  15AE                     u2371:
  3967  15AE  2D91               	goto	l1867
  3968  15AF                     u2370:
  3969  15AF                     l1875:
  3970  15AF  0877               	movf	___wmul@product+1,w
  3971  15B0  00F3               	movwf	?___wmul+1
  3972  15B1  0876               	movf	___wmul@product,w
  3973  15B2  00F2               	movwf	?___wmul
  3974  15B3                     l223:
  3975  15B3  0008               	return
  3976  15B4                     __end_of___wmul:
  3977                           
  3978                           	psect	text13
  3979  156B                     __ptext13:	
  3980 ;; *************** function ___flsub *****************
  3981 ;; Defined at:
  3982 ;;		line 242 in file "C:\Program Files\Microchip\xc8\v2.20\pic\sources\c90\common\sprcadd.c"
  3983 ;; Parameters:    Size  Location     Type
  3984 ;;  a               4   20[BANK0 ] unsigned int 
  3985 ;;  b               4   24[BANK0 ] unsigned int 
  3986 ;; Auto vars:     Size  Location     Type
  3987 ;;		None
  3988 ;; Return value:  Size  Location     Type
  3989 ;;                  4   20[BANK0 ] unsigned int 
  3990 ;; Registers used:
  3991 ;;		wreg, status,2, status,0, btemp+1, pclath, cstack
  3992 ;; Tracked objects:
  3993 ;;		On entry : 0/0
  3994 ;;		On exit  : 0/0
  3995 ;;		Unchanged: 0/0
  3996 ;; Data sizes:     COMMON   BANK0   BANK1   BANK3   BANK2
  3997 ;;      Params:         0       8       0       0       0
  3998 ;;      Locals:         0       0       0       0       0
  3999 ;;      Temps:          0       0       0       0       0
  4000 ;;      Totals:         0       8       0       0       0
  4001 ;;Total ram usage:        8 bytes
  4002 ;; Hardware stack levels used:    1
  4003 ;; Hardware stack levels required when called:    2
  4004 ;; This function calls:
  4005 ;;		___fladd
  4006 ;; This function is called by:
  4007 ;;		_Resistance_Value
  4008 ;;		_conversion_newton
  4009 ;; This function uses a non-reentrant model
  4010 ;;
  4011                           
  4012                           
  4013                           ;psect for function ___flsub
  4014  156B                     ___flsub:
  4015  156B                     l1899:	
  4016                           ;incstack = 0
  4017                           ; Regs used in ___flsub: [wreg+status,2+status,0+btemp+1+pclath+cstack]
  4018                           
  4019  156B  3080               	movlw	128
  4020  156C  1283               	bcf	3,5	;RP0=0, select bank0
  4021  156D  1303               	bcf	3,6	;RP1=0, select bank0
  4022  156E  06B7               	xorwf	___flsub@a+3,f
  4023  156F                     l1901:
  4024  156F  083B               	movf	___flsub@b+3,w
  4025  1570  00A3               	movwf	___fladd@b+3
  4026  1571  083A               	movf	___flsub@b+2,w
  4027  1572  00A2               	movwf	___fladd@b+2
  4028  1573  0839               	movf	___flsub@b+1,w
  4029  1574  00A1               	movwf	___fladd@b+1
  4030  1575  0838               	movf	___flsub@b,w
  4031  1576  00A0               	movwf	___fladd@b
  4032  1577  0837               	movf	___flsub@a+3,w
  4033  1578  00A7               	movwf	___fladd@a+3
  4034  1579  0836               	movf	___flsub@a+2,w
  4035  157A  00A6               	movwf	___fladd@a+2
  4036  157B  0835               	movf	___flsub@a+1,w
  4037  157C  00A5               	movwf	___fladd@a+1
  4038  157D  0834               	movf	___flsub@a,w
  4039  157E  00A4               	movwf	___fladd@a
  4040  157F  120A  158A  2217  160A  118A  	fcall	___fladd
  4041  1584  1283               	bcf	3,5	;RP0=0, select bank0
  4042  1585  1303               	bcf	3,6	;RP1=0, select bank0
  4043  1586  0823               	movf	?___fladd+3,w
  4044  1587  00B7               	movwf	?___flsub+3
  4045  1588  0822               	movf	?___fladd+2,w
  4046  1589  00B6               	movwf	?___flsub+2
  4047  158A  0821               	movf	?___fladd+1,w
  4048  158B  00B5               	movwf	?___flsub+1
  4049  158C  0820               	movf	?___fladd,w
  4050  158D  00B4               	movwf	?___flsub
  4051  158E                     l560:
  4052  158E  0008               	return
  4053  158F                     __end_of___flsub:
  4054                           
  4055                           	psect	text14
  4056  0A17                     __ptext14:	
  4057 ;; *************** function ___fladd *****************
  4058 ;; Defined at:
  4059 ;;		line 10 in file "C:\Program Files\Microchip\xc8\v2.20\pic\sources\c90\common\sprcadd.c"
  4060 ;; Parameters:    Size  Location     Type
  4061 ;;  b               4    0[BANK0 ] unsigned int 
  4062 ;;  a               4    4[BANK0 ] unsigned int 
  4063 ;; Auto vars:     Size  Location     Type
  4064 ;;  grs             1   19[BANK0 ] unsigned char 
  4065 ;;  bexp            1   18[BANK0 ] unsigned char 
  4066 ;;  aexp            1   17[BANK0 ] unsigned char 
  4067 ;;  signs           1   16[BANK0 ] unsigned char 
  4068 ;; Return value:  Size  Location     Type
  4069 ;;                  4    0[BANK0 ] unsigned char 
  4070 ;; Registers used:
  4071 ;;		wreg, status,2, status,0, btemp+1
  4072 ;; Tracked objects:
  4073 ;;		On entry : 0/0
  4074 ;;		On exit  : 0/0
  4075 ;;		Unchanged: 0/0
  4076 ;; Data sizes:     COMMON   BANK0   BANK1   BANK3   BANK2
  4077 ;;      Params:         0       8       0       0       0
  4078 ;;      Locals:         0       4       0       0       0
  4079 ;;      Temps:          0       8       0       0       0
  4080 ;;      Totals:         0      20       0       0       0
  4081 ;;Total ram usage:       20 bytes
  4082 ;; Hardware stack levels used:    1
  4083 ;; Hardware stack levels required when called:    1
  4084 ;; This function calls:
  4085 ;;		Nothing
  4086 ;; This function is called by:
  4087 ;;		_conversion_newton
  4088 ;;		___flsub
  4089 ;; This function uses a non-reentrant model
  4090 ;;
  4091                           
  4092                           
  4093                           ;psect for function ___fladd
  4094  0A17                     ___fladd:
  4095  0A17                     l1639:	
  4096                           ;incstack = 0
  4097                           ; Regs used in ___fladd: [wreg+status,2+status,0+btemp+1]
  4098                           
  4099  0A17  1283               	bcf	3,5	;RP0=0, select bank0
  4100  0A18  1303               	bcf	3,6	;RP1=0, select bank0
  4101  0A19  0823               	movf	___fladd@b+3,w
  4102  0A1A  3980               	andlw	128
  4103  0A1B  00FF               	movwf	btemp+1
  4104  0A1C  087F               	movf	btemp+1,w
  4105  0A1D  00B0               	movwf	___fladd@signs
  4106  0A1E                     l1641:
  4107  0A1E  0823               	movf	___fladd@b+3,w
  4108  0A1F  00A8               	movwf	??___fladd
  4109  0A20  0728               	addwf	??___fladd,w
  4110  0A21  00FF               	movwf	btemp+1
  4111  0A22  087F               	movf	btemp+1,w
  4112  0A23  00B2               	movwf	___fladd@bexp
  4113  0A24                     l1643:
  4114  0A24  1FA2               	btfss	___fladd@b+2,7
  4115  0A25  2A27               	goto	u1831
  4116  0A26  2A28               	goto	u1830
  4117  0A27                     u1831:
  4118  0A27  2A29               	goto	l1647
  4119  0A28                     u1830:
  4120  0A28                     l1645:
  4121  0A28  1432               	bsf	___fladd@bexp,0
  4122  0A29                     l1647:
  4123  0A29  0832               	movf	___fladd@bexp,w
  4124  0A2A  1903               	btfsc	3,2
  4125  0A2B  2A2D               	goto	u1841
  4126  0A2C  2A2E               	goto	u1840
  4127  0A2D                     u1841:
  4128  0A2D  2A3E               	goto	l1657
  4129  0A2E                     u1840:
  4130  0A2E                     l1649:
  4131  0A2E  0A32               	incf	___fladd@bexp,w
  4132  0A2F  1D03               	btfss	3,2
  4133  0A30  2A32               	goto	u1851
  4134  0A31  2A33               	goto	u1850
  4135  0A32                     u1851:
  4136  0A32  2A3B               	goto	l1653
  4137  0A33                     u1850:
  4138  0A33                     l1651:
  4139  0A33  3000               	movlw	0
  4140  0A34  00A3               	movwf	___fladd@b+3
  4141  0A35  3000               	movlw	0
  4142  0A36  00A2               	movwf	___fladd@b+2
  4143  0A37  3000               	movlw	0
  4144  0A38  00A1               	movwf	___fladd@b+1
  4145  0A39  3000               	movlw	0
  4146  0A3A  00A0               	movwf	___fladd@b
  4147  0A3B                     l1653:
  4148  0A3B  17A2               	bsf	___fladd@b+2,7
  4149  0A3C                     l1655:
  4150  0A3C  01A3               	clrf	___fladd@b+3
  4151  0A3D  2A46               	goto	l1659
  4152  0A3E                     l1657:
  4153  0A3E  3000               	movlw	0
  4154  0A3F  00A3               	movwf	___fladd@b+3
  4155  0A40  3000               	movlw	0
  4156  0A41  00A2               	movwf	___fladd@b+2
  4157  0A42  3000               	movlw	0
  4158  0A43  00A1               	movwf	___fladd@b+1
  4159  0A44  3000               	movlw	0
  4160  0A45  00A0               	movwf	___fladd@b
  4161  0A46                     l1659:
  4162  0A46  0827               	movf	___fladd@a+3,w
  4163  0A47  3980               	andlw	128
  4164  0A48  00FF               	movwf	btemp+1
  4165  0A49  087F               	movf	btemp+1,w
  4166  0A4A  00B1               	movwf	___fladd@aexp
  4167  0A4B                     l1661:
  4168  0A4B  0831               	movf	___fladd@aexp,w
  4169  0A4C  0630               	xorwf	___fladd@signs,w
  4170  0A4D  1903               	skipnz
  4171  0A4E  2A50               	goto	u1861
  4172  0A4F  2A51               	goto	u1860
  4173  0A50                     u1861:
  4174  0A50  2A52               	goto	l1665
  4175  0A51                     u1860:
  4176  0A51                     l1663:
  4177  0A51  1730               	bsf	___fladd@signs,6
  4178  0A52                     l1665:
  4179  0A52  0827               	movf	___fladd@a+3,w
  4180  0A53  00A8               	movwf	??___fladd
  4181  0A54  0728               	addwf	??___fladd,w
  4182  0A55  00FF               	movwf	btemp+1
  4183  0A56  087F               	movf	btemp+1,w
  4184  0A57  00B1               	movwf	___fladd@aexp
  4185  0A58                     l1667:
  4186  0A58  1FA6               	btfss	___fladd@a+2,7
  4187  0A59  2A5B               	goto	u1871
  4188  0A5A  2A5C               	goto	u1870
  4189  0A5B                     u1871:
  4190  0A5B  2A5D               	goto	l1671
  4191  0A5C                     u1870:
  4192  0A5C                     l1669:
  4193  0A5C  1431               	bsf	___fladd@aexp,0
  4194  0A5D                     l1671:
  4195  0A5D  0831               	movf	___fladd@aexp,w
  4196  0A5E  1903               	btfsc	3,2
  4197  0A5F  2A61               	goto	u1881
  4198  0A60  2A62               	goto	u1880
  4199  0A61                     u1881:
  4200  0A61  2A72               	goto	l1681
  4201  0A62                     u1880:
  4202  0A62                     l1673:
  4203  0A62  0A31               	incf	___fladd@aexp,w
  4204  0A63  1D03               	btfss	3,2
  4205  0A64  2A66               	goto	u1891
  4206  0A65  2A67               	goto	u1890
  4207  0A66                     u1891:
  4208  0A66  2A6F               	goto	l1677
  4209  0A67                     u1890:
  4210  0A67                     l1675:
  4211  0A67  3000               	movlw	0
  4212  0A68  00A7               	movwf	___fladd@a+3
  4213  0A69  3000               	movlw	0
  4214  0A6A  00A6               	movwf	___fladd@a+2
  4215  0A6B  3000               	movlw	0
  4216  0A6C  00A5               	movwf	___fladd@a+1
  4217  0A6D  3000               	movlw	0
  4218  0A6E  00A4               	movwf	___fladd@a
  4219  0A6F                     l1677:
  4220  0A6F  17A6               	bsf	___fladd@a+2,7
  4221  0A70                     l1679:
  4222  0A70  01A7               	clrf	___fladd@a+3
  4223  0A71  2A7A               	goto	l514
  4224  0A72                     l1681:
  4225  0A72  3000               	movlw	0
  4226  0A73  00A7               	movwf	___fladd@a+3
  4227  0A74  3000               	movlw	0
  4228  0A75  00A6               	movwf	___fladd@a+2
  4229  0A76  3000               	movlw	0
  4230  0A77  00A5               	movwf	___fladd@a+1
  4231  0A78  3000               	movlw	0
  4232  0A79  00A4               	movwf	___fladd@a
  4233  0A7A                     l514:
  4234  0A7A  0832               	movf	___fladd@bexp,w
  4235  0A7B  0231               	subwf	___fladd@aexp,w
  4236  0A7C  1803               	skipnc
  4237  0A7D  2A7F               	goto	u1901
  4238  0A7E  2A80               	goto	u1900
  4239  0A7F                     u1901:
  4240  0A7F  2AC4               	goto	l1717
  4241  0A80                     u1900:
  4242  0A80                     l1683:
  4243  0A80  1F30               	btfss	___fladd@signs,6
  4244  0A81  2A83               	goto	u1911
  4245  0A82  2A84               	goto	u1910
  4246  0A83                     u1911:
  4247  0A83  2A88               	goto	l1687
  4248  0A84                     u1910:
  4249  0A84                     l1685:
  4250  0A84  3080               	movlw	128
  4251  0A85  00FF               	movwf	btemp+1
  4252  0A86  087F               	movf	btemp+1,w
  4253  0A87  06B0               	xorwf	___fladd@signs,f
  4254  0A88                     l1687:
  4255  0A88  0832               	movf	___fladd@bexp,w
  4256  0A89  00FF               	movwf	btemp+1
  4257  0A8A  087F               	movf	btemp+1,w
  4258  0A8B  00B3               	movwf	___fladd@grs
  4259  0A8C                     l1689:
  4260  0A8C  0831               	movf	___fladd@aexp,w
  4261  0A8D  00FF               	movwf	btemp+1
  4262  0A8E  087F               	movf	btemp+1,w
  4263  0A8F  00B2               	movwf	___fladd@bexp
  4264  0A90                     l1691:
  4265  0A90  0833               	movf	___fladd@grs,w
  4266  0A91  00FF               	movwf	btemp+1
  4267  0A92  087F               	movf	btemp+1,w
  4268  0A93  00B1               	movwf	___fladd@aexp
  4269  0A94                     l1693:
  4270  0A94  0820               	movf	___fladd@b,w
  4271  0A95  00FF               	movwf	btemp+1
  4272  0A96  087F               	movf	btemp+1,w
  4273  0A97  00B3               	movwf	___fladd@grs
  4274  0A98                     l1695:
  4275  0A98  0824               	movf	___fladd@a,w
  4276  0A99  00FF               	movwf	btemp+1
  4277  0A9A  087F               	movf	btemp+1,w
  4278  0A9B  00A0               	movwf	___fladd@b
  4279  0A9C                     l1697:
  4280  0A9C  0833               	movf	___fladd@grs,w
  4281  0A9D  00FF               	movwf	btemp+1
  4282  0A9E  087F               	movf	btemp+1,w
  4283  0A9F  00A4               	movwf	___fladd@a
  4284  0AA0                     l1699:
  4285  0AA0  0821               	movf	___fladd@b+1,w
  4286  0AA1  00FF               	movwf	btemp+1
  4287  0AA2  087F               	movf	btemp+1,w
  4288  0AA3  00B3               	movwf	___fladd@grs
  4289  0AA4                     l1701:
  4290  0AA4  0825               	movf	___fladd@a+1,w
  4291  0AA5  00FF               	movwf	btemp+1
  4292  0AA6  087F               	movf	btemp+1,w
  4293  0AA7  00A1               	movwf	___fladd@b+1
  4294  0AA8                     l1703:
  4295  0AA8  0833               	movf	___fladd@grs,w
  4296  0AA9  00FF               	movwf	btemp+1
  4297  0AAA  087F               	movf	btemp+1,w
  4298  0AAB  00A5               	movwf	___fladd@a+1
  4299  0AAC                     l1705:
  4300  0AAC  0822               	movf	___fladd@b+2,w
  4301  0AAD  00FF               	movwf	btemp+1
  4302  0AAE  087F               	movf	btemp+1,w
  4303  0AAF  00B3               	movwf	___fladd@grs
  4304  0AB0                     l1707:
  4305  0AB0  0826               	movf	___fladd@a+2,w
  4306  0AB1  00FF               	movwf	btemp+1
  4307  0AB2  087F               	movf	btemp+1,w
  4308  0AB3  00A2               	movwf	___fladd@b+2
  4309  0AB4                     l1709:
  4310  0AB4  0833               	movf	___fladd@grs,w
  4311  0AB5  00FF               	movwf	btemp+1
  4312  0AB6  087F               	movf	btemp+1,w
  4313  0AB7  00A6               	movwf	___fladd@a+2
  4314  0AB8                     l1711:
  4315  0AB8  0823               	movf	___fladd@b+3,w
  4316  0AB9  00FF               	movwf	btemp+1
  4317  0ABA  087F               	movf	btemp+1,w
  4318  0ABB  00B3               	movwf	___fladd@grs
  4319  0ABC                     l1713:
  4320  0ABC  0827               	movf	___fladd@a+3,w
  4321  0ABD  00FF               	movwf	btemp+1
  4322  0ABE  087F               	movf	btemp+1,w
  4323  0ABF  00A3               	movwf	___fladd@b+3
  4324  0AC0                     l1715:
  4325  0AC0  0833               	movf	___fladd@grs,w
  4326  0AC1  00FF               	movwf	btemp+1
  4327  0AC2  087F               	movf	btemp+1,w
  4328  0AC3  00A7               	movwf	___fladd@a+3
  4329  0AC4                     l1717:
  4330  0AC4  01B3               	clrf	___fladd@grs
  4331  0AC5                     l1719:
  4332  0AC5  0831               	movf	___fladd@aexp,w
  4333  0AC6  00A8               	movwf	??___fladd
  4334  0AC7  01A9               	clrf	??___fladd+1
  4335  0AC8  0829               	movf	??___fladd+1,w
  4336  0AC9  00AB               	movwf	??___fladd+3
  4337  0ACA  0832               	movf	___fladd@bexp,w
  4338  0ACB  0228               	subwf	??___fladd,w
  4339  0ACC  00AA               	movwf	??___fladd+2
  4340  0ACD  1C03               	skipc
  4341  0ACE  03AB               	decf	??___fladd+3,f
  4342  0ACF  082B               	movf	??___fladd+3,w
  4343  0AD0  3A80               	xorlw	128
  4344  0AD1  00FF               	movwf	btemp+1
  4345  0AD2  3080               	movlw	128
  4346  0AD3  027F               	subwf	btemp+1,w
  4347  0AD4  1D03               	skipz
  4348  0AD5  2AD8               	goto	u1925
  4349  0AD6  301A               	movlw	26
  4350  0AD7  022A               	subwf	??___fladd+2,w
  4351  0AD8                     u1925:
  4352  0AD8  1C03               	skipc
  4353  0AD9  2ADB               	goto	u1921
  4354  0ADA  2ADC               	goto	u1920
  4355  0ADB                     u1921:
  4356  0ADB  2B19               	goto	l1739
  4357  0ADC                     u1920:
  4358  0ADC                     l1721:
  4359  0ADC  1283               	bcf	3,5	;RP0=0, select bank0
  4360  0ADD  1303               	bcf	3,6	;RP1=0, select bank0
  4361  0ADE  0823               	movf	___fladd@b+3,w
  4362  0ADF  0422               	iorwf	___fladd@b+2,w
  4363  0AE0  0421               	iorwf	___fladd@b+1,w
  4364  0AE1  0420               	iorwf	___fladd@b,w
  4365  0AE2  1D03               	skipz
  4366  0AE3  2AE5               	goto	u1931
  4367  0AE4  2AE7               	goto	u1930
  4368  0AE5                     u1931:
  4369  0AE5  3001               	movlw	1
  4370  0AE6  2AE8               	goto	u1940
  4371  0AE7                     u1930:
  4372  0AE7  3000               	movlw	0
  4373  0AE8                     u1940:
  4374  0AE8  00FF               	movwf	btemp+1
  4375  0AE9  087F               	movf	btemp+1,w
  4376  0AEA  00B3               	movwf	___fladd@grs
  4377  0AEB                     l1723:
  4378  0AEB  3000               	movlw	0
  4379  0AEC  00A3               	movwf	___fladd@b+3
  4380  0AED  3000               	movlw	0
  4381  0AEE  00A2               	movwf	___fladd@b+2
  4382  0AEF  3000               	movlw	0
  4383  0AF0  00A1               	movwf	___fladd@b+1
  4384  0AF1  3000               	movlw	0
  4385  0AF2  00A0               	movwf	___fladd@b
  4386  0AF3                     l1725:
  4387  0AF3  0831               	movf	___fladd@aexp,w
  4388  0AF4  00FF               	movwf	btemp+1
  4389  0AF5  087F               	movf	btemp+1,w
  4390  0AF6  00B2               	movwf	___fladd@bexp
  4391  0AF7  2B21               	goto	l518
  4392  0AF8                     l520:
  4393  0AF8  1C33               	btfss	___fladd@grs,0
  4394  0AF9  2AFB               	goto	u1951
  4395  0AFA  2AFC               	goto	u1950
  4396  0AFB                     u1951:
  4397  0AFB  2B05               	goto	l1729
  4398  0AFC                     u1950:
  4399  0AFC                     l1727:
  4400  0AFC  0833               	movf	___fladd@grs,w
  4401  0AFD  00A8               	movwf	??___fladd
  4402  0AFE  1003               	clrc
  4403  0AFF  0C28               	rrf	??___fladd,w
  4404  0B00  3801               	iorlw	1
  4405  0B01  00FF               	movwf	btemp+1
  4406  0B02  087F               	movf	btemp+1,w
  4407  0B03  00B3               	movwf	___fladd@grs
  4408  0B04  2B07               	goto	l1731
  4409  0B05                     l1729:
  4410  0B05  1003               	clrc
  4411  0B06  0CB3               	rrf	___fladd@grs,f
  4412  0B07                     l1731:
  4413  0B07  1C20               	btfss	___fladd@b,0
  4414  0B08  2B0A               	goto	u1961
  4415  0B09  2B0B               	goto	u1960
  4416  0B0A                     u1961:
  4417  0B0A  2B0C               	goto	l1735
  4418  0B0B                     u1960:
  4419  0B0B                     l1733:
  4420  0B0B  17B3               	bsf	___fladd@grs,7
  4421  0B0C                     l1735:
  4422  0B0C  3001               	movlw	1
  4423  0B0D  00A8               	movwf	??___fladd
  4424  0B0E                     u1975:
  4425  0B0E  0D23               	rlf	___fladd@b+3,w
  4426  0B0F  0CA3               	rrf	___fladd@b+3,f
  4427  0B10  0CA2               	rrf	___fladd@b+2,f
  4428  0B11  0CA1               	rrf	___fladd@b+1,f
  4429  0B12  0CA0               	rrf	___fladd@b,f
  4430  0B13  0BA8               	decfsz	??___fladd& (0+127),f
  4431  0B14  2B0E               	goto	u1975
  4432  0B15                     l1737:
  4433  0B15  3001               	movlw	1
  4434  0B16  00FF               	movwf	btemp+1
  4435  0B17  087F               	movf	btemp+1,w
  4436  0B18  07B2               	addwf	___fladd@bexp,f
  4437  0B19                     l1739:
  4438  0B19  1283               	bcf	3,5	;RP0=0, select bank0
  4439  0B1A  1303               	bcf	3,6	;RP1=0, select bank0
  4440  0B1B  0831               	movf	___fladd@aexp,w
  4441  0B1C  0232               	subwf	___fladd@bexp,w
  4442  0B1D  1C03               	skipc
  4443  0B1E  2B20               	goto	u1981
  4444  0B1F  2B21               	goto	u1980
  4445  0B20                     u1981:
  4446  0B20  2AF8               	goto	l520
  4447  0B21                     u1980:
  4448  0B21                     l518:
  4449  0B21  1B30               	btfsc	___fladd@signs,6
  4450  0B22  2B24               	goto	u1991
  4451  0B23  2B25               	goto	u1990
  4452  0B24                     u1991:
  4453  0B24  2B70               	goto	l1765
  4454  0B25                     u1990:
  4455  0B25                     l1741:
  4456  0B25  0832               	movf	___fladd@bexp,w
  4457  0B26  1D03               	btfss	3,2
  4458  0B27  2B29               	goto	u2001
  4459  0B28  2B2A               	goto	u2000
  4460  0B29                     u2001:
  4461  0B29  2B33               	goto	l1747
  4462  0B2A                     u2000:
  4463  0B2A                     l1743:
  4464  0B2A  3000               	movlw	0
  4465  0B2B  00A3               	movwf	?___fladd+3
  4466  0B2C  3000               	movlw	0
  4467  0B2D  00A2               	movwf	?___fladd+2
  4468  0B2E  3000               	movlw	0
  4469  0B2F  00A1               	movwf	?___fladd+1
  4470  0B30  3000               	movlw	0
  4471  0B31  00A0               	movwf	?___fladd
  4472  0B32  2C9E               	goto	l527
  4473  0B33                     l1747:
  4474  0B33  0824               	movf	___fladd@a,w
  4475  0B34  07A0               	addwf	___fladd@b,f
  4476  0B35  0825               	movf	___fladd@a+1,w
  4477  0B36  1103               	clrz
  4478  0B37  1803               	skipnc
  4479  0B38  3E01               	addlw	1
  4480  0B39  1903               	skipnz
  4481  0B3A  2B3C               	goto	u2011
  4482  0B3B  07A1               	addwf	___fladd@b+1,f
  4483  0B3C                     u2011:
  4484  0B3C  0826               	movf	___fladd@a+2,w
  4485  0B3D  1103               	clrz
  4486  0B3E  1803               	skipnc
  4487  0B3F  3E01               	addlw	1
  4488  0B40  1903               	skipnz
  4489  0B41  2B43               	goto	u2012
  4490  0B42  07A2               	addwf	___fladd@b+2,f
  4491  0B43                     u2012:
  4492  0B43  0827               	movf	___fladd@a+3,w
  4493  0B44  1103               	clrz
  4494  0B45  1803               	skipnc
  4495  0B46  3E01               	addlw	1
  4496  0B47  1903               	skipnz
  4497  0B48  2B4A               	goto	u2013
  4498  0B49  07A3               	addwf	___fladd@b+3,f
  4499  0B4A                     u2013:
  4500  0B4A                     l1749:
  4501  0B4A  1C23               	btfss	___fladd@b+3,0
  4502  0B4B  2B4D               	goto	u2021
  4503  0B4C  2B4E               	goto	u2020
  4504  0B4D                     u2021:
  4505  0B4D  2C24               	goto	l1801
  4506  0B4E                     u2020:
  4507  0B4E                     l1751:
  4508  0B4E  1C33               	btfss	___fladd@grs,0
  4509  0B4F  2B51               	goto	u2031
  4510  0B50  2B52               	goto	u2030
  4511  0B51                     u2031:
  4512  0B51  2B5B               	goto	l1755
  4513  0B52                     u2030:
  4514  0B52                     l1753:
  4515  0B52  0833               	movf	___fladd@grs,w
  4516  0B53  00A8               	movwf	??___fladd
  4517  0B54  1003               	clrc
  4518  0B55  0C28               	rrf	??___fladd,w
  4519  0B56  3801               	iorlw	1
  4520  0B57  00FF               	movwf	btemp+1
  4521  0B58  087F               	movf	btemp+1,w
  4522  0B59  00B3               	movwf	___fladd@grs
  4523  0B5A  2B5D               	goto	l1757
  4524  0B5B                     l1755:
  4525  0B5B  1003               	clrc
  4526  0B5C  0CB3               	rrf	___fladd@grs,f
  4527  0B5D                     l1757:
  4528  0B5D  1C20               	btfss	___fladd@b,0
  4529  0B5E  2B60               	goto	u2041
  4530  0B5F  2B61               	goto	u2040
  4531  0B60                     u2041:
  4532  0B60  2B62               	goto	l1761
  4533  0B61                     u2040:
  4534  0B61                     l1759:
  4535  0B61  17B3               	bsf	___fladd@grs,7
  4536  0B62                     l1761:
  4537  0B62  3001               	movlw	1
  4538  0B63  00A8               	movwf	??___fladd
  4539  0B64                     u2055:
  4540  0B64  0D23               	rlf	___fladd@b+3,w
  4541  0B65  0CA3               	rrf	___fladd@b+3,f
  4542  0B66  0CA2               	rrf	___fladd@b+2,f
  4543  0B67  0CA1               	rrf	___fladd@b+1,f
  4544  0B68  0CA0               	rrf	___fladd@b,f
  4545  0B69  0BA8               	decfsz	??___fladd& (0+127),f
  4546  0B6A  2B64               	goto	u2055
  4547  0B6B                     l1763:
  4548  0B6B  3001               	movlw	1
  4549  0B6C  00FF               	movwf	btemp+1
  4550  0B6D  087F               	movf	btemp+1,w
  4551  0B6E  07B2               	addwf	___fladd@bexp,f
  4552  0B6F  2C24               	goto	l1801
  4553  0B70                     l1765:
  4554  0B70  0823               	movf	___fladd@b+3,w
  4555  0B71  3A80               	xorlw	128
  4556  0B72  00FF               	movwf	btemp+1
  4557  0B73  0827               	movf	___fladd@a+3,w
  4558  0B74  3A80               	xorlw	128
  4559  0B75  027F               	subwf	btemp+1,w
  4560  0B76  1D03               	skipz
  4561  0B77  2B82               	goto	u2063
  4562  0B78  0826               	movf	___fladd@a+2,w
  4563  0B79  0222               	subwf	___fladd@b+2,w
  4564  0B7A  1D03               	skipz
  4565  0B7B  2B82               	goto	u2063
  4566  0B7C  0825               	movf	___fladd@a+1,w
  4567  0B7D  0221               	subwf	___fladd@b+1,w
  4568  0B7E  1D03               	skipz
  4569  0B7F  2B82               	goto	u2063
  4570  0B80  0824               	movf	___fladd@a,w
  4571  0B81  0220               	subwf	___fladd@b,w
  4572  0B82                     u2063:
  4573  0B82  1803               	skipnc
  4574  0B83  2B85               	goto	u2061
  4575  0B84  2B86               	goto	u2060
  4576  0B85                     u2061:
  4577  0B85  2BDE               	goto	l1777
  4578  0B86                     u2060:
  4579  0B86                     l1767:
  4580  0B86  30FF               	movlw	255
  4581  0B87  00A8               	movwf	??___fladd
  4582  0B88  30FF               	movlw	255
  4583  0B89  00A9               	movwf	??___fladd+1
  4584  0B8A  30FF               	movlw	255
  4585  0B8B  00AA               	movwf	??___fladd+2
  4586  0B8C  30FF               	movlw	255
  4587  0B8D  00AB               	movwf	??___fladd+3
  4588  0B8E  0824               	movf	___fladd@a,w
  4589  0B8F  00AC               	movwf	??___fladd+4
  4590  0B90  0825               	movf	___fladd@a+1,w
  4591  0B91  00AD               	movwf	??___fladd+5
  4592  0B92  0826               	movf	___fladd@a+2,w
  4593  0B93  00AE               	movwf	??___fladd+6
  4594  0B94  0827               	movf	___fladd@a+3,w
  4595  0B95  00AF               	movwf	??___fladd+7
  4596  0B96  0820               	movf	___fladd@b,w
  4597  0B97  02AC               	subwf	??___fladd+4,f
  4598  0B98  0821               	movf	___fladd@b+1,w
  4599  0B99  1C03               	skipc
  4600  0B9A  0F21               	incfsz	___fladd@b+1,w
  4601  0B9B  2B9D               	goto	u2071
  4602  0B9C  2B9E               	goto	u2072
  4603  0B9D                     u2071:
  4604  0B9D  02AD               	subwf	??___fladd+5,f
  4605  0B9E                     u2072:
  4606  0B9E  0822               	movf	___fladd@b+2,w
  4607  0B9F  1C03               	skipc
  4608  0BA0  0F22               	incfsz	___fladd@b+2,w
  4609  0BA1  2BA3               	goto	u2073
  4610  0BA2  2BA4               	goto	u2074
  4611  0BA3                     u2073:
  4612  0BA3  02AE               	subwf	??___fladd+6,f
  4613  0BA4                     u2074:
  4614  0BA4  0823               	movf	___fladd@b+3,w
  4615  0BA5  1C03               	skipc
  4616  0BA6  0F23               	incfsz	___fladd@b+3,w
  4617  0BA7  2BA9               	goto	u2075
  4618  0BA8  2BAA               	goto	u2076
  4619  0BA9                     u2075:
  4620  0BA9  02AF               	subwf	??___fladd+7,f
  4621  0BAA                     u2076:
  4622  0BAA  082C               	movf	??___fladd+4,w
  4623  0BAB  07A8               	addwf	??___fladd,f
  4624  0BAC  082D               	movf	??___fladd+5,w
  4625  0BAD  1803               	skipnc
  4626  0BAE  0F2D               	incfsz	??___fladd+5,w
  4627  0BAF  2BB1               	goto	u2080
  4628  0BB0  2BB2               	goto	u2081
  4629  0BB1                     u2080:
  4630  0BB1  07A9               	addwf	??___fladd+1,f
  4631  0BB2                     u2081:
  4632  0BB2  082E               	movf	??___fladd+6,w
  4633  0BB3  1803               	skipnc
  4634  0BB4  0F2E               	incfsz	??___fladd+6,w
  4635  0BB5  2BB7               	goto	u2082
  4636  0BB6  2BB8               	goto	u2083
  4637  0BB7                     u2082:
  4638  0BB7  07AA               	addwf	??___fladd+2,f
  4639  0BB8                     u2083:
  4640  0BB8  082F               	movf	??___fladd+7,w
  4641  0BB9  1803               	skipnc
  4642  0BBA  0A2F               	incf	??___fladd+7,w
  4643  0BBB  07AB               	addwf	??___fladd+3,f
  4644  0BBC  082B               	movf	??___fladd+3,w
  4645  0BBD  00A3               	movwf	___fladd@b+3
  4646  0BBE  082A               	movf	??___fladd+2,w
  4647  0BBF  00A2               	movwf	___fladd@b+2
  4648  0BC0  0829               	movf	??___fladd+1,w
  4649  0BC1  00A1               	movwf	___fladd@b+1
  4650  0BC2  0828               	movf	??___fladd,w
  4651  0BC3  00A0               	movwf	___fladd@b
  4652  0BC4                     l1769:
  4653  0BC4  3080               	movlw	128
  4654  0BC5  00FF               	movwf	btemp+1
  4655  0BC6  087F               	movf	btemp+1,w
  4656  0BC7  06B0               	xorwf	___fladd@signs,f
  4657  0BC8                     l1771:
  4658  0BC8  09B3               	comf	___fladd@grs,f
  4659  0BC9  0AB3               	incf	___fladd@grs,f
  4660  0BCA                     l1773:
  4661  0BCA  0833               	movf	___fladd@grs,w
  4662  0BCB  1D03               	btfss	3,2
  4663  0BCC  2BCE               	goto	u2091
  4664  0BCD  2BCF               	goto	u2090
  4665  0BCE                     u2091:
  4666  0BCE  2BEC               	goto	l535
  4667  0BCF                     u2090:
  4668  0BCF                     l1775:
  4669  0BCF  3001               	movlw	1
  4670  0BD0  07A0               	addwf	___fladd@b,f
  4671  0BD1  3000               	movlw	0
  4672  0BD2  1803               	skipnc
  4673  0BD3  3001               	movlw	1
  4674  0BD4  07A1               	addwf	___fladd@b+1,f
  4675  0BD5  3000               	movlw	0
  4676  0BD6  1803               	skipnc
  4677  0BD7  3001               	movlw	1
  4678  0BD8  07A2               	addwf	___fladd@b+2,f
  4679  0BD9  3000               	movlw	0
  4680  0BDA  1803               	skipnc
  4681  0BDB  3001               	movlw	1
  4682  0BDC  07A3               	addwf	___fladd@b+3,f
  4683  0BDD  2BEC               	goto	l535
  4684  0BDE                     l1777:
  4685  0BDE  0824               	movf	___fladd@a,w
  4686  0BDF  02A0               	subwf	___fladd@b,f
  4687  0BE0  0825               	movf	___fladd@a+1,w
  4688  0BE1  1C03               	skipc
  4689  0BE2  0F25               	incfsz	___fladd@a+1,w
  4690  0BE3  02A1               	subwf	___fladd@b+1,f
  4691  0BE4  0826               	movf	___fladd@a+2,w
  4692  0BE5  1C03               	skipc
  4693  0BE6  0F26               	incfsz	___fladd@a+2,w
  4694  0BE7  02A2               	subwf	___fladd@b+2,f
  4695  0BE8  0827               	movf	___fladd@a+3,w
  4696  0BE9  1C03               	skipc
  4697  0BEA  0F27               	incfsz	___fladd@a+3,w
  4698  0BEB  02A3               	subwf	___fladd@b+3,f
  4699  0BEC                     l535:
  4700  0BEC  0823               	movf	___fladd@b+3,w
  4701  0BED  0422               	iorwf	___fladd@b+2,w
  4702  0BEE  0421               	iorwf	___fladd@b+1,w
  4703  0BEF  0420               	iorwf	___fladd@b,w
  4704  0BF0  1D03               	skipz
  4705  0BF1  2BF3               	goto	u2101
  4706  0BF2  2BF4               	goto	u2100
  4707  0BF3                     u2101:
  4708  0BF3  2C20               	goto	l1799
  4709  0BF4                     u2100:
  4710  0BF4                     l1779:
  4711  0BF4  0833               	movf	___fladd@grs,w
  4712  0BF5  1D03               	btfss	3,2
  4713  0BF6  2BF8               	goto	u2111
  4714  0BF7  2BF9               	goto	u2110
  4715  0BF8                     u2111:
  4716  0BF8  2C20               	goto	l1799
  4717  0BF9                     u2110:
  4718  0BF9                     l1781:
  4719  0BF9  3000               	movlw	0
  4720  0BFA  00A3               	movwf	?___fladd+3
  4721  0BFB  3000               	movlw	0
  4722  0BFC  00A2               	movwf	?___fladd+2
  4723  0BFD  3000               	movlw	0
  4724  0BFE  00A1               	movwf	?___fladd+1
  4725  0BFF  3000               	movlw	0
  4726  0C00  00A0               	movwf	?___fladd
  4727  0C01  2C9E               	goto	l527
  4728  0C02                     l1785:
  4729  0C02  3001               	movlw	1
  4730  0C03  00A8               	movwf	??___fladd
  4731  0C04                     u2125:
  4732  0C04  1003               	clrc
  4733  0C05  0DA0               	rlf	___fladd@b,f
  4734  0C06  0DA1               	rlf	___fladd@b+1,f
  4735  0C07  0DA2               	rlf	___fladd@b+2,f
  4736  0C08  0DA3               	rlf	___fladd@b+3,f
  4737  0C09  0BA8               	decfsz	??___fladd,f
  4738  0C0A  2C04               	goto	u2125
  4739  0C0B                     l1787:
  4740  0C0B  1FB3               	btfss	___fladd@grs,7
  4741  0C0C  2C0E               	goto	u2131
  4742  0C0D  2C0F               	goto	u2130
  4743  0C0E                     u2131:
  4744  0C0E  2C10               	goto	l539
  4745  0C0F                     u2130:
  4746  0C0F                     l1789:
  4747  0C0F  1420               	bsf	___fladd@b,0
  4748  0C10                     l539:
  4749  0C10  1C33               	btfss	___fladd@grs,0
  4750  0C11  2C13               	goto	u2141
  4751  0C12  2C14               	goto	u2140
  4752  0C13                     u2141:
  4753  0C13  2C17               	goto	l1793
  4754  0C14                     u2140:
  4755  0C14                     l1791:
  4756  0C14  1403               	setc
  4757  0C15  0DB3               	rlf	___fladd@grs,f
  4758  0C16  2C19               	goto	l1795
  4759  0C17                     l1793:
  4760  0C17  1003               	clrc
  4761  0C18  0DB3               	rlf	___fladd@grs,f
  4762  0C19                     l1795:
  4763  0C19  0832               	movf	___fladd@bexp,w
  4764  0C1A  1903               	btfsc	3,2
  4765  0C1B  2C1D               	goto	u2151
  4766  0C1C  2C1E               	goto	u2150
  4767  0C1D                     u2151:
  4768  0C1D  2C20               	goto	l1799
  4769  0C1E                     u2150:
  4770  0C1E                     l1797:
  4771  0C1E  3001               	movlw	1
  4772  0C1F  02B2               	subwf	___fladd@bexp,f
  4773  0C20                     l1799:
  4774  0C20  1FA2               	btfss	___fladd@b+2,7
  4775  0C21  2C23               	goto	u2161
  4776  0C22  2C24               	goto	u2160
  4777  0C23                     u2161:
  4778  0C23  2C02               	goto	l1785
  4779  0C24                     u2160:
  4780  0C24                     l1801:
  4781  0C24  01B1               	clrf	___fladd@aexp
  4782  0C25                     l1803:
  4783  0C25  1FB3               	btfss	___fladd@grs,7
  4784  0C26  2C28               	goto	u2171
  4785  0C27  2C29               	goto	u2170
  4786  0C28                     u2171:
  4787  0C28  2C37               	goto	l1811
  4788  0C29                     u2170:
  4789  0C29                     l1805:
  4790  0C29  0833               	movf	___fladd@grs,w
  4791  0C2A  397F               	andlw	127
  4792  0C2B  1903               	btfsc	3,2
  4793  0C2C  2C2E               	goto	u2181
  4794  0C2D  2C2F               	goto	u2180
  4795  0C2E                     u2181:
  4796  0C2E  2C32               	goto	l545
  4797  0C2F                     u2180:
  4798  0C2F                     l1807:
  4799  0C2F  01B1               	clrf	___fladd@aexp
  4800  0C30  0AB1               	incf	___fladd@aexp,f
  4801  0C31  2C37               	goto	l1811
  4802  0C32                     l545:
  4803  0C32  1C20               	btfss	___fladd@b,0
  4804  0C33  2C35               	goto	u2191
  4805  0C34  2C36               	goto	u2190
  4806  0C35                     u2191:
  4807  0C35  2C37               	goto	l1811
  4808  0C36                     u2190:
  4809  0C36  2C2F               	goto	l1807
  4810  0C37                     l1811:
  4811  0C37  0831               	movf	___fladd@aexp,w
  4812  0C38  1903               	btfsc	3,2
  4813  0C39  2C3B               	goto	u2201
  4814  0C3A  2C3C               	goto	u2200
  4815  0C3B                     u2201:
  4816  0C3B  2C70               	goto	l1821
  4817  0C3C                     u2200:
  4818  0C3C                     l1813:
  4819  0C3C  3001               	movlw	1
  4820  0C3D  07A0               	addwf	___fladd@b,f
  4821  0C3E  3000               	movlw	0
  4822  0C3F  1803               	skipnc
  4823  0C40  3001               	movlw	1
  4824  0C41  07A1               	addwf	___fladd@b+1,f
  4825  0C42  3000               	movlw	0
  4826  0C43  1803               	skipnc
  4827  0C44  3001               	movlw	1
  4828  0C45  07A2               	addwf	___fladd@b+2,f
  4829  0C46  3000               	movlw	0
  4830  0C47  1803               	skipnc
  4831  0C48  3001               	movlw	1
  4832  0C49  07A3               	addwf	___fladd@b+3,f
  4833  0C4A                     l1815:
  4834  0C4A  1C23               	btfss	___fladd@b+3,0
  4835  0C4B  2C4D               	goto	u2211
  4836  0C4C  2C4E               	goto	u2210
  4837  0C4D                     u2211:
  4838  0C4D  2C70               	goto	l1821
  4839  0C4E                     u2210:
  4840  0C4E                     l1817:
  4841  0C4E  0820               	movf	___fladd@b,w
  4842  0C4F  00A8               	movwf	??___fladd
  4843  0C50  0821               	movf	___fladd@b+1,w
  4844  0C51  00A9               	movwf	??___fladd+1
  4845  0C52  0822               	movf	___fladd@b+2,w
  4846  0C53  00AA               	movwf	??___fladd+2
  4847  0C54  0823               	movf	___fladd@b+3,w
  4848  0C55  00AB               	movwf	??___fladd+3
  4849  0C56  3001               	movlw	1
  4850  0C57  00AC               	movwf	??___fladd+4
  4851  0C58                     u2225:
  4852  0C58  0D2B               	rlf	??___fladd+3,w
  4853  0C59  0CAB               	rrf	??___fladd+3,f
  4854  0C5A  0CAA               	rrf	??___fladd+2,f
  4855  0C5B  0CA9               	rrf	??___fladd+1,f
  4856  0C5C  0CA8               	rrf	??___fladd,f
  4857  0C5D                     u2220:
  4858  0C5D  0BAC               	decfsz	??___fladd+4,f
  4859  0C5E  2C58               	goto	u2225
  4860  0C5F  082B               	movf	??___fladd+3,w
  4861  0C60  00A3               	movwf	___fladd@b+3
  4862  0C61  082A               	movf	??___fladd+2,w
  4863  0C62  00A2               	movwf	___fladd@b+2
  4864  0C63  0829               	movf	??___fladd+1,w
  4865  0C64  00A1               	movwf	___fladd@b+1
  4866  0C65  0828               	movf	??___fladd,w
  4867  0C66  00A0               	movwf	___fladd@b
  4868  0C67  0A32               	incf	___fladd@bexp,w
  4869  0C68  1903               	btfsc	3,2
  4870  0C69  2C6B               	goto	u2231
  4871  0C6A  2C6C               	goto	u2230
  4872  0C6B                     u2231:
  4873  0C6B  2C70               	goto	l1821
  4874  0C6C                     u2230:
  4875  0C6C                     l1819:
  4876  0C6C  3001               	movlw	1
  4877  0C6D  00FF               	movwf	btemp+1
  4878  0C6E  087F               	movf	btemp+1,w
  4879  0C6F  07B2               	addwf	___fladd@bexp,f
  4880  0C70                     l1821:
  4881  0C70  0A32               	incf	___fladd@bexp,w
  4882  0C71  1903               	btfsc	3,2
  4883  0C72  2C74               	goto	u2241
  4884  0C73  2C75               	goto	u2240
  4885  0C74                     u2241:
  4886  0C74  2C7A               	goto	l1825
  4887  0C75                     u2240:
  4888  0C75                     l1823:
  4889  0C75  0832               	movf	___fladd@bexp,w
  4890  0C76  1D03               	btfss	3,2
  4891  0C77  2C79               	goto	u2251
  4892  0C78  2C7A               	goto	u2250
  4893  0C79                     u2251:
  4894  0C79  2C88               	goto	l1831
  4895  0C7A                     u2250:
  4896  0C7A                     l1825:
  4897  0C7A  3000               	movlw	0
  4898  0C7B  00A3               	movwf	___fladd@b+3
  4899  0C7C  3000               	movlw	0
  4900  0C7D  00A2               	movwf	___fladd@b+2
  4901  0C7E  3000               	movlw	0
  4902  0C7F  00A1               	movwf	___fladd@b+1
  4903  0C80  3000               	movlw	0
  4904  0C81  00A0               	movwf	___fladd@b
  4905  0C82                     l1827:
  4906  0C82  0832               	movf	___fladd@bexp,w
  4907  0C83  1D03               	btfss	3,2
  4908  0C84  2C86               	goto	u2261
  4909  0C85  2C87               	goto	u2260
  4910  0C86                     u2261:
  4911  0C86  2C88               	goto	l1831
  4912  0C87                     u2260:
  4913  0C87                     l1829:
  4914  0C87  01B0               	clrf	___fladd@signs
  4915  0C88                     l1831:
  4916  0C88  1C32               	btfss	___fladd@bexp,0
  4917  0C89  2C8B               	goto	u2271
  4918  0C8A  2C8C               	goto	u2270
  4919  0C8B                     u2271:
  4920  0C8B  2C8E               	goto	l1835
  4921  0C8C                     u2270:
  4922  0C8C                     l1833:
  4923  0C8C  17A2               	bsf	___fladd@b+2,7
  4924  0C8D  2C92               	goto	l556
  4925  0C8E                     l1835:
  4926  0C8E  307F               	movlw	127
  4927  0C8F  00FF               	movwf	btemp+1
  4928  0C90  087F               	movf	btemp+1,w
  4929  0C91  05A2               	andwf	___fladd@b+2,f
  4930  0C92                     l556:
  4931  0C92  0832               	movf	___fladd@bexp,w
  4932  0C93  00A8               	movwf	??___fladd
  4933  0C94  1003               	clrc
  4934  0C95  0C28               	rrf	??___fladd,w
  4935  0C96  00FF               	movwf	btemp+1
  4936  0C97  087F               	movf	btemp+1,w
  4937  0C98  00A3               	movwf	___fladd@b+3
  4938  0C99                     l1837:
  4939  0C99  1FB0               	btfss	___fladd@signs,7
  4940  0C9A  2C9C               	goto	u2281
  4941  0C9B  2C9D               	goto	u2280
  4942  0C9C                     u2281:
  4943  0C9C  2C9E               	goto	l557
  4944  0C9D                     u2280:
  4945  0C9D                     l1839:
  4946  0C9D  17A3               	bsf	___fladd@b+3,7
  4947  0C9E                     l557:
  4948  0C9E                     l527:
  4949  0C9E  0008               	return
  4950  0C9F                     __end_of___fladd:
  4951                           
  4952                           	psect	text15
  4953  0C9F                     __ptext15:	
  4954 ;; *************** function ___flmul *****************
  4955 ;; Defined at:
  4956 ;;		line 8 in file "C:\Program Files\Microchip\xc8\v2.20\pic\sources\c90\common\sprcmul.c"
  4957 ;; Parameters:    Size  Location     Type
  4958 ;;  b               4   54[BANK0 ] unsigned char 
  4959 ;;  a               4   58[BANK0 ] unsigned char 
  4960 ;; Auto vars:     Size  Location     Type
  4961 ;;  prod            4   74[BANK0 ] struct .
  4962 ;;  grs             4   68[BANK0 ] unsigned long 
  4963 ;;  temp            2   78[BANK0 ] struct .
  4964 ;;  bexp            1   73[BANK0 ] unsigned char 
  4965 ;;  aexp            1   72[BANK0 ] unsigned char 
  4966 ;;  sign            1   67[BANK0 ] unsigned char 
  4967 ;; Return value:  Size  Location     Type
  4968 ;;                  4   54[BANK0 ] unsigned char 
  4969 ;; Registers used:
  4970 ;;		wreg, status,2, status,0, btemp+1, pclath, cstack
  4971 ;; Tracked objects:
  4972 ;;		On entry : 0/0
  4973 ;;		On exit  : 0/0
  4974 ;;		Unchanged: 0/0
  4975 ;; Data sizes:     COMMON   BANK0   BANK1   BANK3   BANK2
  4976 ;;      Params:         0       8       0       0       0
  4977 ;;      Locals:         0      13       0       0       0
  4978 ;;      Temps:          0       5       0       0       0
  4979 ;;      Totals:         0      26       0       0       0
  4980 ;;Total ram usage:       26 bytes
  4981 ;; Hardware stack levels used:    1
  4982 ;; Hardware stack levels required when called:    2
  4983 ;; This function calls:
  4984 ;;		__Umul8_16
  4985 ;; This function is called by:
  4986 ;;		_Voltage_Value
  4987 ;;		_Resistance_Value
  4988 ;;		_conversion_newton
  4989 ;;		_puts_float
  4990 ;; This function uses a non-reentrant model
  4991 ;;
  4992                           
  4993                           
  4994                           ;psect for function ___flmul
  4995  0C9F                     ___flmul:
  4996  0C9F                     l2049:	
  4997                           ;incstack = 0
  4998                           ; Regs used in ___flmul: [wreg+status,2+status,0+btemp+1+pclath+cstack]
  4999                           
  5000  0C9F  1283               	bcf	3,5	;RP0=0, select bank0
  5001  0CA0  1303               	bcf	3,6	;RP1=0, select bank0
  5002  0CA1  0859               	movf	___flmul@b+3,w
  5003  0CA2  3980               	andlw	128
  5004  0CA3  00FF               	movwf	btemp+1
  5005  0CA4  087F               	movf	btemp+1,w
  5006  0CA5  00E3               	movwf	___flmul@sign
  5007  0CA6                     l2051:
  5008  0CA6  0859               	movf	___flmul@b+3,w
  5009  0CA7  00DE               	movwf	??___flmul
  5010  0CA8  075E               	addwf	??___flmul,w
  5011  0CA9  00FF               	movwf	btemp+1
  5012  0CAA  087F               	movf	btemp+1,w
  5013  0CAB  00E9               	movwf	___flmul@bexp
  5014  0CAC                     l2053:
  5015  0CAC  1FD8               	btfss	___flmul@b+2,7
  5016  0CAD  2CAF               	goto	u2741
  5017  0CAE  2CB0               	goto	u2740
  5018  0CAF                     u2741:
  5019  0CAF  2CB1               	goto	l2057
  5020  0CB0                     u2740:
  5021  0CB0                     l2055:
  5022  0CB0  1469               	bsf	___flmul@bexp,0
  5023  0CB1                     l2057:
  5024  0CB1  0869               	movf	___flmul@bexp,w
  5025  0CB2  1903               	btfsc	3,2
  5026  0CB3  2CB5               	goto	u2751
  5027  0CB4  2CB6               	goto	u2750
  5028  0CB5                     u2751:
  5029  0CB5  2CC5               	goto	l2065
  5030  0CB6                     u2750:
  5031  0CB6                     l2059:
  5032  0CB6  0A69               	incf	___flmul@bexp,w
  5033  0CB7  1D03               	btfss	3,2
  5034  0CB8  2CBA               	goto	u2761
  5035  0CB9  2CBB               	goto	u2760
  5036  0CBA                     u2761:
  5037  0CBA  2CC3               	goto	l2063
  5038  0CBB                     u2760:
  5039  0CBB                     l2061:
  5040  0CBB  3000               	movlw	0
  5041  0CBC  00D9               	movwf	___flmul@b+3
  5042  0CBD  3000               	movlw	0
  5043  0CBE  00D8               	movwf	___flmul@b+2
  5044  0CBF  3000               	movlw	0
  5045  0CC0  00D7               	movwf	___flmul@b+1
  5046  0CC1  3000               	movlw	0
  5047  0CC2  00D6               	movwf	___flmul@b
  5048  0CC3                     l2063:
  5049  0CC3  17D8               	bsf	___flmul@b+2,7
  5050  0CC4  2CCD               	goto	l2067
  5051  0CC5                     l2065:
  5052  0CC5  3000               	movlw	0
  5053  0CC6  00D9               	movwf	___flmul@b+3
  5054  0CC7  3000               	movlw	0
  5055  0CC8  00D8               	movwf	___flmul@b+2
  5056  0CC9  3000               	movlw	0
  5057  0CCA  00D7               	movwf	___flmul@b+1
  5058  0CCB  3000               	movlw	0
  5059  0CCC  00D6               	movwf	___flmul@b
  5060  0CCD                     l2067:
  5061  0CCD  085D               	movf	___flmul@a+3,w
  5062  0CCE  3980               	andlw	128
  5063  0CCF  00FF               	movwf	btemp+1
  5064  0CD0  087F               	movf	btemp+1,w
  5065  0CD1  06E3               	xorwf	___flmul@sign,f
  5066  0CD2                     l2069:
  5067  0CD2  085D               	movf	___flmul@a+3,w
  5068  0CD3  00DE               	movwf	??___flmul
  5069  0CD4  075E               	addwf	??___flmul,w
  5070  0CD5  00FF               	movwf	btemp+1
  5071  0CD6  087F               	movf	btemp+1,w
  5072  0CD7  00E8               	movwf	___flmul@aexp
  5073  0CD8                     l2071:
  5074  0CD8  1FDC               	btfss	___flmul@a+2,7
  5075  0CD9  2CDB               	goto	u2771
  5076  0CDA  2CDC               	goto	u2770
  5077  0CDB                     u2771:
  5078  0CDB  2CDD               	goto	l2075
  5079  0CDC                     u2770:
  5080  0CDC                     l2073:
  5081  0CDC  1468               	bsf	___flmul@aexp,0
  5082  0CDD                     l2075:
  5083  0CDD  0868               	movf	___flmul@aexp,w
  5084  0CDE  1903               	btfsc	3,2
  5085  0CDF  2CE1               	goto	u2781
  5086  0CE0  2CE2               	goto	u2780
  5087  0CE1                     u2781:
  5088  0CE1  2CF1               	goto	l2083
  5089  0CE2                     u2780:
  5090  0CE2                     l2077:
  5091  0CE2  0A68               	incf	___flmul@aexp,w
  5092  0CE3  1D03               	btfss	3,2
  5093  0CE4  2CE6               	goto	u2791
  5094  0CE5  2CE7               	goto	u2790
  5095  0CE6                     u2791:
  5096  0CE6  2CEF               	goto	l2081
  5097  0CE7                     u2790:
  5098  0CE7                     l2079:
  5099  0CE7  3000               	movlw	0
  5100  0CE8  00DD               	movwf	___flmul@a+3
  5101  0CE9  3000               	movlw	0
  5102  0CEA  00DC               	movwf	___flmul@a+2
  5103  0CEB  3000               	movlw	0
  5104  0CEC  00DB               	movwf	___flmul@a+1
  5105  0CED  3000               	movlw	0
  5106  0CEE  00DA               	movwf	___flmul@a
  5107  0CEF                     l2081:
  5108  0CEF  17DC               	bsf	___flmul@a+2,7
  5109  0CF0  2CF9               	goto	l2085
  5110  0CF1                     l2083:
  5111  0CF1  3000               	movlw	0
  5112  0CF2  00DD               	movwf	___flmul@a+3
  5113  0CF3  3000               	movlw	0
  5114  0CF4  00DC               	movwf	___flmul@a+2
  5115  0CF5  3000               	movlw	0
  5116  0CF6  00DB               	movwf	___flmul@a+1
  5117  0CF7  3000               	movlw	0
  5118  0CF8  00DA               	movwf	___flmul@a
  5119  0CF9                     l2085:
  5120  0CF9  0868               	movf	___flmul@aexp,w
  5121  0CFA  1903               	btfsc	3,2
  5122  0CFB  2CFD               	goto	u2801
  5123  0CFC  2CFE               	goto	u2800
  5124  0CFD                     u2801:
  5125  0CFD  2D03               	goto	l2089
  5126  0CFE                     u2800:
  5127  0CFE                     l2087:
  5128  0CFE  0869               	movf	___flmul@bexp,w
  5129  0CFF  1D03               	btfss	3,2
  5130  0D00  2D02               	goto	u2811
  5131  0D01  2D03               	goto	u2810
  5132  0D02                     u2811:
  5133  0D02  2D0C               	goto	l2093
  5134  0D03                     u2810:
  5135  0D03                     l2089:
  5136  0D03  3000               	movlw	0
  5137  0D04  00D9               	movwf	?___flmul+3
  5138  0D05  3000               	movlw	0
  5139  0D06  00D8               	movwf	?___flmul+2
  5140  0D07  3000               	movlw	0
  5141  0D08  00D7               	movwf	?___flmul+1
  5142  0D09  3000               	movlw	0
  5143  0D0A  00D6               	movwf	?___flmul
  5144  0D0B  2FFF               	goto	l610
  5145  0D0C                     l2093:
  5146  0D0C  0856               	movf	___flmul@b,w
  5147  0D0D  00FF               	movwf	btemp+1
  5148  0D0E  087F               	movf	btemp+1,w
  5149  0D0F  00F2               	movwf	__Umul8_16@multiplicand
  5150  0D10  085C               	movf	___flmul@a+2,w
  5151  0D11  160A  118A  25B4  120A  158A  	fcall	__Umul8_16
  5152  0D16  0873               	movf	?__Umul8_16+1,w
  5153  0D17  1283               	bcf	3,5	;RP0=0, select bank0
  5154  0D18  1303               	bcf	3,6	;RP1=0, select bank0
  5155  0D19  00EF               	movwf	___flmul@temp+1
  5156  0D1A  0872               	movf	?__Umul8_16,w
  5157  0D1B  00EE               	movwf	___flmul@temp
  5158  0D1C                     l2095:
  5159  0D1C  086E               	movf	___flmul@temp,w
  5160  0D1D  00DE               	movwf	??___flmul
  5161  0D1E  01DF               	clrf	??___flmul+1
  5162  0D1F  01E0               	clrf	??___flmul+2
  5163  0D20  01E1               	clrf	??___flmul+3
  5164  0D21  0861               	movf	??___flmul+3,w
  5165  0D22  00E7               	movwf	___flmul@grs+3
  5166  0D23  0860               	movf	??___flmul+2,w
  5167  0D24  00E6               	movwf	___flmul@grs+2
  5168  0D25  085F               	movf	??___flmul+1,w
  5169  0D26  00E5               	movwf	___flmul@grs+1
  5170  0D27  085E               	movf	??___flmul,w
  5171  0D28  00E4               	movwf	___flmul@grs
  5172  0D29                     l2097:
  5173  0D29  086F               	movf	___flmul@temp+1,w
  5174  0D2A  00DE               	movwf	??___flmul
  5175  0D2B  01DF               	clrf	??___flmul+1
  5176  0D2C  01E0               	clrf	??___flmul+2
  5177  0D2D  01E1               	clrf	??___flmul+3
  5178  0D2E  0861               	movf	??___flmul+3,w
  5179  0D2F  00ED               	movwf	___flmul@prod+3
  5180  0D30  0860               	movf	??___flmul+2,w
  5181  0D31  00EC               	movwf	___flmul@prod+2
  5182  0D32  085F               	movf	??___flmul+1,w
  5183  0D33  00EB               	movwf	___flmul@prod+1
  5184  0D34  085E               	movf	??___flmul,w
  5185  0D35  00EA               	movwf	___flmul@prod
  5186  0D36  0857               	movf	___flmul@b+1,w
  5187  0D37  00FF               	movwf	btemp+1
  5188  0D38  087F               	movf	btemp+1,w
  5189  0D39  00F2               	movwf	__Umul8_16@multiplicand
  5190  0D3A  085B               	movf	___flmul@a+1,w
  5191  0D3B  160A  118A  25B4  120A  158A  	fcall	__Umul8_16
  5192  0D40  0873               	movf	?__Umul8_16+1,w
  5193  0D41  1283               	bcf	3,5	;RP0=0, select bank0
  5194  0D42  1303               	bcf	3,6	;RP1=0, select bank0
  5195  0D43  00EF               	movwf	___flmul@temp+1
  5196  0D44  0872               	movf	?__Umul8_16,w
  5197  0D45  00EE               	movwf	___flmul@temp
  5198  0D46                     l2099:
  5199  0D46  086E               	movf	___flmul@temp,w
  5200  0D47  00DE               	movwf	??___flmul
  5201  0D48  01DF               	clrf	??___flmul+1
  5202  0D49  01E0               	clrf	??___flmul+2
  5203  0D4A  01E1               	clrf	??___flmul+3
  5204  0D4B  085E               	movf	??___flmul,w
  5205  0D4C  07E4               	addwf	___flmul@grs,f
  5206  0D4D  085F               	movf	??___flmul+1,w
  5207  0D4E  1103               	clrz
  5208  0D4F  1803               	skipnc
  5209  0D50  3E01               	addlw	1
  5210  0D51  1903               	skipnz
  5211  0D52  2D54               	goto	u2821
  5212  0D53  07E5               	addwf	___flmul@grs+1,f
  5213  0D54                     u2821:
  5214  0D54  0860               	movf	??___flmul+2,w
  5215  0D55  1103               	clrz
  5216  0D56  1803               	skipnc
  5217  0D57  3E01               	addlw	1
  5218  0D58  1903               	skipnz
  5219  0D59  2D5B               	goto	u2822
  5220  0D5A  07E6               	addwf	___flmul@grs+2,f
  5221  0D5B                     u2822:
  5222  0D5B  0861               	movf	??___flmul+3,w
  5223  0D5C  1103               	clrz
  5224  0D5D  1803               	skipnc
  5225  0D5E  3E01               	addlw	1
  5226  0D5F  1903               	skipnz
  5227  0D60  2D62               	goto	u2823
  5228  0D61  07E7               	addwf	___flmul@grs+3,f
  5229  0D62                     u2823:
  5230  0D62                     l2101:
  5231  0D62  086F               	movf	___flmul@temp+1,w
  5232  0D63  00DE               	movwf	??___flmul
  5233  0D64  01DF               	clrf	??___flmul+1
  5234  0D65  01E0               	clrf	??___flmul+2
  5235  0D66  01E1               	clrf	??___flmul+3
  5236  0D67  085E               	movf	??___flmul,w
  5237  0D68  07EA               	addwf	___flmul@prod,f
  5238  0D69  085F               	movf	??___flmul+1,w
  5239  0D6A  1103               	clrz
  5240  0D6B  1803               	skipnc
  5241  0D6C  3E01               	addlw	1
  5242  0D6D  1903               	skipnz
  5243  0D6E  2D70               	goto	u2831
  5244  0D6F  07EB               	addwf	___flmul@prod+1,f
  5245  0D70                     u2831:
  5246  0D70  0860               	movf	??___flmul+2,w
  5247  0D71  1103               	clrz
  5248  0D72  1803               	skipnc
  5249  0D73  3E01               	addlw	1
  5250  0D74  1903               	skipnz
  5251  0D75  2D77               	goto	u2832
  5252  0D76  07EC               	addwf	___flmul@prod+2,f
  5253  0D77                     u2832:
  5254  0D77  0861               	movf	??___flmul+3,w
  5255  0D78  1103               	clrz
  5256  0D79  1803               	skipnc
  5257  0D7A  3E01               	addlw	1
  5258  0D7B  1903               	skipnz
  5259  0D7C  2D7E               	goto	u2833
  5260  0D7D  07ED               	addwf	___flmul@prod+3,f
  5261  0D7E                     u2833:
  5262  0D7E  0858               	movf	___flmul@b+2,w
  5263  0D7F  00FF               	movwf	btemp+1
  5264  0D80  087F               	movf	btemp+1,w
  5265  0D81  00F2               	movwf	__Umul8_16@multiplicand
  5266  0D82  085A               	movf	___flmul@a,w
  5267  0D83  160A  118A  25B4  120A  158A  	fcall	__Umul8_16
  5268  0D88  0873               	movf	?__Umul8_16+1,w
  5269  0D89  1283               	bcf	3,5	;RP0=0, select bank0
  5270  0D8A  1303               	bcf	3,6	;RP1=0, select bank0
  5271  0D8B  00EF               	movwf	___flmul@temp+1
  5272  0D8C  0872               	movf	?__Umul8_16,w
  5273  0D8D  00EE               	movwf	___flmul@temp
  5274  0D8E                     l2103:
  5275  0D8E  086E               	movf	___flmul@temp,w
  5276  0D8F  00DE               	movwf	??___flmul
  5277  0D90  01DF               	clrf	??___flmul+1
  5278  0D91  01E0               	clrf	??___flmul+2
  5279  0D92  01E1               	clrf	??___flmul+3
  5280  0D93  085E               	movf	??___flmul,w
  5281  0D94  07E4               	addwf	___flmul@grs,f
  5282  0D95  085F               	movf	??___flmul+1,w
  5283  0D96  1103               	clrz
  5284  0D97  1803               	skipnc
  5285  0D98  3E01               	addlw	1
  5286  0D99  1903               	skipnz
  5287  0D9A  2D9C               	goto	u2841
  5288  0D9B  07E5               	addwf	___flmul@grs+1,f
  5289  0D9C                     u2841:
  5290  0D9C  0860               	movf	??___flmul+2,w
  5291  0D9D  1103               	clrz
  5292  0D9E  1803               	skipnc
  5293  0D9F  3E01               	addlw	1
  5294  0DA0  1903               	skipnz
  5295  0DA1  2DA3               	goto	u2842
  5296  0DA2  07E6               	addwf	___flmul@grs+2,f
  5297  0DA3                     u2842:
  5298  0DA3  0861               	movf	??___flmul+3,w
  5299  0DA4  1103               	clrz
  5300  0DA5  1803               	skipnc
  5301  0DA6  3E01               	addlw	1
  5302  0DA7  1903               	skipnz
  5303  0DA8  2DAA               	goto	u2843
  5304  0DA9  07E7               	addwf	___flmul@grs+3,f
  5305  0DAA                     u2843:
  5306  0DAA                     l2105:
  5307  0DAA  086F               	movf	___flmul@temp+1,w
  5308  0DAB  00DE               	movwf	??___flmul
  5309  0DAC  01DF               	clrf	??___flmul+1
  5310  0DAD  01E0               	clrf	??___flmul+2
  5311  0DAE  01E1               	clrf	??___flmul+3
  5312  0DAF  085E               	movf	??___flmul,w
  5313  0DB0  07EA               	addwf	___flmul@prod,f
  5314  0DB1  085F               	movf	??___flmul+1,w
  5315  0DB2  1103               	clrz
  5316  0DB3  1803               	skipnc
  5317  0DB4  3E01               	addlw	1
  5318  0DB5  1903               	skipnz
  5319  0DB6  2DB8               	goto	u2851
  5320  0DB7  07EB               	addwf	___flmul@prod+1,f
  5321  0DB8                     u2851:
  5322  0DB8  0860               	movf	??___flmul+2,w
  5323  0DB9  1103               	clrz
  5324  0DBA  1803               	skipnc
  5325  0DBB  3E01               	addlw	1
  5326  0DBC  1903               	skipnz
  5327  0DBD  2DBF               	goto	u2852
  5328  0DBE  07EC               	addwf	___flmul@prod+2,f
  5329  0DBF                     u2852:
  5330  0DBF  0861               	movf	??___flmul+3,w
  5331  0DC0  1103               	clrz
  5332  0DC1  1803               	skipnc
  5333  0DC2  3E01               	addlw	1
  5334  0DC3  1903               	skipnz
  5335  0DC4  2DC6               	goto	u2853
  5336  0DC5  07ED               	addwf	___flmul@prod+3,f
  5337  0DC6                     u2853:
  5338  0DC6                     l2107:
  5339  0DC6  3008               	movlw	8
  5340  0DC7  00DE               	movwf	??___flmul
  5341  0DC8                     u2865:
  5342  0DC8  1003               	clrc
  5343  0DC9  0DE4               	rlf	___flmul@grs,f
  5344  0DCA  0DE5               	rlf	___flmul@grs+1,f
  5345  0DCB  0DE6               	rlf	___flmul@grs+2,f
  5346  0DCC  0DE7               	rlf	___flmul@grs+3,f
  5347  0DCD  0BDE               	decfsz	??___flmul,f
  5348  0DCE  2DC8               	goto	u2865
  5349  0DCF                     l2109:
  5350  0DCF  0857               	movf	___flmul@b+1,w
  5351  0DD0  00FF               	movwf	btemp+1
  5352  0DD1  087F               	movf	btemp+1,w
  5353  0DD2  00F2               	movwf	__Umul8_16@multiplicand
  5354  0DD3  085A               	movf	___flmul@a,w
  5355  0DD4  160A  118A  25B4  120A  158A  	fcall	__Umul8_16
  5356  0DD9  0873               	movf	?__Umul8_16+1,w
  5357  0DDA  1283               	bcf	3,5	;RP0=0, select bank0
  5358  0DDB  1303               	bcf	3,6	;RP1=0, select bank0
  5359  0DDC  00EF               	movwf	___flmul@temp+1
  5360  0DDD  0872               	movf	?__Umul8_16,w
  5361  0DDE  00EE               	movwf	___flmul@temp
  5362  0DDF                     l2111:
  5363  0DDF  086E               	movf	___flmul@temp,w
  5364  0DE0  00DE               	movwf	??___flmul
  5365  0DE1  086F               	movf	___flmul@temp+1,w
  5366  0DE2  00DF               	movwf	??___flmul+1
  5367  0DE3  01E0               	clrf	??___flmul+2
  5368  0DE4  01E1               	clrf	??___flmul+3
  5369  0DE5  085E               	movf	??___flmul,w
  5370  0DE6  07E4               	addwf	___flmul@grs,f
  5371  0DE7  085F               	movf	??___flmul+1,w
  5372  0DE8  1103               	clrz
  5373  0DE9  1803               	skipnc
  5374  0DEA  3E01               	addlw	1
  5375  0DEB  1903               	skipnz
  5376  0DEC  2DEE               	goto	u2871
  5377  0DED  07E5               	addwf	___flmul@grs+1,f
  5378  0DEE                     u2871:
  5379  0DEE  0860               	movf	??___flmul+2,w
  5380  0DEF  1103               	clrz
  5381  0DF0  1803               	skipnc
  5382  0DF1  3E01               	addlw	1
  5383  0DF2  1903               	skipnz
  5384  0DF3  2DF5               	goto	u2872
  5385  0DF4  07E6               	addwf	___flmul@grs+2,f
  5386  0DF5                     u2872:
  5387  0DF5  0861               	movf	??___flmul+3,w
  5388  0DF6  1103               	clrz
  5389  0DF7  1803               	skipnc
  5390  0DF8  3E01               	addlw	1
  5391  0DF9  1903               	skipnz
  5392  0DFA  2DFC               	goto	u2873
  5393  0DFB  07E7               	addwf	___flmul@grs+3,f
  5394  0DFC                     u2873:
  5395  0DFC                     l2113:
  5396  0DFC  0856               	movf	___flmul@b,w
  5397  0DFD  00FF               	movwf	btemp+1
  5398  0DFE  087F               	movf	btemp+1,w
  5399  0DFF  00F2               	movwf	__Umul8_16@multiplicand
  5400  0E00  085B               	movf	___flmul@a+1,w
  5401  0E01  160A  118A  25B4  120A  158A  	fcall	__Umul8_16
  5402  0E06  0873               	movf	?__Umul8_16+1,w
  5403  0E07  1283               	bcf	3,5	;RP0=0, select bank0
  5404  0E08  1303               	bcf	3,6	;RP1=0, select bank0
  5405  0E09  00EF               	movwf	___flmul@temp+1
  5406  0E0A  0872               	movf	?__Umul8_16,w
  5407  0E0B  00EE               	movwf	___flmul@temp
  5408  0E0C                     l2115:
  5409  0E0C  086E               	movf	___flmul@temp,w
  5410  0E0D  00DE               	movwf	??___flmul
  5411  0E0E  086F               	movf	___flmul@temp+1,w
  5412  0E0F  00DF               	movwf	??___flmul+1
  5413  0E10  01E0               	clrf	??___flmul+2
  5414  0E11  01E1               	clrf	??___flmul+3
  5415  0E12  085E               	movf	??___flmul,w
  5416  0E13  07E4               	addwf	___flmul@grs,f
  5417  0E14  085F               	movf	??___flmul+1,w
  5418  0E15  1103               	clrz
  5419  0E16  1803               	skipnc
  5420  0E17  3E01               	addlw	1
  5421  0E18  1903               	skipnz
  5422  0E19  2E1B               	goto	u2881
  5423  0E1A  07E5               	addwf	___flmul@grs+1,f
  5424  0E1B                     u2881:
  5425  0E1B  0860               	movf	??___flmul+2,w
  5426  0E1C  1103               	clrz
  5427  0E1D  1803               	skipnc
  5428  0E1E  3E01               	addlw	1
  5429  0E1F  1903               	skipnz
  5430  0E20  2E22               	goto	u2882
  5431  0E21  07E6               	addwf	___flmul@grs+2,f
  5432  0E22                     u2882:
  5433  0E22  0861               	movf	??___flmul+3,w
  5434  0E23  1103               	clrz
  5435  0E24  1803               	skipnc
  5436  0E25  3E01               	addlw	1
  5437  0E26  1903               	skipnz
  5438  0E27  2E29               	goto	u2883
  5439  0E28  07E7               	addwf	___flmul@grs+3,f
  5440  0E29                     u2883:
  5441  0E29                     l2117:
  5442  0E29  3008               	movlw	8
  5443  0E2A  00DE               	movwf	??___flmul
  5444  0E2B                     u2895:
  5445  0E2B  1003               	clrc
  5446  0E2C  0DE4               	rlf	___flmul@grs,f
  5447  0E2D  0DE5               	rlf	___flmul@grs+1,f
  5448  0E2E  0DE6               	rlf	___flmul@grs+2,f
  5449  0E2F  0DE7               	rlf	___flmul@grs+3,f
  5450  0E30  0BDE               	decfsz	??___flmul,f
  5451  0E31  2E2B               	goto	u2895
  5452  0E32  0856               	movf	___flmul@b,w
  5453  0E33  00FF               	movwf	btemp+1
  5454  0E34  087F               	movf	btemp+1,w
  5455  0E35  00F2               	movwf	__Umul8_16@multiplicand
  5456  0E36  085A               	movf	___flmul@a,w
  5457  0E37  160A  118A  25B4  120A  158A  	fcall	__Umul8_16
  5458  0E3C  0873               	movf	?__Umul8_16+1,w
  5459  0E3D  1283               	bcf	3,5	;RP0=0, select bank0
  5460  0E3E  1303               	bcf	3,6	;RP1=0, select bank0
  5461  0E3F  00EF               	movwf	___flmul@temp+1
  5462  0E40  0872               	movf	?__Umul8_16,w
  5463  0E41  00EE               	movwf	___flmul@temp
  5464  0E42                     l2119:
  5465  0E42  086E               	movf	___flmul@temp,w
  5466  0E43  00DE               	movwf	??___flmul
  5467  0E44  086F               	movf	___flmul@temp+1,w
  5468  0E45  00DF               	movwf	??___flmul+1
  5469  0E46  01E0               	clrf	??___flmul+2
  5470  0E47  01E1               	clrf	??___flmul+3
  5471  0E48  085E               	movf	??___flmul,w
  5472  0E49  07E4               	addwf	___flmul@grs,f
  5473  0E4A  085F               	movf	??___flmul+1,w
  5474  0E4B  1103               	clrz
  5475  0E4C  1803               	skipnc
  5476  0E4D  3E01               	addlw	1
  5477  0E4E  1903               	skipnz
  5478  0E4F  2E51               	goto	u2901
  5479  0E50  07E5               	addwf	___flmul@grs+1,f
  5480  0E51                     u2901:
  5481  0E51  0860               	movf	??___flmul+2,w
  5482  0E52  1103               	clrz
  5483  0E53  1803               	skipnc
  5484  0E54  3E01               	addlw	1
  5485  0E55  1903               	skipnz
  5486  0E56  2E58               	goto	u2902
  5487  0E57  07E6               	addwf	___flmul@grs+2,f
  5488  0E58                     u2902:
  5489  0E58  0861               	movf	??___flmul+3,w
  5490  0E59  1103               	clrz
  5491  0E5A  1803               	skipnc
  5492  0E5B  3E01               	addlw	1
  5493  0E5C  1903               	skipnz
  5494  0E5D  2E5F               	goto	u2903
  5495  0E5E  07E7               	addwf	___flmul@grs+3,f
  5496  0E5F                     u2903:
  5497  0E5F                     l2121:
  5498  0E5F  0857               	movf	___flmul@b+1,w
  5499  0E60  00FF               	movwf	btemp+1
  5500  0E61  087F               	movf	btemp+1,w
  5501  0E62  00F2               	movwf	__Umul8_16@multiplicand
  5502  0E63  085C               	movf	___flmul@a+2,w
  5503  0E64  160A  118A  25B4  120A  158A  	fcall	__Umul8_16
  5504  0E69  0873               	movf	?__Umul8_16+1,w
  5505  0E6A  1283               	bcf	3,5	;RP0=0, select bank0
  5506  0E6B  1303               	bcf	3,6	;RP1=0, select bank0
  5507  0E6C  00EF               	movwf	___flmul@temp+1
  5508  0E6D  0872               	movf	?__Umul8_16,w
  5509  0E6E  00EE               	movwf	___flmul@temp
  5510  0E6F  086E               	movf	___flmul@temp,w
  5511  0E70  00DE               	movwf	??___flmul
  5512  0E71  086F               	movf	___flmul@temp+1,w
  5513  0E72  00DF               	movwf	??___flmul+1
  5514  0E73  01E0               	clrf	??___flmul+2
  5515  0E74  01E1               	clrf	??___flmul+3
  5516  0E75  085E               	movf	??___flmul,w
  5517  0E76  07EA               	addwf	___flmul@prod,f
  5518  0E77  085F               	movf	??___flmul+1,w
  5519  0E78  1103               	clrz
  5520  0E79  1803               	skipnc
  5521  0E7A  3E01               	addlw	1
  5522  0E7B  1903               	skipnz
  5523  0E7C  2E7E               	goto	u2911
  5524  0E7D  07EB               	addwf	___flmul@prod+1,f
  5525  0E7E                     u2911:
  5526  0E7E  0860               	movf	??___flmul+2,w
  5527  0E7F  1103               	clrz
  5528  0E80  1803               	skipnc
  5529  0E81  3E01               	addlw	1
  5530  0E82  1903               	skipnz
  5531  0E83  2E85               	goto	u2912
  5532  0E84  07EC               	addwf	___flmul@prod+2,f
  5533  0E85                     u2912:
  5534  0E85  0861               	movf	??___flmul+3,w
  5535  0E86  1103               	clrz
  5536  0E87  1803               	skipnc
  5537  0E88  3E01               	addlw	1
  5538  0E89  1903               	skipnz
  5539  0E8A  2E8C               	goto	u2913
  5540  0E8B  07ED               	addwf	___flmul@prod+3,f
  5541  0E8C                     u2913:
  5542  0E8C                     l2123:
  5543  0E8C  0858               	movf	___flmul@b+2,w
  5544  0E8D  00FF               	movwf	btemp+1
  5545  0E8E  087F               	movf	btemp+1,w
  5546  0E8F  00F2               	movwf	__Umul8_16@multiplicand
  5547  0E90  085B               	movf	___flmul@a+1,w
  5548  0E91  160A  118A  25B4  120A  158A  	fcall	__Umul8_16
  5549  0E96  0873               	movf	?__Umul8_16+1,w
  5550  0E97  1283               	bcf	3,5	;RP0=0, select bank0
  5551  0E98  1303               	bcf	3,6	;RP1=0, select bank0
  5552  0E99  00EF               	movwf	___flmul@temp+1
  5553  0E9A  0872               	movf	?__Umul8_16,w
  5554  0E9B  00EE               	movwf	___flmul@temp
  5555  0E9C                     l2125:
  5556  0E9C  086E               	movf	___flmul@temp,w
  5557  0E9D  00DE               	movwf	??___flmul
  5558  0E9E  086F               	movf	___flmul@temp+1,w
  5559  0E9F  00DF               	movwf	??___flmul+1
  5560  0EA0  01E0               	clrf	??___flmul+2
  5561  0EA1  01E1               	clrf	??___flmul+3
  5562  0EA2  085E               	movf	??___flmul,w
  5563  0EA3  07EA               	addwf	___flmul@prod,f
  5564  0EA4  085F               	movf	??___flmul+1,w
  5565  0EA5  1103               	clrz
  5566  0EA6  1803               	skipnc
  5567  0EA7  3E01               	addlw	1
  5568  0EA8  1903               	skipnz
  5569  0EA9  2EAB               	goto	u2921
  5570  0EAA  07EB               	addwf	___flmul@prod+1,f
  5571  0EAB                     u2921:
  5572  0EAB  0860               	movf	??___flmul+2,w
  5573  0EAC  1103               	clrz
  5574  0EAD  1803               	skipnc
  5575  0EAE  3E01               	addlw	1
  5576  0EAF  1903               	skipnz
  5577  0EB0  2EB2               	goto	u2922
  5578  0EB1  07EC               	addwf	___flmul@prod+2,f
  5579  0EB2                     u2922:
  5580  0EB2  0861               	movf	??___flmul+3,w
  5581  0EB3  1103               	clrz
  5582  0EB4  1803               	skipnc
  5583  0EB5  3E01               	addlw	1
  5584  0EB6  1903               	skipnz
  5585  0EB7  2EB9               	goto	u2923
  5586  0EB8  07ED               	addwf	___flmul@prod+3,f
  5587  0EB9                     u2923:
  5588  0EB9  0858               	movf	___flmul@b+2,w
  5589  0EBA  00FF               	movwf	btemp+1
  5590  0EBB  087F               	movf	btemp+1,w
  5591  0EBC  00F2               	movwf	__Umul8_16@multiplicand
  5592  0EBD  085C               	movf	___flmul@a+2,w
  5593  0EBE  160A  118A  25B4  120A  158A  	fcall	__Umul8_16
  5594  0EC3  0873               	movf	?__Umul8_16+1,w
  5595  0EC4  1283               	bcf	3,5	;RP0=0, select bank0
  5596  0EC5  1303               	bcf	3,6	;RP1=0, select bank0
  5597  0EC6  00EF               	movwf	___flmul@temp+1
  5598  0EC7  0872               	movf	?__Umul8_16,w
  5599  0EC8  00EE               	movwf	___flmul@temp
  5600  0EC9                     l2127:
  5601  0EC9  086E               	movf	___flmul@temp,w
  5602  0ECA  00DE               	movwf	??___flmul
  5603  0ECB  086F               	movf	___flmul@temp+1,w
  5604  0ECC  00DF               	movwf	??___flmul+1
  5605  0ECD  01E0               	clrf	??___flmul+2
  5606  0ECE  01E1               	clrf	??___flmul+3
  5607  0ECF  3008               	movlw	8
  5608  0ED0                     u2935:
  5609  0ED0  1003               	clrc
  5610  0ED1  0DDE               	rlf	??___flmul,f
  5611  0ED2  0DDF               	rlf	??___flmul+1,f
  5612  0ED3  0DE0               	rlf	??___flmul+2,f
  5613  0ED4  0DE1               	rlf	??___flmul+3,f
  5614  0ED5                     u2930:
  5615  0ED5  3EFF               	addlw	-1
  5616  0ED6  1D03               	skipz
  5617  0ED7  2ED0               	goto	u2935
  5618  0ED8  085E               	movf	??___flmul,w
  5619  0ED9  07EA               	addwf	___flmul@prod,f
  5620  0EDA  085F               	movf	??___flmul+1,w
  5621  0EDB  1103               	clrz
  5622  0EDC  1803               	skipnc
  5623  0EDD  3E01               	addlw	1
  5624  0EDE  1903               	skipnz
  5625  0EDF  2EE1               	goto	u2941
  5626  0EE0  07EB               	addwf	___flmul@prod+1,f
  5627  0EE1                     u2941:
  5628  0EE1  0860               	movf	??___flmul+2,w
  5629  0EE2  1103               	clrz
  5630  0EE3  1803               	skipnc
  5631  0EE4  3E01               	addlw	1
  5632  0EE5  1903               	skipnz
  5633  0EE6  2EE8               	goto	u2942
  5634  0EE7  07EC               	addwf	___flmul@prod+2,f
  5635  0EE8                     u2942:
  5636  0EE8  0861               	movf	??___flmul+3,w
  5637  0EE9  1103               	clrz
  5638  0EEA  1803               	skipnc
  5639  0EEB  3E01               	addlw	1
  5640  0EEC  1903               	skipnz
  5641  0EED  2EEF               	goto	u2943
  5642  0EEE  07ED               	addwf	___flmul@prod+3,f
  5643  0EEF                     u2943:
  5644  0EEF                     l2129:
  5645  0EEF  0864               	movf	___flmul@grs,w
  5646  0EF0  00DE               	movwf	??___flmul
  5647  0EF1  0865               	movf	___flmul@grs+1,w
  5648  0EF2  00DF               	movwf	??___flmul+1
  5649  0EF3  0866               	movf	___flmul@grs+2,w
  5650  0EF4  00E0               	movwf	??___flmul+2
  5651  0EF5  0867               	movf	___flmul@grs+3,w
  5652  0EF6  00E1               	movwf	??___flmul+3
  5653  0EF7  3018               	movlw	24
  5654  0EF8                     u2955:
  5655  0EF8  1003               	clrc
  5656  0EF9  0CE1               	rrf	??___flmul+3,f
  5657  0EFA  0CE0               	rrf	??___flmul+2,f
  5658  0EFB  0CDF               	rrf	??___flmul+1,f
  5659  0EFC  0CDE               	rrf	??___flmul,f
  5660  0EFD                     u2950:
  5661  0EFD  3EFF               	addlw	-1
  5662  0EFE  1D03               	skipz
  5663  0EFF  2EF8               	goto	u2955
  5664  0F00  085E               	movf	??___flmul,w
  5665  0F01  07EA               	addwf	___flmul@prod,f
  5666  0F02  085F               	movf	??___flmul+1,w
  5667  0F03  1103               	clrz
  5668  0F04  1803               	skipnc
  5669  0F05  3E01               	addlw	1
  5670  0F06  1903               	skipnz
  5671  0F07  2F09               	goto	u2961
  5672  0F08  07EB               	addwf	___flmul@prod+1,f
  5673  0F09                     u2961:
  5674  0F09  0860               	movf	??___flmul+2,w
  5675  0F0A  1103               	clrz
  5676  0F0B  1803               	skipnc
  5677  0F0C  3E01               	addlw	1
  5678  0F0D  1903               	skipnz
  5679  0F0E  2F10               	goto	u2962
  5680  0F0F  07EC               	addwf	___flmul@prod+2,f
  5681  0F10                     u2962:
  5682  0F10  0861               	movf	??___flmul+3,w
  5683  0F11  1103               	clrz
  5684  0F12  1803               	skipnc
  5685  0F13  3E01               	addlw	1
  5686  0F14  1903               	skipnz
  5687  0F15  2F17               	goto	u2963
  5688  0F16  07ED               	addwf	___flmul@prod+3,f
  5689  0F17                     u2963:
  5690  0F17                     l2131:
  5691  0F17  3008               	movlw	8
  5692  0F18  00DE               	movwf	??___flmul
  5693  0F19                     u2975:
  5694  0F19  1003               	clrc
  5695  0F1A  0DE4               	rlf	___flmul@grs,f
  5696  0F1B  0DE5               	rlf	___flmul@grs+1,f
  5697  0F1C  0DE6               	rlf	___flmul@grs+2,f
  5698  0F1D  0DE7               	rlf	___flmul@grs+3,f
  5699  0F1E  0BDE               	decfsz	??___flmul,f
  5700  0F1F  2F19               	goto	u2975
  5701  0F20                     l2133:
  5702  0F20  0869               	movf	___flmul@bexp,w
  5703  0F21  0768               	addwf	___flmul@aexp,w
  5704  0F22  00DE               	movwf	??___flmul
  5705  0F23  01DF               	clrf	??___flmul+1
  5706  0F24  0DDF               	rlf	??___flmul+1,f
  5707  0F25  085E               	movf	??___flmul,w
  5708  0F26  3E82               	addlw	130
  5709  0F27  00EE               	movwf	___flmul@temp
  5710  0F28  085F               	movf	??___flmul+1,w
  5711  0F29  1803               	skipnc
  5712  0F2A  3E01               	addlw	1
  5713  0F2B  3EFF               	addlw	255
  5714  0F2C  00EF               	movwf	___flmul@temp+1
  5715  0F2D  2F4B               	goto	l2145
  5716  0F2E                     l2135:
  5717  0F2E  3001               	movlw	1
  5718  0F2F  00DE               	movwf	??___flmul
  5719  0F30                     u2985:
  5720  0F30  1003               	clrc
  5721  0F31  0DEA               	rlf	___flmul@prod,f
  5722  0F32  0DEB               	rlf	___flmul@prod+1,f
  5723  0F33  0DEC               	rlf	___flmul@prod+2,f
  5724  0F34  0DED               	rlf	___flmul@prod+3,f
  5725  0F35  0BDE               	decfsz	??___flmul,f
  5726  0F36  2F30               	goto	u2985
  5727  0F37                     l2137:
  5728  0F37  1FE7               	btfss	___flmul@grs+3,7
  5729  0F38  2F3A               	goto	u2991
  5730  0F39  2F3B               	goto	u2990
  5731  0F3A                     u2991:
  5732  0F3A  2F3C               	goto	l2141
  5733  0F3B                     u2990:
  5734  0F3B                     l2139:
  5735  0F3B  146A               	bsf	___flmul@prod,0
  5736  0F3C                     l2141:
  5737  0F3C  3001               	movlw	1
  5738  0F3D  00DE               	movwf	??___flmul
  5739  0F3E                     u3005:
  5740  0F3E  1003               	clrc
  5741  0F3F  0DE4               	rlf	___flmul@grs,f
  5742  0F40  0DE5               	rlf	___flmul@grs+1,f
  5743  0F41  0DE6               	rlf	___flmul@grs+2,f
  5744  0F42  0DE7               	rlf	___flmul@grs+3,f
  5745  0F43  0BDE               	decfsz	??___flmul,f
  5746  0F44  2F3E               	goto	u3005
  5747  0F45                     l2143:
  5748  0F45  30FF               	movlw	255
  5749  0F46  07EE               	addwf	___flmul@temp,f
  5750  0F47  1803               	skipnc
  5751  0F48  0AEF               	incf	___flmul@temp+1,f
  5752  0F49  30FF               	movlw	255
  5753  0F4A  07EF               	addwf	___flmul@temp+1,f
  5754  0F4B                     l2145:
  5755  0F4B  1FEC               	btfss	___flmul@prod+2,7
  5756  0F4C  2F4E               	goto	u3011
  5757  0F4D  2F4F               	goto	u3010
  5758  0F4E                     u3011:
  5759  0F4E  2F2E               	goto	l2135
  5760  0F4F                     u3010:
  5761  0F4F                     l2147:
  5762  0F4F  01E8               	clrf	___flmul@aexp
  5763  0F50                     l2149:
  5764  0F50  1FE7               	btfss	___flmul@grs+3,7
  5765  0F51  2F53               	goto	u3021
  5766  0F52  2F54               	goto	u3020
  5767  0F53                     u3021:
  5768  0F53  2F70               	goto	l2157
  5769  0F54                     u3020:
  5770  0F54                     l2151:
  5771  0F54  30FF               	movlw	255
  5772  0F55  0564               	andwf	___flmul@grs,w
  5773  0F56  00DE               	movwf	??___flmul
  5774  0F57  30FF               	movlw	255
  5775  0F58  0565               	andwf	___flmul@grs+1,w
  5776  0F59  00DF               	movwf	??___flmul+1
  5777  0F5A  30FF               	movlw	255
  5778  0F5B  0566               	andwf	___flmul@grs+2,w
  5779  0F5C  00E0               	movwf	??___flmul+2
  5780  0F5D  307F               	movlw	127
  5781  0F5E  0567               	andwf	___flmul@grs+3,w
  5782  0F5F  00E1               	movwf	??___flmul+3
  5783  0F60  0861               	movf	??___flmul+3,w
  5784  0F61  0460               	iorwf	??___flmul+2,w
  5785  0F62  045F               	iorwf	??___flmul+1,w
  5786  0F63  045E               	iorwf	??___flmul,w
  5787  0F64  1903               	skipnz
  5788  0F65  2F67               	goto	u3031
  5789  0F66  2F68               	goto	u3030
  5790  0F67                     u3031:
  5791  0F67  2F6B               	goto	l616
  5792  0F68                     u3030:
  5793  0F68                     l2153:
  5794  0F68  01E8               	clrf	___flmul@aexp
  5795  0F69  0AE8               	incf	___flmul@aexp,f
  5796  0F6A  2F70               	goto	l2157
  5797  0F6B                     l616:
  5798  0F6B  1C6A               	btfss	___flmul@prod,0
  5799  0F6C  2F6E               	goto	u3041
  5800  0F6D  2F6F               	goto	u3040
  5801  0F6E                     u3041:
  5802  0F6E  2F70               	goto	l2157
  5803  0F6F                     u3040:
  5804  0F6F  2F68               	goto	l2153
  5805  0F70                     l2157:
  5806  0F70  0868               	movf	___flmul@aexp,w
  5807  0F71  1903               	btfsc	3,2
  5808  0F72  2F74               	goto	u3051
  5809  0F73  2F75               	goto	u3050
  5810  0F74                     u3051:
  5811  0F74  2FA6               	goto	l2167
  5812  0F75                     u3050:
  5813  0F75                     l2159:
  5814  0F75  3001               	movlw	1
  5815  0F76  07EA               	addwf	___flmul@prod,f
  5816  0F77  3000               	movlw	0
  5817  0F78  1803               	skipnc
  5818  0F79  3001               	movlw	1
  5819  0F7A  07EB               	addwf	___flmul@prod+1,f
  5820  0F7B  3000               	movlw	0
  5821  0F7C  1803               	skipnc
  5822  0F7D  3001               	movlw	1
  5823  0F7E  07EC               	addwf	___flmul@prod+2,f
  5824  0F7F  3000               	movlw	0
  5825  0F80  1803               	skipnc
  5826  0F81  3001               	movlw	1
  5827  0F82  07ED               	addwf	___flmul@prod+3,f
  5828  0F83                     l2161:
  5829  0F83  1C6D               	btfss	___flmul@prod+3,0
  5830  0F84  2F86               	goto	u3061
  5831  0F85  2F87               	goto	u3060
  5832  0F86                     u3061:
  5833  0F86  2FA6               	goto	l2167
  5834  0F87                     u3060:
  5835  0F87                     l2163:
  5836  0F87  086A               	movf	___flmul@prod,w
  5837  0F88  00DE               	movwf	??___flmul
  5838  0F89  086B               	movf	___flmul@prod+1,w
  5839  0F8A  00DF               	movwf	??___flmul+1
  5840  0F8B  086C               	movf	___flmul@prod+2,w
  5841  0F8C  00E0               	movwf	??___flmul+2
  5842  0F8D  086D               	movf	___flmul@prod+3,w
  5843  0F8E  00E1               	movwf	??___flmul+3
  5844  0F8F  3001               	movlw	1
  5845  0F90  00E2               	movwf	??___flmul+4
  5846  0F91                     u3075:
  5847  0F91  0D61               	rlf	??___flmul+3,w
  5848  0F92  0CE1               	rrf	??___flmul+3,f
  5849  0F93  0CE0               	rrf	??___flmul+2,f
  5850  0F94  0CDF               	rrf	??___flmul+1,f
  5851  0F95  0CDE               	rrf	??___flmul,f
  5852  0F96                     u3070:
  5853  0F96  0BE2               	decfsz	??___flmul+4,f
  5854  0F97  2F91               	goto	u3075
  5855  0F98  0861               	movf	??___flmul+3,w
  5856  0F99  00ED               	movwf	___flmul@prod+3
  5857  0F9A  0860               	movf	??___flmul+2,w
  5858  0F9B  00EC               	movwf	___flmul@prod+2
  5859  0F9C  085F               	movf	??___flmul+1,w
  5860  0F9D  00EB               	movwf	___flmul@prod+1
  5861  0F9E  085E               	movf	??___flmul,w
  5862  0F9F  00EA               	movwf	___flmul@prod
  5863  0FA0                     l2165:
  5864  0FA0  3001               	movlw	1
  5865  0FA1  07EE               	addwf	___flmul@temp,f
  5866  0FA2  1803               	skipnc
  5867  0FA3  0AEF               	incf	___flmul@temp+1,f
  5868  0FA4  3000               	movlw	0
  5869  0FA5  07EF               	addwf	___flmul@temp+1,f
  5870  0FA6                     l2167:
  5871  0FA6  086F               	movf	___flmul@temp+1,w
  5872  0FA7  3A80               	xorlw	128
  5873  0FA8  00FF               	movwf	btemp+1
  5874  0FA9  3080               	movlw	128
  5875  0FAA  027F               	subwf	btemp+1,w
  5876  0FAB  1D03               	skipz
  5877  0FAC  2FAF               	goto	u3085
  5878  0FAD  30FF               	movlw	255
  5879  0FAE  026E               	subwf	___flmul@temp,w
  5880  0FAF                     u3085:
  5881  0FAF  1C03               	skipc
  5882  0FB0  2FB2               	goto	u3081
  5883  0FB1  2FB3               	goto	u3080
  5884  0FB2                     u3081:
  5885  0FB2  2FBE               	goto	l2171
  5886  0FB3                     u3080:
  5887  0FB3                     l2169:
  5888  0FB3  307F               	movlw	127
  5889  0FB4  1283               	bcf	3,5	;RP0=0, select bank0
  5890  0FB5  1303               	bcf	3,6	;RP1=0, select bank0
  5891  0FB6  00ED               	movwf	___flmul@prod+3
  5892  0FB7  3080               	movlw	128
  5893  0FB8  00EC               	movwf	___flmul@prod+2
  5894  0FB9  3000               	movlw	0
  5895  0FBA  00EB               	movwf	___flmul@prod+1
  5896  0FBB  3000               	movlw	0
  5897  0FBC  00EA               	movwf	___flmul@prod
  5898  0FBD  2FF3               	goto	l622
  5899  0FBE                     l2171:
  5900  0FBE  1283               	bcf	3,5	;RP0=0, select bank0
  5901  0FBF  1303               	bcf	3,6	;RP1=0, select bank0
  5902  0FC0  086F               	movf	___flmul@temp+1,w
  5903  0FC1  3A80               	xorlw	128
  5904  0FC2  00FF               	movwf	btemp+1
  5905  0FC3  3080               	movlw	128
  5906  0FC4  027F               	subwf	btemp+1,w
  5907  0FC5  1D03               	skipz
  5908  0FC6  2FC9               	goto	u3095
  5909  0FC7  3001               	movlw	1
  5910  0FC8  026E               	subwf	___flmul@temp,w
  5911  0FC9                     u3095:
  5912  0FC9  1803               	skipnc
  5913  0FCA  2FCC               	goto	u3091
  5914  0FCB  2FCD               	goto	u3090
  5915  0FCC                     u3091:
  5916  0FCC  2FD9               	goto	l2177
  5917  0FCD                     u3090:
  5918  0FCD                     l2173:
  5919  0FCD  3000               	movlw	0
  5920  0FCE  1283               	bcf	3,5	;RP0=0, select bank0
  5921  0FCF  1303               	bcf	3,6	;RP1=0, select bank0
  5922  0FD0  00ED               	movwf	___flmul@prod+3
  5923  0FD1  3000               	movlw	0
  5924  0FD2  00EC               	movwf	___flmul@prod+2
  5925  0FD3  3000               	movlw	0
  5926  0FD4  00EB               	movwf	___flmul@prod+1
  5927  0FD5  3000               	movlw	0
  5928  0FD6  00EA               	movwf	___flmul@prod
  5929  0FD7                     l2175:
  5930  0FD7  01E3               	clrf	___flmul@sign
  5931  0FD8  2FF3               	goto	l622
  5932  0FD9                     l2177:
  5933  0FD9  1283               	bcf	3,5	;RP0=0, select bank0
  5934  0FDA  1303               	bcf	3,6	;RP1=0, select bank0
  5935  0FDB  086E               	movf	___flmul@temp,w
  5936  0FDC  00FF               	movwf	btemp+1
  5937  0FDD  087F               	movf	btemp+1,w
  5938  0FDE  00E9               	movwf	___flmul@bexp
  5939  0FDF                     l2179:
  5940  0FDF  30FF               	movlw	255
  5941  0FE0  05EA               	andwf	___flmul@prod,f
  5942  0FE1  30FF               	movlw	255
  5943  0FE2  05EB               	andwf	___flmul@prod+1,f
  5944  0FE3  307F               	movlw	127
  5945  0FE4  05EC               	andwf	___flmul@prod+2,f
  5946  0FE5  3000               	movlw	0
  5947  0FE6  05ED               	andwf	___flmul@prod+3,f
  5948  0FE7                     l2181:
  5949  0FE7  1C69               	btfss	___flmul@bexp,0
  5950  0FE8  2FEA               	goto	u3101
  5951  0FE9  2FEB               	goto	u3100
  5952  0FEA                     u3101:
  5953  0FEA  2FEC               	goto	l2185
  5954  0FEB                     u3100:
  5955  0FEB                     l2183:
  5956  0FEB  17EC               	bsf	___flmul@prod+2,7
  5957  0FEC                     l2185:
  5958  0FEC  0869               	movf	___flmul@bexp,w
  5959  0FED  00DE               	movwf	??___flmul
  5960  0FEE  1003               	clrc
  5961  0FEF  0C5E               	rrf	??___flmul,w
  5962  0FF0  00FF               	movwf	btemp+1
  5963  0FF1  087F               	movf	btemp+1,w
  5964  0FF2  00ED               	movwf	___flmul@prod+3
  5965  0FF3                     l622:
  5966  0FF3  0863               	movf	___flmul@sign,w
  5967  0FF4  00FF               	movwf	btemp+1
  5968  0FF5  087F               	movf	btemp+1,w
  5969  0FF6  04ED               	iorwf	___flmul@prod+3,f
  5970  0FF7                     l2187:
  5971  0FF7  086D               	movf	___flmul@prod+3,w
  5972  0FF8  00D9               	movwf	?___flmul+3
  5973  0FF9  086C               	movf	___flmul@prod+2,w
  5974  0FFA  00D8               	movwf	?___flmul+2
  5975  0FFB  086B               	movf	___flmul@prod+1,w
  5976  0FFC  00D7               	movwf	?___flmul+1
  5977  0FFD  086A               	movf	___flmul@prod,w
  5978  0FFE  00D6               	movwf	?___flmul
  5979  0FFF                     l610:
  5980  0FFF  0008               	return
  5981  1000                     __end_of___flmul:
  5982                           
  5983                           	psect	text16
  5984  15B4                     __ptext16:	
  5985 ;; *************** function __Umul8_16 *****************
  5986 ;; Defined at:
  5987 ;;		line 4 in file "C:\Program Files\Microchip\xc8\v2.20\pic\sources\c90\common\Umul8_16.c"
  5988 ;; Parameters:    Size  Location     Type
  5989 ;;  multiplier      1    wreg     unsigned char 
  5990 ;;  multiplicand    1    2[COMMON] unsigned char 
  5991 ;; Auto vars:     Size  Location     Type
  5992 ;;  multiplier      1   10[COMMON] unsigned char 
  5993 ;;  word_mpld       2    8[COMMON] unsigned int 
  5994 ;;  product         2    6[COMMON] unsigned int 
  5995 ;; Return value:  Size  Location     Type
  5996 ;;                  2    2[COMMON] unsigned int 
  5997 ;; Registers used:
  5998 ;;		wreg, status,2, status,0
  5999 ;; Tracked objects:
  6000 ;;		On entry : 0/0
  6001 ;;		On exit  : 0/0
  6002 ;;		Unchanged: 0/0
  6003 ;; Data sizes:     COMMON   BANK0   BANK1   BANK3   BANK2
  6004 ;;      Params:         2       0       0       0       0
  6005 ;;      Locals:         5       0       0       0       0
  6006 ;;      Temps:          2       0       0       0       0
  6007 ;;      Totals:         9       0       0       0       0
  6008 ;;Total ram usage:        9 bytes
  6009 ;; Hardware stack levels used:    1
  6010 ;; Hardware stack levels required when called:    1
  6011 ;; This function calls:
  6012 ;;		Nothing
  6013 ;; This function is called by:
  6014 ;;		___flmul
  6015 ;; This function uses a non-reentrant model
  6016 ;;
  6017                           
  6018                           
  6019                           ;psect for function __Umul8_16
  6020  15B4                     __Umul8_16:
  6021                           
  6022                           ;incstack = 0
  6023                           ; Regs used in __Umul8_16: [wreg+status,2+status,0]
  6024                           ;__Umul8_16@multiplier stored from wreg
  6025  15B4  00FA               	movwf	__Umul8_16@multiplier
  6026  15B5                     l1841:
  6027  15B5  01F6               	clrf	__Umul8_16@product
  6028  15B6  01F7               	clrf	__Umul8_16@product+1
  6029  15B7                     l1843:
  6030  15B7  0872               	movf	__Umul8_16@multiplicand,w
  6031  15B8  00F4               	movwf	??__Umul8_16
  6032  15B9  01F5               	clrf	??__Umul8_16+1
  6033  15BA  0874               	movf	??__Umul8_16,w
  6034  15BB  00F8               	movwf	__Umul8_16@word_mpld
  6035  15BC  0875               	movf	??__Umul8_16+1,w
  6036  15BD  00F9               	movwf	__Umul8_16@word_mpld+1
  6037  15BE                     l1845:
  6038  15BE  1C7A               	btfss	__Umul8_16@multiplier,0
  6039  15BF  2DC1               	goto	u2291
  6040  15C0  2DC2               	goto	u2290
  6041  15C1                     u2291:
  6042  15C1  2DC8               	goto	l629
  6043  15C2                     u2290:
  6044  15C2                     l1847:
  6045  15C2  0878               	movf	__Umul8_16@word_mpld,w
  6046  15C3  07F6               	addwf	__Umul8_16@product,f
  6047  15C4  1803               	skipnc
  6048  15C5  0AF7               	incf	__Umul8_16@product+1,f
  6049  15C6  0879               	movf	__Umul8_16@word_mpld+1,w
  6050  15C7  07F7               	addwf	__Umul8_16@product+1,f
  6051  15C8                     l629:
  6052  15C8  3001               	movlw	1
  6053  15C9                     u2305:
  6054  15C9  1003               	clrc
  6055  15CA  0DF8               	rlf	__Umul8_16@word_mpld,f
  6056  15CB  0DF9               	rlf	__Umul8_16@word_mpld+1,f
  6057  15CC  3EFF               	addlw	-1
  6058  15CD  1D03               	skipz
  6059  15CE  2DC9               	goto	u2305
  6060  15CF  1003               	clrc
  6061  15D0  0CFA               	rrf	__Umul8_16@multiplier,f
  6062  15D1                     l1849:
  6063  15D1  087A               	movf	__Umul8_16@multiplier,w
  6064  15D2  1D03               	btfss	3,2
  6065  15D3  2DD5               	goto	u2311
  6066  15D4  2DD6               	goto	u2310
  6067  15D5                     u2311:
  6068  15D5  2DBE               	goto	l1845
  6069  15D6                     u2310:
  6070  15D6                     l1851:
  6071  15D6  0877               	movf	__Umul8_16@product+1,w
  6072  15D7  00F3               	movwf	?__Umul8_16+1
  6073  15D8  0876               	movf	__Umul8_16@product,w
  6074  15D9  00F2               	movwf	?__Umul8_16
  6075  15DA                     l631:
  6076  15DA  0008               	return
  6077  15DB                     __end_of__Umul8_16:
  6078                           
  6079                           	psect	text17
  6080  083A                     __ptext17:	
  6081 ;; *************** function ___fldiv *****************
  6082 ;; Defined at:
  6083 ;;		line 8 in file "C:\Program Files\Microchip\xc8\v2.20\pic\sources\c90\common\sprcdiv.c"
  6084 ;; Parameters:    Size  Location     Type
  6085 ;;  a               4   28[BANK0 ] unsigned int 
  6086 ;;  b               4   32[BANK0 ] unsigned int 
  6087 ;; Auto vars:     Size  Location     Type
  6088 ;;  grs             4   48[BANK0 ] unsigned long 
  6089 ;;  rem             4   41[BANK0 ] unsigned long 
  6090 ;;  new_exp         2   46[BANK0 ] int 
  6091 ;;  aexp            1   53[BANK0 ] unsigned char 
  6092 ;;  bexp            1   52[BANK0 ] unsigned char 
  6093 ;;  sign            1   45[BANK0 ] unsigned char 
  6094 ;; Return value:  Size  Location     Type
  6095 ;;                  4   28[BANK0 ] unsigned char 
  6096 ;; Registers used:
  6097 ;;		wreg, status,2, status,0, btemp+1
  6098 ;; Tracked objects:
  6099 ;;		On entry : 0/0
  6100 ;;		On exit  : 0/0
  6101 ;;		Unchanged: 0/0
  6102 ;; Data sizes:     COMMON   BANK0   BANK1   BANK3   BANK2
  6103 ;;      Params:         0       8       0       0       0
  6104 ;;      Locals:         0      13       0       0       0
  6105 ;;      Temps:          0       5       0       0       0
  6106 ;;      Totals:         0      26       0       0       0
  6107 ;;Total ram usage:       26 bytes
  6108 ;; Hardware stack levels used:    1
  6109 ;; Hardware stack levels required when called:    1
  6110 ;; This function calls:
  6111 ;;		Nothing
  6112 ;; This function is called by:
  6113 ;;		_Voltage_Value
  6114 ;;		_Resistance_Value
  6115 ;;		_conversion_newton
  6116 ;; This function uses a non-reentrant model
  6117 ;;
  6118                           
  6119                           
  6120                           ;psect for function ___fldiv
  6121  083A                     ___fldiv:
  6122  083A                     l1905:	
  6123                           ;incstack = 0
  6124                           ; Regs used in ___fldiv: [wreg+status,2+status,0+btemp+1]
  6125                           
  6126  083A  1283               	bcf	3,5	;RP0=0, select bank0
  6127  083B  1303               	bcf	3,6	;RP1=0, select bank0
  6128  083C  0843               	movf	___fldiv@b+3,w
  6129  083D  3980               	andlw	128
  6130  083E  00FF               	movwf	btemp+1
  6131  083F  087F               	movf	btemp+1,w
  6132  0840  00CD               	movwf	___fldiv@sign
  6133  0841                     l1907:
  6134  0841  0843               	movf	___fldiv@b+3,w
  6135  0842  00C4               	movwf	??___fldiv
  6136  0843  0744               	addwf	??___fldiv,w
  6137  0844  00FF               	movwf	btemp+1
  6138  0845  087F               	movf	btemp+1,w
  6139  0846  00D4               	movwf	___fldiv@bexp
  6140  0847                     l1909:
  6141  0847  1FC2               	btfss	___fldiv@b+2,7
  6142  0848  284A               	goto	u2451
  6143  0849  284B               	goto	u2450
  6144  084A                     u2451:
  6145  084A  284C               	goto	l1913
  6146  084B                     u2450:
  6147  084B                     l1911:
  6148  084B  1454               	bsf	___fldiv@bexp,0
  6149  084C                     l1913:
  6150  084C  0854               	movf	___fldiv@bexp,w
  6151  084D  1903               	btfsc	3,2
  6152  084E  2850               	goto	u2461
  6153  084F  2851               	goto	u2460
  6154  0850                     u2461:
  6155  0850  2861               	goto	l1923
  6156  0851                     u2460:
  6157  0851                     l1915:
  6158  0851  0A54               	incf	___fldiv@bexp,w
  6159  0852  1D03               	btfss	3,2
  6160  0853  2855               	goto	u2471
  6161  0854  2856               	goto	u2470
  6162  0855                     u2471:
  6163  0855  285E               	goto	l1919
  6164  0856                     u2470:
  6165  0856                     l1917:
  6166  0856  3000               	movlw	0
  6167  0857  00C3               	movwf	___fldiv@b+3
  6168  0858  3000               	movlw	0
  6169  0859  00C2               	movwf	___fldiv@b+2
  6170  085A  3000               	movlw	0
  6171  085B  00C1               	movwf	___fldiv@b+1
  6172  085C  3000               	movlw	0
  6173  085D  00C0               	movwf	___fldiv@b
  6174  085E                     l1919:
  6175  085E  17C2               	bsf	___fldiv@b+2,7
  6176  085F                     l1921:
  6177  085F  01C3               	clrf	___fldiv@b+3
  6178  0860  2869               	goto	l1925
  6179  0861                     l1923:
  6180  0861  3000               	movlw	0
  6181  0862  00C3               	movwf	___fldiv@b+3
  6182  0863  3000               	movlw	0
  6183  0864  00C2               	movwf	___fldiv@b+2
  6184  0865  3000               	movlw	0
  6185  0866  00C1               	movwf	___fldiv@b+1
  6186  0867  3000               	movlw	0
  6187  0868  00C0               	movwf	___fldiv@b
  6188  0869                     l1925:
  6189  0869  083F               	movf	___fldiv@a+3,w
  6190  086A  3980               	andlw	128
  6191  086B  00FF               	movwf	btemp+1
  6192  086C  087F               	movf	btemp+1,w
  6193  086D  06CD               	xorwf	___fldiv@sign,f
  6194  086E                     l1927:
  6195  086E  083F               	movf	___fldiv@a+3,w
  6196  086F  00C4               	movwf	??___fldiv
  6197  0870  0744               	addwf	??___fldiv,w
  6198  0871  00FF               	movwf	btemp+1
  6199  0872  087F               	movf	btemp+1,w
  6200  0873  00D5               	movwf	___fldiv@aexp
  6201  0874                     l1929:
  6202  0874  1FBE               	btfss	___fldiv@a+2,7
  6203  0875  2877               	goto	u2481
  6204  0876  2878               	goto	u2480
  6205  0877                     u2481:
  6206  0877  2879               	goto	l1933
  6207  0878                     u2480:
  6208  0878                     l1931:
  6209  0878  1455               	bsf	___fldiv@aexp,0
  6210  0879                     l1933:
  6211  0879  0855               	movf	___fldiv@aexp,w
  6212  087A  1903               	btfsc	3,2
  6213  087B  287D               	goto	u2491
  6214  087C  287E               	goto	u2490
  6215  087D                     u2491:
  6216  087D  288E               	goto	l1943
  6217  087E                     u2490:
  6218  087E                     l1935:
  6219  087E  0A55               	incf	___fldiv@aexp,w
  6220  087F  1D03               	btfss	3,2
  6221  0880  2882               	goto	u2501
  6222  0881  2883               	goto	u2500
  6223  0882                     u2501:
  6224  0882  288B               	goto	l1939
  6225  0883                     u2500:
  6226  0883                     l1937:
  6227  0883  3000               	movlw	0
  6228  0884  00BF               	movwf	___fldiv@a+3
  6229  0885  3000               	movlw	0
  6230  0886  00BE               	movwf	___fldiv@a+2
  6231  0887  3000               	movlw	0
  6232  0888  00BD               	movwf	___fldiv@a+1
  6233  0889  3000               	movlw	0
  6234  088A  00BC               	movwf	___fldiv@a
  6235  088B                     l1939:
  6236  088B  17BE               	bsf	___fldiv@a+2,7
  6237  088C                     l1941:
  6238  088C  01BF               	clrf	___fldiv@a+3
  6239  088D  2896               	goto	l570
  6240  088E                     l1943:
  6241  088E  3000               	movlw	0
  6242  088F  00BF               	movwf	___fldiv@a+3
  6243  0890  3000               	movlw	0
  6244  0891  00BE               	movwf	___fldiv@a+2
  6245  0892  3000               	movlw	0
  6246  0893  00BD               	movwf	___fldiv@a+1
  6247  0894  3000               	movlw	0
  6248  0895  00BC               	movwf	___fldiv@a
  6249  0896                     l570:
  6250  0896  083F               	movf	___fldiv@a+3,w
  6251  0897  043E               	iorwf	___fldiv@a+2,w
  6252  0898  043D               	iorwf	___fldiv@a+1,w
  6253  0899  043C               	iorwf	___fldiv@a,w
  6254  089A  1D03               	skipz
  6255  089B  289D               	goto	u2511
  6256  089C  289E               	goto	u2510
  6257  089D                     u2511:
  6258  089D  28B7               	goto	l1953
  6259  089E                     u2510:
  6260  089E                     l1945:
  6261  089E  3000               	movlw	0
  6262  089F  00C3               	movwf	___fldiv@b+3
  6263  08A0  3000               	movlw	0
  6264  08A1  00C2               	movwf	___fldiv@b+2
  6265  08A2  3000               	movlw	0
  6266  08A3  00C1               	movwf	___fldiv@b+1
  6267  08A4  3000               	movlw	0
  6268  08A5  00C0               	movwf	___fldiv@b
  6269  08A6  3080               	movlw	128
  6270  08A7  04C2               	iorwf	___fldiv@b+2,f
  6271  08A8  307F               	movlw	127
  6272  08A9  04C3               	iorwf	___fldiv@b+3,f
  6273  08AA                     l1947:
  6274  08AA  084D               	movf	___fldiv@sign,w
  6275  08AB  00FF               	movwf	btemp+1
  6276  08AC  087F               	movf	btemp+1,w
  6277  08AD  04C3               	iorwf	___fldiv@b+3,f
  6278  08AE                     l1949:
  6279  08AE  0843               	movf	___fldiv@b+3,w
  6280  08AF  00BF               	movwf	?___fldiv+3
  6281  08B0  0842               	movf	___fldiv@b+2,w
  6282  08B1  00BE               	movwf	?___fldiv+2
  6283  08B2  0841               	movf	___fldiv@b+1,w
  6284  08B3  00BD               	movwf	?___fldiv+1
  6285  08B4  0840               	movf	___fldiv@b,w
  6286  08B5  00BC               	movwf	?___fldiv
  6287  08B6  2A16               	goto	l572
  6288  08B7                     l1953:
  6289  08B7  0854               	movf	___fldiv@bexp,w
  6290  08B8  1D03               	btfss	3,2
  6291  08B9  28BB               	goto	u2521
  6292  08BA  28BC               	goto	u2520
  6293  08BB                     u2521:
  6294  08BB  28C5               	goto	l1959
  6295  08BC                     u2520:
  6296  08BC                     l1955:
  6297  08BC  3000               	movlw	0
  6298  08BD  00BF               	movwf	?___fldiv+3
  6299  08BE  3000               	movlw	0
  6300  08BF  00BE               	movwf	?___fldiv+2
  6301  08C0  3000               	movlw	0
  6302  08C1  00BD               	movwf	?___fldiv+1
  6303  08C2  3000               	movlw	0
  6304  08C3  00BC               	movwf	?___fldiv
  6305  08C4  2A16               	goto	l572
  6306  08C5                     l1959:
  6307  08C5  0854               	movf	___fldiv@bexp,w
  6308  08C6  00C4               	movwf	??___fldiv
  6309  08C7  01C5               	clrf	??___fldiv+1
  6310  08C8  0845               	movf	??___fldiv+1,w
  6311  08C9  00C7               	movwf	??___fldiv+3
  6312  08CA  0855               	movf	___fldiv@aexp,w
  6313  08CB  0244               	subwf	??___fldiv,w
  6314  08CC  00C6               	movwf	??___fldiv+2
  6315  08CD  1C03               	skipc
  6316  08CE  03C7               	decf	??___fldiv+3,f
  6317  08CF  0846               	movf	??___fldiv+2,w
  6318  08D0  3E7F               	addlw	127
  6319  08D1  00CE               	movwf	___fldiv@new_exp
  6320  08D2  0847               	movf	??___fldiv+3,w
  6321  08D3  1803               	skipnc
  6322  08D4  3E01               	addlw	1
  6323  08D5  3E00               	addlw	0
  6324  08D6  00CF               	movwf	___fldiv@new_exp+1
  6325  08D7                     l1961:
  6326  08D7  0843               	movf	___fldiv@b+3,w
  6327  08D8  00CC               	movwf	___fldiv@rem+3
  6328  08D9  0842               	movf	___fldiv@b+2,w
  6329  08DA  00CB               	movwf	___fldiv@rem+2
  6330  08DB  0841               	movf	___fldiv@b+1,w
  6331  08DC  00CA               	movwf	___fldiv@rem+1
  6332  08DD  0840               	movf	___fldiv@b,w
  6333  08DE  00C9               	movwf	___fldiv@rem
  6334  08DF                     l1963:
  6335  08DF  3000               	movlw	0
  6336  08E0  00C3               	movwf	___fldiv@b+3
  6337  08E1  3000               	movlw	0
  6338  08E2  00C2               	movwf	___fldiv@b+2
  6339  08E3  3000               	movlw	0
  6340  08E4  00C1               	movwf	___fldiv@b+1
  6341  08E5  3000               	movlw	0
  6342  08E6  00C0               	movwf	___fldiv@b
  6343  08E7                     l1965:
  6344  08E7  3000               	movlw	0
  6345  08E8  00D3               	movwf	___fldiv@grs+3
  6346  08E9  3000               	movlw	0
  6347  08EA  00D2               	movwf	___fldiv@grs+2
  6348  08EB  3000               	movlw	0
  6349  08EC  00D1               	movwf	___fldiv@grs+1
  6350  08ED  3000               	movlw	0
  6351  08EE  00D0               	movwf	___fldiv@grs
  6352  08EF                     l1967:
  6353  08EF  01D5               	clrf	___fldiv@aexp
  6354  08F0  293B               	goto	l1987
  6355  08F1                     l1969:
  6356  08F1  0855               	movf	___fldiv@aexp,w
  6357  08F2  1903               	btfsc	3,2
  6358  08F3  28F5               	goto	u2531
  6359  08F4  28F6               	goto	u2530
  6360  08F5                     u2531:
  6361  08F5  2916               	goto	l1979
  6362  08F6                     u2530:
  6363  08F6                     l1971:
  6364  08F6  3001               	movlw	1
  6365  08F7  00C4               	movwf	??___fldiv
  6366  08F8                     u2545:
  6367  08F8  1003               	clrc
  6368  08F9  0DC9               	rlf	___fldiv@rem,f
  6369  08FA  0DCA               	rlf	___fldiv@rem+1,f
  6370  08FB  0DCB               	rlf	___fldiv@rem+2,f
  6371  08FC  0DCC               	rlf	___fldiv@rem+3,f
  6372  08FD  0BC4               	decfsz	??___fldiv,f
  6373  08FE  28F8               	goto	u2545
  6374  08FF  3001               	movlw	1
  6375  0900  00C4               	movwf	??___fldiv
  6376  0901                     u2555:
  6377  0901  1003               	clrc
  6378  0902  0DC0               	rlf	___fldiv@b,f
  6379  0903  0DC1               	rlf	___fldiv@b+1,f
  6380  0904  0DC2               	rlf	___fldiv@b+2,f
  6381  0905  0DC3               	rlf	___fldiv@b+3,f
  6382  0906  0BC4               	decfsz	??___fldiv,f
  6383  0907  2901               	goto	u2555
  6384  0908                     l1973:
  6385  0908  1FD3               	btfss	___fldiv@grs+3,7
  6386  0909  290B               	goto	u2561
  6387  090A  290C               	goto	u2560
  6388  090B                     u2561:
  6389  090B  290D               	goto	l1977
  6390  090C                     u2560:
  6391  090C                     l1975:
  6392  090C  1440               	bsf	___fldiv@b,0
  6393  090D                     l1977:
  6394  090D  3001               	movlw	1
  6395  090E  00C4               	movwf	??___fldiv
  6396  090F                     u2575:
  6397  090F  1003               	clrc
  6398  0910  0DD0               	rlf	___fldiv@grs,f
  6399  0911  0DD1               	rlf	___fldiv@grs+1,f
  6400  0912  0DD2               	rlf	___fldiv@grs+2,f
  6401  0913  0DD3               	rlf	___fldiv@grs+3,f
  6402  0914  0BC4               	decfsz	??___fldiv,f
  6403  0915  290F               	goto	u2575
  6404  0916                     l1979:
  6405  0916  083F               	movf	___fldiv@a+3,w
  6406  0917  024C               	subwf	___fldiv@rem+3,w
  6407  0918  1D03               	skipz
  6408  0919  2924               	goto	u2585
  6409  091A  083E               	movf	___fldiv@a+2,w
  6410  091B  024B               	subwf	___fldiv@rem+2,w
  6411  091C  1D03               	skipz
  6412  091D  2924               	goto	u2585
  6413  091E  083D               	movf	___fldiv@a+1,w
  6414  091F  024A               	subwf	___fldiv@rem+1,w
  6415  0920  1D03               	skipz
  6416  0921  2924               	goto	u2585
  6417  0922  083C               	movf	___fldiv@a,w
  6418  0923  0249               	subwf	___fldiv@rem,w
  6419  0924                     u2585:
  6420  0924  1C03               	skipc
  6421  0925  2927               	goto	u2581
  6422  0926  2928               	goto	u2580
  6423  0927                     u2581:
  6424  0927  2937               	goto	l1985
  6425  0928                     u2580:
  6426  0928                     l1981:
  6427  0928  1753               	bsf	___fldiv@grs+3,6
  6428  0929                     l1983:
  6429  0929  083C               	movf	___fldiv@a,w
  6430  092A  02C9               	subwf	___fldiv@rem,f
  6431  092B  083D               	movf	___fldiv@a+1,w
  6432  092C  1C03               	skipc
  6433  092D  0F3D               	incfsz	___fldiv@a+1,w
  6434  092E  02CA               	subwf	___fldiv@rem+1,f
  6435  092F  083E               	movf	___fldiv@a+2,w
  6436  0930  1C03               	skipc
  6437  0931  0F3E               	incfsz	___fldiv@a+2,w
  6438  0932  02CB               	subwf	___fldiv@rem+2,f
  6439  0933  083F               	movf	___fldiv@a+3,w
  6440  0934  1C03               	skipc
  6441  0935  0F3F               	incfsz	___fldiv@a+3,w
  6442  0936  02CC               	subwf	___fldiv@rem+3,f
  6443  0937                     l1985:
  6444  0937  3001               	movlw	1
  6445  0938  00FF               	movwf	btemp+1
  6446  0939  087F               	movf	btemp+1,w
  6447  093A  07D5               	addwf	___fldiv@aexp,f
  6448  093B                     l1987:
  6449  093B  301A               	movlw	26
  6450  093C  0255               	subwf	___fldiv@aexp,w
  6451  093D  1C03               	skipc
  6452  093E  2940               	goto	u2591
  6453  093F  2941               	goto	u2590
  6454  0940                     u2591:
  6455  0940  28F1               	goto	l1969
  6456  0941                     u2590:
  6457  0941                     l1989:
  6458  0941  084C               	movf	___fldiv@rem+3,w
  6459  0942  044B               	iorwf	___fldiv@rem+2,w
  6460  0943  044A               	iorwf	___fldiv@rem+1,w
  6461  0944  0449               	iorwf	___fldiv@rem,w
  6462  0945  1903               	skipnz
  6463  0946  2948               	goto	u2601
  6464  0947  2949               	goto	u2600
  6465  0948                     u2601:
  6466  0948  2968               	goto	l2003
  6467  0949                     u2600:
  6468  0949                     l1991:
  6469  0949  1450               	bsf	___fldiv@grs,0
  6470  094A  2968               	goto	l2003
  6471  094B                     l1993:
  6472  094B  3001               	movlw	1
  6473  094C  00C4               	movwf	??___fldiv
  6474  094D                     u2615:
  6475  094D  1003               	clrc
  6476  094E  0DC0               	rlf	___fldiv@b,f
  6477  094F  0DC1               	rlf	___fldiv@b+1,f
  6478  0950  0DC2               	rlf	___fldiv@b+2,f
  6479  0951  0DC3               	rlf	___fldiv@b+3,f
  6480  0952  0BC4               	decfsz	??___fldiv,f
  6481  0953  294D               	goto	u2615
  6482  0954                     l1995:
  6483  0954  1FD3               	btfss	___fldiv@grs+3,7
  6484  0955  2957               	goto	u2621
  6485  0956  2958               	goto	u2620
  6486  0957                     u2621:
  6487  0957  2959               	goto	l1999
  6488  0958                     u2620:
  6489  0958                     l1997:
  6490  0958  1440               	bsf	___fldiv@b,0
  6491  0959                     l1999:
  6492  0959  3001               	movlw	1
  6493  095A  00C4               	movwf	??___fldiv
  6494  095B                     u2635:
  6495  095B  1003               	clrc
  6496  095C  0DD0               	rlf	___fldiv@grs,f
  6497  095D  0DD1               	rlf	___fldiv@grs+1,f
  6498  095E  0DD2               	rlf	___fldiv@grs+2,f
  6499  095F  0DD3               	rlf	___fldiv@grs+3,f
  6500  0960  0BC4               	decfsz	??___fldiv,f
  6501  0961  295B               	goto	u2635
  6502  0962                     l2001:
  6503  0962  30FF               	movlw	255
  6504  0963  07CE               	addwf	___fldiv@new_exp,f
  6505  0964  1803               	skipnc
  6506  0965  0ACF               	incf	___fldiv@new_exp+1,f
  6507  0966  30FF               	movlw	255
  6508  0967  07CF               	addwf	___fldiv@new_exp+1,f
  6509  0968                     l2003:
  6510  0968  1FC2               	btfss	___fldiv@b+2,7
  6511  0969  296B               	goto	u2641
  6512  096A  296C               	goto	u2640
  6513  096B                     u2641:
  6514  096B  294B               	goto	l1993
  6515  096C                     u2640:
  6516  096C                     l2005:
  6517  096C  01D5               	clrf	___fldiv@aexp
  6518  096D                     l2007:
  6519  096D  1FD3               	btfss	___fldiv@grs+3,7
  6520  096E  2970               	goto	u2651
  6521  096F  2971               	goto	u2650
  6522  0970                     u2651:
  6523  0970  298D               	goto	l2015
  6524  0971                     u2650:
  6525  0971                     l2009:
  6526  0971  30FF               	movlw	255
  6527  0972  0550               	andwf	___fldiv@grs,w
  6528  0973  00C4               	movwf	??___fldiv
  6529  0974  30FF               	movlw	255
  6530  0975  0551               	andwf	___fldiv@grs+1,w
  6531  0976  00C5               	movwf	??___fldiv+1
  6532  0977  30FF               	movlw	255
  6533  0978  0552               	andwf	___fldiv@grs+2,w
  6534  0979  00C6               	movwf	??___fldiv+2
  6535  097A  307F               	movlw	127
  6536  097B  0553               	andwf	___fldiv@grs+3,w
  6537  097C  00C7               	movwf	??___fldiv+3
  6538  097D  0847               	movf	??___fldiv+3,w
  6539  097E  0446               	iorwf	??___fldiv+2,w
  6540  097F  0445               	iorwf	??___fldiv+1,w
  6541  0980  0444               	iorwf	??___fldiv,w
  6542  0981  1903               	skipnz
  6543  0982  2984               	goto	u2661
  6544  0983  2985               	goto	u2660
  6545  0984                     u2661:
  6546  0984  2988               	goto	l586
  6547  0985                     u2660:
  6548  0985                     l2011:
  6549  0985  01D5               	clrf	___fldiv@aexp
  6550  0986  0AD5               	incf	___fldiv@aexp,f
  6551  0987  298D               	goto	l2015
  6552  0988                     l586:
  6553  0988  1C40               	btfss	___fldiv@b,0
  6554  0989  298B               	goto	u2671
  6555  098A  298C               	goto	u2670
  6556  098B                     u2671:
  6557  098B  298D               	goto	l2015
  6558  098C                     u2670:
  6559  098C  2985               	goto	l2011
  6560  098D                     l2015:
  6561  098D  0855               	movf	___fldiv@aexp,w
  6562  098E  1903               	btfsc	3,2
  6563  098F  2991               	goto	u2681
  6564  0990  2992               	goto	u2680
  6565  0991                     u2681:
  6566  0991  29C3               	goto	l2025
  6567  0992                     u2680:
  6568  0992                     l2017:
  6569  0992  3001               	movlw	1
  6570  0993  07C0               	addwf	___fldiv@b,f
  6571  0994  3000               	movlw	0
  6572  0995  1803               	skipnc
  6573  0996  3001               	movlw	1
  6574  0997  07C1               	addwf	___fldiv@b+1,f
  6575  0998  3000               	movlw	0
  6576  0999  1803               	skipnc
  6577  099A  3001               	movlw	1
  6578  099B  07C2               	addwf	___fldiv@b+2,f
  6579  099C  3000               	movlw	0
  6580  099D  1803               	skipnc
  6581  099E  3001               	movlw	1
  6582  099F  07C3               	addwf	___fldiv@b+3,f
  6583  09A0                     l2019:
  6584  09A0  1C43               	btfss	___fldiv@b+3,0
  6585  09A1  29A3               	goto	u2691
  6586  09A2  29A4               	goto	u2690
  6587  09A3                     u2691:
  6588  09A3  29C3               	goto	l2025
  6589  09A4                     u2690:
  6590  09A4                     l2021:
  6591  09A4  0840               	movf	___fldiv@b,w
  6592  09A5  00C4               	movwf	??___fldiv
  6593  09A6  0841               	movf	___fldiv@b+1,w
  6594  09A7  00C5               	movwf	??___fldiv+1
  6595  09A8  0842               	movf	___fldiv@b+2,w
  6596  09A9  00C6               	movwf	??___fldiv+2
  6597  09AA  0843               	movf	___fldiv@b+3,w
  6598  09AB  00C7               	movwf	??___fldiv+3
  6599  09AC  3001               	movlw	1
  6600  09AD  00C8               	movwf	??___fldiv+4
  6601  09AE                     u2705:
  6602  09AE  0D47               	rlf	??___fldiv+3,w
  6603  09AF  0CC7               	rrf	??___fldiv+3,f
  6604  09B0  0CC6               	rrf	??___fldiv+2,f
  6605  09B1  0CC5               	rrf	??___fldiv+1,f
  6606  09B2  0CC4               	rrf	??___fldiv,f
  6607  09B3                     u2700:
  6608  09B3  0BC8               	decfsz	??___fldiv+4,f
  6609  09B4  29AE               	goto	u2705
  6610  09B5  0847               	movf	??___fldiv+3,w
  6611  09B6  00C3               	movwf	___fldiv@b+3
  6612  09B7  0846               	movf	??___fldiv+2,w
  6613  09B8  00C2               	movwf	___fldiv@b+2
  6614  09B9  0845               	movf	??___fldiv+1,w
  6615  09BA  00C1               	movwf	___fldiv@b+1
  6616  09BB  0844               	movf	??___fldiv,w
  6617  09BC  00C0               	movwf	___fldiv@b
  6618  09BD                     l2023:
  6619  09BD  3001               	movlw	1
  6620  09BE  07CE               	addwf	___fldiv@new_exp,f
  6621  09BF  1803               	skipnc
  6622  09C0  0ACF               	incf	___fldiv@new_exp+1,f
  6623  09C1  3000               	movlw	0
  6624  09C2  07CF               	addwf	___fldiv@new_exp+1,f
  6625  09C3                     l2025:
  6626  09C3  084F               	movf	___fldiv@new_exp+1,w
  6627  09C4  3A80               	xorlw	128
  6628  09C5  00FF               	movwf	btemp+1
  6629  09C6  3080               	movlw	128
  6630  09C7  027F               	subwf	btemp+1,w
  6631  09C8  1D03               	skipz
  6632  09C9  29CC               	goto	u2715
  6633  09CA  30FF               	movlw	255
  6634  09CB  024E               	subwf	___fldiv@new_exp,w
  6635  09CC                     u2715:
  6636  09CC  1C03               	skipc
  6637  09CD  29CF               	goto	u2711
  6638  09CE  29D0               	goto	u2710
  6639  09CF                     u2711:
  6640  09CF  29DE               	goto	l2029
  6641  09D0                     u2710:
  6642  09D0                     l2027:
  6643  09D0  30FF               	movlw	255
  6644  09D1  1283               	bcf	3,5	;RP0=0, select bank0
  6645  09D2  1303               	bcf	3,6	;RP1=0, select bank0
  6646  09D3  00CE               	movwf	___fldiv@new_exp
  6647  09D4  3000               	movlw	0
  6648  09D5  00CF               	movwf	___fldiv@new_exp+1
  6649  09D6  3000               	movlw	0
  6650  09D7  00C3               	movwf	___fldiv@b+3
  6651  09D8  3000               	movlw	0
  6652  09D9  00C2               	movwf	___fldiv@b+2
  6653  09DA  3000               	movlw	0
  6654  09DB  00C1               	movwf	___fldiv@b+1
  6655  09DC  3000               	movlw	0
  6656  09DD  00C0               	movwf	___fldiv@b
  6657  09DE                     l2029:
  6658  09DE  1283               	bcf	3,5	;RP0=0, select bank0
  6659  09DF  1303               	bcf	3,6	;RP1=0, select bank0
  6660  09E0  084F               	movf	___fldiv@new_exp+1,w
  6661  09E1  3A80               	xorlw	128
  6662  09E2  00FF               	movwf	btemp+1
  6663  09E3  3080               	movlw	128
  6664  09E4  027F               	subwf	btemp+1,w
  6665  09E5  1D03               	skipz
  6666  09E6  29E9               	goto	u2725
  6667  09E7  3001               	movlw	1
  6668  09E8  024E               	subwf	___fldiv@new_exp,w
  6669  09E9                     u2725:
  6670  09E9  1803               	skipnc
  6671  09EA  29EC               	goto	u2721
  6672  09EB  29ED               	goto	u2720
  6673  09EC                     u2721:
  6674  09EC  29FA               	goto	l2037
  6675  09ED                     u2720:
  6676  09ED                     l2031:
  6677  09ED  1283               	bcf	3,5	;RP0=0, select bank0
  6678  09EE  1303               	bcf	3,6	;RP1=0, select bank0
  6679  09EF  01CE               	clrf	___fldiv@new_exp
  6680  09F0  01CF               	clrf	___fldiv@new_exp+1
  6681  09F1                     l2033:
  6682  09F1  3000               	movlw	0
  6683  09F2  00C3               	movwf	___fldiv@b+3
  6684  09F3  3000               	movlw	0
  6685  09F4  00C2               	movwf	___fldiv@b+2
  6686  09F5  3000               	movlw	0
  6687  09F6  00C1               	movwf	___fldiv@b+1
  6688  09F7  3000               	movlw	0
  6689  09F8  00C0               	movwf	___fldiv@b
  6690  09F9                     l2035:
  6691  09F9  01CD               	clrf	___fldiv@sign
  6692  09FA                     l2037:
  6693  09FA  1283               	bcf	3,5	;RP0=0, select bank0
  6694  09FB  1303               	bcf	3,6	;RP1=0, select bank0
  6695  09FC  084E               	movf	___fldiv@new_exp,w
  6696  09FD  00FF               	movwf	btemp+1
  6697  09FE  087F               	movf	btemp+1,w
  6698  09FF  00D4               	movwf	___fldiv@bexp
  6699  0A00                     l2039:
  6700  0A00  1C54               	btfss	___fldiv@bexp,0
  6701  0A01  2A03               	goto	u2731
  6702  0A02  2A04               	goto	u2730
  6703  0A03                     u2731:
  6704  0A03  2A06               	goto	l2043
  6705  0A04                     u2730:
  6706  0A04                     l2041:
  6707  0A04  17C2               	bsf	___fldiv@b+2,7
  6708  0A05  2A0A               	goto	l594
  6709  0A06                     l2043:
  6710  0A06  307F               	movlw	127
  6711  0A07  00FF               	movwf	btemp+1
  6712  0A08  087F               	movf	btemp+1,w
  6713  0A09  05C2               	andwf	___fldiv@b+2,f
  6714  0A0A                     l594:
  6715  0A0A  0854               	movf	___fldiv@bexp,w
  6716  0A0B  00C4               	movwf	??___fldiv
  6717  0A0C  1003               	clrc
  6718  0A0D  0C44               	rrf	??___fldiv,w
  6719  0A0E  00FF               	movwf	btemp+1
  6720  0A0F  087F               	movf	btemp+1,w
  6721  0A10  00C3               	movwf	___fldiv@b+3
  6722  0A11  084D               	movf	___fldiv@sign,w
  6723  0A12  00FF               	movwf	btemp+1
  6724  0A13  087F               	movf	btemp+1,w
  6725  0A14  04C3               	iorwf	___fldiv@b+3,f
  6726  0A15  28AE               	goto	l1949
  6727  0A16                     l572:
  6728  0A16  0008               	return
  6729  0A17                     __end_of___fldiv:
  6730                           
  6731                           	psect	text18
  6732  1547                     __ptext18:	
  6733 ;; *************** function _PORT_Change_Gain *****************
  6734 ;; Defined at:
  6735 ;;		line 173 in file "port.c"
  6736 ;; Parameters:    Size  Location     Type
  6737 ;;  INTER0          1    wreg     unsigned char 
  6738 ;;  INTER1          1    2[COMMON] unsigned char 
  6739 ;; Auto vars:     Size  Location     Type
  6740 ;;  INTER0          1    3[COMMON] unsigned char 
  6741 ;; Return value:  Size  Location     Type
  6742 ;;                  2    2[COMMON] unsigned int 
  6743 ;; Registers used:
  6744 ;;		wreg, status,2, status,0
  6745 ;; Tracked objects:
  6746 ;;		On entry : 0/0
  6747 ;;		On exit  : 0/0
  6748 ;;		Unchanged: 0/0
  6749 ;; Data sizes:     COMMON   BANK0   BANK1   BANK3   BANK2
  6750 ;;      Params:         1       0       0       0       0
  6751 ;;      Locals:         1       0       0       0       0
  6752 ;;      Temps:          0       0       0       0       0
  6753 ;;      Totals:         2       0       0       0       0
  6754 ;;Total ram usage:        2 bytes
  6755 ;; Hardware stack levels used:    1
  6756 ;; Hardware stack levels required when called:    1
  6757 ;; This function calls:
  6758 ;;		Nothing
  6759 ;; This function is called by:
  6760 ;;		_Get_Newton
  6761 ;; This function uses a non-reentrant model
  6762 ;;
  6763                           
  6764                           
  6765                           ;psect for function _PORT_Change_Gain
  6766  1547                     _PORT_Change_Gain:
  6767                           
  6768                           ;incstack = 0
  6769                           ; Regs used in _PORT_Change_Gain: [wreg+status,2+status,0]
  6770                           ;PORT_Change_Gain@INTER0 stored from wreg
  6771  1547  00F3               	movwf	PORT_Change_Gain@INTER0
  6772  1548                     l2323:
  6773                           
  6774                           ;port.c: 174:     PORTCbits.RC0 = INTER0;
  6775  1548  0C73               	rrf	PORT_Change_Gain@INTER0,w
  6776  1549  1283               	bcf	3,5	;RP0=0, select bank0
  6777  154A  1303               	bcf	3,6	;RP1=0, select bank0
  6778  154B  1C03               	skipc
  6779  154C  1007               	bcf	7,0	;volatile
  6780  154D  1803               	skipnc
  6781  154E  1407               	bsf	7,0	;volatile
  6782                           
  6783                           ;port.c: 175:     PORTCbits.RC1 = INTER1;
  6784  154F  0C72               	rrf	PORT_Change_Gain@INTER1,w
  6785  1550  1C03               	skipc
  6786  1551  1087               	bcf	7,1	;volatile
  6787  1552  1803               	skipnc
  6788  1553  1487               	bsf	7,1	;volatile
  6789  1554                     l2325:
  6790                           
  6791                           ;port.c: 176:     if (INTER0 == 0 && INTER1 == 0)
  6792  1554  0873               	movf	PORT_Change_Gain@INTER0,w
  6793  1555  1D03               	btfss	3,2
  6794  1556  2D58               	goto	u3531
  6795  1557  2D59               	goto	u3530
  6796  1558                     u3531:
  6797  1558  2D5F               	goto	l2333
  6798  1559                     u3530:
  6799  1559                     l2327:
  6800  1559  0872               	movf	PORT_Change_Gain@INTER1,w
  6801  155A  1D03               	btfss	3,2
  6802  155B  2D5D               	goto	u3541
  6803  155C  2D5E               	goto	u3540
  6804  155D                     u3541:
  6805  155D  2D5F               	goto	l2333
  6806  155E                     u3540:
  6807  155E  2D6A               	goto	l177
  6808  155F                     l2333:
  6809  155F  0873               	movf	PORT_Change_Gain@INTER0,w
  6810  1560  1D03               	btfss	3,2
  6811  1561  2D63               	goto	u3551
  6812  1562  2D64               	goto	u3550
  6813  1563                     u3551:
  6814  1563  2D6A               	goto	l2341
  6815  1564                     u3550:
  6816  1564                     l2335:
  6817  1564  0372               	decf	PORT_Change_Gain@INTER1,w
  6818  1565  1D03               	btfss	3,2
  6819  1566  2D68               	goto	u3561
  6820  1567  2D69               	goto	u3560
  6821  1568                     u3561:
  6822  1568  2D6A               	goto	l2341
  6823  1569                     u3560:
  6824  1569  2D6A               	goto	l177
  6825  156A                     l2341:
  6826  156A                     l177:
  6827  156A  0008               	return
  6828  156B                     __end_of_PORT_Change_Gain:
  6829                           
  6830                           	psect	text19
  6831  150A                     __ptext19:	
  6832 ;; *************** function _ADC_GetValue *****************
  6833 ;; Defined at:
  6834 ;;		line 16 in file "adc.c"
  6835 ;; Parameters:    Size  Location     Type
  6836 ;;  channel         1    wreg     unsigned char 
  6837 ;; Auto vars:     Size  Location     Type
  6838 ;;  channel         1    3[COMMON] unsigned char 
  6839 ;; Return value:  Size  Location     Type
  6840 ;;                  1    wreg      unsigned char 
  6841 ;; Registers used:
  6842 ;;		wreg, status,2, status,0, btemp+1, pclath, cstack
  6843 ;; Tracked objects:
  6844 ;;		On entry : 0/0
  6845 ;;		On exit  : 0/0
  6846 ;;		Unchanged: 0/0
  6847 ;; Data sizes:     COMMON   BANK0   BANK1   BANK3   BANK2
  6848 ;;      Params:         0       0       0       0       0
  6849 ;;      Locals:         1       0       0       0       0
  6850 ;;      Temps:          0       0       0       0       0
  6851 ;;      Totals:         1       0       0       0       0
  6852 ;;Total ram usage:        1 bytes
  6853 ;; Hardware stack levels used:    1
  6854 ;; Hardware stack levels required when called:    2
  6855 ;; This function calls:
  6856 ;;		_PORT_Choose_Mux
  6857 ;;		_PORT_Get_Value_Adc
  6858 ;;		_PORT_Start_ADC
  6859 ;; This function is called by:
  6860 ;;		_Get_Newton
  6861 ;; This function uses a non-reentrant model
  6862 ;;
  6863                           
  6864                           
  6865                           ;psect for function _ADC_GetValue
  6866  150A                     _ADC_GetValue:
  6867                           
  6868                           ;incstack = 0
  6869                           ; Regs used in _ADC_GetValue: [wreg+status,2+status,0+btemp+1+pclath+cstack]
  6870                           ;ADC_GetValue@channel stored from wreg
  6871  150A  00F3               	movwf	ADC_GetValue@channel
  6872  150B                     l2347:
  6873                           
  6874                           ;adc.c: 18:     PORT_Choose_Mux(channel);
  6875  150B  0873               	movf	ADC_GetValue@channel,w
  6876  150C  160A  118A  24F8  160A  118A  	fcall	_PORT_Choose_Mux
  6877  1511                     l2349:
  6878                           
  6879                           ;adc.c: 19:     PORT_Start_ADC();
  6880  1511  160A  118A  24D8  160A  118A  	fcall	_PORT_Start_ADC
  6881  1516                     l2351:
  6882                           
  6883                           ;adc.c: 20:     return PORT_Get_Value_Adc();
  6884  1516  160A  118A  24D4  160A  118A  	fcall	_PORT_Get_Value_Adc
  6885  151B                     l82:
  6886  151B  0008               	return
  6887  151C                     __end_of_ADC_GetValue:
  6888                           
  6889                           	psect	text20
  6890  14D8                     __ptext20:	
  6891 ;; *************** function _PORT_Start_ADC *****************
  6892 ;; Defined at:
  6893 ;;		line 104 in file "port.c"
  6894 ;; Parameters:    Size  Location     Type
  6895 ;;		None
  6896 ;; Auto vars:     Size  Location     Type
  6897 ;;		None
  6898 ;; Return value:  Size  Location     Type
  6899 ;;                  1    wreg      void 
  6900 ;; Registers used:
  6901 ;;		None
  6902 ;; Tracked objects:
  6903 ;;		On entry : 0/0
  6904 ;;		On exit  : 0/0
  6905 ;;		Unchanged: 0/0
  6906 ;; Data sizes:     COMMON   BANK0   BANK1   BANK3   BANK2
  6907 ;;      Params:         0       0       0       0       0
  6908 ;;      Locals:         0       0       0       0       0
  6909 ;;      Temps:          0       0       0       0       0
  6910 ;;      Totals:         0       0       0       0       0
  6911 ;;Total ram usage:        0 bytes
  6912 ;; Hardware stack levels used:    1
  6913 ;; Hardware stack levels required when called:    1
  6914 ;; This function calls:
  6915 ;;		Nothing
  6916 ;; This function is called by:
  6917 ;;		_ADC_GetValue
  6918 ;; This function uses a non-reentrant model
  6919 ;;
  6920                           
  6921                           
  6922                           ;psect for function _PORT_Start_ADC
  6923  14D8                     _PORT_Start_ADC:
  6924  14D8                     l1859:	
  6925                           ;incstack = 0
  6926                           ; Regs used in _PORT_Start_ADC: []
  6927                           
  6928                           
  6929                           ;port.c: 105:     GO_nDONE=1;
  6930  14D8  1283               	bcf	3,5	;RP0=0, select bank0
  6931  14D9  1303               	bcf	3,6	;RP1=0, select bank0
  6932  14DA  149F               	bsf	31,1	;volatile
  6933  14DB                     l149:	
  6934                           ;port.c: 106:     while(GO_nDONE);
  6935                           
  6936  14DB  189F               	btfsc	31,1	;volatile
  6937  14DC  2CDE               	goto	u2331
  6938  14DD  2CDF               	goto	u2330
  6939  14DE                     u2331:
  6940  14DE  2CDB               	goto	l149
  6941  14DF                     u2330:
  6942  14DF                     l152:
  6943  14DF  0008               	return
  6944  14E0                     __end_of_PORT_Start_ADC:
  6945                           
  6946                           	psect	text21
  6947  14D4                     __ptext21:	
  6948 ;; *************** function _PORT_Get_Value_Adc *****************
  6949 ;; Defined at:
  6950 ;;		line 118 in file "port.c"
  6951 ;; Parameters:    Size  Location     Type
  6952 ;;		None
  6953 ;; Auto vars:     Size  Location     Type
  6954 ;;		None
  6955 ;; Return value:  Size  Location     Type
  6956 ;;                  1    wreg      unsigned char 
  6957 ;; Registers used:
  6958 ;;		wreg
  6959 ;; Tracked objects:
  6960 ;;		On entry : 0/0
  6961 ;;		On exit  : 0/0
  6962 ;;		Unchanged: 0/0
  6963 ;; Data sizes:     COMMON   BANK0   BANK1   BANK3   BANK2
  6964 ;;      Params:         0       0       0       0       0
  6965 ;;      Locals:         0       0       0       0       0
  6966 ;;      Temps:          0       0       0       0       0
  6967 ;;      Totals:         0       0       0       0       0
  6968 ;;Total ram usage:        0 bytes
  6969 ;; Hardware stack levels used:    1
  6970 ;; Hardware stack levels required when called:    1
  6971 ;; This function calls:
  6972 ;;		Nothing
  6973 ;; This function is called by:
  6974 ;;		_ADC_GetValue
  6975 ;; This function uses a non-reentrant model
  6976 ;;
  6977                           
  6978                           
  6979                           ;psect for function _PORT_Get_Value_Adc
  6980  14D4                     _PORT_Get_Value_Adc:
  6981  14D4                     l1861:	
  6982                           ;incstack = 0
  6983                           ; Regs used in _PORT_Get_Value_Adc: [wreg]
  6984                           
  6985                           
  6986                           ;port.c: 119:     return ADRES;
  6987  14D4  1283               	bcf	3,5	;RP0=0, select bank0
  6988  14D5  1303               	bcf	3,6	;RP1=0, select bank0
  6989  14D6  081E               	movf	30,w	;volatile
  6990  14D7                     l155:
  6991  14D7  0008               	return
  6992  14D8                     __end_of_PORT_Get_Value_Adc:
  6993                           
  6994                           	psect	text22
  6995  14F8                     __ptext22:	
  6996 ;; *************** function _PORT_Choose_Mux *****************
  6997 ;; Defined at:
  6998 ;;		line 94 in file "port.c"
  6999 ;; Parameters:    Size  Location     Type
  7000 ;;  _value          1    wreg     unsigned char 
  7001 ;; Auto vars:     Size  Location     Type
  7002 ;;  _value          1    2[COMMON] unsigned char 
  7003 ;; Return value:  Size  Location     Type
  7004 ;;                  1    wreg      void 
  7005 ;; Registers used:
  7006 ;;		wreg, status,2, status,0, btemp+1
  7007 ;; Tracked objects:
  7008 ;;		On entry : 0/0
  7009 ;;		On exit  : 0/0
  7010 ;;		Unchanged: 0/0
  7011 ;; Data sizes:     COMMON   BANK0   BANK1   BANK3   BANK2
  7012 ;;      Params:         0       0       0       0       0
  7013 ;;      Locals:         1       0       0       0       0
  7014 ;;      Temps:          0       0       0       0       0
  7015 ;;      Totals:         1       0       0       0       0
  7016 ;;Total ram usage:        1 bytes
  7017 ;; Hardware stack levels used:    1
  7018 ;; Hardware stack levels required when called:    1
  7019 ;; This function calls:
  7020 ;;		Nothing
  7021 ;; This function is called by:
  7022 ;;		_ADC_GetValue
  7023 ;; This function uses a non-reentrant model
  7024 ;;
  7025                           
  7026                           
  7027                           ;psect for function _PORT_Choose_Mux
  7028  14F8                     _PORT_Choose_Mux:
  7029                           
  7030                           ;incstack = 0
  7031                           ; Regs used in _PORT_Choose_Mux: [wreg+status,2+status,0+btemp+1]
  7032                           ;PORT_Choose_Mux@_value stored from wreg
  7033  14F8  00F2               	movwf	PORT_Choose_Mux@_value
  7034  14F9                     l1855:
  7035                           
  7036                           ;port.c: 95:     if (_value <= 0x0F) {
  7037  14F9  3010               	movlw	16
  7038  14FA  0272               	subwf	PORT_Choose_Mux@_value,w
  7039  14FB  1803               	skipnc
  7040  14FC  2CFE               	goto	u2321
  7041  14FD  2CFF               	goto	u2320
  7042  14FE                     u2321:
  7043  14FE  2D09               	goto	l146
  7044  14FF                     u2320:
  7045  14FF                     l1857:
  7046                           
  7047                           ;port.c: 96:         PORTD &= 0xF0;
  7048  14FF  30F0               	movlw	240
  7049  1500  00FF               	movwf	btemp+1
  7050  1501  087F               	movf	btemp+1,w
  7051  1502  1283               	bcf	3,5	;RP0=0, select bank0
  7052  1503  1303               	bcf	3,6	;RP1=0, select bank0
  7053  1504  0588               	andwf	8,f	;volatile
  7054                           
  7055                           ;port.c: 97:         PORTD |= _value;
  7056  1505  0872               	movf	PORT_Choose_Mux@_value,w	;volatile
  7057  1506  00FF               	movwf	btemp+1
  7058  1507  087F               	movf	btemp+1,w
  7059  1508  0488               	iorwf	8,f	;volatile
  7060  1509                     l146:
  7061  1509  0008               	return
  7062  150A                     __end_of_PORT_Choose_Mux:
  7063                           
  7064                           	psect	text23
  7065  152E                     __ptext23:	
  7066 ;; *************** function _isr *****************
  7067 ;; Defined at:
  7068 ;;		line 78 in file "timer.c"
  7069 ;; Parameters:    Size  Location     Type
  7070 ;;		None
  7071 ;; Auto vars:     Size  Location     Type
  7072 ;;		None
  7073 ;; Return value:  Size  Location     Type
  7074 ;;                  1    wreg      void 
  7075 ;; Registers used:
  7076 ;;		None
  7077 ;; Tracked objects:
  7078 ;;		On entry : 0/0
  7079 ;;		On exit  : 0/0
  7080 ;;		Unchanged: 0/0
  7081 ;; Data sizes:     COMMON   BANK0   BANK1   BANK3   BANK2
  7082 ;;      Params:         0       0       0       0       0
  7083 ;;      Locals:         0       0       0       0       0
  7084 ;;      Temps:          2       0       0       0       0
  7085 ;;      Totals:         2       0       0       0       0
  7086 ;;Total ram usage:        2 bytes
  7087 ;; Hardware stack levels used:    1
  7088 ;; This function calls:
  7089 ;;		Nothing
  7090 ;; This function is called by:
  7091 ;;		Interrupt level 1
  7092 ;; This function uses a non-reentrant model
  7093 ;;
  7094                           
  7095                           
  7096                           ;psect for function _isr
  7097  152E                     _isr:
  7098  152E                     i1l2495:
  7099                           
  7100                           ;timer.c: 85: if (TMR1IF)
  7101  152E  1283               	bcf	3,5	;RP0=0, select bank0
  7102  152F  1303               	bcf	3,6	;RP1=0, select bank0
  7103  1530  1C0C               	btfss	12,0	;volatile
  7104  1531  2D33               	goto	u361_21
  7105  1532  2D34               	goto	u361_20
  7106  1533                     u361_21:
  7107  1533  2D3B               	goto	i1l215
  7108  1534                     u361_20:
  7109  1534                     i1l2497:
  7110                           
  7111                           ;timer.c: 86:      {;timer.c: 88:      Fincompt1 = 1;
  7112  1534  1683               	bsf	3,5	;RP0=1, select bank1
  7113  1535  1303               	bcf	3,6	;RP1=0, select bank1
  7114  1536  01D9               	clrf	_Fincompt1^(0+128)
  7115  1537  0AD9               	incf	_Fincompt1^(0+128),f
  7116                           
  7117                           ;timer.c: 91:      TMR1IF=0;
  7118  1538  1283               	bcf	3,5	;RP0=0, select bank0
  7119  1539  1303               	bcf	3,6	;RP1=0, select bank0
  7120  153A  100C               	bcf	12,0	;volatile
  7121  153B                     i1l215:	
  7122                           ;timer.c: 92:      }
  7123                           
  7124                           
  7125                           ;timer.c: 94: if (TMRAIF)
  7126  153B  1E0D               	btfss	13,4	;volatile
  7127  153C  2D3E               	goto	u362_21
  7128  153D  2D3F               	goto	u362_20
  7129  153E                     u362_21:
  7130  153E  2D40               	goto	i1l217
  7131  153F                     u362_20:
  7132  153F                     i1l2499:
  7133                           
  7134                           ;timer.c: 95:      {;timer.c: 100:      TMRAIF=0;
  7135  153F  120D               	bcf	13,4	;volatile
  7136  1540                     i1l217:
  7137  1540  0871               	movf	??_isr+1,w
  7138  1541  008A               	movwf	10
  7139  1542  0E70               	swapf	??_isr^(0+4294967168),w
  7140  1543  0083               	movwf	3
  7141  1544  0EFE               	swapf	btemp,f
  7142  1545  0E7E               	swapf	btemp,w
  7143  1546  0009               	retfie
  7144  1547                     __end_of_isr:
  7145  007E                     btemp	set	126	;btemp
  7146  007E                     wtemp0	set	126
  7147                           
  7148                           	psect	intentry
  7149  0004                     __pintentry:	
  7150                           ;incstack = 0
  7151                           ; Regs used in _isr: []
  7152                           
  7153  0004                     interrupt_function:
  7154  007E                     saved_w	set	btemp
  7155  0004  00FE               	movwf	btemp
  7156  0005  0E03               	swapf	3,w
  7157  0006  00F0               	movwf	??_isr
  7158  0007  080A               	movf	10,w
  7159  0008  00F1               	movwf	??_isr+1
  7160  0009  160A  118A  2D2E   	ljmp	_isr
  7161                           
  7162                           	psect	config
  7163                           
  7164                           ;Config register CONFIG @ 0x2007
  7165                           ;	Oscillator Selection bits
  7166                           ;	FOSC = INTOSC, INTOSC oscillator: CLKOUT function on RA6/OSC2/CLKOUT pin, I/O function
      +                            on RA7/OSC1/CLKIN
  7167                           ;	Watchdog Timer Enable bit
  7168                           ;	WDTE = OFF, WDT disabled and can be enabled by SWDTEN bit of the WDTCON register
  7169                           ;	Power-up Timer Enable bit
  7170                           ;	PWRTE = OFF, PWRT disabled
  7171                           ;	RE3/MCLR Pin Function Select bit
  7172                           ;	MCLRE = ON, RE3/MCLR pin function is MCLR
  7173                           ;	Code Protection bit
  7174                           ;	CP = OFF, Program memory code protection is disabled
  7175                           ;	Brown-out Reset Selection bits
  7176                           ;	BOREN = ON, BOR enabled
  7177                           ;	Brown-out Reset Voltage Selection bit
  7178                           ;	BORV = 19, Brown-out Reset Voltage (VBOR) set to 1.9 V nominal
  7179                           ;	INTOSC PLLEN Enable Bit
  7180                           ;	PLLEN = ON, INTOSC Frequency is 16 MHz (32x)
  7181  2007                     	org	8199
  7182  2007  3FF5               	dw	16373
  7183                           
  7184                           ;Config register CONFIG2 @ 0x2008
  7185                           ;	Voltage Regulator Capacitor Enable bits
  7186                           ;	VCAPEN = OFF, All VCAP pin functions are disabled
  7187  2008                     	org	8200
  7188  2008  FFFF               	dw	65535

Data Sizes:
    Strings     0
    Constant    160
    Data        0
    BSS         1
    Persistent  0
    Stack       0

Auto Spaces:
    Space          Size  Autos    Used
    COMMON           14     12      12
    BANK0            80     80      80
    BANK1            80     57      58
    BANK3            96      0       0
    BANK2            91      0       0

Pointer List with Targets:

    None.

Critical Paths under _main in COMMON

    _Voltage_Value->___xxtofl
    _Resistance_Value->___xxtofl
    ___xxtofl->___wmul
    ___flsub->__Umul8_16
    ___fladd->__Umul8_16
    ___flmul->___xxtofl
    ___fldiv->___xxtofl
    _ADC_GetValue->_PORT_Choose_Mux

Critical Paths under _isr in COMMON

    None.

Critical Paths under _main in BANK0

    _conversion_newton->___flmul
    _Voltage_Value->___flmul
    _Resistance_Value->___flmul
    ___flsub->___fladd
    ___flmul->___fldiv
    ___fldiv->___flsub

Critical Paths under _isr in BANK0

    None.

Critical Paths under _main in BANK1

    _main->_Get_Newton
    _Get_Newton->_conversion_newton

Critical Paths under _isr in BANK1

    None.

Critical Paths under _main in BANK3

    None.

Critical Paths under _isr in BANK3

    None.

Critical Paths under _main in BANK2

    None.

Critical Paths under _isr in BANK2

    None.

Call Graph Tables:

 ---------------------------------------------------------------------------------
 (Depth) Function   	        Calls       Base Space   Used Autos Params    Refs
 ---------------------------------------------------------------------------------
 (0) _main                                                 0     0      0   28161
                         _Get_Newton
                     _PORT_Blink_LED
                          _PORT_Init
                   _PORT_Select_Mux0
                  _TIMER_init_timer1
 ---------------------------------------------------------------------------------
 (1) _TIMER_init_timer1                                    0     0      0       0
 ---------------------------------------------------------------------------------
 (1) _PORT_Select_Mux0                                     0     0      0       0
 ---------------------------------------------------------------------------------
 (1) _PORT_Init                                            1     1      0       0
                                              2 COMMON     1     1      0
                   _PORT_Init_Serial
 ---------------------------------------------------------------------------------
 (2) _PORT_Init_Serial                                     0     0      0       0
 ---------------------------------------------------------------------------------
 (1) _PORT_Blink_LED                                       0     0      0       0
 ---------------------------------------------------------------------------------
 (1) _Get_Newton                                          18    16      2   28161
                                             39 BANK1     18    16      2
                       _ADC_GetValue
                   _PORT_Change_Gain
                   _Resistance_Value
                      _Voltage_Value
                  _conversion_newton
 ---------------------------------------------------------------------------------
 (2) _conversion_newton                                   39    35      4   13978
                                              0 BANK1     39    35      4
                            ___fladd
                            ___fldiv
                             ___flge
                            ___flmul
                            ___flsub
 ---------------------------------------------------------------------------------
 (3) ___flge                                              12     4      8    3526
                                              2 COMMON     8     0      8
                                              0 BANK0      4     4      0
 ---------------------------------------------------------------------------------
 (2) _Voltage_Value                                        9     5      4    4946
                                              0 BANK1      9     5      4
                            ___fldiv
                            ___flmul
                           ___xxtofl
 ---------------------------------------------------------------------------------
 (2) _Resistance_Value                                     6     0      6    8305
                                              0 BANK1      6     0      6
                            ___fldiv
                            ___flmul
                            ___flsub
                             ___wmul
                           ___xxtofl
 ---------------------------------------------------------------------------------
 (3) ___xxtofl                                            14    10      4     474
                                              8 COMMON     4     0      4
                                              0 BANK0     10    10      0
                             ___wmul (ARG)
 ---------------------------------------------------------------------------------
 (3) ___wmul                                               6     2      4     244
                                              2 COMMON     6     2      4
 ---------------------------------------------------------------------------------
 (3) ___flsub                                              8     0      8    2941
                                             20 BANK0      8     0      8
                          __Umul8_16 (ARG)
                            ___fladd
 ---------------------------------------------------------------------------------
 (4) ___fladd                                             20    12      8    2288
                                              0 BANK0     20    12      8
                          __Umul8_16 (ARG)
 ---------------------------------------------------------------------------------
 (3) ___flmul                                             26    18      8    2873
                                             54 BANK0     26    18      8
                          __Umul8_16
                            ___fladd (ARG)
                            ___fldiv (ARG)
                            ___flsub (ARG)
                           ___xxtofl (ARG)
 ---------------------------------------------------------------------------------
 (4) __Umul8_16                                            9     7      2     799
                                              2 COMMON     9     7      2
 ---------------------------------------------------------------------------------
 (3) ___fldiv                                             26    18      8    1577
                                             28 BANK0     26    18      8
                          __Umul8_16 (ARG)
                            ___fladd (ARG)
                            ___flsub (ARG)
                             ___wmul (ARG)
                           ___xxtofl (ARG)
 ---------------------------------------------------------------------------------
 (2) _PORT_Change_Gain                                     2     1      1     252
                                              2 COMMON     2     1      1
 ---------------------------------------------------------------------------------
 (2) _ADC_GetValue                                         1     1      0      66
                                              3 COMMON     1     1      0
                    _PORT_Choose_Mux
                 _PORT_Get_Value_Adc
                     _PORT_Start_ADC
 ---------------------------------------------------------------------------------
 (3) _PORT_Start_ADC                                       0     0      0       0
 ---------------------------------------------------------------------------------
 (3) _PORT_Get_Value_Adc                                   0     0      0       0
 ---------------------------------------------------------------------------------
 (3) _PORT_Choose_Mux                                      1     1      0      44
                                              2 COMMON     1     1      0
 ---------------------------------------------------------------------------------
 Estimated maximum stack depth 4
 ---------------------------------------------------------------------------------
 (Depth) Function   	        Calls       Base Space   Used Autos Params    Refs
 ---------------------------------------------------------------------------------
 (5) _isr                                                  2     2      0       0
                                              0 COMMON     2     2      0
 ---------------------------------------------------------------------------------
 Estimated maximum stack depth 5
 ---------------------------------------------------------------------------------

 Call Graph Graphs:

 _main (ROOT)
   _Get_Newton
     _ADC_GetValue
       _PORT_Choose_Mux
       _PORT_Get_Value_Adc
       _PORT_Start_ADC
     _PORT_Change_Gain
     _Resistance_Value
       ___fldiv
         __Umul8_16 (ARG)
         ___fladd (ARG)
           __Umul8_16 (ARG)
         ___flsub (ARG)
           __Umul8_16 (ARG)
           ___fladd (ARG)
             __Umul8_16 (ARG)
         ___wmul (ARG)
         ___xxtofl (ARG)
           ___wmul (ARG)
       ___flmul
         __Umul8_16
         ___fladd (ARG)
           __Umul8_16 (ARG)
         ___fldiv (ARG)
           __Umul8_16 (ARG)
           ___fladd (ARG)
             __Umul8_16 (ARG)
           ___flsub (ARG)
             __Umul8_16 (ARG)
             ___fladd (ARG)
               __Umul8_16 (ARG)
           ___wmul (ARG)
           ___xxtofl (ARG)
             ___wmul (ARG)
         ___flsub (ARG)
           __Umul8_16 (ARG)
           ___fladd (ARG)
             __Umul8_16 (ARG)
         ___xxtofl (ARG)
           ___wmul (ARG)
       ___flsub
         __Umul8_16 (ARG)
         ___fladd (ARG)
           __Umul8_16 (ARG)
       ___wmul
       ___xxtofl
         ___wmul (ARG)
     _Voltage_Value
       ___fldiv
         __Umul8_16 (ARG)
         ___fladd (ARG)
           __Umul8_16 (ARG)
         ___flsub (ARG)
           __Umul8_16 (ARG)
           ___fladd (ARG)
             __Umul8_16 (ARG)
         ___wmul (ARG)
         ___xxtofl (ARG)
           ___wmul (ARG)
       ___flmul
         __Umul8_16
         ___fladd (ARG)
           __Umul8_16 (ARG)
         ___fldiv (ARG)
           __Umul8_16 (ARG)
           ___fladd (ARG)
             __Umul8_16 (ARG)
           ___flsub (ARG)
             __Umul8_16 (ARG)
             ___fladd (ARG)
               __Umul8_16 (ARG)
           ___wmul (ARG)
           ___xxtofl (ARG)
             ___wmul (ARG)
         ___flsub (ARG)
           __Umul8_16 (ARG)
           ___fladd (ARG)
             __Umul8_16 (ARG)
         ___xxtofl (ARG)
           ___wmul (ARG)
       ___xxtofl
         ___wmul (ARG)
     _conversion_newton
       ___fladd
         __Umul8_16 (ARG)
       ___fldiv
         __Umul8_16 (ARG)
         ___fladd (ARG)
           __Umul8_16 (ARG)
         ___flsub (ARG)
           __Umul8_16 (ARG)
           ___fladd (ARG)
             __Umul8_16 (ARG)
         ___wmul (ARG)
         ___xxtofl (ARG)
           ___wmul (ARG)
       ___flge
       ___flmul
         __Umul8_16
         ___fladd (ARG)
           __Umul8_16 (ARG)
         ___fldiv (ARG)
           __Umul8_16 (ARG)
           ___fladd (ARG)
             __Umul8_16 (ARG)
           ___flsub (ARG)
             __Umul8_16 (ARG)
             ___fladd (ARG)
               __Umul8_16 (ARG)
           ___wmul (ARG)
           ___xxtofl (ARG)
             ___wmul (ARG)
         ___flsub (ARG)
           __Umul8_16 (ARG)
           ___fladd (ARG)
             __Umul8_16 (ARG)
         ___xxtofl (ARG)
           ___wmul (ARG)
       ___flsub
         __Umul8_16 (ARG)
         ___fladd (ARG)
           __Umul8_16 (ARG)
   _PORT_Blink_LED
   _PORT_Init
     _PORT_Init_Serial
   _PORT_Select_Mux0
   _TIMER_init_timer1

 _isr (ROOT)

 Address spaces:
Name               Size   Autos  Total    Cost      Usage
BITCOMMON            E      0       0       0        0.0%
NULL                 0      0       0       0        0.0%
CODE                 0      0       0       0        0.0%
COMMON               E      C       C       1       85.7%
BITSFR0              0      0       0       1        0.0%
SFR0                 0      0       0       1        0.0%
BITSFR1              0      0       0       2        0.0%
SFR1                 0      0       0       2        0.0%
STACK                0      0       0       2        0.0%
ABS                  0      0      96       3        0.0%
BITBANK0            50      0       0       4        0.0%
BITSFR3              0      0       0       4        0.0%
SFR3                 0      0       0       4        0.0%
BANK0               50     50      50       5      100.0%
BITSFR2              0      0       0       5        0.0%
SFR2                 0      0       0       5        0.0%
DATA                 0      0      96       6        0.0%
BITBANK1            50      0       0       7        0.0%
BANK1               50     39      3A       8       72.5%
BITBANK3            60      0       0       9        0.0%
BANK3               60      0       0      10        0.0%
BITBANK2            5B      0       0      11        0.0%
BANK2               5B      0       0      12        0.0%


Microchip Technology PIC Macro Assembler V2.20 build 20200408173844 
Symbol Table                                                                                   Thu Jun 08 16:18:07 2023

                  ___fldiv@aexp 0055                    ___fldiv@bexp 0054                               pc 0002  
                  ___fldiv@sign 004D                              l41 175B                              l38 16CD  
                            l70 0716                              l62 0484                              l73 166C  
                            l82 151B                              l69 070C                              fsr 0004  
           ___wmul@multiplicand 0074             __Umul8_16@word_mpld 0078                ??_PORT_Blink_LED 0072  
                           l210 152D                             l221 159B                             l133 07FD  
                           l142 14F7                             l223 15B3                             l152 14DF  
                           l146 1509                             l170 14E7                             l155 14D7  
                           l139 0839                             l149 14DB                             l520 0AF8  
                           l177 156A                             l610 0FFF                             l514 0A7A  
                           l622 0FF3                             l518 0B21                             l631 15DA  
                           l535 0BEC                             l527 0C9E                             l616 0F6B  
                           l560 158E                             l545 0C32                             l570 0896  
                           l539 0C10                             l395 177A                             l572 0A16  
                           l556 0C92                             l629 15C8                             l557 0C9E  
                           l654 073B                             l398 17E6                             l399 17FF  
                           l656 07D2                             l594 0A0A                             l586 0988  
                           l667 079C                             l668 07A8       __end_of_TIMER_init_timer1 152E  
                           _isr 152E                             fsr0 0004               ?_PORT_Change_Gain 0072  
                  ___flmul@aexp 0068                    ___flmul@bexp 0069                    ___flmul@sign 0063  
                  ___flmul@temp 006E                    ___flmul@prod 006A              ??_PORT_Change_Gain 0073  
      __end_of_PORT_Select_Mux0 14E8                            l2001 0962                            l2011 0985  
                          l2003 0968                            l2021 09A4                            l2005 096C  
                          l2101 0D62                            l2031 09ED                            l2023 09BD  
                          l2015 098D                            l2007 096D                            l2111 0DDF  
                          l2103 0D8E                            l2041 0A04                            l2033 09F1  
                          l2017 0992                            l2025 09C3                            l2009 0971  
                          l2121 0E5F                            l2113 0DFC                            l2105 0DAA  
                          l2043 0A06                            l2035 09F9                            l2027 09D0  
                          l2019 09A0                            l2131 0F17                            l2123 0E8C  
                          l2115 0E0C                            l2107 0DC6                            l2051 0CA6  
                          l2211 0765                            l2203 074C                            l2037 09FA  
                          l2029 09DE                            l2141 0F3C                            l2133 0F20  
                          l2125 0E9C                            l2117 0E29                            l2109 0DCF  
                          l2061 0CBB                            l2053 0CAC                            l2221 0792  
                          l2213 0769                            l2205 0751                            l2301 040C  
                          l2039 0A00                            l2151 0F54                            l2143 0F45  
                          l2135 0F2E                            l2127 0EC9                            l2119 0E42  
                          l2071 0CD8                            l2063 0CC3                            l2055 0CB0  
                          l2231 07C5                            l2223 0796                            l2215 0777  
                          l2207 0755                            l2311 0621                            l2303 0441  
                          l2161 0F83                            l2153 0F68                            l2137 0F37  
                          l2145 0F4B                            l2129 0EEF                            l2081 0CEF  
                          l2073 0CDC                            l2065 0CC5                            l2057 0CB1  
                          l2049 0C9F                            l2233 07C9                            l2225 07A0  
                          l2217 0780                            l2209 075E                            l2313 0690  
                          l2305 0448                            l2401 0831                            l2323 1548  
                          l2171 0FBE                            l2163 0F87                            l2147 0F4F  
                          l2139 0F3B                            l2083 0CF1                            l2075 0CDD  
                          l2067 0CCD                            l2059 0CB6                            l2235 07CA  
                          l2227 07AA                            l2219 0787                            l2243 16CE  
                          l2315 06C3                            l2307 047D                            l2251 004F  
                          l2403 0834                            l2411 1520                            l2341 156A  
                          l2333 155F                            l2325 1554                            l2181 0FE7  
                          l2173 0FCD                            l2165 0FA0                            l2157 0F70  
                          l2149 0F50                            l2093 0D0C                            l2085 0CF9  
                          l2077 0CE2                            l2069 0CD2                            l1701 0AA4  
                          l2229 07C0                            l2317 06CD                            l2261 012A  
                          l2309 0484                            l2253 0084                            l2405 0836  
                          l2421 1527                            l2413 1523                            l2351 1516  
                          l2335 1564                            l2327 1559                            l2183 0FEB  
                          l2175 0FD7                            l2159 0F75                            l2167 0FA6  
                          l2095 0D1C                            l2087 0CFE                            l2079 0CE7  
                          l1711 0AB8                            l1703 0AA8                            l2191 071A  
                          l2239 1670                            l2319 0702                            l2271 01D7  
                          l2263 0131                            l2255 00B9                            l2247 0016  
                          l2407 0837                            l2431 14E3                            l2423 1528  
                          l2415 1524                            l2185 0FEC                            l2177 0FD9  
                          l2169 0FB3                            l2097 0D29                            l2089 0D03  
                          l1801 0C24                            l1721 0ADC                            l1713 0ABC  
                          l1705 0AAC                            l1641 0A1E                            l2193 071F  
                          l2281 0284                            l2273 020C                            l2265 0166  
                          l2257 00C0                            l2249 004B                            l2433 14E8  
                          l2361 07DF                            l2425 1529                            l2417 1525  
                          l2409 151C                            l2441 15E5                            l2347 150B  
                          l2187 0FF7                            l2179 0FDF                            l2099 0D46  
                          l1811 0C37                            l1803 0C25                            l1731 0B07  
                          l1723 0AEB                            l1715 0AC0                            l1707 0AB0  
                          l1651 0A33                            l1643 0A24                            l2195 0723  
                          l2291 035F                            l2283 02B9                            l2275 0213  
                          l2267 019B                            l2259 00F5                            l2435 161D  
                          l2371 07F0                            l2363 07E2                            l2355 07D3  
                          l2427 152C                            l2419 1526                            l2451 1601  
                          l2443 15EA                            l2349 1511                            l1813 0C3C  
                          l1821 0C70                            l1805 0C29                            l1741 0B25  
                          l1733 0B0B                            l1725 0AF3                            l1709 0AB4  
                          l1717 0AC4                            l1661 0A4B                            l1653 0A3B  
                          l1645 0A28                            l1901 156F                            l2197 0733  
                          l2293 0366                            l2285 02EE                            l2277 0248  
                          l2269 01A2                            l2437 165F                            l2373 07F5  
                          l2365 07E7                            l2357 07D9                            l2381 080B  
                          l2429 14E0                            l2453 160C                            l2445 15F1  
                          l1911 084B                            l1831 0C88                            l1823 0C75  
                          l1815 0C4A                            l1807 0C2F                            l1751 0B4E  
                          l1743 0B2A                            l1735 0B0C                            l1727 0AFC  
                          l1719 0AC5                            l1671 0A5D                            l1663 0A51  
                          l1655 0A3C                            l1647 0A29                            l1639 0A17  
                          l2199 0743                            l2295 039B                            l2287 02F5  
                          l2279 027D                            l2375 07F8                            l2367 07EA  
                          l2359 07DC                            l2391 081F                            l2383 080D  
                          l2447 15F2                            l2439 15DB                            l1921 085F  
                          l1913 084C                            l1905 083A                            l1841 15B5  
                          l1833 0C8C                            l1825 0C7A                            l1817 0C4E  
                          l1761 0B62                            l1753 0B52                            l1737 0B15  
                          l1729 0B05                            l1673 0A62                            l1681 0A72  
                          l1665 0A52                            l1649 0A2E                            l1657 0A3E  
                          l2297 03D0                            l2289 032A                            l2369 07ED  
                          l2393 0824                            l2385 0816                            l2377 0801  
                          l2449 15F7                            l1931 0878                            l1915 0851  
                          l1923 0861                            l1907 0841                            l1851 15D6  
                          l1843 15B7                            l1835 0C8E                            l1827 0C82  
                          l1819 0C6C                            l1771 0BC8                            l1763 0B6B  
                          l1755 0B5B                            l1747 0B33                            l1739 0B19  
                          l1691 0A90                            l1683 0A80                            l1675 0A67  
                          l1667 0A58                            l1659 0A46                            l2299 03D7  
                          l2395 0828                            l2387 0819                            l2379 0807  
                          l1861 14D4                            l1941 088C                            l1933 0879  
                          l1925 0869                            l1917 0856                            l1909 0847  
                          l1845 15BE                            l1837 0C99                            l1829 0C87  
                          l1781 0BF9                            l1773 0BCA                            l1757 0B5D  
                          l1749 0B4A                            l1765 0B70                            l1693 0A94  
                          l1685 0A84                            l1677 0A6F                            l1669 0A5C  
                          l2397 082C                            l2389 081D                            l1855 14F9  
                          l1935 087E                            l1943 088E                            l1927 086E  
                          l1919 085E                            l1847 15C2                            l1839 0C9D  
                          l1791 0C14                            l1775 0BCF                            l1767 0B86  
                          l1759 0B61                            l1695 0A98                            l1687 0A88  
                          l1679 0A70                            l1871 15A2                            l2399 0830  
                          l1857 14FF                            l1961 08D7                            l1945 089E  
                          l1953 08B7                            l1937 0883                            l1929 0874  
                          l1849 15D1                            l1793 0C17                            l1785 0C02  
                          l1769 0BC4                            l1777 0BDE                            l1697 0A9C  
                          l1689 0A8C                            l1873 15A9                            l1865 158F  
                          l1881 1772                            l1859 14D8                            l1971 08F6  
                          l1963 08DF                            l1955 08BC                            l1947 08AA  
                          l1939 088B                            l1795 0C19                            l1787 0C0B  
                          l1779 0BF4                            l1699 0AA0                            l1875 15AF  
                          l1867 1591                            l1891 17C2                            l1883 178E  
                          l1981 0928                            l1973 0908                            l1965 08E7  
                          l1949 08AE                            l1797 0C1E                            l1789 0C0F  
                          l1869 1595                            l1893 17FC                            l1885 1796  
                          l1991 0949                            l1983 0929                            l1975 090C  
                          l1967 08EF                            l1959 08C5                            l1799 0C20  
                          l1895 17FE                            l1887 179A                            l1879 175C  
                          l1993 094B                            l1985 0937                            l1977 090D  
                          l1969 08F1                            l1889 17BE                            l1995 0954  
                          l1979 0916                            l1987 093B                            l1899 156B  
                          l1997 0958                            l1989 0941                            l1999 0959  
                          ?_isr 0070                            u2000 0B2A                            u2001 0B29  
                          u2011 0B3C                            u2100 0BF4                            u2020 0B4E  
                          u2012 0B43                            u2101 0BF3                            u2021 0B4D  
                          u2013 0B4A                            u2110 0BF9                            u2030 0B52  
                          u2111 0BF8                            u2031 0B51                            u2200 0C3C  
                          u2040 0B61                            u2201 0C3B                            u2041 0B60  
                          u3010 0F4F                            u2210 0C4E                            u2130 0C0F  
                          u3011 0F4E                            u2211 0C4D                            u2131 0C0E  
                          u3100 0FEB                            u3020 0F54                            u2220 0C5D  
                          u2140 0C14                            u2060 0B86                            u3101 0FEA  
                          u3021 0F53                            u3005 0F3E                            u2141 0C13  
                          u2125 0C04                            u2061 0B85                            u2310 15D6  
                          u3030 0F68                            u2230 0C6C                            u2150 0C1E  
                          u3110 071F                            u2311 15D5                            u3031 0F67  
                          u2231 0C6B                            u2151 0C1D                            u2071 0B9D  
                          u2063 0B82                            u2055 0B64                            u3111 071E  
                          u2320 14FF                            u3040 0F6F                            u2240 0C75  
                          u2160 0C24                            u2080 0BB1                            u2072 0B9E  
                          u3200 079C                            u3120 0723                            u2400 179A  
                          u2321 14FE                            u2305 15C9                            u3041 0F6E  
                          u2241 0C74                            u2225 0C58                            u2161 0C23  
                          u2081 0BB2                            u2073 0BA3                            u3201 079B  
                          u3121 0722                            u2401 1799                            u2330 14DF  
                          u3050 0F75                            u2250 0C7A                            u2170 0C29  
                          u2090 0BCF                            u2082 0BB7                            u2074 0BA4  
                          u3210 07A0                            u3130 0743                            u2331 14DE  
                          u3051 0F74                            u2251 0C79                            u2171 0C28  
                          u2091 0BCE                            u2083 0BB8                            u2075 0BA9  
                          u3211 079F                            u3131 0742                            u2411 17A9  
                          u2500 0883                            u3060 0F87                            u2260 0C87  
                          u2180 0C2F                            u2076 0BAA                            u2340 1595  
                          u3220 07B5                            u2420 17C2                            u2412 17AA  
                          u3300 0166                            u2501 0882                            u3061 0F86  
                          u2261 0C86                            u2181 0C2E                            u2341 1594  
                          u2421 17C1                            u2413 17AF                            u3301 0165  
                          u2510 089E                            u3070 0F96                            u2270 0C8C  
                          u2190 0C36                            u3230 07C5                            u3150 0764  
                          u2414 17B0                            u3310 019B                            u2511 089D  
                          u2271 0C8B                            u2191 0C35                            u3231 07C4  
                          u3151 0763                            u2431 17D1                            u2415 17B5  
                          u3311 019A                            u2600 0949                            u2520 08BC  
                          u3080 0FB3                            u2280 0C9D                            u3240 07C9  
                          u2440 17FC                            u2432 17D2                            u2416 17B6  
                          u3400 039B                            u3320 01D7                            u2601 0948  
                          u2521 08BB                            u3081 0FB2                            u2281 0C9C  
                          u3241 07C8                            u3225 07B0                            u3145 0756  
                          u2441 17FB                            u2433 17D7                            u3401 039A  
                          u3321 01D6                            u2530 08F6                            u2450 084B  
                          u2290 15C2                            u3090 0FCD                            u2370 15AF  
                          u3170 0786                            u2434 17D8                            u3410 03D0  
                          u3330 020C                            u3250 004B                            u2531 08F5  
                          u2451 084A                            u2291 15C1                            u3091 0FCC  
                          u3075 0F91                            u2371 15AE                            u2355 159C  
                          u3171 0785                            u2435 17DD                            u3411 03CF  
                          u3331 020B                            u3251 004A                            u2700 09B3  
                          u2620 0958                            u2460 0851                            u1900 0A80  
                          u2436 17DE                            u2380 1772                            u3420 040C  
                          u3340 0248                            u3260 0084                            u2621 0957  
                          u2461 0850                            u3085 0FAF                            u1901 0A7F  
                          u2365 15A3                            u3165 0778                            u2445 17F8  
                          u2381 1771                            u3421 040B                            u3341 0247  
                          u3261 0083                            u2710 09D0                            u2470 0856  
                          u1910 0A84                            u1830 0A28                            u3190 0796  
                          u2390 178E                            u3510 06C3                            u3430 0441  
                          u3350 027D                            u3270 00B9                            u2711 09CF  
                          u2615 094D                            u2471 0855                            u3095 0FC9  
                          u1911 0A83                            u1831 0A27                            u3191 0795  
                          u2391 178D                            u3511 06C2                            u3431 0440  
                          u3351 027C                            u3271 00B8                            u2720 09ED  
                          u2640 096C                            u2560 090C                            u2480 0878  
                          u2800 0CFE                            u1920 0ADC                            u1840 0A2E  
                          u3520 0702                            u3440 047D                            u3360 02B9  
                          u3280 00F5                            u3600 15F1                            u2721 09EC  
                          u2705 09AE                            u2641 096B                            u2561 090B  
                          u2545 08F8                            u2481 0877                            u2801 0CFD  
                          u1921 0ADB                            u1841 0A2D                            u3185 078B  
                          u3521 0701                            u3505 0624                            u3441 047C  
                          u3361 02B8                            u3281 00F4                            u3601 15F0  
                          u3530 1559                            u2730 0A04                            u2650 0971  
                          u2490 087E                            u2810 0D03                            u1930 0AE7  
                          u1850 0A33                            u3370 02EE                            u3290 012A  
                          u3531 1558                            u2731 0A03                            u2715 09CC  
                          u2651 0970                            u2635 095B                            u2555 0901  
                          u2491 087D                            u2811 0D02                            u1931 0AE5  
                          u1851 0A32                            u3371 02ED                            u3291 0129  
                          u3540 155E                            u2660 0985                            u2580 0928  
                          u2740 0CB0                            u1940 0AE8                            u1860 0A51  
                          u3380 032A                            u3541 155D                            u2725 09E9  
                          u2661 0984                            u2581 0927                            u2901 0E51  
                          u2821 0D54                            u2741 0CAF                            u1925 0AD8  
                          u1861 0A50                            u3381 0329                            u3550 1564  
                          u2670 098C                            u2590 0941                            u2902 0E58  
                          u2822 0D5B                            u2750 0CB6                            u1950 0AFC  
                          u1870 0A5C                            u3390 035F                            u3551 1563  
                          u2671 098B                            u2591 0940                            u2575 090F  
                          u2911 0E7E                            u2903 0E5F                            u2831 0D70  
                          u2823 0D62                            u2751 0CB5                            u1951 0AFB  
                          u1871 0A5B                            u3455 0489                            u3391 035E  
                          u3560 1569                            u2680 0992                            u2912 0E85  
                          u2832 0D77                            u2760 0CBB                            u1960 0B0B  
                          u1880 0A62                            u3561 1568                            u2681 0991  
                          u2585 0924                            u2921 0EAB                            u2913 0E8C  
                          u2841 0D9C                            u2833 0D7E                            u2761 0CBA  
                          u1961 0B0A                            u1881 0A61                            u3465 04EC  
                          u2690 09A4                            u2930 0ED5                            u2922 0EB2  
                          u2842 0DA3                            u2770 0CDC                            u1890 0A67  
                          u3570 0816                            u2691 09A3                            u2923 0EB9  
                          u2851 0DB8                            u2843 0DAA                            u2771 0CDB  
                          u1891 0A66                            u3475 0528                            u3571 0815  
                          u2852 0DBF                            u2780 0CE2                            u1980 0B21  
                          u3580 14F4                            u2941 0EE1                            u2853 0DC6  
                          u2781 0CE1                            u1981 0B20                            u3485 0573  
                          u3581 14F0                            u2950 0EFD                            u2942 0EE8  
                          u2790 0CE7                            u1990 0B25                            u2943 0EEF  
                          u2935 0ED0                            u2871 0DEE                            u2791 0CE6  
                          u1991 0B24                            u1975 0B0E                            u3495 05AF  
                          u2872 0DF5                            u2961 0F09                            u2881 0E1B  
                          u2873 0DFC                            u2865 0DC8                            u2962 0F10  
                          u2882 0E22                            u3594 14F7                            u2963 0F17  
                          u2955 0EF8                            u2883 0E29                            u2990 0F3B  
                          u2991 0F3A                            u2975 0F19                            u2895 0E2B  
                          u2985 0F30                            _TMRA 0110                            _WPUB 0095  
                          _main 15DB                            btemp 007E               ??_PORT_Choose_Mux 0072  
                          start 000C                 ___fldiv@new_exp 004E               Resistance_Value@R 00A4  
         __size_of_ADC_GetValue 0012                           ??_isr 0070                      _Get_Newton 161A  
         _conversion_newton$772 00BD                 __end_of___fladd 0C9F                           ?_main 0070  
               __end_of___fldiv 0A17                           _ADRES 001E                 __end_of___flmul 1000  
               __end_of___flsub 158F                           i1l215 153B                           i1l217 1540  
                 _Voltage_Value 166D                           _RCSTA 0018                           _SPBRG 0099  
                         _PORTD 0008                           _TRISA 0085                           _TRISB 0086  
                         _TRISC 0087                           _TRISD 0088                           _TXREG 0019  
                         _TXSTA 0098                ??_PORT_Start_ADC 0072              __size_of_PORT_Init 0039  
                         pclath 000A                           status 0003                           wtemp0 007E  
                  _ADC_GetValue 150A      __end_of_PORT_Get_Value_Adc 14D8                 __initialization 000F  
                  __end_of_main 161A                          ??_main 007C                  ?_Voltage_Value 00A0  
    __size_of_TIMER_init_timer1 0012        __end_of_Resistance_Value 175C                          _ADCON0 001F  
                        _ADCON1 009F                          _ANSELA 0185                          _ANSELB 0186  
                        _ANSELD 0188                          i1l2495 152E                          i1l2497 1534  
                        i1l2499 153F                          _T1SYNC 0082                          _FVRCON 009D  
                        u361_20 1534                          u361_21 1533                          u362_20 153F  
                        u362_21 153E                          _OSCCON 0090                          _TMR1GE 047F  
                        _TMR1IE 0460                          _TMR1IF 0060                          _TMR1ON 0080  
                        _TMRAIF 006C                          _TMRCS0 0086                          _TMRCS1 0087  
              __end_of___xxtofl 07D3                          ___flge 175C                       ??___fladd 0028  
                        ___wmul 158F                       ??___fldiv 0044                       ??___flmul 005E  
                     ??___flsub 007B               __end_of_PORT_Init 083A                     ?_Get_Newton 00C7  
             ?_PORT_Init_Serial 0070              ??_PORT_Init_Serial 0072              __size_of__Umul8_16 0027  
                        saved_w 007E                      ___flge@ff1 0072                      ___flge@ff2 0076  
                  ___xxtofl@arg 0026                    ___xxtofl@exp 0025                    ___xxtofl@val 0078  
       __end_of__initialization 0012                  __pcstackCOMMON 0070                 ??_Voltage_Value 00A4  
               _PORT_Choose_Mux 14F8               ?_PORT_Select_Mux0 0070                      __pbssBANK1 00D9  
            ??_PORT_Select_Mux0 0072             __size_of_Get_Newton 0053       __size_of_PORT_Change_Gain 0024  
             __end_of__Umul8_16 15DB                      __pmaintext 15DB                         ?___flge 0072  
                       ?___wmul 0072             ADC_GetValue@channel 0073                      __pintentry 0004  
                       _DACCON0 0113                         _DACCON1 0114                         _T1CKPS0 0084  
                       _T1CKPS1 0085                         _T1OSCEN 0083                       ?___xxtofl 0078  
                    __stringtab 1000                 __size_of___flge 00A4                         ___fladd 0A17  
                       ___fldiv 083A                         ___flmul 0C9F                         ___flsub 156B  
               __size_of___wmul 0025              conversion_newton@F 00C1              conversion_newton@n 00C5  
       __end_of_PORT_Choose_Mux 150A                         __ptext1 151C                         __ptext2 14E0  
                       __ptext3 0801                         __ptext4 07D3                         __ptext5 14E8  
                       __ptext6 161A                         __ptext7 0016                         __ptext8 175C  
                       __ptext9 166D              _PORT_Get_Value_Adc 14D4                    __size_of_isr 0019  
                    ??___xxtofl 0020               ?_Resistance_Value 00A0             ?_PORT_Get_Value_Adc 0070  
             _conversion_newton 0016            end_of_initialization 0012         __size_of_PORT_Blink_LED 0010  
            ??_Resistance_Value 007C              ?_conversion_newton 00A0                Get_Newton@INTER0 00D7  
              Get_Newton@INTER1 00C7             ??_conversion_newton 00A4            ??_PORT_Get_Value_Adc 0072  
                  ??_Get_Newton 007C                       _PORTBbits 0006                       _PORTCbits 0007  
                     _PORT_Init 0801                     ___fladd@grs 0033                   ___xxtofl@sign 0024  
     __end_of_conversion_newton 0717                     ___fldiv@grs 0050                     ___fldiv@rem 0049  
     __size_of_PORT_Init_Serial 002B                     ___flmul@grs 0064              __end_of_Get_Newton 166D  
              _PORT_Change_Gain 1547         __size_of_PORT_Start_ADC 0008                  __end_of___flge 1800  
                __end_of___wmul 15B4                       _Fincompt1 00D9                ?_PORT_Choose_Mux 0070  
                    ?_PORT_Init 0070             start_initialization 000F                     __end_of_isr 1547  
                      ??___flge 0020       __size_of_PORT_Select_Mux0 0008                        ??___wmul 0076  
                     __Umul8_16 15B4           __end_of_Voltage_Value 16CE                       ___fladd@a 0024  
                     ___fladd@b 0020                       ___fldiv@a 003C                       ___fldiv@b 0040  
                     ___flmul@a 005A                       ___flmul@b 0056                       ___flsub@a 0034  
                     ___flsub@b 0038                       ___latbits 0002                   __pcstackBANK0 0020  
                 __pcstackBANK1 00A0      __size_of_conversion_newton 0701          conversion_newton@F_tab 1056  
             __size_of___xxtofl 00BC          conversion_newton@R_tab 1006                  _PORT_Blink_LED 14E8  
                 ?_ADC_GetValue 0070                        ?___fladd 0020                        ?___fldiv 003C  
                      ?___flmul 0056                        ?___flsub 0034                      ?__Umul8_16 0072  
        PORT_Change_Gain@INTER0 0073          PORT_Change_Gain@INTER1 0072                       __pstrings 1000  
                   ??_PORT_Init 0072          __end_of_PORT_Blink_LED 14F8          Get_Newton@sensor_value 00D8  
              _PORT_Init_Serial 07D3                  ??_ADC_GetValue 0073               interrupt_function 0004  
                ___wmul@product 0076                  _PORT_Start_ADC 14D8           PORT_Choose_Mux@_value 0072  
                      _GO_nDONE 00F9       __size_of_Resistance_Value 008E                     __stringbase 1005  
             ___wmul@multiplier 0072        __end_of_PORT_Change_Gain 156B                 ?_PORT_Blink_LED 0070  
                  Get_Newton@Rc 00D3                    Get_Newton@Vs 00CF          __end_of_PORT_Start_ADC 14E0  
      Get_Newton@sensor_Channel 00C8                _PORT_Select_Mux0 14E0                     ??__Umul8_16 0074  
   __size_of_PORT_Get_Value_Adc 0004                __size_of___fladd 0288                __size_of___fldiv 01DD  
              __size_of___flmul 0361                __size_of___flsub 0024              __end_of__stringtab 1006  
                      ___xxtofl 0717             conversion_newton@Rc 00A0                        __ptext10 16CE  
                      __ptext11 0717                        __ptext20 14D8                        __ptext12 158F  
                      __ptext21 14D4                        __ptext13 156B                        __ptext22 14F8  
                      __ptext14 0A17                        __ptext23 152E                        __ptext15 0C9F  
                      __ptext16 15B4                        __ptext17 083A                        __ptext18 1547  
                      __ptext19 150A                 ?_PORT_Start_ADC 0070                   __size_of_main 003F  
          __end_of_ADC_GetValue 151C                     Get_Newton@R 00CD        __size_of_PORT_Choose_Mux 0012  
                      intlevel1 0000                       stringcode 1000                _Resistance_Value 16CE  
      __end_of_PORT_Init_Serial 07FE  __end_ofconversion_newton@F_tab 10A6          __Umul8_16@multiplicand 0072  
__end_ofconversion_newton@R_tab 1056             Voltage_Value@sensor 00A8                        stringdir 1000  
                      stringtab 1000               _TIMER_init_timer1 151C         Resistance_Value@Voltage 00A0  
                 ___fladd@signs 0030              ?_TIMER_init_timer1 0070                    ___fladd@aexp 0031  
                  ___fladd@bexp 0032            __Umul8_16@multiplier 007A             ??_TIMER_init_timer1 0072  
        __size_of_Voltage_Value 0061               __Umul8_16@product 0076  
