

Microchip MPLAB XC8 Assembler V2.20 build 20200408173844 
                                                                                               Thu Jun 01 10:28:25 2023

Microchip MPLAB XC8 C Compiler v2.20 (Free license) build 20200408173844 Og1 
     1                           	processor	16F707
     2                           	pagewidth 120
     3                           	opt	flic
     4                           	psect	strings,global,class=STRING,delta=2,noexec
     5                           	psect	cinit,global,class=CODE,merge=1,delta=2
     6                           	psect	bssBANK1,global,class=BANK1,space=1,delta=1,noexec
     7                           	psect	cstackBANK1,global,class=BANK1,space=1,delta=1,noexec
     8                           	psect	cstackCOMMON,global,class=COMMON,space=1,delta=1,noexec
     9                           	psect	cstackBANK0,global,class=BANK0,space=1,delta=1,noexec
    10                           	psect	maintext,global,class=CODE,split=1,delta=2
    11                           	psect	text1,local,class=CODE,merge=1,delta=2
    12                           	psect	text2,local,class=CODE,merge=1,delta=2,group=1
    13                           	psect	text3,local,class=CODE,merge=1,delta=2
    14                           	psect	text4,local,class=CODE,merge=1,delta=2,group=1
    15                           	psect	text5,local,class=CODE,merge=1,delta=2
    16                           	psect	text6,local,class=CODE,merge=1,delta=2
    17                           	psect	text7,local,class=CODE,merge=1,delta=2,group=1
    18                           	psect	text8,local,class=CODE,merge=1,delta=2,group=1
    19                           	psect	text9,local,class=CODE,merge=1,delta=2,group=1
    20                           	psect	text10,local,class=CODE,merge=1,delta=2,group=1
    21                           	psect	text11,local,class=CODE,merge=1,delta=2,group=1
    22                           	psect	text12,local,class=CODE,merge=1,delta=2
    23                           	psect	text13,local,class=CODE,merge=1,delta=2
    24                           	psect	text14,local,class=CODE,merge=1,delta=2
    25                           	psect	text15,local,class=CODE,merge=1,delta=2
    26                           	psect	text16,local,class=CODE,merge=1,delta=2
    27                           	psect	text17,local,class=CODE,merge=1,delta=2
    28                           	psect	text18,local,class=CODE,merge=1,delta=2
    29                           	psect	text19,local,class=CODE,merge=1,delta=2
    30                           	psect	text20,local,class=CODE,merge=1,delta=2
    31                           	psect	text21,local,class=CODE,merge=1,delta=2
    32                           	psect	intentry,global,class=CODE,delta=2
    33                           	psect	config,global,abs,ovrld,class=CONFIG,space=4,delta=2,noexec
    34                           	dabs	1,0x7E,2
    35  0000                     
    36                           ; Version 2.20
    37                           ; Generated 12/02/2020 GMT
    38                           ; 
    39                           ; Copyright © 2020, Microchip Technology Inc. and its subsidiaries ("Microchip")
    40                           ; All rights reserved.
    41                           ; 
    42                           ; This software is developed by Microchip Technology Inc. and its subsidiaries ("Microch
      +                          ip").
    43                           ; 
    44                           ; Redistribution and use in source and binary forms, with or without modification, are
    45                           ; permitted provided that the following conditions are met:
    46                           ; 
    47                           ;     1. Redistributions of source code must retain the above copyright notice, this lis
      +                          t of
    48                           ;        conditions and the following disclaimer.
    49                           ; 
    50                           ;     2. Redistributions in binary form must reproduce the above copyright notice, this 
      +                          list
    51                           ;        of conditions and the following disclaimer in the documentation and/or other
    52                           ;        materials provided with the distribution.
    53                           ; 
    54                           ;     3. Microchip's name may not be used to endorse or promote products derived from th
      +                          is
    55                           ;        software without specific prior written permission.
    56                           ; 
    57                           ; THIS SOFTWARE IS PROVIDED BY MICROCHIP "AS IS" AND ANY EXPRESS OR IMPLIED WARRANTIES,
    58                           ; INCLUDING, BUT NOT LIMITED TO, THE IMPLIED WARRANTIES OF MERCHANTABILITY AND FITNESS F
      +                          OR
    59                           ; PURPOSE ARE DISCLAIMED.  IN NO EVENT SHALL MICROCHIP BE LIABLE FOR ANY DIRECT, INDIREC
      +                          T,
    60                           ; INCIDENTAL, SPECIAL, EXEMPLARY, OR CONSEQUENTIAL DAMAGES (INCLUDING BUT NOT LIMITED TO
    61                           ; PROCUREMENT OF SUBSTITUTE GOODS OR SERVICES; LOSS OF USE, DATA OR PROFITS; OR BUSINESS
    62                           ; INTERRUPTION) HOWSOEVER CAUSED AND ON ANY THEORY OF LIABILITY, WHETHER IN CONTRACT, ST
      +                          RICT
    63                           ; LIABILITY, OR TORT (INCLUDING NEGLIGENCE OR OTHERWISE) ARISING IN ANY WAY OUT OF THE U
      +                          SE OF
    64                           ; THIS SOFTWARE, EVEN IF ADVISED OF THE POSSIBILITY OF SUCH DAMAGE.
    65                           ; 
    66                           ; 
    67                           ; Code-generator required, PIC16F707 Definitions
    68                           ; 
    69                           ; SFR Addresses
    70  0000                     	;# 
    71  0001                     	;# 
    72  0002                     	;# 
    73  0003                     	;# 
    74  0004                     	;# 
    75  0005                     	;# 
    76  0006                     	;# 
    77  0007                     	;# 
    78  0008                     	;# 
    79  0009                     	;# 
    80  000A                     	;# 
    81  000B                     	;# 
    82  000C                     	;# 
    83  000D                     	;# 
    84  000E                     	;# 
    85  000E                     	;# 
    86  000F                     	;# 
    87  0010                     	;# 
    88  0011                     	;# 
    89  0012                     	;# 
    90  0013                     	;# 
    91  0014                     	;# 
    92  0015                     	;# 
    93  0015                     	;# 
    94  0016                     	;# 
    95  0017                     	;# 
    96  0018                     	;# 
    97  0019                     	;# 
    98  001A                     	;# 
    99  001B                     	;# 
   100  001B                     	;# 
   101  001C                     	;# 
   102  001D                     	;# 
   103  001E                     	;# 
   104  001F                     	;# 
   105  0081                     	;# 
   106  0085                     	;# 
   107  0086                     	;# 
   108  0087                     	;# 
   109  0088                     	;# 
   110  0089                     	;# 
   111  008C                     	;# 
   112  008D                     	;# 
   113  008E                     	;# 
   114  008F                     	;# 
   115  0090                     	;# 
   116  0091                     	;# 
   117  0092                     	;# 
   118  0093                     	;# 
   119  0093                     	;# 
   120  0094                     	;# 
   121  0095                     	;# 
   122  0096                     	;# 
   123  0097                     	;# 
   124  0098                     	;# 
   125  0099                     	;# 
   126  009A                     	;# 
   127  009A                     	;# 
   128  009B                     	;# 
   129  009C                     	;# 
   130  009D                     	;# 
   131  009E                     	;# 
   132  009F                     	;# 
   133  0105                     	;# 
   134  0106                     	;# 
   135  0107                     	;# 
   136  0108                     	;# 
   137  0109                     	;# 
   138  010C                     	;# 
   139  010D                     	;# 
   140  010E                     	;# 
   141  010F                     	;# 
   142  0110                     	;# 
   143  0111                     	;# 
   144  0112                     	;# 
   145  0113                     	;# 
   146  0114                     	;# 
   147  0185                     	;# 
   148  0186                     	;# 
   149  0187                     	;# 
   150  0188                     	;# 
   151  0189                     	;# 
   152  018C                     	;# 
   153  0000                     	;# 
   154  0001                     	;# 
   155  0002                     	;# 
   156  0003                     	;# 
   157  0004                     	;# 
   158  0005                     	;# 
   159  0006                     	;# 
   160  0007                     	;# 
   161  0008                     	;# 
   162  0009                     	;# 
   163  000A                     	;# 
   164  000B                     	;# 
   165  000C                     	;# 
   166  000D                     	;# 
   167  000E                     	;# 
   168  000E                     	;# 
   169  000F                     	;# 
   170  0010                     	;# 
   171  0011                     	;# 
   172  0012                     	;# 
   173  0013                     	;# 
   174  0014                     	;# 
   175  0015                     	;# 
   176  0015                     	;# 
   177  0016                     	;# 
   178  0017                     	;# 
   179  0018                     	;# 
   180  0019                     	;# 
   181  001A                     	;# 
   182  001B                     	;# 
   183  001B                     	;# 
   184  001C                     	;# 
   185  001D                     	;# 
   186  001E                     	;# 
   187  001F                     	;# 
   188  0081                     	;# 
   189  0085                     	;# 
   190  0086                     	;# 
   191  0087                     	;# 
   192  0088                     	;# 
   193  0089                     	;# 
   194  008C                     	;# 
   195  008D                     	;# 
   196  008E                     	;# 
   197  008F                     	;# 
   198  0090                     	;# 
   199  0091                     	;# 
   200  0092                     	;# 
   201  0093                     	;# 
   202  0093                     	;# 
   203  0094                     	;# 
   204  0095                     	;# 
   205  0096                     	;# 
   206  0097                     	;# 
   207  0098                     	;# 
   208  0099                     	;# 
   209  009A                     	;# 
   210  009A                     	;# 
   211  009B                     	;# 
   212  009C                     	;# 
   213  009D                     	;# 
   214  009E                     	;# 
   215  009F                     	;# 
   216  0105                     	;# 
   217  0106                     	;# 
   218  0107                     	;# 
   219  0108                     	;# 
   220  0109                     	;# 
   221  010C                     	;# 
   222  010D                     	;# 
   223  010E                     	;# 
   224  010F                     	;# 
   225  0110                     	;# 
   226  0111                     	;# 
   227  0112                     	;# 
   228  0113                     	;# 
   229  0114                     	;# 
   230  0185                     	;# 
   231  0186                     	;# 
   232  0187                     	;# 
   233  0188                     	;# 
   234  0189                     	;# 
   235  018C                     	;# 
   236  0000                     	;# 
   237  0001                     	;# 
   238  0002                     	;# 
   239  0003                     	;# 
   240  0004                     	;# 
   241  0005                     	;# 
   242  0006                     	;# 
   243  0007                     	;# 
   244  0008                     	;# 
   245  0009                     	;# 
   246  000A                     	;# 
   247  000B                     	;# 
   248  000C                     	;# 
   249  000D                     	;# 
   250  000E                     	;# 
   251  000E                     	;# 
   252  000F                     	;# 
   253  0010                     	;# 
   254  0011                     	;# 
   255  0012                     	;# 
   256  0013                     	;# 
   257  0014                     	;# 
   258  0015                     	;# 
   259  0015                     	;# 
   260  0016                     	;# 
   261  0017                     	;# 
   262  0018                     	;# 
   263  0019                     	;# 
   264  001A                     	;# 
   265  001B                     	;# 
   266  001B                     	;# 
   267  001C                     	;# 
   268  001D                     	;# 
   269  001E                     	;# 
   270  001F                     	;# 
   271  0081                     	;# 
   272  0085                     	;# 
   273  0086                     	;# 
   274  0087                     	;# 
   275  0088                     	;# 
   276  0089                     	;# 
   277  008C                     	;# 
   278  008D                     	;# 
   279  008E                     	;# 
   280  008F                     	;# 
   281  0090                     	;# 
   282  0091                     	;# 
   283  0092                     	;# 
   284  0093                     	;# 
   285  0093                     	;# 
   286  0094                     	;# 
   287  0095                     	;# 
   288  0096                     	;# 
   289  0097                     	;# 
   290  0098                     	;# 
   291  0099                     	;# 
   292  009A                     	;# 
   293  009A                     	;# 
   294  009B                     	;# 
   295  009C                     	;# 
   296  009D                     	;# 
   297  009E                     	;# 
   298  009F                     	;# 
   299  0105                     	;# 
   300  0106                     	;# 
   301  0107                     	;# 
   302  0108                     	;# 
   303  0109                     	;# 
   304  010C                     	;# 
   305  010D                     	;# 
   306  010E                     	;# 
   307  010F                     	;# 
   308  0110                     	;# 
   309  0111                     	;# 
   310  0112                     	;# 
   311  0113                     	;# 
   312  0114                     	;# 
   313  0185                     	;# 
   314  0186                     	;# 
   315  0187                     	;# 
   316  0188                     	;# 
   317  0189                     	;# 
   318  018C                     	;# 
   319                           
   320                           	psect	strings
   321  1000                     __pstrings:
   322  1000                     stringtab:
   323  1000                     __stringtab:
   324  1000                     stringcode:	
   325                           ;	String table - string pointers are 1 byte each
   326                           
   327  1000                     stringdir:
   328  1000  3010               	movlw	high stringdir
   329  1001  008A               	movwf	10
   330  1002  0804               	movf	4,w
   331  1003  0A84               	incf	4,f
   332  1004  0782               	addwf	2,f
   333  1005                     __stringbase:
   334  1005  3400               	retlw	0
   335  1006                     __end_of__stringtab:
   336  1006                     conversion_newton@R_tab:
   337  1006  3400               	retlw	0
   338  1007  3400               	retlw	0
   339  1008  34FA               	retlw	250
   340  1009  3444               	retlw	68
   341  100A  3400               	retlw	0
   342  100B  3440               	retlw	64
   343  100C  341C               	retlw	28
   344  100D  3445               	retlw	69
   345  100E  3400               	retlw	0
   346  100F  3480               	retlw	128
   347  1010  3422               	retlw	34
   348  1011  3445               	retlw	69
   349  1012  3400               	retlw	0
   350  1013  34C0               	retlw	192
   351  1014  3428               	retlw	40
   352  1015  3445               	retlw	69
   353  1016  3400               	retlw	0
   354  1017  3440               	retlw	64
   355  1018  3435               	retlw	53
   356  1019  3445               	retlw	69
   357  101A  3400               	retlw	0
   358  101B  3400               	retlw	0
   359  101C  3448               	retlw	72
   360  101D  3445               	retlw	69
   361  101E  3400               	retlw	0
   362  101F  3480               	retlw	128
   363  1020  3454               	retlw	84
   364  1021  3445               	retlw	69
   365  1022  3400               	retlw	0
   366  1023  34C0               	retlw	192
   367  1024  345A               	retlw	90
   368  1025  3445               	retlw	69
   369  1026  3400               	retlw	0
   370  1027  34C0               	retlw	192
   371  1028  3473               	retlw	115
   372  1029  3445               	retlw	69
   373  102A  3400               	retlw	0
   374  102B  3460               	retlw	96
   375  102C  3486               	retlw	134
   376  102D  3445               	retlw	69
   377  102E  3400               	retlw	0
   378  102F  3400               	retlw	0
   379  1030  3496               	retlw	150
   380  1031  3445               	retlw	69
   381  1032  3400               	retlw	0
   382  1033  34E0               	retlw	224
   383  1034  34AB               	retlw	171
   384  1035  3445               	retlw	69
   385  1036  3400               	retlw	0
   386  1037  3480               	retlw	128
   387  1038  34D4               	retlw	212
   388  1039  3445               	retlw	69
   389  103A  3400               	retlw	0
   390  103B  34D0               	retlw	208
   391  103C  3404               	retlw	4
   392  103D  3446               	retlw	70
   393  103E  3400               	retlw	0
   394  103F  34E0               	retlw	224
   395  1040  342B               	retlw	43
   396  1041  3446               	retlw	70
   397  1042  3400               	retlw	0
   398  1043  3400               	retlw	0
   399  1044  347A               	retlw	122
   400  1045  3446               	retlw	70
   401  1046  3400               	retlw	0
   402  1047  34F0               	retlw	240
   403  1048  34D2               	retlw	210
   404  1049  3446               	retlw	70
   405  104A  3400               	retlw	0
   406  104B  34C8               	retlw	200
   407  104C  342F               	retlw	47
   408  104D  3447               	retlw	71
   409  104E  3400               	retlw	0
   410  104F  34E8               	retlw	232
   411  1050  347D               	retlw	125
   412  1051  3447               	retlw	71
   413  1052  3400               	retlw	0
   414  1053  348C               	retlw	140
   415  1054  34B9               	retlw	185
   416  1055  3447               	retlw	71
   417  1056                     __end_ofconversion_newton@R_tab:
   418  1056                     conversion_newton@F_tab:
   419  1056  3400               	retlw	0
   420  1057  3400               	retlw	0
   421  1058  348C               	retlw	140
   422  1059  3442               	retlw	66
   423  105A  3400               	retlw	0
   424  105B  3400               	retlw	0
   425  105C  340C               	retlw	12
   426  105D  3442               	retlw	66
   427  105E  3400               	retlw	0
   428  105F  3400               	retlw	0
   429  1060  34F0               	retlw	240
   430  1061  3441               	retlw	65
   431  1062  3400               	retlw	0
   432  1063  3400               	retlw	0
   433  1064  34E0               	retlw	224
   434  1065  3441               	retlw	65
   435  1066  3400               	retlw	0
   436  1067  3400               	retlw	0
   437  1068  34C8               	retlw	200
   438  1069  3441               	retlw	65
   439  106A  3400               	retlw	0
   440  106B  3400               	retlw	0
   441  106C  34A0               	retlw	160
   442  106D  3441               	retlw	65
   443  106E  3400               	retlw	0
   444  106F  3400               	retlw	0
   445  1070  3498               	retlw	152
   446  1071  3441               	retlw	65
   447  1072  3400               	retlw	0
   448  1073  3400               	retlw	0
   449  1074  3490               	retlw	144
   450  1075  3441               	retlw	65
   451  1076  3400               	retlw	0
   452  1077  3400               	retlw	0
   453  1078  3470               	retlw	112
   454  1079  3441               	retlw	65
   455  107A  3400               	retlw	0
   456  107B  3400               	retlw	0
   457  107C  3450               	retlw	80
   458  107D  3441               	retlw	65
   459  107E  3400               	retlw	0
   460  107F  3400               	retlw	0
   461  1080  3420               	retlw	32
   462  1081  3441               	retlw	65
   463  1082  3400               	retlw	0
   464  1083  3400               	retlw	0
   465  1084  34E0               	retlw	224
   466  1085  3440               	retlw	64
   467  1086  34CD               	retlw	205
   468  1087  34CC               	retlw	204
   469  1088  34AC               	retlw	172
   470  1089  3440               	retlw	64
   471  108A  3400               	retlw	0
   472  108B  3400               	retlw	0
   473  108C  3480               	retlw	128
   474  108D  3440               	retlw	64
   475  108E  3400               	retlw	0
   476  108F  3400               	retlw	0
   477  1090  3440               	retlw	64
   478  1091  3440               	retlw	64
   479  1092  34CD               	retlw	205
   480  1093  34CC               	retlw	204
   481  1094  340C               	retlw	12
   482  1095  3440               	retlw	64
   483  1096  3400               	retlw	0
   484  1097  3400               	retlw	0
   485  1098  34C0               	retlw	192
   486  1099  343F               	retlw	63
   487  109A  3466               	retlw	102
   488  109B  3466               	retlw	102
   489  109C  3466               	retlw	102
   490  109D  343F               	retlw	63
   491  109E  3466               	retlw	102
   492  109F  3466               	retlw	102
   493  10A0  34E6               	retlw	230
   494  10A1  343E               	retlw	62
   495  10A2  348F               	retlw	143
   496  10A3  34C2               	retlw	194
   497  10A4  34F5               	retlw	245
   498  10A5  343D               	retlw	61
   499  10A6                     __end_ofconversion_newton@F_tab:
   500  0007                     _PORTCbits	set	7
   501  0019                     _TXREG	set	25
   502  001E                     _ADRES	set	30
   503  0008                     _PORTD	set	8
   504  0006                     _PORTBbits	set	6
   505  001F                     _ADCON0	set	31
   506  0018                     _RCSTA	set	24
   507  006C                     _TMRAIF	set	108
   508  0060                     _TMR1IF	set	96
   509  0080                     _TMR1ON	set	128
   510  0082                     _T1SYNC	set	130
   511  0085                     _T1CKPS1	set	133
   512  0084                     _T1CKPS0	set	132
   513  0086                     _TMRCS0	set	134
   514  0087                     _TMRCS1	set	135
   515  0083                     _T1OSCEN	set	131
   516  00F9                     _GO_nDONE	set	249
   517  009D                     _FVRCON	set	157
   518  009F                     _ADCON1	set	159
   519  0088                     _TRISD	set	136
   520  0085                     _TRISA	set	133
   521  0090                     _OSCCON	set	144
   522  0086                     _TRISB	set	134
   523  0095                     _WPUB	set	149
   524  0098                     _TXSTA	set	152
   525  0099                     _SPBRG	set	153
   526  0087                     _TRISC	set	135
   527  0460                     _TMR1IE	set	1120
   528  047F                     _TMR1GE	set	1151
   529  0110                     _TMRA	set	272
   530  0114                     _DACCON1	set	276
   531  0113                     _DACCON0	set	275
   532  0185                     _ANSELA	set	389
   533  0188                     _ANSELD	set	392
   534  0186                     _ANSELB	set	390
   535                           
   536                           	psect	cinit
   537  000F                     start_initialization:	
   538                           ; #config settings
   539                           
   540  000F                     __initialization:
   541                           
   542                           ; Clear objects allocated to BANK1
   543  000F  1683               	bsf	3,5	;RP0=1, select bank1
   544  0010  1303               	bcf	3,6	;RP1=0, select bank1
   545  0011  01D7               	clrf	__pbssBANK1& (0+127)
   546  0012                     end_of_initialization:	
   547                           ;End of C runtime variable initialization code
   548                           
   549  0012                     __end_of__initialization:
   550  0012  0183               	clrf	3
   551  0013  160A  118A  2EE4   	ljmp	_main	;jump to C main() function
   552                           
   553                           	psect	bssBANK1
   554  00D7                     __pbssBANK1:
   555  00D7                     _Fincompt1:
   556  00D7                     	ds	1
   557                           
   558                           	psect	cstackBANK1
   559  00A0                     __pcstackBANK1:
   560  00A0                     ?_Voltage_Value:
   561  00A0                     ?_Resistance_Value:	
   562                           ; 4 bytes @ 0x0
   563                           
   564  00A0                     ?_conversion_newton:	
   565                           ; 4 bytes @ 0x0
   566                           
   567  00A0                     Resistance_Value@Voltage:	
   568                           ; 4 bytes @ 0x0
   569                           
   570  00A0                     conversion_newton@Rc:	
   571                           ; 4 bytes @ 0x0
   572                           
   573                           
   574                           ; 4 bytes @ 0x0
   575  00A0                     	ds	4
   576  00A4                     ??_Voltage_Value:
   577  00A4                     ??_conversion_newton:	
   578                           ; 1 bytes @ 0x4
   579                           
   580                           
   581                           ; 1 bytes @ 0x4
   582  00A4                     	ds	25
   583  00BD                     _conversion_newton$764:
   584                           
   585                           ; 4 bytes @ 0x1D
   586  00BD                     	ds	4
   587  00C1                     conversion_newton@F:
   588                           
   589                           ; 4 bytes @ 0x21
   590  00C1                     	ds	4
   591  00C5                     conversion_newton@n:
   592                           
   593                           ; 2 bytes @ 0x25
   594  00C5                     	ds	9
   595  00CE                     main@Rc:
   596                           
   597                           ; 4 bytes @ 0x2E
   598  00CE                     	ds	4
   599  00D2                     main@Vs:
   600                           
   601                           ; 4 bytes @ 0x32
   602  00D2                     	ds	4
   603  00D6                     main@sensor1:
   604                           
   605                           ; 1 bytes @ 0x36
   606  00D6                     	ds	1
   607                           
   608                           	psect	cstackCOMMON
   609  0070                     __pcstackCOMMON:
   610  0070                     ?_PORT_Init:
   611  0070                     ?_TIMER_init_timer1:	
   612                           ; 1 bytes @ 0x0
   613                           
   614  0070                     ?_PORT_Select_Mux1:	
   615                           ; 1 bytes @ 0x0
   616                           
   617  0070                     ?_PORT_Init_Gain:	
   618                           ; 1 bytes @ 0x0
   619                           
   620  0070                     ?_PORT_Blink_LED:	
   621                           ; 1 bytes @ 0x0
   622                           
   623  0070                     ?_ADC_GetValue:	
   624                           ; 1 bytes @ 0x0
   625                           
   626  0070                     ?_PORT_Choose_Mux:	
   627                           ; 1 bytes @ 0x0
   628                           
   629  0070                     ?_PORT_Start_ADC:	
   630                           ; 1 bytes @ 0x0
   631                           
   632  0070                     ?_PORT_Get_Value_Adc:	
   633                           ; 1 bytes @ 0x0
   634                           
   635  0070                     ?_main:	
   636                           ; 1 bytes @ 0x0
   637                           
   638  0070                     ?_PORT_Init_Serial:	
   639                           ; 1 bytes @ 0x0
   640                           
   641  0070                     ?_isr:	
   642                           ; 1 bytes @ 0x0
   643                           
   644  0070                     ??_isr:	
   645                           ; 1 bytes @ 0x0
   646                           
   647                           
   648                           ; 1 bytes @ 0x0
   649  0070                     	ds	2
   650  0072                     ?___flge:
   651  0072                     ??_PORT_Init:	
   652                           ; 1 bit 
   653                           
   654  0072                     ??_TIMER_init_timer1:	
   655                           ; 1 bytes @ 0x2
   656                           
   657  0072                     ??_PORT_Select_Mux1:	
   658                           ; 1 bytes @ 0x2
   659                           
   660  0072                     ??_PORT_Init_Gain:	
   661                           ; 1 bytes @ 0x2
   662                           
   663  0072                     ??_PORT_Blink_LED:	
   664                           ; 1 bytes @ 0x2
   665                           
   666  0072                     ??_PORT_Choose_Mux:	
   667                           ; 1 bytes @ 0x2
   668                           
   669  0072                     ??_PORT_Start_ADC:	
   670                           ; 1 bytes @ 0x2
   671                           
   672  0072                     ??_PORT_Get_Value_Adc:	
   673                           ; 1 bytes @ 0x2
   674                           
   675  0072                     ??_PORT_Init_Serial:	
   676                           ; 1 bytes @ 0x2
   677                           
   678  0072                     ?__Umul8_16:	
   679                           ; 1 bytes @ 0x2
   680                           
   681  0072                     ?___xxtofl:	
   682                           ; 2 bytes @ 0x2
   683                           
   684  0072                     PORT_Choose_Mux@_value:	
   685                           ; 4 bytes @ 0x2
   686                           
   687  0072                     __Umul8_16@multiplicand:	
   688                           ; 1 bytes @ 0x2
   689                           
   690  0072                     ___flge@ff1:	
   691                           ; 1 bytes @ 0x2
   692                           
   693  0072                     ___xxtofl@val:	
   694                           ; 4 bytes @ 0x2
   695                           
   696                           
   697                           ; 4 bytes @ 0x2
   698  0072                     	ds	1
   699  0073                     ??_ADC_GetValue:
   700  0073                     ADC_GetValue@channel:	
   701                           ; 1 bytes @ 0x3
   702                           
   703                           
   704                           ; 1 bytes @ 0x3
   705  0073                     	ds	1
   706  0074                     ??__Umul8_16:
   707                           
   708                           ; 1 bytes @ 0x4
   709  0074                     	ds	2
   710  0076                     ??___xxtofl:
   711  0076                     __Umul8_16@product:	
   712                           ; 1 bytes @ 0x6
   713                           
   714  0076                     ___flge@ff2:	
   715                           ; 2 bytes @ 0x6
   716                           
   717                           
   718                           ; 4 bytes @ 0x6
   719  0076                     	ds	2
   720  0078                     __Umul8_16@word_mpld:
   721                           
   722                           ; 2 bytes @ 0x8
   723  0078                     	ds	2
   724  007A                     __Umul8_16@multiplier:
   725                           
   726                           ; 1 bytes @ 0xA
   727  007A                     	ds	1
   728  007B                     ??_Resistance_Value:
   729  007B                     ??___flsub:	
   730                           ; 1 bytes @ 0xB
   731                           
   732  007B                     Voltage_Value@sensor:	
   733                           ; 1 bytes @ 0xB
   734                           
   735                           
   736                           ; 1 bytes @ 0xB
   737  007B                     	ds	1
   738  007C                     ??_main:
   739                           
   740                           	psect	cstackBANK0
   741  0020                     __pcstackBANK0:	
   742                           ; 1 bytes @ 0xC
   743                           
   744  0020                     ??___flge:
   745  0020                     ?___fladd:	
   746                           ; 1 bytes @ 0x0
   747                           
   748  0020                     ___xxtofl@sign:	
   749                           ; 4 bytes @ 0x0
   750                           
   751  0020                     ___fladd@b:	
   752                           ; 1 bytes @ 0x0
   753                           
   754                           
   755                           ; 4 bytes @ 0x0
   756  0020                     	ds	1
   757  0021                     ___xxtofl@exp:
   758                           
   759                           ; 1 bytes @ 0x1
   760  0021                     	ds	1
   761  0022                     ___xxtofl@arg:
   762                           
   763                           ; 4 bytes @ 0x2
   764  0022                     	ds	2
   765  0024                     ___fladd@a:
   766                           
   767                           ; 4 bytes @ 0x4
   768  0024                     	ds	4
   769  0028                     ??___fladd:
   770                           
   771                           ; 1 bytes @ 0x8
   772  0028                     	ds	8
   773  0030                     ___fladd@signs:
   774                           
   775                           ; 1 bytes @ 0x10
   776  0030                     	ds	1
   777  0031                     ___fladd@aexp:
   778                           
   779                           ; 1 bytes @ 0x11
   780  0031                     	ds	1
   781  0032                     ___fladd@bexp:
   782                           
   783                           ; 1 bytes @ 0x12
   784  0032                     	ds	1
   785  0033                     ___fladd@grs:
   786                           
   787                           ; 1 bytes @ 0x13
   788  0033                     	ds	1
   789  0034                     ?___flsub:
   790  0034                     ___flsub@a:	
   791                           ; 4 bytes @ 0x14
   792                           
   793                           
   794                           ; 4 bytes @ 0x14
   795  0034                     	ds	4
   796  0038                     ___flsub@b:
   797                           
   798                           ; 4 bytes @ 0x18
   799  0038                     	ds	4
   800  003C                     ?___fldiv:
   801  003C                     ___fldiv@a:	
   802                           ; 4 bytes @ 0x1C
   803                           
   804                           
   805                           ; 4 bytes @ 0x1C
   806  003C                     	ds	4
   807  0040                     ___fldiv@b:
   808                           
   809                           ; 4 bytes @ 0x20
   810  0040                     	ds	4
   811  0044                     ??___fldiv:
   812                           
   813                           ; 1 bytes @ 0x24
   814  0044                     	ds	5
   815  0049                     ___fldiv@rem:
   816                           
   817                           ; 4 bytes @ 0x29
   818  0049                     	ds	4
   819  004D                     ___fldiv@sign:
   820                           
   821                           ; 1 bytes @ 0x2D
   822  004D                     	ds	1
   823  004E                     ___fldiv@new_exp:
   824                           
   825                           ; 2 bytes @ 0x2E
   826  004E                     	ds	2
   827  0050                     ___fldiv@grs:
   828                           
   829                           ; 4 bytes @ 0x30
   830  0050                     	ds	4
   831  0054                     ___fldiv@bexp:
   832                           
   833                           ; 1 bytes @ 0x34
   834  0054                     	ds	1
   835  0055                     ___fldiv@aexp:
   836                           
   837                           ; 1 bytes @ 0x35
   838  0055                     	ds	1
   839  0056                     ?___flmul:
   840  0056                     ___flmul@b:	
   841                           ; 4 bytes @ 0x36
   842                           
   843                           
   844                           ; 4 bytes @ 0x36
   845  0056                     	ds	4
   846  005A                     ___flmul@a:
   847                           
   848                           ; 4 bytes @ 0x3A
   849  005A                     	ds	4
   850  005E                     ??___flmul:
   851                           
   852                           ; 1 bytes @ 0x3E
   853  005E                     	ds	5
   854  0063                     ___flmul@sign:
   855                           
   856                           ; 1 bytes @ 0x43
   857  0063                     	ds	1
   858  0064                     ___flmul@grs:
   859                           
   860                           ; 4 bytes @ 0x44
   861  0064                     	ds	4
   862  0068                     ___flmul@aexp:
   863                           
   864                           ; 1 bytes @ 0x48
   865  0068                     	ds	1
   866  0069                     ___flmul@bexp:
   867                           
   868                           ; 1 bytes @ 0x49
   869  0069                     	ds	1
   870  006A                     ___flmul@prod:
   871                           
   872                           ; 4 bytes @ 0x4A
   873  006A                     	ds	4
   874  006E                     ___flmul@temp:
   875                           
   876                           ; 2 bytes @ 0x4E
   877  006E                     	ds	2
   878                           
   879                           	psect	maintext
   880  16E4                     __pmaintext:	
   881 ;;
   882 ;;Main: autosize = 0, tempsize = 0, incstack = 0, save=0
   883 ;;
   884 ;; *************** function _main *****************
   885 ;; Defined at:
   886 ;;		line 23 in file "main.c"
   887 ;; Parameters:    Size  Location     Type
   888 ;;		None
   889 ;; Auto vars:     Size  Location     Type
   890 ;;  Vs              4   50[BANK1 ] float 
   891 ;;  Rc              4   46[BANK1 ] float 
   892 ;;  F               4    0        float 
   893 ;;  sensor1         1   54[BANK1 ] unsigned char 
   894 ;;  sensor4         1    0        unsigned char 
   895 ;;  sensor3         1    0        unsigned char 
   896 ;;  sensor2         1    0        unsigned char 
   897 ;; Return value:  Size  Location     Type
   898 ;;                  1    wreg      void 
   899 ;; Registers used:
   900 ;;		wreg, fsr0l, fsr0h, status,2, status,0, btemp+1, pclath, cstack
   901 ;; Tracked objects:
   902 ;;		On entry : B00/0
   903 ;;		On exit  : 0/0
   904 ;;		Unchanged: 0/0
   905 ;; Data sizes:     COMMON   BANK0   BANK1   BANK3   BANK2
   906 ;;      Params:         0       0       0       0       0
   907 ;;      Locals:         0       0      16       0       0
   908 ;;      Temps:          0       0       0       0       0
   909 ;;      Totals:         0       0      16       0       0
   910 ;;Total ram usage:       16 bytes
   911 ;; Hardware stack levels required when called:    4
   912 ;; This function calls:
   913 ;;		_ADC_GetValue
   914 ;;		_PORT_Blink_LED
   915 ;;		_PORT_Init
   916 ;;		_PORT_Init_Gain
   917 ;;		_PORT_Select_Mux1
   918 ;;		_Resistance_Value
   919 ;;		_TIMER_init_timer1
   920 ;;		_Voltage_Value
   921 ;;		_conversion_newton
   922 ;; This function is called by:
   923 ;;		Startup code after reset
   924 ;; This function uses a non-reentrant model
   925 ;;
   926                           
   927                           
   928                           ;psect for function _main
   929  16E4                     _main:
   930  16E4                     l2359:	
   931                           ;incstack = 0
   932                           ; Regs used in _main: [wreg-fsr0h+status,2+status,0+btemp+1+pclath+cstack]
   933                           
   934                           
   935                           ;main.c: 29:     unsigned char sensor1, sensor2, sensor3, sensor4;;main.c: 31:     float
      +                           Rc,Vs,F;;main.c: 33:     PORT_Init();
   936  16E4  120A  158A  2001  160A  118A  	fcall	_PORT_Init
   937                           
   938                           ;main.c: 34:     TIMER_init_timer1();
   939  16E9  160A  118A  25A1  160A  118A  	fcall	_TIMER_init_timer1
   940  16EE                     l2361:
   941                           
   942                           ;main.c: 36:     PORT_Select_Mux1();
   943  16EE  160A  118A  2565  160A  118A  	fcall	_PORT_Select_Mux1
   944  16F3                     l2363:
   945                           
   946                           ;main.c: 37:     PORT_Init_Gain();
   947  16F3  160A  118A  2558  160A  118A  	fcall	_PORT_Init_Gain
   948  16F8                     l2365:
   949  16F8  1683               	bsf	3,5	;RP0=1, select bank1
   950  16F9  1303               	bcf	3,6	;RP1=0, select bank1
   951  16FA  0857               	movf	_Fincompt1^(0+128),w
   952  16FB  1D03               	btfss	3,2
   953  16FC  2EFE               	goto	u3441
   954  16FD  2EFF               	goto	u3440
   955  16FE                     u3441:
   956  16FE  2EF8               	goto	l2365
   957  16FF                     u3440:
   958  16FF                     l2367:
   959                           
   960                           ;main.c: 45:         Fincompt1 = 0;
   961  16FF  01D7               	clrf	_Fincompt1^(0+128)
   962  1700                     l2369:
   963                           
   964                           ;main.c: 46:         PORT_Blink_LED();
   965  1700  160A  118A  256D  160A  118A  	fcall	_PORT_Blink_LED
   966  1705                     l2371:
   967                           
   968                           ;main.c: 48:         sensor1 = ADC_GetValue(0);
   969  1705  3000               	movlw	0
   970  1706  160A  118A  258F  160A  118A  	fcall	_ADC_GetValue
   971  170B  00FF               	movwf	btemp+1
   972  170C  087F               	movf	btemp+1,w
   973  170D  1683               	bsf	3,5	;RP0=1, select bank1
   974  170E  1303               	bcf	3,6	;RP1=0, select bank1
   975  170F  00D6               	movwf	main@sensor1^(0+128)
   976  1710                     l2373:
   977  1710  3001               	movlw	1
   978  1711  160A  118A  258F  160A  118A  	fcall	_ADC_GetValue
   979  1716                     l2375:
   980  1716  3002               	movlw	2
   981  1717  160A  118A  258F  160A  118A  	fcall	_ADC_GetValue
   982  171C                     l2377:
   983  171C  3003               	movlw	3
   984  171D  160A  118A  258F  160A  118A  	fcall	_ADC_GetValue
   985  1722                     l2379:
   986                           
   987                           ;main.c: 60:         Vs = Voltage_Value(sensor1);
   988  1722  1683               	bsf	3,5	;RP0=1, select bank1
   989  1723  1303               	bcf	3,6	;RP1=0, select bank1
   990  1724  0856               	movf	main@sensor1^(0+128),w
   991  1725  160A  118A  2617  160A  118A  	fcall	_Voltage_Value
   992  172A  1683               	bsf	3,5	;RP0=1, select bank1
   993  172B  1303               	bcf	3,6	;RP1=0, select bank1
   994  172C  0823               	movf	(?_Voltage_Value+3)^(0+128),w
   995  172D  00D5               	movwf	(main@Vs+3)^(0+128)
   996  172E  0822               	movf	(?_Voltage_Value+2)^(0+128),w
   997  172F  00D4               	movwf	(main@Vs+2)^(0+128)
   998  1730  0821               	movf	(?_Voltage_Value+1)^(0+128),w
   999  1731  00D3               	movwf	(main@Vs+1)^(0+128)
  1000  1732  0820               	movf	?_Voltage_Value^(0+128),w
  1001  1733  00D2               	movwf	main@Vs^(0+128)
  1002  1734                     l2381:
  1003                           
  1004                           ;main.c: 67:         Rc = Resistance_Value(Vs);
  1005  1734  0855               	movf	(main@Vs+3)^(0+128),w
  1006  1735  00A3               	movwf	(Resistance_Value@Voltage+3)^(0+128)
  1007  1736  0854               	movf	(main@Vs+2)^(0+128),w
  1008  1737  00A2               	movwf	(Resistance_Value@Voltage+2)^(0+128)
  1009  1738  0853               	movf	(main@Vs+1)^(0+128),w
  1010  1739  00A1               	movwf	(Resistance_Value@Voltage+1)^(0+128)
  1011  173A  0852               	movf	main@Vs^(0+128),w
  1012  173B  00A0               	movwf	Resistance_Value@Voltage^(0+128)
  1013  173C  160A  118A  2676  160A  118A  	fcall	_Resistance_Value
  1014  1741  1683               	bsf	3,5	;RP0=1, select bank1
  1015  1742  1303               	bcf	3,6	;RP1=0, select bank1
  1016  1743  0823               	movf	(?_Resistance_Value+3)^(0+128),w
  1017  1744  00D1               	movwf	(main@Rc+3)^(0+128)
  1018  1745  0822               	movf	(?_Resistance_Value+2)^(0+128),w
  1019  1746  00D0               	movwf	(main@Rc+2)^(0+128)
  1020  1747  0821               	movf	(?_Resistance_Value+1)^(0+128),w
  1021  1748  00CF               	movwf	(main@Rc+1)^(0+128)
  1022  1749  0820               	movf	?_Resistance_Value^(0+128),w
  1023  174A  00CE               	movwf	main@Rc^(0+128)
  1024  174B                     l2383:
  1025  174B  0851               	movf	(main@Rc+3)^(0+128),w
  1026  174C  00A3               	movwf	(conversion_newton@Rc+3)^(0+128)
  1027  174D  0850               	movf	(main@Rc+2)^(0+128),w
  1028  174E  00A2               	movwf	(conversion_newton@Rc+2)^(0+128)
  1029  174F  084F               	movf	(main@Rc+1)^(0+128),w
  1030  1750  00A1               	movwf	(conversion_newton@Rc+1)^(0+128)
  1031  1751  084E               	movf	main@Rc^(0+128),w
  1032  1752  00A0               	movwf	conversion_newton@Rc^(0+128)
  1033  1753  120A  118A  2016  160A  118A  	fcall	_conversion_newton
  1034  1758  2EF8               	goto	l2365
  1035  1759  120A  118A  280C   	ljmp	start
  1036  175C                     __end_of_main:
  1037                           
  1038                           	psect	text1
  1039  0016                     __ptext1:	
  1040 ;; *************** function _conversion_newton *****************
  1041 ;; Defined at:
  1042 ;;		line 167 in file "main.c"
  1043 ;; Parameters:    Size  Location     Type
  1044 ;;  Rc              4    0[BANK1 ] float 
  1045 ;; Auto vars:     Size  Location     Type
  1046 ;;  F               4   33[BANK1 ] float 
  1047 ;;  n               2   37[BANK1 ] int 
  1048 ;; Return value:  Size  Location     Type
  1049 ;;                  4    0[BANK1 ] float 
  1050 ;; Registers used:
  1051 ;;		wreg, fsr0l, fsr0h, status,2, status,0, btemp+1, pclath, cstack
  1052 ;; Tracked objects:
  1053 ;;		On entry : 0/0
  1054 ;;		On exit  : 0/0
  1055 ;;		Unchanged: 0/0
  1056 ;; Data sizes:     COMMON   BANK0   BANK1   BANK3   BANK2
  1057 ;;      Params:         0       0       4       0       0
  1058 ;;      Locals:         0       0      10       0       0
  1059 ;;      Temps:          0       0      25       0       0
  1060 ;;      Totals:         0       0      39       0       0
  1061 ;;Total ram usage:       39 bytes
  1062 ;; Hardware stack levels used:    1
  1063 ;; Hardware stack levels required when called:    3
  1064 ;; This function calls:
  1065 ;;		___fladd
  1066 ;;		___fldiv
  1067 ;;		___flge
  1068 ;;		___flmul
  1069 ;;		___flsub
  1070 ;; This function is called by:
  1071 ;;		_main
  1072 ;; This function uses a non-reentrant model
  1073 ;;
  1074                           
  1075                           
  1076                           ;psect for function _conversion_newton
  1077  0016                     _conversion_newton:
  1078  0016                     l2283:	
  1079                           ;incstack = 0
  1080                           ; Regs used in _conversion_newton: [wreg-fsr0h+status,2+status,0+btemp+1+pclath+cstack]
  1081                           
  1082                           
  1083                           ;main.c: 168:      float F;;main.c: 169:      int n;;main.c: 170:      const float F_tab
      +                          [20]={70,35,30,28,25,20,19,18,15,13,10,7, 5.4, 4, 3, 2.2, 1.5, 0.9, 0.45, 0.12};;main.c:
      +                           171:      const float R_tab[20]={2000,2500,2600,2700,2900,3200,3400,3500,3900,4300,4800
      +                          ,5500,6800,8500,11000,16000,27000,45000,65000,95000};;main.c: 174:      if (Rc <= R_tab[
      +                          1])
  1084  0016  3005               	movlw	low (((conversion_newton@R_tab+4)-__stringbase)| (0+32768))
  1085  0017  0084               	movwf	4
  1086  0018  160A  118A  2000  120A  118A  	fcall	stringdir
  1087  001D  1683               	bsf	3,5	;RP0=1, select bank1
  1088  001E  1303               	bcf	3,6	;RP1=0, select bank1
  1089  001F  00A4               	movwf	??_conversion_newton^(0+128)
  1090  0020  160A  118A  2000  120A  118A  	fcall	stringdir
  1091  0025  00A5               	movwf	(??_conversion_newton^(0+128)+1)
  1092  0026  160A  118A  2000  120A  118A  	fcall	stringdir
  1093  002B  00A6               	movwf	(??_conversion_newton^(0+128)+2)
  1094  002C  160A  118A  2000  120A  118A  	fcall	stringdir
  1095  0031  00A7               	movwf	(??_conversion_newton^(0+128)+3)
  1096  0032  0827               	movf	(??_conversion_newton+3)^(0+128),w
  1097  0033  00F5               	movwf	___flge@ff1+3
  1098  0034  0826               	movf	(??_conversion_newton+2)^(0+128),w
  1099  0035  00F4               	movwf	___flge@ff1+2
  1100  0036  0825               	movf	(??_conversion_newton+1)^(0+128),w
  1101  0037  00F3               	movwf	___flge@ff1+1
  1102  0038  0824               	movf	??_conversion_newton^(0+128),w
  1103  0039  00F2               	movwf	___flge@ff1
  1104  003A  0823               	movf	(conversion_newton@Rc+3)^(0+128),w
  1105  003B  00F9               	movwf	___flge@ff2+3
  1106  003C  0822               	movf	(conversion_newton@Rc+2)^(0+128),w
  1107  003D  00F8               	movwf	___flge@ff2+2
  1108  003E  0821               	movf	(conversion_newton@Rc+1)^(0+128),w
  1109  003F  00F7               	movwf	___flge@ff2+1
  1110  0040  0820               	movf	conversion_newton@Rc^(0+128),w
  1111  0041  00F6               	movwf	___flge@ff2
  1112  0042  160A  118A  275C  120A  118A  	fcall	___flge
  1113  0047  1C03               	btfss	3,0
  1114  0048  284A               	goto	u3161
  1115  0049  284B               	goto	u3160
  1116  004A                     u3161:
  1117  004A  284F               	goto	l2287
  1118  004B                     u3160:
  1119  004B                     l2285:
  1120                           
  1121                           ;main.c: 175:          {;main.c: 176:          n = 0;
  1122  004B  1683               	bsf	3,5	;RP0=1, select bank1
  1123  004C  1303               	bcf	3,6	;RP1=0, select bank1
  1124  004D  01C5               	clrf	conversion_newton@n^(0+128)
  1125  004E  01C6               	clrf	(conversion_newton@n+1)^(0+128)
  1126  004F                     l2287:
  1127                           
  1128                           ;main.c: 178:      if ((Rc <= R_tab[2]) && (Rc > R_tab[1]))
  1129  004F  3009               	movlw	low (((conversion_newton@R_tab+8)-__stringbase)| (0+32768))
  1130  0050  0084               	movwf	4
  1131  0051  160A  118A  2000  120A  118A  	fcall	stringdir
  1132  0056  1683               	bsf	3,5	;RP0=1, select bank1
  1133  0057  1303               	bcf	3,6	;RP1=0, select bank1
  1134  0058  00A4               	movwf	??_conversion_newton^(0+128)
  1135  0059  160A  118A  2000  120A  118A  	fcall	stringdir
  1136  005E  00A5               	movwf	(??_conversion_newton^(0+128)+1)
  1137  005F  160A  118A  2000  120A  118A  	fcall	stringdir
  1138  0064  00A6               	movwf	(??_conversion_newton^(0+128)+2)
  1139  0065  160A  118A  2000  120A  118A  	fcall	stringdir
  1140  006A  00A7               	movwf	(??_conversion_newton^(0+128)+3)
  1141  006B  0827               	movf	(??_conversion_newton+3)^(0+128),w
  1142  006C  00F5               	movwf	___flge@ff1+3
  1143  006D  0826               	movf	(??_conversion_newton+2)^(0+128),w
  1144  006E  00F4               	movwf	___flge@ff1+2
  1145  006F  0825               	movf	(??_conversion_newton+1)^(0+128),w
  1146  0070  00F3               	movwf	___flge@ff1+1
  1147  0071  0824               	movf	??_conversion_newton^(0+128),w
  1148  0072  00F2               	movwf	___flge@ff1
  1149  0073  0823               	movf	(conversion_newton@Rc+3)^(0+128),w
  1150  0074  00F9               	movwf	___flge@ff2+3
  1151  0075  0822               	movf	(conversion_newton@Rc+2)^(0+128),w
  1152  0076  00F8               	movwf	___flge@ff2+2
  1153  0077  0821               	movf	(conversion_newton@Rc+1)^(0+128),w
  1154  0078  00F7               	movwf	___flge@ff2+1
  1155  0079  0820               	movf	conversion_newton@Rc^(0+128),w
  1156  007A  00F6               	movwf	___flge@ff2
  1157  007B  160A  118A  275C  120A  118A  	fcall	___flge
  1158  0080  1C03               	btfss	3,0
  1159  0081  2883               	goto	u3171
  1160  0082  2884               	goto	u3170
  1161  0083                     u3171:
  1162  0083  28C0               	goto	l2293
  1163  0084                     u3170:
  1164  0084                     l2289:
  1165  0084  3005               	movlw	low (((conversion_newton@R_tab+4)-__stringbase)| (0+32768))
  1166  0085  0084               	movwf	4
  1167  0086  160A  118A  2000  120A  118A  	fcall	stringdir
  1168  008B  1683               	bsf	3,5	;RP0=1, select bank1
  1169  008C  1303               	bcf	3,6	;RP1=0, select bank1
  1170  008D  00A4               	movwf	??_conversion_newton^(0+128)
  1171  008E  160A  118A  2000  120A  118A  	fcall	stringdir
  1172  0093  00A5               	movwf	(??_conversion_newton^(0+128)+1)
  1173  0094  160A  118A  2000  120A  118A  	fcall	stringdir
  1174  0099  00A6               	movwf	(??_conversion_newton^(0+128)+2)
  1175  009A  160A  118A  2000  120A  118A  	fcall	stringdir
  1176  009F  00A7               	movwf	(??_conversion_newton^(0+128)+3)
  1177  00A0  0827               	movf	(??_conversion_newton+3)^(0+128),w
  1178  00A1  00F5               	movwf	___flge@ff1+3
  1179  00A2  0826               	movf	(??_conversion_newton+2)^(0+128),w
  1180  00A3  00F4               	movwf	___flge@ff1+2
  1181  00A4  0825               	movf	(??_conversion_newton+1)^(0+128),w
  1182  00A5  00F3               	movwf	___flge@ff1+1
  1183  00A6  0824               	movf	??_conversion_newton^(0+128),w
  1184  00A7  00F2               	movwf	___flge@ff1
  1185  00A8  0823               	movf	(conversion_newton@Rc+3)^(0+128),w
  1186  00A9  00F9               	movwf	___flge@ff2+3
  1187  00AA  0822               	movf	(conversion_newton@Rc+2)^(0+128),w
  1188  00AB  00F8               	movwf	___flge@ff2+2
  1189  00AC  0821               	movf	(conversion_newton@Rc+1)^(0+128),w
  1190  00AD  00F7               	movwf	___flge@ff2+1
  1191  00AE  0820               	movf	conversion_newton@Rc^(0+128),w
  1192  00AF  00F6               	movwf	___flge@ff2
  1193  00B0  160A  118A  275C  120A  118A  	fcall	___flge
  1194  00B5  1803               	btfsc	3,0
  1195  00B6  28B8               	goto	u3181
  1196  00B7  28B9               	goto	u3180
  1197  00B8                     u3181:
  1198  00B8  28C0               	goto	l2293
  1199  00B9                     u3180:
  1200  00B9                     l2291:
  1201                           
  1202                           ;main.c: 179:          {;main.c: 180:          n = 1;
  1203  00B9  3001               	movlw	1
  1204  00BA  1683               	bsf	3,5	;RP0=1, select bank1
  1205  00BB  1303               	bcf	3,6	;RP1=0, select bank1
  1206  00BC  00C5               	movwf	conversion_newton@n^(0+128)
  1207  00BD  3000               	movlw	0
  1208  00BE  00C6               	movwf	(conversion_newton@n^(0+128)+1)
  1209                           
  1210                           ;main.c: 181:          }
  1211  00BF  2C84               	goto	l2345
  1212  00C0                     l2293:
  1213  00C0  300D               	movlw	low (((conversion_newton@R_tab+12)-__stringbase)| (0+32768))
  1214  00C1  0084               	movwf	4
  1215  00C2  160A  118A  2000  120A  118A  	fcall	stringdir
  1216  00C7  1683               	bsf	3,5	;RP0=1, select bank1
  1217  00C8  1303               	bcf	3,6	;RP1=0, select bank1
  1218  00C9  00A4               	movwf	??_conversion_newton^(0+128)
  1219  00CA  160A  118A  2000  120A  118A  	fcall	stringdir
  1220  00CF  00A5               	movwf	(??_conversion_newton^(0+128)+1)
  1221  00D0  160A  118A  2000  120A  118A  	fcall	stringdir
  1222  00D5  00A6               	movwf	(??_conversion_newton^(0+128)+2)
  1223  00D6  160A  118A  2000  120A  118A  	fcall	stringdir
  1224  00DB  00A7               	movwf	(??_conversion_newton^(0+128)+3)
  1225  00DC  0827               	movf	(??_conversion_newton+3)^(0+128),w
  1226  00DD  00F5               	movwf	___flge@ff1+3
  1227  00DE  0826               	movf	(??_conversion_newton+2)^(0+128),w
  1228  00DF  00F4               	movwf	___flge@ff1+2
  1229  00E0  0825               	movf	(??_conversion_newton+1)^(0+128),w
  1230  00E1  00F3               	movwf	___flge@ff1+1
  1231  00E2  0824               	movf	??_conversion_newton^(0+128),w
  1232  00E3  00F2               	movwf	___flge@ff1
  1233  00E4  0823               	movf	(conversion_newton@Rc+3)^(0+128),w
  1234  00E5  00F9               	movwf	___flge@ff2+3
  1235  00E6  0822               	movf	(conversion_newton@Rc+2)^(0+128),w
  1236  00E7  00F8               	movwf	___flge@ff2+2
  1237  00E8  0821               	movf	(conversion_newton@Rc+1)^(0+128),w
  1238  00E9  00F7               	movwf	___flge@ff2+1
  1239  00EA  0820               	movf	conversion_newton@Rc^(0+128),w
  1240  00EB  00F6               	movwf	___flge@ff2
  1241  00EC  160A  118A  275C  120A  118A  	fcall	___flge
  1242  00F1  1C03               	btfss	3,0
  1243  00F2  28F4               	goto	u3191
  1244  00F3  28F5               	goto	u3190
  1245  00F4                     u3191:
  1246  00F4  2931               	goto	l2299
  1247  00F5                     u3190:
  1248  00F5                     l2295:
  1249  00F5  3009               	movlw	low (((conversion_newton@R_tab+8)-__stringbase)| (0+32768))
  1250  00F6  0084               	movwf	4
  1251  00F7  160A  118A  2000  120A  118A  	fcall	stringdir
  1252  00FC  1683               	bsf	3,5	;RP0=1, select bank1
  1253  00FD  1303               	bcf	3,6	;RP1=0, select bank1
  1254  00FE  00A4               	movwf	??_conversion_newton^(0+128)
  1255  00FF  160A  118A  2000  120A  118A  	fcall	stringdir
  1256  0104  00A5               	movwf	(??_conversion_newton^(0+128)+1)
  1257  0105  160A  118A  2000  120A  118A  	fcall	stringdir
  1258  010A  00A6               	movwf	(??_conversion_newton^(0+128)+2)
  1259  010B  160A  118A  2000  120A  118A  	fcall	stringdir
  1260  0110  00A7               	movwf	(??_conversion_newton^(0+128)+3)
  1261  0111  0827               	movf	(??_conversion_newton+3)^(0+128),w
  1262  0112  00F5               	movwf	___flge@ff1+3
  1263  0113  0826               	movf	(??_conversion_newton+2)^(0+128),w
  1264  0114  00F4               	movwf	___flge@ff1+2
  1265  0115  0825               	movf	(??_conversion_newton+1)^(0+128),w
  1266  0116  00F3               	movwf	___flge@ff1+1
  1267  0117  0824               	movf	??_conversion_newton^(0+128),w
  1268  0118  00F2               	movwf	___flge@ff1
  1269  0119  0823               	movf	(conversion_newton@Rc+3)^(0+128),w
  1270  011A  00F9               	movwf	___flge@ff2+3
  1271  011B  0822               	movf	(conversion_newton@Rc+2)^(0+128),w
  1272  011C  00F8               	movwf	___flge@ff2+2
  1273  011D  0821               	movf	(conversion_newton@Rc+1)^(0+128),w
  1274  011E  00F7               	movwf	___flge@ff2+1
  1275  011F  0820               	movf	conversion_newton@Rc^(0+128),w
  1276  0120  00F6               	movwf	___flge@ff2
  1277  0121  160A  118A  275C  120A  118A  	fcall	___flge
  1278  0126  1803               	btfsc	3,0
  1279  0127  2929               	goto	u3201
  1280  0128  292A               	goto	u3200
  1281  0129                     u3201:
  1282  0129  2931               	goto	l2299
  1283  012A                     u3200:
  1284  012A                     l2297:
  1285                           
  1286                           ;main.c: 183:          {;main.c: 184:          n = 2;
  1287  012A  3002               	movlw	2
  1288  012B  1683               	bsf	3,5	;RP0=1, select bank1
  1289  012C  1303               	bcf	3,6	;RP1=0, select bank1
  1290  012D  00C5               	movwf	conversion_newton@n^(0+128)
  1291  012E  3000               	movlw	0
  1292  012F  00C6               	movwf	(conversion_newton@n^(0+128)+1)
  1293                           
  1294                           ;main.c: 185:          }
  1295  0130  2C84               	goto	l2345
  1296  0131                     l2299:
  1297  0131  3011               	movlw	low (((conversion_newton@R_tab+16)-__stringbase)| (0+32768))
  1298  0132  0084               	movwf	4
  1299  0133  160A  118A  2000  120A  118A  	fcall	stringdir
  1300  0138  1683               	bsf	3,5	;RP0=1, select bank1
  1301  0139  1303               	bcf	3,6	;RP1=0, select bank1
  1302  013A  00A4               	movwf	??_conversion_newton^(0+128)
  1303  013B  160A  118A  2000  120A  118A  	fcall	stringdir
  1304  0140  00A5               	movwf	(??_conversion_newton^(0+128)+1)
  1305  0141  160A  118A  2000  120A  118A  	fcall	stringdir
  1306  0146  00A6               	movwf	(??_conversion_newton^(0+128)+2)
  1307  0147  160A  118A  2000  120A  118A  	fcall	stringdir
  1308  014C  00A7               	movwf	(??_conversion_newton^(0+128)+3)
  1309  014D  0827               	movf	(??_conversion_newton+3)^(0+128),w
  1310  014E  00F5               	movwf	___flge@ff1+3
  1311  014F  0826               	movf	(??_conversion_newton+2)^(0+128),w
  1312  0150  00F4               	movwf	___flge@ff1+2
  1313  0151  0825               	movf	(??_conversion_newton+1)^(0+128),w
  1314  0152  00F3               	movwf	___flge@ff1+1
  1315  0153  0824               	movf	??_conversion_newton^(0+128),w
  1316  0154  00F2               	movwf	___flge@ff1
  1317  0155  0823               	movf	(conversion_newton@Rc+3)^(0+128),w
  1318  0156  00F9               	movwf	___flge@ff2+3
  1319  0157  0822               	movf	(conversion_newton@Rc+2)^(0+128),w
  1320  0158  00F8               	movwf	___flge@ff2+2
  1321  0159  0821               	movf	(conversion_newton@Rc+1)^(0+128),w
  1322  015A  00F7               	movwf	___flge@ff2+1
  1323  015B  0820               	movf	conversion_newton@Rc^(0+128),w
  1324  015C  00F6               	movwf	___flge@ff2
  1325  015D  160A  118A  275C  120A  118A  	fcall	___flge
  1326  0162  1C03               	btfss	3,0
  1327  0163  2965               	goto	u3211
  1328  0164  2966               	goto	u3210
  1329  0165                     u3211:
  1330  0165  29A2               	goto	l2305
  1331  0166                     u3210:
  1332  0166                     l2301:
  1333  0166  300D               	movlw	low (((conversion_newton@R_tab+12)-__stringbase)| (0+32768))
  1334  0167  0084               	movwf	4
  1335  0168  160A  118A  2000  120A  118A  	fcall	stringdir
  1336  016D  1683               	bsf	3,5	;RP0=1, select bank1
  1337  016E  1303               	bcf	3,6	;RP1=0, select bank1
  1338  016F  00A4               	movwf	??_conversion_newton^(0+128)
  1339  0170  160A  118A  2000  120A  118A  	fcall	stringdir
  1340  0175  00A5               	movwf	(??_conversion_newton^(0+128)+1)
  1341  0176  160A  118A  2000  120A  118A  	fcall	stringdir
  1342  017B  00A6               	movwf	(??_conversion_newton^(0+128)+2)
  1343  017C  160A  118A  2000  120A  118A  	fcall	stringdir
  1344  0181  00A7               	movwf	(??_conversion_newton^(0+128)+3)
  1345  0182  0827               	movf	(??_conversion_newton+3)^(0+128),w
  1346  0183  00F5               	movwf	___flge@ff1+3
  1347  0184  0826               	movf	(??_conversion_newton+2)^(0+128),w
  1348  0185  00F4               	movwf	___flge@ff1+2
  1349  0186  0825               	movf	(??_conversion_newton+1)^(0+128),w
  1350  0187  00F3               	movwf	___flge@ff1+1
  1351  0188  0824               	movf	??_conversion_newton^(0+128),w
  1352  0189  00F2               	movwf	___flge@ff1
  1353  018A  0823               	movf	(conversion_newton@Rc+3)^(0+128),w
  1354  018B  00F9               	movwf	___flge@ff2+3
  1355  018C  0822               	movf	(conversion_newton@Rc+2)^(0+128),w
  1356  018D  00F8               	movwf	___flge@ff2+2
  1357  018E  0821               	movf	(conversion_newton@Rc+1)^(0+128),w
  1358  018F  00F7               	movwf	___flge@ff2+1
  1359  0190  0820               	movf	conversion_newton@Rc^(0+128),w
  1360  0191  00F6               	movwf	___flge@ff2
  1361  0192  160A  118A  275C  120A  118A  	fcall	___flge
  1362  0197  1803               	btfsc	3,0
  1363  0198  299A               	goto	u3221
  1364  0199  299B               	goto	u3220
  1365  019A                     u3221:
  1366  019A  29A2               	goto	l2305
  1367  019B                     u3220:
  1368  019B                     l2303:
  1369                           
  1370                           ;main.c: 187:          {;main.c: 188:          n = 3;
  1371  019B  3003               	movlw	3
  1372  019C  1683               	bsf	3,5	;RP0=1, select bank1
  1373  019D  1303               	bcf	3,6	;RP1=0, select bank1
  1374  019E  00C5               	movwf	conversion_newton@n^(0+128)
  1375  019F  3000               	movlw	0
  1376  01A0  00C6               	movwf	(conversion_newton@n^(0+128)+1)
  1377                           
  1378                           ;main.c: 189:          }
  1379  01A1  2C84               	goto	l2345
  1380  01A2                     l2305:
  1381  01A2  3015               	movlw	low (((conversion_newton@R_tab+20)-__stringbase)| (0+32768))
  1382  01A3  0084               	movwf	4
  1383  01A4  160A  118A  2000  120A  118A  	fcall	stringdir
  1384  01A9  1683               	bsf	3,5	;RP0=1, select bank1
  1385  01AA  1303               	bcf	3,6	;RP1=0, select bank1
  1386  01AB  00A4               	movwf	??_conversion_newton^(0+128)
  1387  01AC  160A  118A  2000  120A  118A  	fcall	stringdir
  1388  01B1  00A5               	movwf	(??_conversion_newton^(0+128)+1)
  1389  01B2  160A  118A  2000  120A  118A  	fcall	stringdir
  1390  01B7  00A6               	movwf	(??_conversion_newton^(0+128)+2)
  1391  01B8  160A  118A  2000  120A  118A  	fcall	stringdir
  1392  01BD  00A7               	movwf	(??_conversion_newton^(0+128)+3)
  1393  01BE  0827               	movf	(??_conversion_newton+3)^(0+128),w
  1394  01BF  00F5               	movwf	___flge@ff1+3
  1395  01C0  0826               	movf	(??_conversion_newton+2)^(0+128),w
  1396  01C1  00F4               	movwf	___flge@ff1+2
  1397  01C2  0825               	movf	(??_conversion_newton+1)^(0+128),w
  1398  01C3  00F3               	movwf	___flge@ff1+1
  1399  01C4  0824               	movf	??_conversion_newton^(0+128),w
  1400  01C5  00F2               	movwf	___flge@ff1
  1401  01C6  0823               	movf	(conversion_newton@Rc+3)^(0+128),w
  1402  01C7  00F9               	movwf	___flge@ff2+3
  1403  01C8  0822               	movf	(conversion_newton@Rc+2)^(0+128),w
  1404  01C9  00F8               	movwf	___flge@ff2+2
  1405  01CA  0821               	movf	(conversion_newton@Rc+1)^(0+128),w
  1406  01CB  00F7               	movwf	___flge@ff2+1
  1407  01CC  0820               	movf	conversion_newton@Rc^(0+128),w
  1408  01CD  00F6               	movwf	___flge@ff2
  1409  01CE  160A  118A  275C  120A  118A  	fcall	___flge
  1410  01D3  1C03               	btfss	3,0
  1411  01D4  29D6               	goto	u3231
  1412  01D5  29D7               	goto	u3230
  1413  01D6                     u3231:
  1414  01D6  2A13               	goto	l2311
  1415  01D7                     u3230:
  1416  01D7                     l2307:
  1417  01D7  3011               	movlw	low (((conversion_newton@R_tab+16)-__stringbase)| (0+32768))
  1418  01D8  0084               	movwf	4
  1419  01D9  160A  118A  2000  120A  118A  	fcall	stringdir
  1420  01DE  1683               	bsf	3,5	;RP0=1, select bank1
  1421  01DF  1303               	bcf	3,6	;RP1=0, select bank1
  1422  01E0  00A4               	movwf	??_conversion_newton^(0+128)
  1423  01E1  160A  118A  2000  120A  118A  	fcall	stringdir
  1424  01E6  00A5               	movwf	(??_conversion_newton^(0+128)+1)
  1425  01E7  160A  118A  2000  120A  118A  	fcall	stringdir
  1426  01EC  00A6               	movwf	(??_conversion_newton^(0+128)+2)
  1427  01ED  160A  118A  2000  120A  118A  	fcall	stringdir
  1428  01F2  00A7               	movwf	(??_conversion_newton^(0+128)+3)
  1429  01F3  0827               	movf	(??_conversion_newton+3)^(0+128),w
  1430  01F4  00F5               	movwf	___flge@ff1+3
  1431  01F5  0826               	movf	(??_conversion_newton+2)^(0+128),w
  1432  01F6  00F4               	movwf	___flge@ff1+2
  1433  01F7  0825               	movf	(??_conversion_newton+1)^(0+128),w
  1434  01F8  00F3               	movwf	___flge@ff1+1
  1435  01F9  0824               	movf	??_conversion_newton^(0+128),w
  1436  01FA  00F2               	movwf	___flge@ff1
  1437  01FB  0823               	movf	(conversion_newton@Rc+3)^(0+128),w
  1438  01FC  00F9               	movwf	___flge@ff2+3
  1439  01FD  0822               	movf	(conversion_newton@Rc+2)^(0+128),w
  1440  01FE  00F8               	movwf	___flge@ff2+2
  1441  01FF  0821               	movf	(conversion_newton@Rc+1)^(0+128),w
  1442  0200  00F7               	movwf	___flge@ff2+1
  1443  0201  0820               	movf	conversion_newton@Rc^(0+128),w
  1444  0202  00F6               	movwf	___flge@ff2
  1445  0203  160A  118A  275C  120A  118A  	fcall	___flge
  1446  0208  1803               	btfsc	3,0
  1447  0209  2A0B               	goto	u3241
  1448  020A  2A0C               	goto	u3240
  1449  020B                     u3241:
  1450  020B  2A13               	goto	l2311
  1451  020C                     u3240:
  1452  020C                     l2309:
  1453                           
  1454                           ;main.c: 191:          {;main.c: 192:          n = 4;
  1455  020C  3004               	movlw	4
  1456  020D  1683               	bsf	3,5	;RP0=1, select bank1
  1457  020E  1303               	bcf	3,6	;RP1=0, select bank1
  1458  020F  00C5               	movwf	conversion_newton@n^(0+128)
  1459  0210  3000               	movlw	0
  1460  0211  00C6               	movwf	(conversion_newton@n^(0+128)+1)
  1461                           
  1462                           ;main.c: 193:          }
  1463  0212  2C84               	goto	l2345
  1464  0213                     l2311:
  1465  0213  3019               	movlw	low (((conversion_newton@R_tab+24)-__stringbase)| (0+32768))
  1466  0214  0084               	movwf	4
  1467  0215  160A  118A  2000  120A  118A  	fcall	stringdir
  1468  021A  1683               	bsf	3,5	;RP0=1, select bank1
  1469  021B  1303               	bcf	3,6	;RP1=0, select bank1
  1470  021C  00A4               	movwf	??_conversion_newton^(0+128)
  1471  021D  160A  118A  2000  120A  118A  	fcall	stringdir
  1472  0222  00A5               	movwf	(??_conversion_newton^(0+128)+1)
  1473  0223  160A  118A  2000  120A  118A  	fcall	stringdir
  1474  0228  00A6               	movwf	(??_conversion_newton^(0+128)+2)
  1475  0229  160A  118A  2000  120A  118A  	fcall	stringdir
  1476  022E  00A7               	movwf	(??_conversion_newton^(0+128)+3)
  1477  022F  0827               	movf	(??_conversion_newton+3)^(0+128),w
  1478  0230  00F5               	movwf	___flge@ff1+3
  1479  0231  0826               	movf	(??_conversion_newton+2)^(0+128),w
  1480  0232  00F4               	movwf	___flge@ff1+2
  1481  0233  0825               	movf	(??_conversion_newton+1)^(0+128),w
  1482  0234  00F3               	movwf	___flge@ff1+1
  1483  0235  0824               	movf	??_conversion_newton^(0+128),w
  1484  0236  00F2               	movwf	___flge@ff1
  1485  0237  0823               	movf	(conversion_newton@Rc+3)^(0+128),w
  1486  0238  00F9               	movwf	___flge@ff2+3
  1487  0239  0822               	movf	(conversion_newton@Rc+2)^(0+128),w
  1488  023A  00F8               	movwf	___flge@ff2+2
  1489  023B  0821               	movf	(conversion_newton@Rc+1)^(0+128),w
  1490  023C  00F7               	movwf	___flge@ff2+1
  1491  023D  0820               	movf	conversion_newton@Rc^(0+128),w
  1492  023E  00F6               	movwf	___flge@ff2
  1493  023F  160A  118A  275C  120A  118A  	fcall	___flge
  1494  0244  1C03               	btfss	3,0
  1495  0245  2A47               	goto	u3251
  1496  0246  2A48               	goto	u3250
  1497  0247                     u3251:
  1498  0247  2A84               	goto	l2317
  1499  0248                     u3250:
  1500  0248                     l2313:
  1501  0248  3015               	movlw	low (((conversion_newton@R_tab+20)-__stringbase)| (0+32768))
  1502  0249  0084               	movwf	4
  1503  024A  160A  118A  2000  120A  118A  	fcall	stringdir
  1504  024F  1683               	bsf	3,5	;RP0=1, select bank1
  1505  0250  1303               	bcf	3,6	;RP1=0, select bank1
  1506  0251  00A4               	movwf	??_conversion_newton^(0+128)
  1507  0252  160A  118A  2000  120A  118A  	fcall	stringdir
  1508  0257  00A5               	movwf	(??_conversion_newton^(0+128)+1)
  1509  0258  160A  118A  2000  120A  118A  	fcall	stringdir
  1510  025D  00A6               	movwf	(??_conversion_newton^(0+128)+2)
  1511  025E  160A  118A  2000  120A  118A  	fcall	stringdir
  1512  0263  00A7               	movwf	(??_conversion_newton^(0+128)+3)
  1513  0264  0827               	movf	(??_conversion_newton+3)^(0+128),w
  1514  0265  00F5               	movwf	___flge@ff1+3
  1515  0266  0826               	movf	(??_conversion_newton+2)^(0+128),w
  1516  0267  00F4               	movwf	___flge@ff1+2
  1517  0268  0825               	movf	(??_conversion_newton+1)^(0+128),w
  1518  0269  00F3               	movwf	___flge@ff1+1
  1519  026A  0824               	movf	??_conversion_newton^(0+128),w
  1520  026B  00F2               	movwf	___flge@ff1
  1521  026C  0823               	movf	(conversion_newton@Rc+3)^(0+128),w
  1522  026D  00F9               	movwf	___flge@ff2+3
  1523  026E  0822               	movf	(conversion_newton@Rc+2)^(0+128),w
  1524  026F  00F8               	movwf	___flge@ff2+2
  1525  0270  0821               	movf	(conversion_newton@Rc+1)^(0+128),w
  1526  0271  00F7               	movwf	___flge@ff2+1
  1527  0272  0820               	movf	conversion_newton@Rc^(0+128),w
  1528  0273  00F6               	movwf	___flge@ff2
  1529  0274  160A  118A  275C  120A  118A  	fcall	___flge
  1530  0279  1803               	btfsc	3,0
  1531  027A  2A7C               	goto	u3261
  1532  027B  2A7D               	goto	u3260
  1533  027C                     u3261:
  1534  027C  2A84               	goto	l2317
  1535  027D                     u3260:
  1536  027D                     l2315:
  1537                           
  1538                           ;main.c: 195:          {;main.c: 196:          n = 5;
  1539  027D  3005               	movlw	5
  1540  027E  1683               	bsf	3,5	;RP0=1, select bank1
  1541  027F  1303               	bcf	3,6	;RP1=0, select bank1
  1542  0280  00C5               	movwf	conversion_newton@n^(0+128)
  1543  0281  3000               	movlw	0
  1544  0282  00C6               	movwf	(conversion_newton@n^(0+128)+1)
  1545                           
  1546                           ;main.c: 197:          }
  1547  0283  2C84               	goto	l2345
  1548  0284                     l2317:
  1549  0284  301D               	movlw	low (((conversion_newton@R_tab+28)-__stringbase)| (0+32768))
  1550  0285  0084               	movwf	4
  1551  0286  160A  118A  2000  120A  118A  	fcall	stringdir
  1552  028B  1683               	bsf	3,5	;RP0=1, select bank1
  1553  028C  1303               	bcf	3,6	;RP1=0, select bank1
  1554  028D  00A4               	movwf	??_conversion_newton^(0+128)
  1555  028E  160A  118A  2000  120A  118A  	fcall	stringdir
  1556  0293  00A5               	movwf	(??_conversion_newton^(0+128)+1)
  1557  0294  160A  118A  2000  120A  118A  	fcall	stringdir
  1558  0299  00A6               	movwf	(??_conversion_newton^(0+128)+2)
  1559  029A  160A  118A  2000  120A  118A  	fcall	stringdir
  1560  029F  00A7               	movwf	(??_conversion_newton^(0+128)+3)
  1561  02A0  0827               	movf	(??_conversion_newton+3)^(0+128),w
  1562  02A1  00F5               	movwf	___flge@ff1+3
  1563  02A2  0826               	movf	(??_conversion_newton+2)^(0+128),w
  1564  02A3  00F4               	movwf	___flge@ff1+2
  1565  02A4  0825               	movf	(??_conversion_newton+1)^(0+128),w
  1566  02A5  00F3               	movwf	___flge@ff1+1
  1567  02A6  0824               	movf	??_conversion_newton^(0+128),w
  1568  02A7  00F2               	movwf	___flge@ff1
  1569  02A8  0823               	movf	(conversion_newton@Rc+3)^(0+128),w
  1570  02A9  00F9               	movwf	___flge@ff2+3
  1571  02AA  0822               	movf	(conversion_newton@Rc+2)^(0+128),w
  1572  02AB  00F8               	movwf	___flge@ff2+2
  1573  02AC  0821               	movf	(conversion_newton@Rc+1)^(0+128),w
  1574  02AD  00F7               	movwf	___flge@ff2+1
  1575  02AE  0820               	movf	conversion_newton@Rc^(0+128),w
  1576  02AF  00F6               	movwf	___flge@ff2
  1577  02B0  160A  118A  275C  120A  118A  	fcall	___flge
  1578  02B5  1C03               	btfss	3,0
  1579  02B6  2AB8               	goto	u3271
  1580  02B7  2AB9               	goto	u3270
  1581  02B8                     u3271:
  1582  02B8  2AF5               	goto	l2323
  1583  02B9                     u3270:
  1584  02B9                     l2319:
  1585  02B9  3019               	movlw	low (((conversion_newton@R_tab+24)-__stringbase)| (0+32768))
  1586  02BA  0084               	movwf	4
  1587  02BB  160A  118A  2000  120A  118A  	fcall	stringdir
  1588  02C0  1683               	bsf	3,5	;RP0=1, select bank1
  1589  02C1  1303               	bcf	3,6	;RP1=0, select bank1
  1590  02C2  00A4               	movwf	??_conversion_newton^(0+128)
  1591  02C3  160A  118A  2000  120A  118A  	fcall	stringdir
  1592  02C8  00A5               	movwf	(??_conversion_newton^(0+128)+1)
  1593  02C9  160A  118A  2000  120A  118A  	fcall	stringdir
  1594  02CE  00A6               	movwf	(??_conversion_newton^(0+128)+2)
  1595  02CF  160A  118A  2000  120A  118A  	fcall	stringdir
  1596  02D4  00A7               	movwf	(??_conversion_newton^(0+128)+3)
  1597  02D5  0827               	movf	(??_conversion_newton+3)^(0+128),w
  1598  02D6  00F5               	movwf	___flge@ff1+3
  1599  02D7  0826               	movf	(??_conversion_newton+2)^(0+128),w
  1600  02D8  00F4               	movwf	___flge@ff1+2
  1601  02D9  0825               	movf	(??_conversion_newton+1)^(0+128),w
  1602  02DA  00F3               	movwf	___flge@ff1+1
  1603  02DB  0824               	movf	??_conversion_newton^(0+128),w
  1604  02DC  00F2               	movwf	___flge@ff1
  1605  02DD  0823               	movf	(conversion_newton@Rc+3)^(0+128),w
  1606  02DE  00F9               	movwf	___flge@ff2+3
  1607  02DF  0822               	movf	(conversion_newton@Rc+2)^(0+128),w
  1608  02E0  00F8               	movwf	___flge@ff2+2
  1609  02E1  0821               	movf	(conversion_newton@Rc+1)^(0+128),w
  1610  02E2  00F7               	movwf	___flge@ff2+1
  1611  02E3  0820               	movf	conversion_newton@Rc^(0+128),w
  1612  02E4  00F6               	movwf	___flge@ff2
  1613  02E5  160A  118A  275C  120A  118A  	fcall	___flge
  1614  02EA  1803               	btfsc	3,0
  1615  02EB  2AED               	goto	u3281
  1616  02EC  2AEE               	goto	u3280
  1617  02ED                     u3281:
  1618  02ED  2AF5               	goto	l2323
  1619  02EE                     u3280:
  1620  02EE                     l2321:
  1621                           
  1622                           ;main.c: 199:          {;main.c: 200:          n = 6;
  1623  02EE  3006               	movlw	6
  1624  02EF  1683               	bsf	3,5	;RP0=1, select bank1
  1625  02F0  1303               	bcf	3,6	;RP1=0, select bank1
  1626  02F1  00C5               	movwf	conversion_newton@n^(0+128)
  1627  02F2  3000               	movlw	0
  1628  02F3  00C6               	movwf	(conversion_newton@n^(0+128)+1)
  1629                           
  1630                           ;main.c: 201:          }
  1631  02F4  2C84               	goto	l2345
  1632  02F5                     l2323:
  1633  02F5  3021               	movlw	low (((conversion_newton@R_tab+32)-__stringbase)| (0+32768))
  1634  02F6  0084               	movwf	4
  1635  02F7  160A  118A  2000  120A  118A  	fcall	stringdir
  1636  02FC  1683               	bsf	3,5	;RP0=1, select bank1
  1637  02FD  1303               	bcf	3,6	;RP1=0, select bank1
  1638  02FE  00A4               	movwf	??_conversion_newton^(0+128)
  1639  02FF  160A  118A  2000  120A  118A  	fcall	stringdir
  1640  0304  00A5               	movwf	(??_conversion_newton^(0+128)+1)
  1641  0305  160A  118A  2000  120A  118A  	fcall	stringdir
  1642  030A  00A6               	movwf	(??_conversion_newton^(0+128)+2)
  1643  030B  160A  118A  2000  120A  118A  	fcall	stringdir
  1644  0310  00A7               	movwf	(??_conversion_newton^(0+128)+3)
  1645  0311  0827               	movf	(??_conversion_newton+3)^(0+128),w
  1646  0312  00F5               	movwf	___flge@ff1+3
  1647  0313  0826               	movf	(??_conversion_newton+2)^(0+128),w
  1648  0314  00F4               	movwf	___flge@ff1+2
  1649  0315  0825               	movf	(??_conversion_newton+1)^(0+128),w
  1650  0316  00F3               	movwf	___flge@ff1+1
  1651  0317  0824               	movf	??_conversion_newton^(0+128),w
  1652  0318  00F2               	movwf	___flge@ff1
  1653  0319  0823               	movf	(conversion_newton@Rc+3)^(0+128),w
  1654  031A  00F9               	movwf	___flge@ff2+3
  1655  031B  0822               	movf	(conversion_newton@Rc+2)^(0+128),w
  1656  031C  00F8               	movwf	___flge@ff2+2
  1657  031D  0821               	movf	(conversion_newton@Rc+1)^(0+128),w
  1658  031E  00F7               	movwf	___flge@ff2+1
  1659  031F  0820               	movf	conversion_newton@Rc^(0+128),w
  1660  0320  00F6               	movwf	___flge@ff2
  1661  0321  160A  118A  275C  120A  118A  	fcall	___flge
  1662  0326  1C03               	btfss	3,0
  1663  0327  2B29               	goto	u3291
  1664  0328  2B2A               	goto	u3290
  1665  0329                     u3291:
  1666  0329  2B66               	goto	l2329
  1667  032A                     u3290:
  1668  032A                     l2325:
  1669  032A  301D               	movlw	low (((conversion_newton@R_tab+28)-__stringbase)| (0+32768))
  1670  032B  0084               	movwf	4
  1671  032C  160A  118A  2000  120A  118A  	fcall	stringdir
  1672  0331  1683               	bsf	3,5	;RP0=1, select bank1
  1673  0332  1303               	bcf	3,6	;RP1=0, select bank1
  1674  0333  00A4               	movwf	??_conversion_newton^(0+128)
  1675  0334  160A  118A  2000  120A  118A  	fcall	stringdir
  1676  0339  00A5               	movwf	(??_conversion_newton^(0+128)+1)
  1677  033A  160A  118A  2000  120A  118A  	fcall	stringdir
  1678  033F  00A6               	movwf	(??_conversion_newton^(0+128)+2)
  1679  0340  160A  118A  2000  120A  118A  	fcall	stringdir
  1680  0345  00A7               	movwf	(??_conversion_newton^(0+128)+3)
  1681  0346  0827               	movf	(??_conversion_newton+3)^(0+128),w
  1682  0347  00F5               	movwf	___flge@ff1+3
  1683  0348  0826               	movf	(??_conversion_newton+2)^(0+128),w
  1684  0349  00F4               	movwf	___flge@ff1+2
  1685  034A  0825               	movf	(??_conversion_newton+1)^(0+128),w
  1686  034B  00F3               	movwf	___flge@ff1+1
  1687  034C  0824               	movf	??_conversion_newton^(0+128),w
  1688  034D  00F2               	movwf	___flge@ff1
  1689  034E  0823               	movf	(conversion_newton@Rc+3)^(0+128),w
  1690  034F  00F9               	movwf	___flge@ff2+3
  1691  0350  0822               	movf	(conversion_newton@Rc+2)^(0+128),w
  1692  0351  00F8               	movwf	___flge@ff2+2
  1693  0352  0821               	movf	(conversion_newton@Rc+1)^(0+128),w
  1694  0353  00F7               	movwf	___flge@ff2+1
  1695  0354  0820               	movf	conversion_newton@Rc^(0+128),w
  1696  0355  00F6               	movwf	___flge@ff2
  1697  0356  160A  118A  275C  120A  118A  	fcall	___flge
  1698  035B  1803               	btfsc	3,0
  1699  035C  2B5E               	goto	u3301
  1700  035D  2B5F               	goto	u3300
  1701  035E                     u3301:
  1702  035E  2B66               	goto	l2329
  1703  035F                     u3300:
  1704  035F                     l2327:
  1705                           
  1706                           ;main.c: 203:          {;main.c: 204:          n = 7;
  1707  035F  3007               	movlw	7
  1708  0360  1683               	bsf	3,5	;RP0=1, select bank1
  1709  0361  1303               	bcf	3,6	;RP1=0, select bank1
  1710  0362  00C5               	movwf	conversion_newton@n^(0+128)
  1711  0363  3000               	movlw	0
  1712  0364  00C6               	movwf	(conversion_newton@n^(0+128)+1)
  1713                           
  1714                           ;main.c: 205:          }
  1715  0365  2C84               	goto	l2345
  1716  0366                     l2329:
  1717  0366  3025               	movlw	low (((conversion_newton@R_tab+36)-__stringbase)| (0+32768))
  1718  0367  0084               	movwf	4
  1719  0368  160A  118A  2000  120A  118A  	fcall	stringdir
  1720  036D  1683               	bsf	3,5	;RP0=1, select bank1
  1721  036E  1303               	bcf	3,6	;RP1=0, select bank1
  1722  036F  00A4               	movwf	??_conversion_newton^(0+128)
  1723  0370  160A  118A  2000  120A  118A  	fcall	stringdir
  1724  0375  00A5               	movwf	(??_conversion_newton^(0+128)+1)
  1725  0376  160A  118A  2000  120A  118A  	fcall	stringdir
  1726  037B  00A6               	movwf	(??_conversion_newton^(0+128)+2)
  1727  037C  160A  118A  2000  120A  118A  	fcall	stringdir
  1728  0381  00A7               	movwf	(??_conversion_newton^(0+128)+3)
  1729  0382  0827               	movf	(??_conversion_newton+3)^(0+128),w
  1730  0383  00F5               	movwf	___flge@ff1+3
  1731  0384  0826               	movf	(??_conversion_newton+2)^(0+128),w
  1732  0385  00F4               	movwf	___flge@ff1+2
  1733  0386  0825               	movf	(??_conversion_newton+1)^(0+128),w
  1734  0387  00F3               	movwf	___flge@ff1+1
  1735  0388  0824               	movf	??_conversion_newton^(0+128),w
  1736  0389  00F2               	movwf	___flge@ff1
  1737  038A  0823               	movf	(conversion_newton@Rc+3)^(0+128),w
  1738  038B  00F9               	movwf	___flge@ff2+3
  1739  038C  0822               	movf	(conversion_newton@Rc+2)^(0+128),w
  1740  038D  00F8               	movwf	___flge@ff2+2
  1741  038E  0821               	movf	(conversion_newton@Rc+1)^(0+128),w
  1742  038F  00F7               	movwf	___flge@ff2+1
  1743  0390  0820               	movf	conversion_newton@Rc^(0+128),w
  1744  0391  00F6               	movwf	___flge@ff2
  1745  0392  160A  118A  275C  120A  118A  	fcall	___flge
  1746  0397  1C03               	btfss	3,0
  1747  0398  2B9A               	goto	u3311
  1748  0399  2B9B               	goto	u3310
  1749  039A                     u3311:
  1750  039A  2BD7               	goto	l2335
  1751  039B                     u3310:
  1752  039B                     l2331:
  1753  039B  3021               	movlw	low (((conversion_newton@R_tab+32)-__stringbase)| (0+32768))
  1754  039C  0084               	movwf	4
  1755  039D  160A  118A  2000  120A  118A  	fcall	stringdir
  1756  03A2  1683               	bsf	3,5	;RP0=1, select bank1
  1757  03A3  1303               	bcf	3,6	;RP1=0, select bank1
  1758  03A4  00A4               	movwf	??_conversion_newton^(0+128)
  1759  03A5  160A  118A  2000  120A  118A  	fcall	stringdir
  1760  03AA  00A5               	movwf	(??_conversion_newton^(0+128)+1)
  1761  03AB  160A  118A  2000  120A  118A  	fcall	stringdir
  1762  03B0  00A6               	movwf	(??_conversion_newton^(0+128)+2)
  1763  03B1  160A  118A  2000  120A  118A  	fcall	stringdir
  1764  03B6  00A7               	movwf	(??_conversion_newton^(0+128)+3)
  1765  03B7  0827               	movf	(??_conversion_newton+3)^(0+128),w
  1766  03B8  00F5               	movwf	___flge@ff1+3
  1767  03B9  0826               	movf	(??_conversion_newton+2)^(0+128),w
  1768  03BA  00F4               	movwf	___flge@ff1+2
  1769  03BB  0825               	movf	(??_conversion_newton+1)^(0+128),w
  1770  03BC  00F3               	movwf	___flge@ff1+1
  1771  03BD  0824               	movf	??_conversion_newton^(0+128),w
  1772  03BE  00F2               	movwf	___flge@ff1
  1773  03BF  0823               	movf	(conversion_newton@Rc+3)^(0+128),w
  1774  03C0  00F9               	movwf	___flge@ff2+3
  1775  03C1  0822               	movf	(conversion_newton@Rc+2)^(0+128),w
  1776  03C2  00F8               	movwf	___flge@ff2+2
  1777  03C3  0821               	movf	(conversion_newton@Rc+1)^(0+128),w
  1778  03C4  00F7               	movwf	___flge@ff2+1
  1779  03C5  0820               	movf	conversion_newton@Rc^(0+128),w
  1780  03C6  00F6               	movwf	___flge@ff2
  1781  03C7  160A  118A  275C  120A  118A  	fcall	___flge
  1782  03CC  1803               	btfsc	3,0
  1783  03CD  2BCF               	goto	u3321
  1784  03CE  2BD0               	goto	u3320
  1785  03CF                     u3321:
  1786  03CF  2BD7               	goto	l2335
  1787  03D0                     u3320:
  1788  03D0                     l2333:
  1789                           
  1790                           ;main.c: 207:          {;main.c: 208:          n = 8;
  1791  03D0  3008               	movlw	8
  1792  03D1  1683               	bsf	3,5	;RP0=1, select bank1
  1793  03D2  1303               	bcf	3,6	;RP1=0, select bank1
  1794  03D3  00C5               	movwf	conversion_newton@n^(0+128)
  1795  03D4  3000               	movlw	0
  1796  03D5  00C6               	movwf	(conversion_newton@n^(0+128)+1)
  1797                           
  1798                           ;main.c: 209:          }
  1799  03D6  2C84               	goto	l2345
  1800  03D7                     l2335:
  1801  03D7  3029               	movlw	low (((conversion_newton@R_tab+40)-__stringbase)| (0+32768))
  1802  03D8  0084               	movwf	4
  1803  03D9  160A  118A  2000  120A  118A  	fcall	stringdir
  1804  03DE  1683               	bsf	3,5	;RP0=1, select bank1
  1805  03DF  1303               	bcf	3,6	;RP1=0, select bank1
  1806  03E0  00A4               	movwf	??_conversion_newton^(0+128)
  1807  03E1  160A  118A  2000  120A  118A  	fcall	stringdir
  1808  03E6  00A5               	movwf	(??_conversion_newton^(0+128)+1)
  1809  03E7  160A  118A  2000  120A  118A  	fcall	stringdir
  1810  03EC  00A6               	movwf	(??_conversion_newton^(0+128)+2)
  1811  03ED  160A  118A  2000  120A  118A  	fcall	stringdir
  1812  03F2  00A7               	movwf	(??_conversion_newton^(0+128)+3)
  1813  03F3  0827               	movf	(??_conversion_newton+3)^(0+128),w
  1814  03F4  00F5               	movwf	___flge@ff1+3
  1815  03F5  0826               	movf	(??_conversion_newton+2)^(0+128),w
  1816  03F6  00F4               	movwf	___flge@ff1+2
  1817  03F7  0825               	movf	(??_conversion_newton+1)^(0+128),w
  1818  03F8  00F3               	movwf	___flge@ff1+1
  1819  03F9  0824               	movf	??_conversion_newton^(0+128),w
  1820  03FA  00F2               	movwf	___flge@ff1
  1821  03FB  0823               	movf	(conversion_newton@Rc+3)^(0+128),w
  1822  03FC  00F9               	movwf	___flge@ff2+3
  1823  03FD  0822               	movf	(conversion_newton@Rc+2)^(0+128),w
  1824  03FE  00F8               	movwf	___flge@ff2+2
  1825  03FF  0821               	movf	(conversion_newton@Rc+1)^(0+128),w
  1826  0400  00F7               	movwf	___flge@ff2+1
  1827  0401  0820               	movf	conversion_newton@Rc^(0+128),w
  1828  0402  00F6               	movwf	___flge@ff2
  1829  0403  160A  118A  275C  120A  118A  	fcall	___flge
  1830  0408  1C03               	btfss	3,0
  1831  0409  2C0B               	goto	u3331
  1832  040A  2C0C               	goto	u3330
  1833  040B                     u3331:
  1834  040B  2C48               	goto	l2341
  1835  040C                     u3330:
  1836  040C                     l2337:
  1837  040C  3025               	movlw	low (((conversion_newton@R_tab+36)-__stringbase)| (0+32768))
  1838  040D  0084               	movwf	4
  1839  040E  160A  118A  2000  120A  118A  	fcall	stringdir
  1840  0413  1683               	bsf	3,5	;RP0=1, select bank1
  1841  0414  1303               	bcf	3,6	;RP1=0, select bank1
  1842  0415  00A4               	movwf	??_conversion_newton^(0+128)
  1843  0416  160A  118A  2000  120A  118A  	fcall	stringdir
  1844  041B  00A5               	movwf	(??_conversion_newton^(0+128)+1)
  1845  041C  160A  118A  2000  120A  118A  	fcall	stringdir
  1846  0421  00A6               	movwf	(??_conversion_newton^(0+128)+2)
  1847  0422  160A  118A  2000  120A  118A  	fcall	stringdir
  1848  0427  00A7               	movwf	(??_conversion_newton^(0+128)+3)
  1849  0428  0827               	movf	(??_conversion_newton+3)^(0+128),w
  1850  0429  00F5               	movwf	___flge@ff1+3
  1851  042A  0826               	movf	(??_conversion_newton+2)^(0+128),w
  1852  042B  00F4               	movwf	___flge@ff1+2
  1853  042C  0825               	movf	(??_conversion_newton+1)^(0+128),w
  1854  042D  00F3               	movwf	___flge@ff1+1
  1855  042E  0824               	movf	??_conversion_newton^(0+128),w
  1856  042F  00F2               	movwf	___flge@ff1
  1857  0430  0823               	movf	(conversion_newton@Rc+3)^(0+128),w
  1858  0431  00F9               	movwf	___flge@ff2+3
  1859  0432  0822               	movf	(conversion_newton@Rc+2)^(0+128),w
  1860  0433  00F8               	movwf	___flge@ff2+2
  1861  0434  0821               	movf	(conversion_newton@Rc+1)^(0+128),w
  1862  0435  00F7               	movwf	___flge@ff2+1
  1863  0436  0820               	movf	conversion_newton@Rc^(0+128),w
  1864  0437  00F6               	movwf	___flge@ff2
  1865  0438  160A  118A  275C  120A  118A  	fcall	___flge
  1866  043D  1803               	btfsc	3,0
  1867  043E  2C40               	goto	u3341
  1868  043F  2C41               	goto	u3340
  1869  0440                     u3341:
  1870  0440  2C48               	goto	l2341
  1871  0441                     u3340:
  1872  0441                     l2339:
  1873                           
  1874                           ;main.c: 211:          {;main.c: 212:          n = 9;
  1875  0441  3009               	movlw	9
  1876  0442  1683               	bsf	3,5	;RP0=1, select bank1
  1877  0443  1303               	bcf	3,6	;RP1=0, select bank1
  1878  0444  00C5               	movwf	conversion_newton@n^(0+128)
  1879  0445  3000               	movlw	0
  1880  0446  00C6               	movwf	(conversion_newton@n^(0+128)+1)
  1881                           
  1882                           ;main.c: 213:          }
  1883  0447  2C84               	goto	l2345
  1884  0448                     l2341:
  1885  0448  3029               	movlw	low (((conversion_newton@R_tab+40)-__stringbase)| (0+32768))
  1886  0449  0084               	movwf	4
  1887  044A  160A  118A  2000  120A  118A  	fcall	stringdir
  1888  044F  1683               	bsf	3,5	;RP0=1, select bank1
  1889  0450  1303               	bcf	3,6	;RP1=0, select bank1
  1890  0451  00A4               	movwf	??_conversion_newton^(0+128)
  1891  0452  160A  118A  2000  120A  118A  	fcall	stringdir
  1892  0457  00A5               	movwf	(??_conversion_newton^(0+128)+1)
  1893  0458  160A  118A  2000  120A  118A  	fcall	stringdir
  1894  045D  00A6               	movwf	(??_conversion_newton^(0+128)+2)
  1895  045E  160A  118A  2000  120A  118A  	fcall	stringdir
  1896  0463  00A7               	movwf	(??_conversion_newton^(0+128)+3)
  1897  0464  0827               	movf	(??_conversion_newton+3)^(0+128),w
  1898  0465  00F5               	movwf	___flge@ff1+3
  1899  0466  0826               	movf	(??_conversion_newton+2)^(0+128),w
  1900  0467  00F4               	movwf	___flge@ff1+2
  1901  0468  0825               	movf	(??_conversion_newton+1)^(0+128),w
  1902  0469  00F3               	movwf	___flge@ff1+1
  1903  046A  0824               	movf	??_conversion_newton^(0+128),w
  1904  046B  00F2               	movwf	___flge@ff1
  1905  046C  0823               	movf	(conversion_newton@Rc+3)^(0+128),w
  1906  046D  00F9               	movwf	___flge@ff2+3
  1907  046E  0822               	movf	(conversion_newton@Rc+2)^(0+128),w
  1908  046F  00F8               	movwf	___flge@ff2+2
  1909  0470  0821               	movf	(conversion_newton@Rc+1)^(0+128),w
  1910  0471  00F7               	movwf	___flge@ff2+1
  1911  0472  0820               	movf	conversion_newton@Rc^(0+128),w
  1912  0473  00F6               	movwf	___flge@ff2
  1913  0474  160A  118A  275C  120A  118A  	fcall	___flge
  1914  0479  1803               	btfsc	3,0
  1915  047A  2C7C               	goto	u3351
  1916  047B  2C7D               	goto	u3350
  1917  047C                     u3351:
  1918  047C  2C84               	goto	l66
  1919  047D                     u3350:
  1920  047D                     l2343:
  1921                           
  1922                           ;main.c: 215:          {;main.c: 216:          n = 10;
  1923  047D  300A               	movlw	10
  1924  047E  1683               	bsf	3,5	;RP0=1, select bank1
  1925  047F  1303               	bcf	3,6	;RP1=0, select bank1
  1926  0480  00C5               	movwf	conversion_newton@n^(0+128)
  1927  0481  3000               	movlw	0
  1928  0482  00C6               	movwf	(conversion_newton@n^(0+128)+1)
  1929  0483  2C84               	goto	l2345
  1930  0484                     l66:
  1931  0484                     l2345:
  1932                           
  1933                           ;main.c: 218:      F = (((F_tab[n]-F_tab[n+1])/(R_tab[n+1]-R_tab[n]))*(Rc-R_tab[n]))+F_t
      +                          ab[n];
  1934  0484  1683               	bsf	3,5	;RP0=1, select bank1
  1935  0485  1303               	bcf	3,6	;RP1=0, select bank1
  1936  0486  0845               	movf	conversion_newton@n^(0+128),w
  1937  0487  00A4               	movwf	??_conversion_newton^(0+128)
  1938  0488  3001               	movlw	1
  1939  0489                     u3365:
  1940  0489  1003               	clrc
  1941  048A  0DA4               	rlf	??_conversion_newton^(0+128),f
  1942  048B  3EFF               	addlw	-1
  1943  048C  1D03               	skipz
  1944  048D  2C89               	goto	u3365
  1945  048E  1003               	clrc
  1946  048F  0D24               	rlf	??_conversion_newton^(0+128),w
  1947  0490  3E01               	addlw	low ((conversion_newton@R_tab-__stringbase)| (0+32768))
  1948  0491  0084               	movwf	4
  1949  0492  160A  118A  2000  120A  118A  	fcall	stringdir
  1950  0497  00A5               	movwf	(??_conversion_newton+1)^(0+128)
  1951  0498  160A  118A  2000  120A  118A  	fcall	stringdir
  1952  049D  00A6               	movwf	((??_conversion_newton+1)^(0+128)+1)
  1953  049E  160A  118A  2000  120A  118A  	fcall	stringdir
  1954  04A3  00A7               	movwf	((??_conversion_newton+1)^(0+128)+2)
  1955  04A4  160A  118A  2000  120A  118A  	fcall	stringdir
  1956  04A9  00A8               	movwf	((??_conversion_newton+1)^(0+128)+3)
  1957  04AA  0828               	movf	(??_conversion_newton+4)^(0+128),w
  1958  04AB  1283               	bcf	3,5	;RP0=0, select bank0
  1959  04AC  1303               	bcf	3,6	;RP1=0, select bank0
  1960  04AD  00B7               	movwf	___flsub@a+3
  1961  04AE  1683               	bsf	3,5	;RP0=1, select bank1
  1962  04AF  1303               	bcf	3,6	;RP1=0, select bank1
  1963  04B0  0827               	movf	(??_conversion_newton+3)^(0+128),w
  1964  04B1  1283               	bcf	3,5	;RP0=0, select bank0
  1965  04B2  1303               	bcf	3,6	;RP1=0, select bank0
  1966  04B3  00B6               	movwf	___flsub@a+2
  1967  04B4  1683               	bsf	3,5	;RP0=1, select bank1
  1968  04B5  1303               	bcf	3,6	;RP1=0, select bank1
  1969  04B6  0826               	movf	(??_conversion_newton+2)^(0+128),w
  1970  04B7  1283               	bcf	3,5	;RP0=0, select bank0
  1971  04B8  1303               	bcf	3,6	;RP1=0, select bank0
  1972  04B9  00B5               	movwf	___flsub@a+1
  1973  04BA  1683               	bsf	3,5	;RP0=1, select bank1
  1974  04BB  1303               	bcf	3,6	;RP1=0, select bank1
  1975  04BC  0825               	movf	(??_conversion_newton+1)^(0+128),w
  1976  04BD  1283               	bcf	3,5	;RP0=0, select bank0
  1977  04BE  1303               	bcf	3,6	;RP1=0, select bank0
  1978  04BF  00B4               	movwf	___flsub@a
  1979  04C0  1683               	bsf	3,5	;RP0=1, select bank1
  1980  04C1  1303               	bcf	3,6	;RP1=0, select bank1
  1981  04C2  0823               	movf	(conversion_newton@Rc+3)^(0+128),w
  1982  04C3  1283               	bcf	3,5	;RP0=0, select bank0
  1983  04C4  1303               	bcf	3,6	;RP1=0, select bank0
  1984  04C5  00BB               	movwf	___flsub@b+3
  1985  04C6  1683               	bsf	3,5	;RP0=1, select bank1
  1986  04C7  1303               	bcf	3,6	;RP1=0, select bank1
  1987  04C8  0822               	movf	(conversion_newton@Rc+2)^(0+128),w
  1988  04C9  1283               	bcf	3,5	;RP0=0, select bank0
  1989  04CA  1303               	bcf	3,6	;RP1=0, select bank0
  1990  04CB  00BA               	movwf	___flsub@b+2
  1991  04CC  1683               	bsf	3,5	;RP0=1, select bank1
  1992  04CD  1303               	bcf	3,6	;RP1=0, select bank1
  1993  04CE  0821               	movf	(conversion_newton@Rc+1)^(0+128),w
  1994  04CF  1283               	bcf	3,5	;RP0=0, select bank0
  1995  04D0  1303               	bcf	3,6	;RP1=0, select bank0
  1996  04D1  00B9               	movwf	___flsub@b+1
  1997  04D2  1683               	bsf	3,5	;RP0=1, select bank1
  1998  04D3  1303               	bcf	3,6	;RP1=0, select bank1
  1999  04D4  0820               	movf	conversion_newton@Rc^(0+128),w
  2000  04D5  1283               	bcf	3,5	;RP0=0, select bank0
  2001  04D6  1303               	bcf	3,6	;RP1=0, select bank0
  2002  04D7  00B8               	movwf	___flsub@b
  2003  04D8  160A  118A  25CC  120A  118A  	fcall	___flsub
  2004  04DD  1283               	bcf	3,5	;RP0=0, select bank0
  2005  04DE  1303               	bcf	3,6	;RP1=0, select bank0
  2006  04DF  0837               	movf	?___flsub+3,w
  2007  04E0  00D9               	movwf	___flmul@b+3
  2008  04E1  0836               	movf	?___flsub+2,w
  2009  04E2  00D8               	movwf	___flmul@b+2
  2010  04E3  0835               	movf	?___flsub+1,w
  2011  04E4  00D7               	movwf	___flmul@b+1
  2012  04E5  0834               	movf	?___flsub,w
  2013  04E6  00D6               	movwf	___flmul@b
  2014  04E7  1683               	bsf	3,5	;RP0=1, select bank1
  2015  04E8  1303               	bcf	3,6	;RP1=0, select bank1
  2016  04E9  0845               	movf	conversion_newton@n^(0+128),w
  2017  04EA  00A9               	movwf	(??_conversion_newton+5)^(0+128)
  2018  04EB  3001               	movlw	1
  2019  04EC                     u3375:
  2020  04EC  1003               	clrc
  2021  04ED  0DA9               	rlf	(??_conversion_newton+5)^(0+128),f
  2022  04EE  3EFF               	addlw	-1
  2023  04EF  1D03               	skipz
  2024  04F0  2CEC               	goto	u3375
  2025  04F1  1003               	clrc
  2026  04F2  0D29               	rlf	(??_conversion_newton+5)^(0+128),w
  2027  04F3  3E01               	addlw	low ((conversion_newton@R_tab-__stringbase)| (0+32768))
  2028  04F4  0084               	movwf	4
  2029  04F5  160A  118A  2000  120A  118A  	fcall	stringdir
  2030  04FA  00AA               	movwf	(??_conversion_newton+6)^(0+128)
  2031  04FB  160A  118A  2000  120A  118A  	fcall	stringdir
  2032  0500  00AB               	movwf	((??_conversion_newton+6)^(0+128)+1)
  2033  0501  160A  118A  2000  120A  118A  	fcall	stringdir
  2034  0506  00AC               	movwf	((??_conversion_newton+6)^(0+128)+2)
  2035  0507  160A  118A  2000  120A  118A  	fcall	stringdir
  2036  050C  00AD               	movwf	((??_conversion_newton+6)^(0+128)+3)
  2037  050D  082D               	movf	(??_conversion_newton+9)^(0+128),w
  2038  050E  1283               	bcf	3,5	;RP0=0, select bank0
  2039  050F  1303               	bcf	3,6	;RP1=0, select bank0
  2040  0510  00B7               	movwf	___flsub@a+3
  2041  0511  1683               	bsf	3,5	;RP0=1, select bank1
  2042  0512  1303               	bcf	3,6	;RP1=0, select bank1
  2043  0513  082C               	movf	(??_conversion_newton+8)^(0+128),w
  2044  0514  1283               	bcf	3,5	;RP0=0, select bank0
  2045  0515  1303               	bcf	3,6	;RP1=0, select bank0
  2046  0516  00B6               	movwf	___flsub@a+2
  2047  0517  1683               	bsf	3,5	;RP0=1, select bank1
  2048  0518  1303               	bcf	3,6	;RP1=0, select bank1
  2049  0519  082B               	movf	(??_conversion_newton+7)^(0+128),w
  2050  051A  1283               	bcf	3,5	;RP0=0, select bank0
  2051  051B  1303               	bcf	3,6	;RP1=0, select bank0
  2052  051C  00B5               	movwf	___flsub@a+1
  2053  051D  1683               	bsf	3,5	;RP0=1, select bank1
  2054  051E  1303               	bcf	3,6	;RP1=0, select bank1
  2055  051F  082A               	movf	(??_conversion_newton+6)^(0+128),w
  2056  0520  1283               	bcf	3,5	;RP0=0, select bank0
  2057  0521  1303               	bcf	3,6	;RP1=0, select bank0
  2058  0522  00B4               	movwf	___flsub@a
  2059  0523  1683               	bsf	3,5	;RP0=1, select bank1
  2060  0524  1303               	bcf	3,6	;RP1=0, select bank1
  2061  0525  0845               	movf	conversion_newton@n^(0+128),w
  2062  0526  00AE               	movwf	(??_conversion_newton+10)^(0+128)
  2063  0527  3001               	movlw	1
  2064  0528                     u3385:
  2065  0528  1003               	clrc
  2066  0529  0DAE               	rlf	(??_conversion_newton+10)^(0+128),f
  2067  052A  3EFF               	addlw	-1
  2068  052B  1D03               	skipz
  2069  052C  2D28               	goto	u3385
  2070  052D  1003               	clrc
  2071  052E  0D2E               	rlf	(??_conversion_newton+10)^(0+128),w
  2072  052F  3E05               	addlw	low (((conversion_newton@R_tab-__stringbase)| (0+32768)+4))
  2073  0530  0084               	movwf	4
  2074  0531  160A  118A  2000  120A  118A  	fcall	stringdir
  2075  0536  00AF               	movwf	(??_conversion_newton+11)^(0+128)
  2076  0537  160A  118A  2000  120A  118A  	fcall	stringdir
  2077  053C  00B0               	movwf	((??_conversion_newton+11)^(0+128)+1)
  2078  053D  160A  118A  2000  120A  118A  	fcall	stringdir
  2079  0542  00B1               	movwf	((??_conversion_newton+11)^(0+128)+2)
  2080  0543  160A  118A  2000  120A  118A  	fcall	stringdir
  2081  0548  00B2               	movwf	((??_conversion_newton+11)^(0+128)+3)
  2082  0549  0832               	movf	(??_conversion_newton+14)^(0+128),w
  2083  054A  1283               	bcf	3,5	;RP0=0, select bank0
  2084  054B  1303               	bcf	3,6	;RP1=0, select bank0
  2085  054C  00BB               	movwf	___flsub@b+3
  2086  054D  1683               	bsf	3,5	;RP0=1, select bank1
  2087  054E  1303               	bcf	3,6	;RP1=0, select bank1
  2088  054F  0831               	movf	(??_conversion_newton+13)^(0+128),w
  2089  0550  1283               	bcf	3,5	;RP0=0, select bank0
  2090  0551  1303               	bcf	3,6	;RP1=0, select bank0
  2091  0552  00BA               	movwf	___flsub@b+2
  2092  0553  1683               	bsf	3,5	;RP0=1, select bank1
  2093  0554  1303               	bcf	3,6	;RP1=0, select bank1
  2094  0555  0830               	movf	(??_conversion_newton+12)^(0+128),w
  2095  0556  1283               	bcf	3,5	;RP0=0, select bank0
  2096  0557  1303               	bcf	3,6	;RP1=0, select bank0
  2097  0558  00B9               	movwf	___flsub@b+1
  2098  0559  1683               	bsf	3,5	;RP0=1, select bank1
  2099  055A  1303               	bcf	3,6	;RP1=0, select bank1
  2100  055B  082F               	movf	(??_conversion_newton+11)^(0+128),w
  2101  055C  1283               	bcf	3,5	;RP0=0, select bank0
  2102  055D  1303               	bcf	3,6	;RP1=0, select bank0
  2103  055E  00B8               	movwf	___flsub@b
  2104  055F  160A  118A  25CC  120A  118A  	fcall	___flsub
  2105  0564  1283               	bcf	3,5	;RP0=0, select bank0
  2106  0565  1303               	bcf	3,6	;RP1=0, select bank0
  2107  0566  0837               	movf	?___flsub+3,w
  2108  0567  00BF               	movwf	___fldiv@a+3
  2109  0568  0836               	movf	?___flsub+2,w
  2110  0569  00BE               	movwf	___fldiv@a+2
  2111  056A  0835               	movf	?___flsub+1,w
  2112  056B  00BD               	movwf	___fldiv@a+1
  2113  056C  0834               	movf	?___flsub,w
  2114  056D  00BC               	movwf	___fldiv@a
  2115  056E  1683               	bsf	3,5	;RP0=1, select bank1
  2116  056F  1303               	bcf	3,6	;RP1=0, select bank1
  2117  0570  0845               	movf	conversion_newton@n^(0+128),w
  2118  0571  00B3               	movwf	(??_conversion_newton+15)^(0+128)
  2119  0572  3001               	movlw	1
  2120  0573                     u3395:
  2121  0573  1003               	clrc
  2122  0574  0DB3               	rlf	(??_conversion_newton+15)^(0+128),f
  2123  0575  3EFF               	addlw	-1
  2124  0576  1D03               	skipz
  2125  0577  2D73               	goto	u3395
  2126  0578  1003               	clrc
  2127  0579  0D33               	rlf	(??_conversion_newton+15)^(0+128),w
  2128  057A  3E55               	addlw	low (((conversion_newton@F_tab-__stringbase)| (0+32768)+4))
  2129  057B  0084               	movwf	4
  2130  057C  160A  118A  2000  120A  118A  	fcall	stringdir
  2131  0581  00B4               	movwf	(??_conversion_newton+16)^(0+128)
  2132  0582  160A  118A  2000  120A  118A  	fcall	stringdir
  2133  0587  00B5               	movwf	((??_conversion_newton+16)^(0+128)+1)
  2134  0588  160A  118A  2000  120A  118A  	fcall	stringdir
  2135  058D  00B6               	movwf	((??_conversion_newton+16)^(0+128)+2)
  2136  058E  160A  118A  2000  120A  118A  	fcall	stringdir
  2137  0593  00B7               	movwf	((??_conversion_newton+16)^(0+128)+3)
  2138  0594  0837               	movf	(??_conversion_newton+19)^(0+128),w
  2139  0595  1283               	bcf	3,5	;RP0=0, select bank0
  2140  0596  1303               	bcf	3,6	;RP1=0, select bank0
  2141  0597  00B7               	movwf	___flsub@a+3
  2142  0598  1683               	bsf	3,5	;RP0=1, select bank1
  2143  0599  1303               	bcf	3,6	;RP1=0, select bank1
  2144  059A  0836               	movf	(??_conversion_newton+18)^(0+128),w
  2145  059B  1283               	bcf	3,5	;RP0=0, select bank0
  2146  059C  1303               	bcf	3,6	;RP1=0, select bank0
  2147  059D  00B6               	movwf	___flsub@a+2
  2148  059E  1683               	bsf	3,5	;RP0=1, select bank1
  2149  059F  1303               	bcf	3,6	;RP1=0, select bank1
  2150  05A0  0835               	movf	(??_conversion_newton+17)^(0+128),w
  2151  05A1  1283               	bcf	3,5	;RP0=0, select bank0
  2152  05A2  1303               	bcf	3,6	;RP1=0, select bank0
  2153  05A3  00B5               	movwf	___flsub@a+1
  2154  05A4  1683               	bsf	3,5	;RP0=1, select bank1
  2155  05A5  1303               	bcf	3,6	;RP1=0, select bank1
  2156  05A6  0834               	movf	(??_conversion_newton+16)^(0+128),w
  2157  05A7  1283               	bcf	3,5	;RP0=0, select bank0
  2158  05A8  1303               	bcf	3,6	;RP1=0, select bank0
  2159  05A9  00B4               	movwf	___flsub@a
  2160  05AA  1683               	bsf	3,5	;RP0=1, select bank1
  2161  05AB  1303               	bcf	3,6	;RP1=0, select bank1
  2162  05AC  0845               	movf	conversion_newton@n^(0+128),w
  2163  05AD  00B8               	movwf	(??_conversion_newton+20)^(0+128)
  2164  05AE  3001               	movlw	1
  2165  05AF                     u3405:
  2166  05AF  1003               	clrc
  2167  05B0  0DB8               	rlf	(??_conversion_newton+20)^(0+128),f
  2168  05B1  3EFF               	addlw	-1
  2169  05B2  1D03               	skipz
  2170  05B3  2DAF               	goto	u3405
  2171  05B4  1003               	clrc
  2172  05B5  0D38               	rlf	(??_conversion_newton+20)^(0+128),w
  2173  05B6  3E51               	addlw	low ((conversion_newton@F_tab-__stringbase)| (0+32768))
  2174  05B7  0084               	movwf	4
  2175  05B8  160A  118A  2000  120A  118A  	fcall	stringdir
  2176  05BD  00B9               	movwf	(??_conversion_newton+21)^(0+128)
  2177  05BE  160A  118A  2000  120A  118A  	fcall	stringdir
  2178  05C3  00BA               	movwf	((??_conversion_newton+21)^(0+128)+1)
  2179  05C4  160A  118A  2000  120A  118A  	fcall	stringdir
  2180  05C9  00BB               	movwf	((??_conversion_newton+21)^(0+128)+2)
  2181  05CA  160A  118A  2000  120A  118A  	fcall	stringdir
  2182  05CF  00BC               	movwf	((??_conversion_newton+21)^(0+128)+3)
  2183  05D0  083C               	movf	(??_conversion_newton+24)^(0+128),w
  2184  05D1  1283               	bcf	3,5	;RP0=0, select bank0
  2185  05D2  1303               	bcf	3,6	;RP1=0, select bank0
  2186  05D3  00BB               	movwf	___flsub@b+3
  2187  05D4  1683               	bsf	3,5	;RP0=1, select bank1
  2188  05D5  1303               	bcf	3,6	;RP1=0, select bank1
  2189  05D6  083B               	movf	(??_conversion_newton+23)^(0+128),w
  2190  05D7  1283               	bcf	3,5	;RP0=0, select bank0
  2191  05D8  1303               	bcf	3,6	;RP1=0, select bank0
  2192  05D9  00BA               	movwf	___flsub@b+2
  2193  05DA  1683               	bsf	3,5	;RP0=1, select bank1
  2194  05DB  1303               	bcf	3,6	;RP1=0, select bank1
  2195  05DC  083A               	movf	(??_conversion_newton+22)^(0+128),w
  2196  05DD  1283               	bcf	3,5	;RP0=0, select bank0
  2197  05DE  1303               	bcf	3,6	;RP1=0, select bank0
  2198  05DF  00B9               	movwf	___flsub@b+1
  2199  05E0  1683               	bsf	3,5	;RP0=1, select bank1
  2200  05E1  1303               	bcf	3,6	;RP1=0, select bank1
  2201  05E2  0839               	movf	(??_conversion_newton+21)^(0+128),w
  2202  05E3  1283               	bcf	3,5	;RP0=0, select bank0
  2203  05E4  1303               	bcf	3,6	;RP1=0, select bank0
  2204  05E5  00B8               	movwf	___flsub@b
  2205  05E6  160A  118A  25CC  120A  118A  	fcall	___flsub
  2206  05EB  1283               	bcf	3,5	;RP0=0, select bank0
  2207  05EC  1303               	bcf	3,6	;RP1=0, select bank0
  2208  05ED  0837               	movf	?___flsub+3,w
  2209  05EE  00C3               	movwf	___fldiv@b+3
  2210  05EF  0836               	movf	?___flsub+2,w
  2211  05F0  00C2               	movwf	___fldiv@b+2
  2212  05F1  0835               	movf	?___flsub+1,w
  2213  05F2  00C1               	movwf	___fldiv@b+1
  2214  05F3  0834               	movf	?___flsub,w
  2215  05F4  00C0               	movwf	___fldiv@b
  2216  05F5  120A  158A  203A  120A  118A  	fcall	___fldiv
  2217  05FA  1283               	bcf	3,5	;RP0=0, select bank0
  2218  05FB  1303               	bcf	3,6	;RP1=0, select bank0
  2219  05FC  083F               	movf	?___fldiv+3,w
  2220  05FD  00DD               	movwf	___flmul@a+3
  2221  05FE  083E               	movf	?___fldiv+2,w
  2222  05FF  00DC               	movwf	___flmul@a+2
  2223  0600  083D               	movf	?___fldiv+1,w
  2224  0601  00DB               	movwf	___flmul@a+1
  2225  0602  083C               	movf	?___fldiv,w
  2226  0603  00DA               	movwf	___flmul@a
  2227  0604  120A  158A  249F  120A  118A  	fcall	___flmul
  2228  0609  1283               	bcf	3,5	;RP0=0, select bank0
  2229  060A  1303               	bcf	3,6	;RP1=0, select bank0
  2230  060B  0859               	movf	?___flmul+3,w
  2231  060C  1683               	bsf	3,5	;RP0=1, select bank1
  2232  060D  1303               	bcf	3,6	;RP1=0, select bank1
  2233  060E  00C0               	movwf	(_conversion_newton$764+3)^(0+128)
  2234  060F  1283               	bcf	3,5	;RP0=0, select bank0
  2235  0610  1303               	bcf	3,6	;RP1=0, select bank0
  2236  0611  0858               	movf	?___flmul+2,w
  2237  0612  1683               	bsf	3,5	;RP0=1, select bank1
  2238  0613  1303               	bcf	3,6	;RP1=0, select bank1
  2239  0614  00BF               	movwf	(_conversion_newton$764+2)^(0+128)
  2240  0615  1283               	bcf	3,5	;RP0=0, select bank0
  2241  0616  1303               	bcf	3,6	;RP1=0, select bank0
  2242  0617  0857               	movf	?___flmul+1,w
  2243  0618  1683               	bsf	3,5	;RP0=1, select bank1
  2244  0619  1303               	bcf	3,6	;RP1=0, select bank1
  2245  061A  00BE               	movwf	(_conversion_newton$764+1)^(0+128)
  2246  061B  1283               	bcf	3,5	;RP0=0, select bank0
  2247  061C  1303               	bcf	3,6	;RP1=0, select bank0
  2248  061D  0856               	movf	?___flmul,w
  2249  061E  1683               	bsf	3,5	;RP0=1, select bank1
  2250  061F  1303               	bcf	3,6	;RP1=0, select bank1
  2251  0620  00BD               	movwf	_conversion_newton$764^(0+128)
  2252  0621                     l2347:
  2253                           
  2254                           ;main.c: 218:      F = (((F_tab[n]-F_tab[n+1])/(R_tab[n+1]-R_tab[n]))*(Rc-R_tab[n]))+F_t
      +                          ab[n];
  2255  0621  0845               	movf	conversion_newton@n^(0+128),w
  2256  0622  00A4               	movwf	??_conversion_newton^(0+128)
  2257  0623  3001               	movlw	1
  2258  0624                     u3415:
  2259  0624  1003               	clrc
  2260  0625  0DA4               	rlf	??_conversion_newton^(0+128),f
  2261  0626  3EFF               	addlw	-1
  2262  0627  1D03               	skipz
  2263  0628  2E24               	goto	u3415
  2264  0629  1003               	clrc
  2265  062A  0D24               	rlf	??_conversion_newton^(0+128),w
  2266  062B  3E51               	addlw	low ((conversion_newton@F_tab-__stringbase)| (0+32768))
  2267  062C  0084               	movwf	4
  2268  062D  160A  118A  2000  120A  118A  	fcall	stringdir
  2269  0632  00A5               	movwf	(??_conversion_newton+1)^(0+128)
  2270  0633  160A  118A  2000  120A  118A  	fcall	stringdir
  2271  0638  00A6               	movwf	((??_conversion_newton+1)^(0+128)+1)
  2272  0639  160A  118A  2000  120A  118A  	fcall	stringdir
  2273  063E  00A7               	movwf	((??_conversion_newton+1)^(0+128)+2)
  2274  063F  160A  118A  2000  120A  118A  	fcall	stringdir
  2275  0644  00A8               	movwf	((??_conversion_newton+1)^(0+128)+3)
  2276  0645  0828               	movf	(??_conversion_newton+4)^(0+128),w
  2277  0646  1283               	bcf	3,5	;RP0=0, select bank0
  2278  0647  1303               	bcf	3,6	;RP1=0, select bank0
  2279  0648  00A3               	movwf	___fladd@b+3
  2280  0649  1683               	bsf	3,5	;RP0=1, select bank1
  2281  064A  1303               	bcf	3,6	;RP1=0, select bank1
  2282  064B  0827               	movf	(??_conversion_newton+3)^(0+128),w
  2283  064C  1283               	bcf	3,5	;RP0=0, select bank0
  2284  064D  1303               	bcf	3,6	;RP1=0, select bank0
  2285  064E  00A2               	movwf	___fladd@b+2
  2286  064F  1683               	bsf	3,5	;RP0=1, select bank1
  2287  0650  1303               	bcf	3,6	;RP1=0, select bank1
  2288  0651  0826               	movf	(??_conversion_newton+2)^(0+128),w
  2289  0652  1283               	bcf	3,5	;RP0=0, select bank0
  2290  0653  1303               	bcf	3,6	;RP1=0, select bank0
  2291  0654  00A1               	movwf	___fladd@b+1
  2292  0655  1683               	bsf	3,5	;RP0=1, select bank1
  2293  0656  1303               	bcf	3,6	;RP1=0, select bank1
  2294  0657  0825               	movf	(??_conversion_newton+1)^(0+128),w
  2295  0658  1283               	bcf	3,5	;RP0=0, select bank0
  2296  0659  1303               	bcf	3,6	;RP1=0, select bank0
  2297  065A  00A0               	movwf	___fladd@b
  2298  065B  1683               	bsf	3,5	;RP0=1, select bank1
  2299  065C  1303               	bcf	3,6	;RP1=0, select bank1
  2300  065D  0840               	movf	(_conversion_newton$764+3)^(0+128),w
  2301  065E  1283               	bcf	3,5	;RP0=0, select bank0
  2302  065F  1303               	bcf	3,6	;RP1=0, select bank0
  2303  0660  00A7               	movwf	___fladd@a+3
  2304  0661  1683               	bsf	3,5	;RP0=1, select bank1
  2305  0662  1303               	bcf	3,6	;RP1=0, select bank1
  2306  0663  083F               	movf	(_conversion_newton$764+2)^(0+128),w
  2307  0664  1283               	bcf	3,5	;RP0=0, select bank0
  2308  0665  1303               	bcf	3,6	;RP1=0, select bank0
  2309  0666  00A6               	movwf	___fladd@a+2
  2310  0667  1683               	bsf	3,5	;RP0=1, select bank1
  2311  0668  1303               	bcf	3,6	;RP1=0, select bank1
  2312  0669  083E               	movf	(_conversion_newton$764+1)^(0+128),w
  2313  066A  1283               	bcf	3,5	;RP0=0, select bank0
  2314  066B  1303               	bcf	3,6	;RP1=0, select bank0
  2315  066C  00A5               	movwf	___fladd@a+1
  2316  066D  1683               	bsf	3,5	;RP0=1, select bank1
  2317  066E  1303               	bcf	3,6	;RP1=0, select bank1
  2318  066F  083D               	movf	_conversion_newton$764^(0+128),w
  2319  0670  1283               	bcf	3,5	;RP0=0, select bank0
  2320  0671  1303               	bcf	3,6	;RP1=0, select bank0
  2321  0672  00A4               	movwf	___fladd@a
  2322  0673  120A  158A  2217  120A  118A  	fcall	___fladd
  2323  0678  1283               	bcf	3,5	;RP0=0, select bank0
  2324  0679  1303               	bcf	3,6	;RP1=0, select bank0
  2325  067A  0823               	movf	?___fladd+3,w
  2326  067B  1683               	bsf	3,5	;RP0=1, select bank1
  2327  067C  1303               	bcf	3,6	;RP1=0, select bank1
  2328  067D  00C4               	movwf	(conversion_newton@F+3)^(0+128)
  2329  067E  1283               	bcf	3,5	;RP0=0, select bank0
  2330  067F  1303               	bcf	3,6	;RP1=0, select bank0
  2331  0680  0822               	movf	?___fladd+2,w
  2332  0681  1683               	bsf	3,5	;RP0=1, select bank1
  2333  0682  1303               	bcf	3,6	;RP1=0, select bank1
  2334  0683  00C3               	movwf	(conversion_newton@F+2)^(0+128)
  2335  0684  1283               	bcf	3,5	;RP0=0, select bank0
  2336  0685  1303               	bcf	3,6	;RP1=0, select bank0
  2337  0686  0821               	movf	?___fladd+1,w
  2338  0687  1683               	bsf	3,5	;RP0=1, select bank1
  2339  0688  1303               	bcf	3,6	;RP1=0, select bank1
  2340  0689  00C2               	movwf	(conversion_newton@F+1)^(0+128)
  2341  068A  1283               	bcf	3,5	;RP0=0, select bank0
  2342  068B  1303               	bcf	3,6	;RP1=0, select bank0
  2343  068C  0820               	movf	?___fladd,w
  2344  068D  1683               	bsf	3,5	;RP0=1, select bank1
  2345  068E  1303               	bcf	3,6	;RP1=0, select bank1
  2346  068F  00C1               	movwf	conversion_newton@F^(0+128)
  2347  0690                     l2349:
  2348                           
  2349                           ;main.c: 221:      if (Rc <= R_tab[10])
  2350  0690  3029               	movlw	low (((conversion_newton@R_tab+40)-__stringbase)| (0+32768))
  2351  0691  0084               	movwf	4
  2352  0692  160A  118A  2000  120A  118A  	fcall	stringdir
  2353  0697  00A4               	movwf	??_conversion_newton^(0+128)
  2354  0698  160A  118A  2000  120A  118A  	fcall	stringdir
  2355  069D  00A5               	movwf	(??_conversion_newton^(0+128)+1)
  2356  069E  160A  118A  2000  120A  118A  	fcall	stringdir
  2357  06A3  00A6               	movwf	(??_conversion_newton^(0+128)+2)
  2358  06A4  160A  118A  2000  120A  118A  	fcall	stringdir
  2359  06A9  00A7               	movwf	(??_conversion_newton^(0+128)+3)
  2360  06AA  0827               	movf	(??_conversion_newton+3)^(0+128),w
  2361  06AB  00F5               	movwf	___flge@ff1+3
  2362  06AC  0826               	movf	(??_conversion_newton+2)^(0+128),w
  2363  06AD  00F4               	movwf	___flge@ff1+2
  2364  06AE  0825               	movf	(??_conversion_newton+1)^(0+128),w
  2365  06AF  00F3               	movwf	___flge@ff1+1
  2366  06B0  0824               	movf	??_conversion_newton^(0+128),w
  2367  06B1  00F2               	movwf	___flge@ff1
  2368  06B2  0823               	movf	(conversion_newton@Rc+3)^(0+128),w
  2369  06B3  00F9               	movwf	___flge@ff2+3
  2370  06B4  0822               	movf	(conversion_newton@Rc+2)^(0+128),w
  2371  06B5  00F8               	movwf	___flge@ff2+2
  2372  06B6  0821               	movf	(conversion_newton@Rc+1)^(0+128),w
  2373  06B7  00F7               	movwf	___flge@ff2+1
  2374  06B8  0820               	movf	conversion_newton@Rc^(0+128),w
  2375  06B9  00F6               	movwf	___flge@ff2
  2376  06BA  160A  118A  275C  120A  118A  	fcall	___flge
  2377  06BF  1C03               	btfss	3,0
  2378  06C0  2EC2               	goto	u3421
  2379  06C1  2EC3               	goto	u3420
  2380  06C2                     u3421:
  2381  06C2  2ECD               	goto	l2353
  2382  06C3                     u3420:
  2383  06C3                     l2351:
  2384                           
  2385                           ;main.c: 222:          {;main.c: 223:          F = 70;
  2386  06C3  3042               	movlw	66
  2387  06C4  1683               	bsf	3,5	;RP0=1, select bank1
  2388  06C5  1303               	bcf	3,6	;RP1=0, select bank1
  2389  06C6  00C4               	movwf	(conversion_newton@F+3)^(0+128)
  2390  06C7  308C               	movlw	140
  2391  06C8  00C3               	movwf	(conversion_newton@F+2)^(0+128)
  2392  06C9  3000               	movlw	0
  2393  06CA  00C2               	movwf	(conversion_newton@F+1)^(0+128)
  2394  06CB  3000               	movlw	0
  2395  06CC  00C1               	movwf	conversion_newton@F^(0+128)
  2396  06CD                     l2353:
  2397                           
  2398                           ;main.c: 225:      if (Rc > R_tab[10])
  2399  06CD  3029               	movlw	low (((conversion_newton@R_tab+40)-__stringbase)| (0+32768))
  2400  06CE  0084               	movwf	4
  2401  06CF  160A  118A  2000  120A  118A  	fcall	stringdir
  2402  06D4  1683               	bsf	3,5	;RP0=1, select bank1
  2403  06D5  1303               	bcf	3,6	;RP1=0, select bank1
  2404  06D6  00A4               	movwf	??_conversion_newton^(0+128)
  2405  06D7  160A  118A  2000  120A  118A  	fcall	stringdir
  2406  06DC  00A5               	movwf	(??_conversion_newton^(0+128)+1)
  2407  06DD  160A  118A  2000  120A  118A  	fcall	stringdir
  2408  06E2  00A6               	movwf	(??_conversion_newton^(0+128)+2)
  2409  06E3  160A  118A  2000  120A  118A  	fcall	stringdir
  2410  06E8  00A7               	movwf	(??_conversion_newton^(0+128)+3)
  2411  06E9  0827               	movf	(??_conversion_newton+3)^(0+128),w
  2412  06EA  00F5               	movwf	___flge@ff1+3
  2413  06EB  0826               	movf	(??_conversion_newton+2)^(0+128),w
  2414  06EC  00F4               	movwf	___flge@ff1+2
  2415  06ED  0825               	movf	(??_conversion_newton+1)^(0+128),w
  2416  06EE  00F3               	movwf	___flge@ff1+1
  2417  06EF  0824               	movf	??_conversion_newton^(0+128),w
  2418  06F0  00F2               	movwf	___flge@ff1
  2419  06F1  0823               	movf	(conversion_newton@Rc+3)^(0+128),w
  2420  06F2  00F9               	movwf	___flge@ff2+3
  2421  06F3  0822               	movf	(conversion_newton@Rc+2)^(0+128),w
  2422  06F4  00F8               	movwf	___flge@ff2+2
  2423  06F5  0821               	movf	(conversion_newton@Rc+1)^(0+128),w
  2424  06F6  00F7               	movwf	___flge@ff2+1
  2425  06F7  0820               	movf	conversion_newton@Rc^(0+128),w
  2426  06F8  00F6               	movwf	___flge@ff2
  2427  06F9  160A  118A  275C  120A  118A  	fcall	___flge
  2428  06FE  1803               	btfsc	3,0
  2429  06FF  2F01               	goto	u3431
  2430  0700  2F02               	goto	u3430
  2431  0701                     u3431:
  2432  0701  2F0C               	goto	l73
  2433  0702                     u3430:
  2434  0702                     l2355:
  2435                           
  2436                           ;main.c: 226:          {;main.c: 227:          F = 0.12;
  2437  0702  303D               	movlw	61
  2438  0703  1683               	bsf	3,5	;RP0=1, select bank1
  2439  0704  1303               	bcf	3,6	;RP1=0, select bank1
  2440  0705  00C4               	movwf	(conversion_newton@F+3)^(0+128)
  2441  0706  30F5               	movlw	245
  2442  0707  00C3               	movwf	(conversion_newton@F+2)^(0+128)
  2443  0708  30C2               	movlw	194
  2444  0709  00C2               	movwf	(conversion_newton@F+1)^(0+128)
  2445  070A  308F               	movlw	143
  2446  070B  00C1               	movwf	conversion_newton@F^(0+128)
  2447  070C                     l73:	
  2448                           ;main.c: 228:          }
  2449                           
  2450                           
  2451                           ;main.c: 230:      return F;
  2452  070C  1683               	bsf	3,5	;RP0=1, select bank1
  2453  070D  1303               	bcf	3,6	;RP1=0, select bank1
  2454  070E  0844               	movf	(conversion_newton@F+3)^(0+128),w
  2455  070F  00A3               	movwf	(?_conversion_newton+3)^(0+128)
  2456  0710  0843               	movf	(conversion_newton@F+2)^(0+128),w
  2457  0711  00A2               	movwf	(?_conversion_newton+2)^(0+128)
  2458  0712  0842               	movf	(conversion_newton@F+1)^(0+128),w
  2459  0713  00A1               	movwf	(?_conversion_newton+1)^(0+128)
  2460  0714  0841               	movf	conversion_newton@F^(0+128),w
  2461  0715  00A0               	movwf	?_conversion_newton^(0+128)
  2462  0716                     l74:
  2463  0716  0008               	return
  2464  0717                     __end_of_conversion_newton:
  2465                           
  2466                           	psect	text2
  2467  175C                     __ptext2:	
  2468 ;; *************** function ___flge *****************
  2469 ;; Defined at:
  2470 ;;		line 4 in file "C:\Program Files\Microchip\xc8\v2.20\pic\sources\c90\common\flge.c"
  2471 ;; Parameters:    Size  Location     Type
  2472 ;;  ff1             4    2[COMMON] float 
  2473 ;;  ff2             4    6[COMMON] float 
  2474 ;; Auto vars:     Size  Location     Type
  2475 ;;		None
  2476 ;; Return value:  Size  Location     Type
  2477 ;;		None               void
  2478 ;; Registers used:
  2479 ;;		wreg, status,2, status,0
  2480 ;; Tracked objects:
  2481 ;;		On entry : 0/0
  2482 ;;		On exit  : 0/0
  2483 ;;		Unchanged: 0/0
  2484 ;; Data sizes:     COMMON   BANK0   BANK1   BANK3   BANK2
  2485 ;;      Params:         8       0       0       0       0
  2486 ;;      Locals:         0       0       0       0       0
  2487 ;;      Temps:          0       4       0       0       0
  2488 ;;      Totals:         8       4       0       0       0
  2489 ;;Total ram usage:       12 bytes
  2490 ;; Hardware stack levels used:    1
  2491 ;; Hardware stack levels required when called:    1
  2492 ;; This function calls:
  2493 ;;		Nothing
  2494 ;; This function is called by:
  2495 ;;		_conversion_newton
  2496 ;; This function uses a non-reentrant model
  2497 ;;
  2498                           
  2499                           
  2500                           ;psect for function ___flge
  2501  175C                     ___flge:
  2502  175C                     l1847:	
  2503                           ;incstack = 0
  2504                           ; Regs used in ___flge: [wreg+status,2+status,0]
  2505                           
  2506  175C  3000               	movlw	0
  2507  175D  0572               	andwf	___flge@ff1,w
  2508  175E  1283               	bcf	3,5	;RP0=0, select bank0
  2509  175F  1303               	bcf	3,6	;RP1=0, select bank0
  2510  1760  00A0               	movwf	??___flge
  2511  1761  3000               	movlw	0
  2512  1762  0573               	andwf	___flge@ff1+1,w
  2513  1763  00A1               	movwf	??___flge+1
  2514  1764  3080               	movlw	128
  2515  1765  0574               	andwf	___flge@ff1+2,w
  2516  1766  00A2               	movwf	??___flge+2
  2517  1767  307F               	movlw	127
  2518  1768  0575               	andwf	___flge@ff1+3,w
  2519  1769  00A3               	movwf	??___flge+3
  2520  176A  0823               	movf	??___flge+3,w
  2521  176B  0422               	iorwf	??___flge+2,w
  2522  176C  0421               	iorwf	??___flge+1,w
  2523  176D  0420               	iorwf	??___flge,w
  2524  176E  1D03               	skipz
  2525  176F  2F71               	goto	u2261
  2526  1770  2F72               	goto	u2260
  2527  1771                     u2261:
  2528  1771  2F7A               	goto	l391
  2529  1772                     u2260:
  2530  1772                     l1849:
  2531  1772  3000               	movlw	0
  2532  1773  00F5               	movwf	___flge@ff1+3
  2533  1774  3000               	movlw	0
  2534  1775  00F4               	movwf	___flge@ff1+2
  2535  1776  3000               	movlw	0
  2536  1777  00F3               	movwf	___flge@ff1+1
  2537  1778  3000               	movlw	0
  2538  1779  00F2               	movwf	___flge@ff1
  2539  177A                     l391:
  2540  177A  3000               	movlw	0
  2541  177B  0576               	andwf	___flge@ff2,w
  2542  177C  00A0               	movwf	??___flge
  2543  177D  3000               	movlw	0
  2544  177E  0577               	andwf	___flge@ff2+1,w
  2545  177F  00A1               	movwf	??___flge+1
  2546  1780  3080               	movlw	128
  2547  1781  0578               	andwf	___flge@ff2+2,w
  2548  1782  00A2               	movwf	??___flge+2
  2549  1783  307F               	movlw	127
  2550  1784  0579               	andwf	___flge@ff2+3,w
  2551  1785  00A3               	movwf	??___flge+3
  2552  1786  0823               	movf	??___flge+3,w
  2553  1787  0422               	iorwf	??___flge+2,w
  2554  1788  0421               	iorwf	??___flge+1,w
  2555  1789  0420               	iorwf	??___flge,w
  2556  178A  1D03               	skipz
  2557  178B  2F8D               	goto	u2271
  2558  178C  2F8E               	goto	u2270
  2559  178D                     u2271:
  2560  178D  2F96               	goto	l1853
  2561  178E                     u2270:
  2562  178E                     l1851:
  2563  178E  3000               	movlw	0
  2564  178F  00F9               	movwf	___flge@ff2+3
  2565  1790  3000               	movlw	0
  2566  1791  00F8               	movwf	___flge@ff2+2
  2567  1792  3000               	movlw	0
  2568  1793  00F7               	movwf	___flge@ff2+1
  2569  1794  3000               	movlw	0
  2570  1795  00F6               	movwf	___flge@ff2
  2571  1796                     l1853:
  2572  1796  1FF5               	btfss	___flge@ff1+3,7
  2573  1797  2F99               	goto	u2281
  2574  1798  2F9A               	goto	u2280
  2575  1799                     u2281:
  2576  1799  2FBE               	goto	l1857
  2577  179A                     u2280:
  2578  179A                     l1855:
  2579  179A  3000               	movlw	0
  2580  179B  00A0               	movwf	??___flge
  2581  179C  3000               	movlw	0
  2582  179D  00A1               	movwf	??___flge+1
  2583  179E  3000               	movlw	0
  2584  179F  00A2               	movwf	??___flge+2
  2585  17A0  3080               	movlw	128
  2586  17A1  00A3               	movwf	??___flge+3
  2587  17A2  0872               	movf	___flge@ff1,w
  2588  17A3  02A0               	subwf	??___flge,f
  2589  17A4  0873               	movf	___flge@ff1+1,w
  2590  17A5  1C03               	skipc
  2591  17A6  0F73               	incfsz	___flge@ff1+1,w
  2592  17A7  2FA9               	goto	u2291
  2593  17A8  2FAA               	goto	u2292
  2594  17A9                     u2291:
  2595  17A9  02A1               	subwf	??___flge+1,f
  2596  17AA                     u2292:
  2597  17AA  0874               	movf	___flge@ff1+2,w
  2598  17AB  1C03               	skipc
  2599  17AC  0F74               	incfsz	___flge@ff1+2,w
  2600  17AD  2FAF               	goto	u2293
  2601  17AE  2FB0               	goto	u2294
  2602  17AF                     u2293:
  2603  17AF  02A2               	subwf	??___flge+2,f
  2604  17B0                     u2294:
  2605  17B0  0875               	movf	___flge@ff1+3,w
  2606  17B1  1C03               	skipc
  2607  17B2  0F75               	incfsz	___flge@ff1+3,w
  2608  17B3  2FB5               	goto	u2295
  2609  17B4  2FB6               	goto	u2296
  2610  17B5                     u2295:
  2611  17B5  02A3               	subwf	??___flge+3,f
  2612  17B6                     u2296:
  2613  17B6  0823               	movf	??___flge+3,w
  2614  17B7  00F5               	movwf	___flge@ff1+3
  2615  17B8  0822               	movf	??___flge+2,w
  2616  17B9  00F4               	movwf	___flge@ff1+2
  2617  17BA  0821               	movf	??___flge+1,w
  2618  17BB  00F3               	movwf	___flge@ff1+1
  2619  17BC  0820               	movf	??___flge,w
  2620  17BD  00F2               	movwf	___flge@ff1
  2621  17BE                     l1857:
  2622  17BE  1FF9               	btfss	___flge@ff2+3,7
  2623  17BF  2FC1               	goto	u2301
  2624  17C0  2FC2               	goto	u2300
  2625  17C1                     u2301:
  2626  17C1  2FE6               	goto	l394
  2627  17C2                     u2300:
  2628  17C2                     l1859:
  2629  17C2  3000               	movlw	0
  2630  17C3  00A0               	movwf	??___flge
  2631  17C4  3000               	movlw	0
  2632  17C5  00A1               	movwf	??___flge+1
  2633  17C6  3000               	movlw	0
  2634  17C7  00A2               	movwf	??___flge+2
  2635  17C8  3080               	movlw	128
  2636  17C9  00A3               	movwf	??___flge+3
  2637  17CA  0876               	movf	___flge@ff2,w
  2638  17CB  02A0               	subwf	??___flge,f
  2639  17CC  0877               	movf	___flge@ff2+1,w
  2640  17CD  1C03               	skipc
  2641  17CE  0F77               	incfsz	___flge@ff2+1,w
  2642  17CF  2FD1               	goto	u2311
  2643  17D0  2FD2               	goto	u2312
  2644  17D1                     u2311:
  2645  17D1  02A1               	subwf	??___flge+1,f
  2646  17D2                     u2312:
  2647  17D2  0878               	movf	___flge@ff2+2,w
  2648  17D3  1C03               	skipc
  2649  17D4  0F78               	incfsz	___flge@ff2+2,w
  2650  17D5  2FD7               	goto	u2313
  2651  17D6  2FD8               	goto	u2314
  2652  17D7                     u2313:
  2653  17D7  02A2               	subwf	??___flge+2,f
  2654  17D8                     u2314:
  2655  17D8  0879               	movf	___flge@ff2+3,w
  2656  17D9  1C03               	skipc
  2657  17DA  0F79               	incfsz	___flge@ff2+3,w
  2658  17DB  2FDD               	goto	u2315
  2659  17DC  2FDE               	goto	u2316
  2660  17DD                     u2315:
  2661  17DD  02A3               	subwf	??___flge+3,f
  2662  17DE                     u2316:
  2663  17DE  0823               	movf	??___flge+3,w
  2664  17DF  00F9               	movwf	___flge@ff2+3
  2665  17E0  0822               	movf	??___flge+2,w
  2666  17E1  00F8               	movwf	___flge@ff2+2
  2667  17E2  0821               	movf	??___flge+1,w
  2668  17E3  00F7               	movwf	___flge@ff2+1
  2669  17E4  0820               	movf	??___flge,w
  2670  17E5  00F6               	movwf	___flge@ff2
  2671  17E6                     l394:
  2672  17E6  3080               	movlw	128
  2673  17E7  06F5               	xorwf	___flge@ff1+3,f
  2674  17E8  3080               	movlw	128
  2675  17E9  06F9               	xorwf	___flge@ff2+3,f
  2676  17EA  0879               	movf	___flge@ff2+3,w
  2677  17EB  0275               	subwf	___flge@ff1+3,w
  2678  17EC  1D03               	skipz
  2679  17ED  2FF8               	goto	u2325
  2680  17EE  0878               	movf	___flge@ff2+2,w
  2681  17EF  0274               	subwf	___flge@ff1+2,w
  2682  17F0  1D03               	skipz
  2683  17F1  2FF8               	goto	u2325
  2684  17F2  0877               	movf	___flge@ff2+1,w
  2685  17F3  0273               	subwf	___flge@ff1+1,w
  2686  17F4  1D03               	skipz
  2687  17F5  2FF8               	goto	u2325
  2688  17F6  0876               	movf	___flge@ff2,w
  2689  17F7  0272               	subwf	___flge@ff1,w
  2690  17F8                     u2325:
  2691  17F8  1803               	skipnc
  2692  17F9  2FFB               	goto	u2321
  2693  17FA  2FFC               	goto	u2320
  2694  17FB                     u2321:
  2695  17FB  2FFE               	goto	l1863
  2696  17FC                     u2320:
  2697  17FC                     l1861:
  2698  17FC  1003               	clrc
  2699  17FD  2FFF               	goto	l395
  2700  17FE                     l1863:
  2701  17FE  1403               	setc
  2702  17FF                     l395:
  2703  17FF  0008               	return
  2704  1800                     __end_of___flge:
  2705                           
  2706                           	psect	text3
  2707  1617                     __ptext3:	
  2708 ;; *************** function _Voltage_Value *****************
  2709 ;; Defined at:
  2710 ;;		line 147 in file "main.c"
  2711 ;; Parameters:    Size  Location     Type
  2712 ;;  sensor          1    wreg     unsigned char 
  2713 ;; Auto vars:     Size  Location     Type
  2714 ;;  sensor          1   11[COMMON] unsigned char 
  2715 ;; Return value:  Size  Location     Type
  2716 ;;                  4    0[BANK1 ] float 
  2717 ;; Registers used:
  2718 ;;		wreg, status,2, status,0, btemp+1, pclath, cstack
  2719 ;; Tracked objects:
  2720 ;;		On entry : 0/0
  2721 ;;		On exit  : 0/0
  2722 ;;		Unchanged: 0/0
  2723 ;; Data sizes:     COMMON   BANK0   BANK1   BANK3   BANK2
  2724 ;;      Params:         0       0       4       0       0
  2725 ;;      Locals:         1       0       0       0       0
  2726 ;;      Temps:          0       0       4       0       0
  2727 ;;      Totals:         1       0       8       0       0
  2728 ;;Total ram usage:        9 bytes
  2729 ;; Hardware stack levels used:    1
  2730 ;; Hardware stack levels required when called:    3
  2731 ;; This function calls:
  2732 ;;		___fldiv
  2733 ;;		___flmul
  2734 ;;		___xxtofl
  2735 ;; This function is called by:
  2736 ;;		_main
  2737 ;; This function uses a non-reentrant model
  2738 ;;
  2739                           
  2740                           
  2741                           ;psect for function _Voltage_Value
  2742  1617                     _Voltage_Value:
  2743                           
  2744                           ;incstack = 0
  2745                           ; Regs used in _Voltage_Value: [wreg+status,2+status,0+btemp+1+pclath+cstack]
  2746                           ;Voltage_Value@sensor stored from wreg
  2747  1617  00FB               	movwf	Voltage_Value@sensor
  2748  1618                     l2275:
  2749                           
  2750                           ;main.c: 149:     return (float) sensor * 5/255;
  2751  1618  3043               	movlw	67
  2752  1619  1283               	bcf	3,5	;RP0=0, select bank0
  2753  161A  1303               	bcf	3,6	;RP1=0, select bank0
  2754  161B  00BF               	movwf	___fldiv@a+3
  2755  161C  307F               	movlw	127
  2756  161D  00BE               	movwf	___fldiv@a+2
  2757  161E  3000               	movlw	0
  2758  161F  00BD               	movwf	___fldiv@a+1
  2759  1620  3000               	movlw	0
  2760  1621  00BC               	movwf	___fldiv@a
  2761  1622  3040               	movlw	64
  2762  1623  00D9               	movwf	___flmul@b+3
  2763  1624  30A0               	movlw	160
  2764  1625  00D8               	movwf	___flmul@b+2
  2765  1626  3000               	movlw	0
  2766  1627  00D7               	movwf	___flmul@b+1
  2767  1628  3000               	movlw	0
  2768  1629  00D6               	movwf	___flmul@b
  2769  162A  087B               	movf	Voltage_Value@sensor,w
  2770  162B  1683               	bsf	3,5	;RP0=1, select bank1
  2771  162C  1303               	bcf	3,6	;RP1=0, select bank1
  2772  162D  00A4               	movwf	??_Voltage_Value^(0+128)
  2773  162E  01A5               	clrf	(??_Voltage_Value^(0+128)+1)
  2774  162F  01A6               	clrf	(??_Voltage_Value^(0+128)+2)
  2775  1630  01A7               	clrf	(??_Voltage_Value^(0+128)+3)
  2776  1631  0827               	movf	(??_Voltage_Value+3)^(0+128),w
  2777  1632  00F5               	movwf	___xxtofl@val+3
  2778  1633  0826               	movf	(??_Voltage_Value+2)^(0+128),w
  2779  1634  00F4               	movwf	___xxtofl@val+2
  2780  1635  0825               	movf	(??_Voltage_Value+1)^(0+128),w
  2781  1636  00F3               	movwf	___xxtofl@val+1
  2782  1637  0824               	movf	??_Voltage_Value^(0+128),w
  2783  1638  00F2               	movwf	___xxtofl@val
  2784  1639  3000               	movlw	0
  2785  163A  120A  118A  2717  160A  118A  	fcall	___xxtofl
  2786  163F  0875               	movf	?___xxtofl+3,w
  2787  1640  1283               	bcf	3,5	;RP0=0, select bank0
  2788  1641  1303               	bcf	3,6	;RP1=0, select bank0
  2789  1642  00DD               	movwf	___flmul@a+3
  2790  1643  0874               	movf	?___xxtofl+2,w
  2791  1644  00DC               	movwf	___flmul@a+2
  2792  1645  0873               	movf	?___xxtofl+1,w
  2793  1646  00DB               	movwf	___flmul@a+1
  2794  1647  0872               	movf	?___xxtofl,w
  2795  1648  00DA               	movwf	___flmul@a
  2796  1649  120A  158A  249F  160A  118A  	fcall	___flmul
  2797  164E  1283               	bcf	3,5	;RP0=0, select bank0
  2798  164F  1303               	bcf	3,6	;RP1=0, select bank0
  2799  1650  0859               	movf	?___flmul+3,w
  2800  1651  00C3               	movwf	___fldiv@b+3
  2801  1652  0858               	movf	?___flmul+2,w
  2802  1653  00C2               	movwf	___fldiv@b+2
  2803  1654  0857               	movf	?___flmul+1,w
  2804  1655  00C1               	movwf	___fldiv@b+1
  2805  1656  0856               	movf	?___flmul,w
  2806  1657  00C0               	movwf	___fldiv@b
  2807  1658  120A  158A  203A  160A  118A  	fcall	___fldiv
  2808  165D  1283               	bcf	3,5	;RP0=0, select bank0
  2809  165E  1303               	bcf	3,6	;RP1=0, select bank0
  2810  165F  083F               	movf	?___fldiv+3,w
  2811  1660  1683               	bsf	3,5	;RP0=1, select bank1
  2812  1661  1303               	bcf	3,6	;RP1=0, select bank1
  2813  1662  00A3               	movwf	(?_Voltage_Value+3)^(0+128)
  2814  1663  1283               	bcf	3,5	;RP0=0, select bank0
  2815  1664  1303               	bcf	3,6	;RP1=0, select bank0
  2816  1665  083E               	movf	?___fldiv+2,w
  2817  1666  1683               	bsf	3,5	;RP0=1, select bank1
  2818  1667  1303               	bcf	3,6	;RP1=0, select bank1
  2819  1668  00A2               	movwf	(?_Voltage_Value+2)^(0+128)
  2820  1669  1283               	bcf	3,5	;RP0=0, select bank0
  2821  166A  1303               	bcf	3,6	;RP1=0, select bank0
  2822  166B  083D               	movf	?___fldiv+1,w
  2823  166C  1683               	bsf	3,5	;RP0=1, select bank1
  2824  166D  1303               	bcf	3,6	;RP1=0, select bank1
  2825  166E  00A1               	movwf	(?_Voltage_Value+1)^(0+128)
  2826  166F  1283               	bcf	3,5	;RP0=0, select bank0
  2827  1670  1303               	bcf	3,6	;RP1=0, select bank0
  2828  1671  083C               	movf	?___fldiv,w
  2829  1672  1683               	bsf	3,5	;RP0=1, select bank1
  2830  1673  1303               	bcf	3,6	;RP1=0, select bank1
  2831  1674  00A0               	movwf	?_Voltage_Value^(0+128)
  2832  1675                     l42:
  2833  1675  0008               	return
  2834  1676                     __end_of_Voltage_Value:
  2835                           
  2836                           	psect	text4
  2837  0717                     __ptext4:	
  2838 ;; *************** function ___xxtofl *****************
  2839 ;; Defined at:
  2840 ;;		line 10 in file "C:\Program Files\Microchip\xc8\v2.20\pic\sources\c90\common\xxtofl.c"
  2841 ;; Parameters:    Size  Location     Type
  2842 ;;  sign            1    wreg     unsigned char 
  2843 ;;  val             4    2[COMMON] long 
  2844 ;; Auto vars:     Size  Location     Type
  2845 ;;  sign            1    0[BANK0 ] unsigned char 
  2846 ;;  arg             4    2[BANK0 ] unsigned long 
  2847 ;;  exp             1    1[BANK0 ] unsigned char 
  2848 ;; Return value:  Size  Location     Type
  2849 ;;                  4    2[COMMON] unsigned char 
  2850 ;; Registers used:
  2851 ;;		wreg, status,2, status,0, btemp+1
  2852 ;; Tracked objects:
  2853 ;;		On entry : 0/0
  2854 ;;		On exit  : 0/0
  2855 ;;		Unchanged: 0/0
  2856 ;; Data sizes:     COMMON   BANK0   BANK1   BANK3   BANK2
  2857 ;;      Params:         4       0       0       0       0
  2858 ;;      Locals:         0       6       0       0       0
  2859 ;;      Temps:          4       0       0       0       0
  2860 ;;      Totals:         8       6       0       0       0
  2861 ;;Total ram usage:       14 bytes
  2862 ;; Hardware stack levels used:    1
  2863 ;; Hardware stack levels required when called:    1
  2864 ;; This function calls:
  2865 ;;		Nothing
  2866 ;; This function is called by:
  2867 ;;		_Voltage_Value
  2868 ;; This function uses a non-reentrant model
  2869 ;;
  2870                           
  2871                           
  2872                           ;psect for function ___xxtofl
  2873  0717                     ___xxtofl:
  2874                           
  2875                           ;incstack = 0
  2876                           ; Regs used in ___xxtofl: [wreg+status,2+status,0+btemp+1]
  2877                           ;___xxtofl@sign stored from wreg
  2878  0717  1283               	bcf	3,5	;RP0=0, select bank0
  2879  0718  1303               	bcf	3,6	;RP1=0, select bank0
  2880  0719  00A0               	movwf	___xxtofl@sign
  2881  071A                     l2159:
  2882  071A  0820               	movf	___xxtofl@sign,w
  2883  071B  1903               	btfsc	3,2
  2884  071C  2F1E               	goto	u2991
  2885  071D  2F1F               	goto	u2990
  2886  071E                     u2991:
  2887  071E  2F33               	goto	l2165
  2888  071F                     u2990:
  2889  071F                     l2161:
  2890  071F  1FF5               	btfss	___xxtofl@val+3,7
  2891  0720  2F22               	goto	u3001
  2892  0721  2F23               	goto	u3000
  2893  0722                     u3001:
  2894  0722  2F33               	goto	l2165
  2895  0723                     u3000:
  2896  0723                     l2163:
  2897  0723  0972               	comf	___xxtofl@val,w
  2898  0724  00A2               	movwf	___xxtofl@arg
  2899  0725  0973               	comf	___xxtofl@val+1,w
  2900  0726  00A3               	movwf	___xxtofl@arg+1
  2901  0727  0974               	comf	___xxtofl@val+2,w
  2902  0728  00A4               	movwf	___xxtofl@arg+2
  2903  0729  0975               	comf	___xxtofl@val+3,w
  2904  072A  00A5               	movwf	___xxtofl@arg+3
  2905  072B  0AA2               	incf	___xxtofl@arg,f
  2906  072C  1903               	skipnz
  2907  072D  0AA3               	incf	___xxtofl@arg+1,f
  2908  072E  1903               	skipnz
  2909  072F  0AA4               	incf	___xxtofl@arg+2,f
  2910  0730  1903               	skipnz
  2911  0731  0AA5               	incf	___xxtofl@arg+3,f
  2912  0732  2F3B               	goto	l650
  2913  0733                     l2165:
  2914  0733  0875               	movf	___xxtofl@val+3,w
  2915  0734  00A5               	movwf	___xxtofl@arg+3
  2916  0735  0874               	movf	___xxtofl@val+2,w
  2917  0736  00A4               	movwf	___xxtofl@arg+2
  2918  0737  0873               	movf	___xxtofl@val+1,w
  2919  0738  00A3               	movwf	___xxtofl@arg+1
  2920  0739  0872               	movf	___xxtofl@val,w
  2921  073A  00A2               	movwf	___xxtofl@arg
  2922  073B                     l650:
  2923  073B  0875               	movf	___xxtofl@val+3,w
  2924  073C  0474               	iorwf	___xxtofl@val+2,w
  2925  073D  0473               	iorwf	___xxtofl@val+1,w
  2926  073E  0472               	iorwf	___xxtofl@val,w
  2927  073F  1D03               	skipz
  2928  0740  2F42               	goto	u3011
  2929  0741  2F43               	goto	u3010
  2930  0742                     u3011:
  2931  0742  2F4C               	goto	l2171
  2932  0743                     u3010:
  2933  0743                     l2167:
  2934  0743  3000               	movlw	0
  2935  0744  00F5               	movwf	?___xxtofl+3
  2936  0745  3000               	movlw	0
  2937  0746  00F4               	movwf	?___xxtofl+2
  2938  0747  3000               	movlw	0
  2939  0748  00F3               	movwf	?___xxtofl+1
  2940  0749  3000               	movlw	0
  2941  074A  00F2               	movwf	?___xxtofl
  2942  074B  2FD2               	goto	l652
  2943  074C                     l2171:
  2944  074C  3096               	movlw	150
  2945  074D  00FF               	movwf	btemp+1
  2946  074E  087F               	movf	btemp+1,w
  2947  074F  00A1               	movwf	___xxtofl@exp
  2948  0750  2F5E               	goto	l2177
  2949  0751                     l2173:
  2950  0751  3001               	movlw	1
  2951  0752  00FF               	movwf	btemp+1
  2952  0753  087F               	movf	btemp+1,w
  2953  0754  07A1               	addwf	___xxtofl@exp,f
  2954  0755                     l2175:
  2955  0755  3001               	movlw	1
  2956  0756                     u3025:
  2957  0756  1003               	clrc
  2958  0757  0CA5               	rrf	___xxtofl@arg+3,f
  2959  0758  0CA4               	rrf	___xxtofl@arg+2,f
  2960  0759  0CA3               	rrf	___xxtofl@arg+1,f
  2961  075A  0CA2               	rrf	___xxtofl@arg,f
  2962  075B  3EFF               	addlw	-1
  2963  075C  1D03               	skipz
  2964  075D  2F56               	goto	u3025
  2965  075E                     l2177:
  2966  075E  30FE               	movlw	254
  2967  075F  0525               	andwf	___xxtofl@arg+3,w
  2968  0760  1D03               	btfss	3,2
  2969  0761  2F63               	goto	u3031
  2970  0762  2F64               	goto	u3030
  2971  0763                     u3031:
  2972  0763  2F51               	goto	l2173
  2973  0764                     u3030:
  2974  0764  2F80               	goto	l2185
  2975  0765                     l2179:
  2976  0765  3001               	movlw	1
  2977  0766  00FF               	movwf	btemp+1
  2978  0767  087F               	movf	btemp+1,w
  2979  0768  07A1               	addwf	___xxtofl@exp,f
  2980  0769                     l2181:
  2981  0769  3001               	movlw	1
  2982  076A  07A2               	addwf	___xxtofl@arg,f
  2983  076B  3000               	movlw	0
  2984  076C  1803               	skipnc
  2985  076D  3001               	movlw	1
  2986  076E  07A3               	addwf	___xxtofl@arg+1,f
  2987  076F  3000               	movlw	0
  2988  0770  1803               	skipnc
  2989  0771  3001               	movlw	1
  2990  0772  07A4               	addwf	___xxtofl@arg+2,f
  2991  0773  3000               	movlw	0
  2992  0774  1803               	skipnc
  2993  0775  3001               	movlw	1
  2994  0776  07A5               	addwf	___xxtofl@arg+3,f
  2995  0777                     l2183:
  2996  0777  3001               	movlw	1
  2997  0778                     u3045:
  2998  0778  1003               	clrc
  2999  0779  0CA5               	rrf	___xxtofl@arg+3,f
  3000  077A  0CA4               	rrf	___xxtofl@arg+2,f
  3001  077B  0CA3               	rrf	___xxtofl@arg+1,f
  3002  077C  0CA2               	rrf	___xxtofl@arg,f
  3003  077D  3EFF               	addlw	-1
  3004  077E  1D03               	skipz
  3005  077F  2F78               	goto	u3045
  3006  0780                     l2185:
  3007  0780  30FF               	movlw	255
  3008  0781  0525               	andwf	___xxtofl@arg+3,w
  3009  0782  1D03               	btfss	3,2
  3010  0783  2F85               	goto	u3051
  3011  0784  2F86               	goto	u3050
  3012  0785                     u3051:
  3013  0785  2F65               	goto	l2179
  3014  0786                     u3050:
  3015  0786  2F92               	goto	l2189
  3016  0787                     l2187:
  3017  0787  3001               	movlw	1
  3018  0788  02A1               	subwf	___xxtofl@exp,f
  3019  0789  3001               	movlw	1
  3020  078A  00F6               	movwf	??___xxtofl
  3021  078B                     u3065:
  3022  078B  1003               	clrc
  3023  078C  0DA2               	rlf	___xxtofl@arg,f
  3024  078D  0DA3               	rlf	___xxtofl@arg+1,f
  3025  078E  0DA4               	rlf	___xxtofl@arg+2,f
  3026  078F  0DA5               	rlf	___xxtofl@arg+3,f
  3027  0790  0BF6               	decfsz	??___xxtofl,f
  3028  0791  2F8B               	goto	u3065
  3029  0792                     l2189:
  3030  0792  1BA4               	btfsc	___xxtofl@arg+2,7
  3031  0793  2F95               	goto	u3071
  3032  0794  2F96               	goto	u3070
  3033  0795                     u3071:
  3034  0795  2F9C               	goto	l663
  3035  0796                     u3070:
  3036  0796                     l2191:
  3037  0796  3002               	movlw	2
  3038  0797  0221               	subwf	___xxtofl@exp,w
  3039  0798  1803               	skipnc
  3040  0799  2F9B               	goto	u3081
  3041  079A  2F9C               	goto	u3080
  3042  079B                     u3081:
  3043  079B  2F87               	goto	l2187
  3044  079C                     u3080:
  3045  079C                     l663:
  3046  079C  1821               	btfsc	___xxtofl@exp,0
  3047  079D  2F9F               	goto	u3091
  3048  079E  2FA0               	goto	u3090
  3049  079F                     u3091:
  3050  079F  2FA8               	goto	l664
  3051  07A0                     u3090:
  3052  07A0                     l2193:
  3053  07A0  30FF               	movlw	255
  3054  07A1  05A2               	andwf	___xxtofl@arg,f
  3055  07A2  30FF               	movlw	255
  3056  07A3  05A3               	andwf	___xxtofl@arg+1,f
  3057  07A4  307F               	movlw	127
  3058  07A5  05A4               	andwf	___xxtofl@arg+2,f
  3059  07A6  30FF               	movlw	255
  3060  07A7  05A5               	andwf	___xxtofl@arg+3,f
  3061  07A8                     l664:
  3062  07A8  1003               	clrc
  3063  07A9  0CA1               	rrf	___xxtofl@exp,f
  3064  07AA                     l2195:
  3065  07AA  0821               	movf	___xxtofl@exp,w
  3066  07AB  00F6               	movwf	??___xxtofl
  3067  07AC  01F7               	clrf	??___xxtofl+1
  3068  07AD  01F8               	clrf	??___xxtofl+2
  3069  07AE  01F9               	clrf	??___xxtofl+3
  3070  07AF  3018               	movlw	24
  3071  07B0                     u3105:
  3072  07B0  1003               	clrc
  3073  07B1  0DF6               	rlf	??___xxtofl,f
  3074  07B2  0DF7               	rlf	??___xxtofl+1,f
  3075  07B3  0DF8               	rlf	??___xxtofl+2,f
  3076  07B4  0DF9               	rlf	??___xxtofl+3,f
  3077  07B5                     u3100:
  3078  07B5  3EFF               	addlw	-1
  3079  07B6  1D03               	skipz
  3080  07B7  2FB0               	goto	u3105
  3081  07B8  0876               	movf	??___xxtofl,w
  3082  07B9  04A2               	iorwf	___xxtofl@arg,f
  3083  07BA  0877               	movf	??___xxtofl+1,w
  3084  07BB  04A3               	iorwf	___xxtofl@arg+1,f
  3085  07BC  0878               	movf	??___xxtofl+2,w
  3086  07BD  04A4               	iorwf	___xxtofl@arg+2,f
  3087  07BE  0879               	movf	??___xxtofl+3,w
  3088  07BF  04A5               	iorwf	___xxtofl@arg+3,f
  3089  07C0                     l2197:
  3090  07C0  0820               	movf	___xxtofl@sign,w
  3091  07C1  1903               	btfsc	3,2
  3092  07C2  2FC4               	goto	u3111
  3093  07C3  2FC5               	goto	u3110
  3094  07C4                     u3111:
  3095  07C4  2FCA               	goto	l2203
  3096  07C5                     u3110:
  3097  07C5                     l2199:
  3098  07C5  1FF5               	btfss	___xxtofl@val+3,7
  3099  07C6  2FC8               	goto	u3121
  3100  07C7  2FC9               	goto	u3120
  3101  07C8                     u3121:
  3102  07C8  2FCA               	goto	l2203
  3103  07C9                     u3120:
  3104  07C9                     l2201:
  3105  07C9  17A5               	bsf	___xxtofl@arg+3,7
  3106  07CA                     l2203:
  3107  07CA  0825               	movf	___xxtofl@arg+3,w
  3108  07CB  00F5               	movwf	?___xxtofl+3
  3109  07CC  0824               	movf	___xxtofl@arg+2,w
  3110  07CD  00F4               	movwf	?___xxtofl+2
  3111  07CE  0823               	movf	___xxtofl@arg+1,w
  3112  07CF  00F3               	movwf	?___xxtofl+1
  3113  07D0  0822               	movf	___xxtofl@arg,w
  3114  07D1  00F2               	movwf	?___xxtofl
  3115  07D2                     l652:
  3116  07D2  0008               	return
  3117  07D3                     __end_of___xxtofl:
  3118                           
  3119                           	psect	text5
  3120  15A1                     __ptext5:	
  3121 ;; *************** function _TIMER_init_timer1 *****************
  3122 ;; Defined at:
  3123 ;;		line 8 in file "timer.c"
  3124 ;; Parameters:    Size  Location     Type
  3125 ;;		None
  3126 ;; Auto vars:     Size  Location     Type
  3127 ;;		None
  3128 ;; Return value:  Size  Location     Type
  3129 ;;                  1    wreg      void 
  3130 ;; Registers used:
  3131 ;;		wreg
  3132 ;; Tracked objects:
  3133 ;;		On entry : 0/0
  3134 ;;		On exit  : 0/0
  3135 ;;		Unchanged: 0/0
  3136 ;; Data sizes:     COMMON   BANK0   BANK1   BANK3   BANK2
  3137 ;;      Params:         0       0       0       0       0
  3138 ;;      Locals:         0       0       0       0       0
  3139 ;;      Temps:          0       0       0       0       0
  3140 ;;      Totals:         0       0       0       0       0
  3141 ;;Total ram usage:        0 bytes
  3142 ;; Hardware stack levels used:    1
  3143 ;; Hardware stack levels required when called:    1
  3144 ;; This function calls:
  3145 ;;		Nothing
  3146 ;; This function is called by:
  3147 ;;		_main
  3148 ;; This function uses a non-reentrant model
  3149 ;;
  3150                           
  3151                           
  3152                           ;psect for function _TIMER_init_timer1
  3153  15A1                     _TIMER_init_timer1:
  3154  15A1                     l2239:	
  3155                           ;incstack = 0
  3156                           ; Regs used in _TIMER_init_timer1: [wreg]
  3157                           
  3158                           
  3159                           ;timer.c: 10:     TMRA = 65535-5000;
  3160  15A1  3077               	movlw	119
  3161  15A2  1283               	bcf	3,5	;RP0=0, select bank2
  3162  15A3  1703               	bsf	3,6	;RP1=1, select bank2
  3163  15A4  0090               	movwf	16	;volatile
  3164  15A5                     l2241:
  3165                           
  3166                           ;timer.c: 24:     T1OSCEN=0;
  3167  15A5  1283               	bcf	3,5	;RP0=0, select bank0
  3168  15A6  1303               	bcf	3,6	;RP1=0, select bank0
  3169  15A7  1190               	bcf	16,3	;volatile
  3170  15A8                     l2243:
  3171                           
  3172                           ;timer.c: 36:     TMRCS1=0;
  3173  15A8  1390               	bcf	16,7	;volatile
  3174  15A9                     l2245:
  3175                           
  3176                           ;timer.c: 37:     TMRCS0=0;
  3177  15A9  1310               	bcf	16,6	;volatile
  3178  15AA                     l2247:
  3179                           
  3180                           ;timer.c: 46:     T1CKPS0=1;
  3181  15AA  1610               	bsf	16,4	;volatile
  3182  15AB                     l2249:
  3183                           
  3184                           ;timer.c: 47:     T1CKPS1=1;
  3185  15AB  1690               	bsf	16,5	;volatile
  3186  15AC                     l2251:
  3187                           
  3188                           ;timer.c: 56:     T1SYNC=1;
  3189  15AC  1510               	bsf	16,2	;volatile
  3190  15AD                     l2253:
  3191                           
  3192                           ;timer.c: 62:     TMR1ON=1;
  3193  15AD  1410               	bsf	16,0	;volatile
  3194  15AE                     l2255:
  3195                           
  3196                           ;timer.c: 71:     TMR1GE=0;
  3197  15AE  1683               	bsf	3,5	;RP0=1, select bank1
  3198  15AF  1303               	bcf	3,6	;RP1=0, select bank1
  3199  15B0  138F               	bcf	15,7	;volatile
  3200  15B1                     l2257:
  3201                           
  3202                           ;timer.c: 75:     TMR1IE=1;
  3203  15B1  140C               	bsf	12,0	;volatile
  3204  15B2                     l206:
  3205  15B2  0008               	return
  3206  15B3                     __end_of_TIMER_init_timer1:
  3207                           
  3208                           	psect	text6
  3209  1676                     __ptext6:	
  3210 ;; *************** function _Resistance_Value *****************
  3211 ;; Defined at:
  3212 ;;		line 158 in file "main.c"
  3213 ;; Parameters:    Size  Location     Type
  3214 ;;  Voltage         4    0[BANK1 ] float 
  3215 ;; Auto vars:     Size  Location     Type
  3216 ;;		None
  3217 ;; Return value:  Size  Location     Type
  3218 ;;                  4    0[BANK1 ] float 
  3219 ;; Registers used:
  3220 ;;		wreg, status,2, status,0, btemp+1, pclath, cstack
  3221 ;; Tracked objects:
  3222 ;;		On entry : 0/0
  3223 ;;		On exit  : 0/0
  3224 ;;		Unchanged: 0/0
  3225 ;; Data sizes:     COMMON   BANK0   BANK1   BANK3   BANK2
  3226 ;;      Params:         0       0       4       0       0
  3227 ;;      Locals:         0       0       0       0       0
  3228 ;;      Temps:          0       0       0       0       0
  3229 ;;      Totals:         0       0       4       0       0
  3230 ;;Total ram usage:        4 bytes
  3231 ;; Hardware stack levels used:    1
  3232 ;; Hardware stack levels required when called:    3
  3233 ;; This function calls:
  3234 ;;		___fldiv
  3235 ;;		___flmul
  3236 ;;		___flsub
  3237 ;; This function is called by:
  3238 ;;		_main
  3239 ;; This function uses a non-reentrant model
  3240 ;;
  3241                           
  3242                           
  3243                           ;psect for function _Resistance_Value
  3244  1676                     _Resistance_Value:
  3245  1676                     l2279:	
  3246                           ;incstack = 0
  3247                           ; Regs used in _Resistance_Value: [wreg+status,2+status,0+btemp+1+pclath+cstack]
  3248                           
  3249                           
  3250                           ;main.c: 159:     return (4.7 * (5)/(5 -(2*Voltage)));
  3251  1676  3040               	movlw	64
  3252  1677  1283               	bcf	3,5	;RP0=0, select bank0
  3253  1678  1303               	bcf	3,6	;RP1=0, select bank0
  3254  1679  00D9               	movwf	___flmul@b+3
  3255  167A  3000               	movlw	0
  3256  167B  00D8               	movwf	___flmul@b+2
  3257  167C  3000               	movlw	0
  3258  167D  00D7               	movwf	___flmul@b+1
  3259  167E  3000               	movlw	0
  3260  167F  00D6               	movwf	___flmul@b
  3261  1680  1683               	bsf	3,5	;RP0=1, select bank1
  3262  1681  1303               	bcf	3,6	;RP1=0, select bank1
  3263  1682  0823               	movf	(Resistance_Value@Voltage+3)^(0+128),w
  3264  1683  1283               	bcf	3,5	;RP0=0, select bank0
  3265  1684  1303               	bcf	3,6	;RP1=0, select bank0
  3266  1685  00DD               	movwf	___flmul@a+3
  3267  1686  1683               	bsf	3,5	;RP0=1, select bank1
  3268  1687  1303               	bcf	3,6	;RP1=0, select bank1
  3269  1688  0822               	movf	(Resistance_Value@Voltage+2)^(0+128),w
  3270  1689  1283               	bcf	3,5	;RP0=0, select bank0
  3271  168A  1303               	bcf	3,6	;RP1=0, select bank0
  3272  168B  00DC               	movwf	___flmul@a+2
  3273  168C  1683               	bsf	3,5	;RP0=1, select bank1
  3274  168D  1303               	bcf	3,6	;RP1=0, select bank1
  3275  168E  0821               	movf	(Resistance_Value@Voltage+1)^(0+128),w
  3276  168F  1283               	bcf	3,5	;RP0=0, select bank0
  3277  1690  1303               	bcf	3,6	;RP1=0, select bank0
  3278  1691  00DB               	movwf	___flmul@a+1
  3279  1692  1683               	bsf	3,5	;RP0=1, select bank1
  3280  1693  1303               	bcf	3,6	;RP1=0, select bank1
  3281  1694  0820               	movf	Resistance_Value@Voltage^(0+128),w
  3282  1695  1283               	bcf	3,5	;RP0=0, select bank0
  3283  1696  1303               	bcf	3,6	;RP1=0, select bank0
  3284  1697  00DA               	movwf	___flmul@a
  3285  1698  120A  158A  249F  160A  118A  	fcall	___flmul
  3286  169D  1283               	bcf	3,5	;RP0=0, select bank0
  3287  169E  1303               	bcf	3,6	;RP1=0, select bank0
  3288  169F  0859               	movf	?___flmul+3,w
  3289  16A0  00B7               	movwf	___flsub@a+3
  3290  16A1  0858               	movf	?___flmul+2,w
  3291  16A2  00B6               	movwf	___flsub@a+2
  3292  16A3  0857               	movf	?___flmul+1,w
  3293  16A4  00B5               	movwf	___flsub@a+1
  3294  16A5  0856               	movf	?___flmul,w
  3295  16A6  00B4               	movwf	___flsub@a
  3296  16A7  3040               	movlw	64
  3297  16A8  00BB               	movwf	___flsub@b+3
  3298  16A9  30A0               	movlw	160
  3299  16AA  00BA               	movwf	___flsub@b+2
  3300  16AB  3000               	movlw	0
  3301  16AC  00B9               	movwf	___flsub@b+1
  3302  16AD  3000               	movlw	0
  3303  16AE  00B8               	movwf	___flsub@b
  3304  16AF  160A  118A  25CC  160A  118A  	fcall	___flsub
  3305  16B4  1283               	bcf	3,5	;RP0=0, select bank0
  3306  16B5  1303               	bcf	3,6	;RP1=0, select bank0
  3307  16B6  0837               	movf	?___flsub+3,w
  3308  16B7  00BF               	movwf	___fldiv@a+3
  3309  16B8  0836               	movf	?___flsub+2,w
  3310  16B9  00BE               	movwf	___fldiv@a+2
  3311  16BA  0835               	movf	?___flsub+1,w
  3312  16BB  00BD               	movwf	___fldiv@a+1
  3313  16BC  0834               	movf	?___flsub,w
  3314  16BD  00BC               	movwf	___fldiv@a
  3315  16BE  3041               	movlw	65
  3316  16BF  00C3               	movwf	___fldiv@b+3
  3317  16C0  30BC               	movlw	188
  3318  16C1  00C2               	movwf	___fldiv@b+2
  3319  16C2  3000               	movlw	0
  3320  16C3  00C1               	movwf	___fldiv@b+1
  3321  16C4  3000               	movlw	0
  3322  16C5  00C0               	movwf	___fldiv@b
  3323  16C6  120A  158A  203A  160A  118A  	fcall	___fldiv
  3324  16CB  1283               	bcf	3,5	;RP0=0, select bank0
  3325  16CC  1303               	bcf	3,6	;RP1=0, select bank0
  3326  16CD  083F               	movf	?___fldiv+3,w
  3327  16CE  1683               	bsf	3,5	;RP0=1, select bank1
  3328  16CF  1303               	bcf	3,6	;RP1=0, select bank1
  3329  16D0  00A3               	movwf	(?_Resistance_Value+3)^(0+128)
  3330  16D1  1283               	bcf	3,5	;RP0=0, select bank0
  3331  16D2  1303               	bcf	3,6	;RP1=0, select bank0
  3332  16D3  083E               	movf	?___fldiv+2,w
  3333  16D4  1683               	bsf	3,5	;RP0=1, select bank1
  3334  16D5  1303               	bcf	3,6	;RP1=0, select bank1
  3335  16D6  00A2               	movwf	(?_Resistance_Value+2)^(0+128)
  3336  16D7  1283               	bcf	3,5	;RP0=0, select bank0
  3337  16D8  1303               	bcf	3,6	;RP1=0, select bank0
  3338  16D9  083D               	movf	?___fldiv+1,w
  3339  16DA  1683               	bsf	3,5	;RP0=1, select bank1
  3340  16DB  1303               	bcf	3,6	;RP1=0, select bank1
  3341  16DC  00A1               	movwf	(?_Resistance_Value+1)^(0+128)
  3342  16DD  1283               	bcf	3,5	;RP0=0, select bank0
  3343  16DE  1303               	bcf	3,6	;RP1=0, select bank0
  3344  16DF  083C               	movf	?___fldiv,w
  3345  16E0  1683               	bsf	3,5	;RP0=1, select bank1
  3346  16E1  1303               	bcf	3,6	;RP1=0, select bank1
  3347  16E2  00A0               	movwf	?_Resistance_Value^(0+128)
  3348  16E3                     l45:
  3349  16E3  0008               	return
  3350  16E4                     __end_of_Resistance_Value:
  3351                           
  3352                           	psect	text7
  3353  15CC                     __ptext7:	
  3354 ;; *************** function ___flsub *****************
  3355 ;; Defined at:
  3356 ;;		line 242 in file "C:\Program Files\Microchip\xc8\v2.20\pic\sources\c90\common\sprcadd.c"
  3357 ;; Parameters:    Size  Location     Type
  3358 ;;  a               4   20[BANK0 ] float 
  3359 ;;  b               4   24[BANK0 ] float 
  3360 ;; Auto vars:     Size  Location     Type
  3361 ;;		None
  3362 ;; Return value:  Size  Location     Type
  3363 ;;                  4   20[BANK0 ] float 
  3364 ;; Registers used:
  3365 ;;		wreg, status,2, status,0, btemp+1, pclath, cstack
  3366 ;; Tracked objects:
  3367 ;;		On entry : 0/0
  3368 ;;		On exit  : 0/0
  3369 ;;		Unchanged: 0/0
  3370 ;; Data sizes:     COMMON   BANK0   BANK1   BANK3   BANK2
  3371 ;;      Params:         0       8       0       0       0
  3372 ;;      Locals:         0       0       0       0       0
  3373 ;;      Temps:          0       0       0       0       0
  3374 ;;      Totals:         0       8       0       0       0
  3375 ;;Total ram usage:        8 bytes
  3376 ;; Hardware stack levels used:    1
  3377 ;; Hardware stack levels required when called:    2
  3378 ;; This function calls:
  3379 ;;		___fladd
  3380 ;; This function is called by:
  3381 ;;		_Resistance_Value
  3382 ;;		_conversion_newton
  3383 ;; This function uses a non-reentrant model
  3384 ;;
  3385                           
  3386                           
  3387                           ;psect for function ___flsub
  3388  15CC                     ___flsub:
  3389  15CC                     l1867:	
  3390                           ;incstack = 0
  3391                           ; Regs used in ___flsub: [wreg+status,2+status,0+btemp+1+pclath+cstack]
  3392                           
  3393  15CC  3080               	movlw	128
  3394  15CD  1283               	bcf	3,5	;RP0=0, select bank0
  3395  15CE  1303               	bcf	3,6	;RP1=0, select bank0
  3396  15CF  06B7               	xorwf	___flsub@a+3,f
  3397  15D0                     l1869:
  3398  15D0  083B               	movf	___flsub@b+3,w
  3399  15D1  00A3               	movwf	___fladd@b+3
  3400  15D2  083A               	movf	___flsub@b+2,w
  3401  15D3  00A2               	movwf	___fladd@b+2
  3402  15D4  0839               	movf	___flsub@b+1,w
  3403  15D5  00A1               	movwf	___fladd@b+1
  3404  15D6  0838               	movf	___flsub@b,w
  3405  15D7  00A0               	movwf	___fladd@b
  3406  15D8  0837               	movf	___flsub@a+3,w
  3407  15D9  00A7               	movwf	___fladd@a+3
  3408  15DA  0836               	movf	___flsub@a+2,w
  3409  15DB  00A6               	movwf	___fladd@a+2
  3410  15DC  0835               	movf	___flsub@a+1,w
  3411  15DD  00A5               	movwf	___fladd@a+1
  3412  15DE  0834               	movf	___flsub@a,w
  3413  15DF  00A4               	movwf	___fladd@a
  3414  15E0  120A  158A  2217  160A  118A  	fcall	___fladd
  3415  15E5  1283               	bcf	3,5	;RP0=0, select bank0
  3416  15E6  1303               	bcf	3,6	;RP1=0, select bank0
  3417  15E7  0823               	movf	?___fladd+3,w
  3418  15E8  00B7               	movwf	?___flsub+3
  3419  15E9  0822               	movf	?___fladd+2,w
  3420  15EA  00B6               	movwf	?___flsub+2
  3421  15EB  0821               	movf	?___fladd+1,w
  3422  15EC  00B5               	movwf	?___flsub+1
  3423  15ED  0820               	movf	?___fladd,w
  3424  15EE  00B4               	movwf	?___flsub
  3425  15EF                     l556:
  3426  15EF  0008               	return
  3427  15F0                     __end_of___flsub:
  3428                           
  3429                           	psect	text8
  3430  0A17                     __ptext8:	
  3431 ;; *************** function ___fladd *****************
  3432 ;; Defined at:
  3433 ;;		line 10 in file "C:\Program Files\Microchip\xc8\v2.20\pic\sources\c90\common\sprcadd.c"
  3434 ;; Parameters:    Size  Location     Type
  3435 ;;  b               4    0[BANK0 ] float 
  3436 ;;  a               4    4[BANK0 ] float 
  3437 ;; Auto vars:     Size  Location     Type
  3438 ;;  grs             1   19[BANK0 ] unsigned char 
  3439 ;;  bexp            1   18[BANK0 ] unsigned char 
  3440 ;;  aexp            1   17[BANK0 ] unsigned char 
  3441 ;;  signs           1   16[BANK0 ] unsigned char 
  3442 ;; Return value:  Size  Location     Type
  3443 ;;                  4    0[BANK0 ] unsigned char 
  3444 ;; Registers used:
  3445 ;;		wreg, status,2, status,0, btemp+1
  3446 ;; Tracked objects:
  3447 ;;		On entry : 0/0
  3448 ;;		On exit  : 0/0
  3449 ;;		Unchanged: 0/0
  3450 ;; Data sizes:     COMMON   BANK0   BANK1   BANK3   BANK2
  3451 ;;      Params:         0       8       0       0       0
  3452 ;;      Locals:         0       4       0       0       0
  3453 ;;      Temps:          0       8       0       0       0
  3454 ;;      Totals:         0      20       0       0       0
  3455 ;;Total ram usage:       20 bytes
  3456 ;; Hardware stack levels used:    1
  3457 ;; Hardware stack levels required when called:    1
  3458 ;; This function calls:
  3459 ;;		Nothing
  3460 ;; This function is called by:
  3461 ;;		_conversion_newton
  3462 ;;		___flsub
  3463 ;; This function uses a non-reentrant model
  3464 ;;
  3465                           
  3466                           
  3467                           ;psect for function ___fladd
  3468  0A17                     ___fladd:
  3469  0A17                     l1599:	
  3470                           ;incstack = 0
  3471                           ; Regs used in ___fladd: [wreg+status,2+status,0+btemp+1]
  3472                           
  3473  0A17  1283               	bcf	3,5	;RP0=0, select bank0
  3474  0A18  1303               	bcf	3,6	;RP1=0, select bank0
  3475  0A19  0823               	movf	___fladd@b+3,w
  3476  0A1A  3980               	andlw	128
  3477  0A1B  00FF               	movwf	btemp+1
  3478  0A1C  087F               	movf	btemp+1,w
  3479  0A1D  00B0               	movwf	___fladd@signs
  3480  0A1E                     l1601:
  3481  0A1E  0823               	movf	___fladd@b+3,w
  3482  0A1F  00A8               	movwf	??___fladd
  3483  0A20  0728               	addwf	??___fladd,w
  3484  0A21  00FF               	movwf	btemp+1
  3485  0A22  087F               	movf	btemp+1,w
  3486  0A23  00B2               	movwf	___fladd@bexp
  3487  0A24                     l1603:
  3488  0A24  1FA2               	btfss	___fladd@b+2,7
  3489  0A25  2A27               	goto	u1751
  3490  0A26  2A28               	goto	u1750
  3491  0A27                     u1751:
  3492  0A27  2A29               	goto	l1607
  3493  0A28                     u1750:
  3494  0A28                     l1605:
  3495  0A28  1432               	bsf	___fladd@bexp,0
  3496  0A29                     l1607:
  3497  0A29  0832               	movf	___fladd@bexp,w
  3498  0A2A  1903               	btfsc	3,2
  3499  0A2B  2A2D               	goto	u1761
  3500  0A2C  2A2E               	goto	u1760
  3501  0A2D                     u1761:
  3502  0A2D  2A3E               	goto	l1617
  3503  0A2E                     u1760:
  3504  0A2E                     l1609:
  3505  0A2E  0A32               	incf	___fladd@bexp,w
  3506  0A2F  1D03               	btfss	3,2
  3507  0A30  2A32               	goto	u1771
  3508  0A31  2A33               	goto	u1770
  3509  0A32                     u1771:
  3510  0A32  2A3B               	goto	l1613
  3511  0A33                     u1770:
  3512  0A33                     l1611:
  3513  0A33  3000               	movlw	0
  3514  0A34  00A3               	movwf	___fladd@b+3
  3515  0A35  3000               	movlw	0
  3516  0A36  00A2               	movwf	___fladd@b+2
  3517  0A37  3000               	movlw	0
  3518  0A38  00A1               	movwf	___fladd@b+1
  3519  0A39  3000               	movlw	0
  3520  0A3A  00A0               	movwf	___fladd@b
  3521  0A3B                     l1613:
  3522  0A3B  17A2               	bsf	___fladd@b+2,7
  3523  0A3C                     l1615:
  3524  0A3C  01A3               	clrf	___fladd@b+3
  3525  0A3D  2A46               	goto	l1619
  3526  0A3E                     l1617:
  3527  0A3E  3000               	movlw	0
  3528  0A3F  00A3               	movwf	___fladd@b+3
  3529  0A40  3000               	movlw	0
  3530  0A41  00A2               	movwf	___fladd@b+2
  3531  0A42  3000               	movlw	0
  3532  0A43  00A1               	movwf	___fladd@b+1
  3533  0A44  3000               	movlw	0
  3534  0A45  00A0               	movwf	___fladd@b
  3535  0A46                     l1619:
  3536  0A46  0827               	movf	___fladd@a+3,w
  3537  0A47  3980               	andlw	128
  3538  0A48  00FF               	movwf	btemp+1
  3539  0A49  087F               	movf	btemp+1,w
  3540  0A4A  00B1               	movwf	___fladd@aexp
  3541  0A4B                     l1621:
  3542  0A4B  0831               	movf	___fladd@aexp,w
  3543  0A4C  0630               	xorwf	___fladd@signs,w
  3544  0A4D  1903               	skipnz
  3545  0A4E  2A50               	goto	u1781
  3546  0A4F  2A51               	goto	u1780
  3547  0A50                     u1781:
  3548  0A50  2A52               	goto	l1625
  3549  0A51                     u1780:
  3550  0A51                     l1623:
  3551  0A51  1730               	bsf	___fladd@signs,6
  3552  0A52                     l1625:
  3553  0A52  0827               	movf	___fladd@a+3,w
  3554  0A53  00A8               	movwf	??___fladd
  3555  0A54  0728               	addwf	??___fladd,w
  3556  0A55  00FF               	movwf	btemp+1
  3557  0A56  087F               	movf	btemp+1,w
  3558  0A57  00B1               	movwf	___fladd@aexp
  3559  0A58                     l1627:
  3560  0A58  1FA6               	btfss	___fladd@a+2,7
  3561  0A59  2A5B               	goto	u1791
  3562  0A5A  2A5C               	goto	u1790
  3563  0A5B                     u1791:
  3564  0A5B  2A5D               	goto	l1631
  3565  0A5C                     u1790:
  3566  0A5C                     l1629:
  3567  0A5C  1431               	bsf	___fladd@aexp,0
  3568  0A5D                     l1631:
  3569  0A5D  0831               	movf	___fladd@aexp,w
  3570  0A5E  1903               	btfsc	3,2
  3571  0A5F  2A61               	goto	u1801
  3572  0A60  2A62               	goto	u1800
  3573  0A61                     u1801:
  3574  0A61  2A72               	goto	l1641
  3575  0A62                     u1800:
  3576  0A62                     l1633:
  3577  0A62  0A31               	incf	___fladd@aexp,w
  3578  0A63  1D03               	btfss	3,2
  3579  0A64  2A66               	goto	u1811
  3580  0A65  2A67               	goto	u1810
  3581  0A66                     u1811:
  3582  0A66  2A6F               	goto	l1637
  3583  0A67                     u1810:
  3584  0A67                     l1635:
  3585  0A67  3000               	movlw	0
  3586  0A68  00A7               	movwf	___fladd@a+3
  3587  0A69  3000               	movlw	0
  3588  0A6A  00A6               	movwf	___fladd@a+2
  3589  0A6B  3000               	movlw	0
  3590  0A6C  00A5               	movwf	___fladd@a+1
  3591  0A6D  3000               	movlw	0
  3592  0A6E  00A4               	movwf	___fladd@a
  3593  0A6F                     l1637:
  3594  0A6F  17A6               	bsf	___fladd@a+2,7
  3595  0A70                     l1639:
  3596  0A70  01A7               	clrf	___fladd@a+3
  3597  0A71  2A7A               	goto	l510
  3598  0A72                     l1641:
  3599  0A72  3000               	movlw	0
  3600  0A73  00A7               	movwf	___fladd@a+3
  3601  0A74  3000               	movlw	0
  3602  0A75  00A6               	movwf	___fladd@a+2
  3603  0A76  3000               	movlw	0
  3604  0A77  00A5               	movwf	___fladd@a+1
  3605  0A78  3000               	movlw	0
  3606  0A79  00A4               	movwf	___fladd@a
  3607  0A7A                     l510:
  3608  0A7A  0832               	movf	___fladd@bexp,w
  3609  0A7B  0231               	subwf	___fladd@aexp,w
  3610  0A7C  1803               	skipnc
  3611  0A7D  2A7F               	goto	u1821
  3612  0A7E  2A80               	goto	u1820
  3613  0A7F                     u1821:
  3614  0A7F  2AC4               	goto	l1677
  3615  0A80                     u1820:
  3616  0A80                     l1643:
  3617  0A80  1F30               	btfss	___fladd@signs,6
  3618  0A81  2A83               	goto	u1831
  3619  0A82  2A84               	goto	u1830
  3620  0A83                     u1831:
  3621  0A83  2A88               	goto	l1647
  3622  0A84                     u1830:
  3623  0A84                     l1645:
  3624  0A84  3080               	movlw	128
  3625  0A85  00FF               	movwf	btemp+1
  3626  0A86  087F               	movf	btemp+1,w
  3627  0A87  06B0               	xorwf	___fladd@signs,f
  3628  0A88                     l1647:
  3629  0A88  0832               	movf	___fladd@bexp,w
  3630  0A89  00FF               	movwf	btemp+1
  3631  0A8A  087F               	movf	btemp+1,w
  3632  0A8B  00B3               	movwf	___fladd@grs
  3633  0A8C                     l1649:
  3634  0A8C  0831               	movf	___fladd@aexp,w
  3635  0A8D  00FF               	movwf	btemp+1
  3636  0A8E  087F               	movf	btemp+1,w
  3637  0A8F  00B2               	movwf	___fladd@bexp
  3638  0A90                     l1651:
  3639  0A90  0833               	movf	___fladd@grs,w
  3640  0A91  00FF               	movwf	btemp+1
  3641  0A92  087F               	movf	btemp+1,w
  3642  0A93  00B1               	movwf	___fladd@aexp
  3643  0A94                     l1653:
  3644  0A94  0820               	movf	___fladd@b,w
  3645  0A95  00FF               	movwf	btemp+1
  3646  0A96  087F               	movf	btemp+1,w
  3647  0A97  00B3               	movwf	___fladd@grs
  3648  0A98                     l1655:
  3649  0A98  0824               	movf	___fladd@a,w
  3650  0A99  00FF               	movwf	btemp+1
  3651  0A9A  087F               	movf	btemp+1,w
  3652  0A9B  00A0               	movwf	___fladd@b
  3653  0A9C                     l1657:
  3654  0A9C  0833               	movf	___fladd@grs,w
  3655  0A9D  00FF               	movwf	btemp+1
  3656  0A9E  087F               	movf	btemp+1,w
  3657  0A9F  00A4               	movwf	___fladd@a
  3658  0AA0                     l1659:
  3659  0AA0  0821               	movf	___fladd@b+1,w
  3660  0AA1  00FF               	movwf	btemp+1
  3661  0AA2  087F               	movf	btemp+1,w
  3662  0AA3  00B3               	movwf	___fladd@grs
  3663  0AA4                     l1661:
  3664  0AA4  0825               	movf	___fladd@a+1,w
  3665  0AA5  00FF               	movwf	btemp+1
  3666  0AA6  087F               	movf	btemp+1,w
  3667  0AA7  00A1               	movwf	___fladd@b+1
  3668  0AA8                     l1663:
  3669  0AA8  0833               	movf	___fladd@grs,w
  3670  0AA9  00FF               	movwf	btemp+1
  3671  0AAA  087F               	movf	btemp+1,w
  3672  0AAB  00A5               	movwf	___fladd@a+1
  3673  0AAC                     l1665:
  3674  0AAC  0822               	movf	___fladd@b+2,w
  3675  0AAD  00FF               	movwf	btemp+1
  3676  0AAE  087F               	movf	btemp+1,w
  3677  0AAF  00B3               	movwf	___fladd@grs
  3678  0AB0                     l1667:
  3679  0AB0  0826               	movf	___fladd@a+2,w
  3680  0AB1  00FF               	movwf	btemp+1
  3681  0AB2  087F               	movf	btemp+1,w
  3682  0AB3  00A2               	movwf	___fladd@b+2
  3683  0AB4                     l1669:
  3684  0AB4  0833               	movf	___fladd@grs,w
  3685  0AB5  00FF               	movwf	btemp+1
  3686  0AB6  087F               	movf	btemp+1,w
  3687  0AB7  00A6               	movwf	___fladd@a+2
  3688  0AB8                     l1671:
  3689  0AB8  0823               	movf	___fladd@b+3,w
  3690  0AB9  00FF               	movwf	btemp+1
  3691  0ABA  087F               	movf	btemp+1,w
  3692  0ABB  00B3               	movwf	___fladd@grs
  3693  0ABC                     l1673:
  3694  0ABC  0827               	movf	___fladd@a+3,w
  3695  0ABD  00FF               	movwf	btemp+1
  3696  0ABE  087F               	movf	btemp+1,w
  3697  0ABF  00A3               	movwf	___fladd@b+3
  3698  0AC0                     l1675:
  3699  0AC0  0833               	movf	___fladd@grs,w
  3700  0AC1  00FF               	movwf	btemp+1
  3701  0AC2  087F               	movf	btemp+1,w
  3702  0AC3  00A7               	movwf	___fladd@a+3
  3703  0AC4                     l1677:
  3704  0AC4  01B3               	clrf	___fladd@grs
  3705  0AC5                     l1679:
  3706  0AC5  0831               	movf	___fladd@aexp,w
  3707  0AC6  00A8               	movwf	??___fladd
  3708  0AC7  01A9               	clrf	??___fladd+1
  3709  0AC8  0829               	movf	??___fladd+1,w
  3710  0AC9  00AB               	movwf	??___fladd+3
  3711  0ACA  0832               	movf	___fladd@bexp,w
  3712  0ACB  0228               	subwf	??___fladd,w
  3713  0ACC  00AA               	movwf	??___fladd+2
  3714  0ACD  1C03               	skipc
  3715  0ACE  03AB               	decf	??___fladd+3,f
  3716  0ACF  082B               	movf	??___fladd+3,w
  3717  0AD0  3A80               	xorlw	128
  3718  0AD1  00FF               	movwf	btemp+1
  3719  0AD2  3080               	movlw	128
  3720  0AD3  027F               	subwf	btemp+1,w
  3721  0AD4  1D03               	skipz
  3722  0AD5  2AD8               	goto	u1845
  3723  0AD6  301A               	movlw	26
  3724  0AD7  022A               	subwf	??___fladd+2,w
  3725  0AD8                     u1845:
  3726  0AD8  1C03               	skipc
  3727  0AD9  2ADB               	goto	u1841
  3728  0ADA  2ADC               	goto	u1840
  3729  0ADB                     u1841:
  3730  0ADB  2B19               	goto	l1699
  3731  0ADC                     u1840:
  3732  0ADC                     l1681:
  3733  0ADC  1283               	bcf	3,5	;RP0=0, select bank0
  3734  0ADD  1303               	bcf	3,6	;RP1=0, select bank0
  3735  0ADE  0823               	movf	___fladd@b+3,w
  3736  0ADF  0422               	iorwf	___fladd@b+2,w
  3737  0AE0  0421               	iorwf	___fladd@b+1,w
  3738  0AE1  0420               	iorwf	___fladd@b,w
  3739  0AE2  1D03               	skipz
  3740  0AE3  2AE5               	goto	u1851
  3741  0AE4  2AE7               	goto	u1850
  3742  0AE5                     u1851:
  3743  0AE5  3001               	movlw	1
  3744  0AE6  2AE8               	goto	u1860
  3745  0AE7                     u1850:
  3746  0AE7  3000               	movlw	0
  3747  0AE8                     u1860:
  3748  0AE8  00FF               	movwf	btemp+1
  3749  0AE9  087F               	movf	btemp+1,w
  3750  0AEA  00B3               	movwf	___fladd@grs
  3751  0AEB                     l1683:
  3752  0AEB  3000               	movlw	0
  3753  0AEC  00A3               	movwf	___fladd@b+3
  3754  0AED  3000               	movlw	0
  3755  0AEE  00A2               	movwf	___fladd@b+2
  3756  0AEF  3000               	movlw	0
  3757  0AF0  00A1               	movwf	___fladd@b+1
  3758  0AF1  3000               	movlw	0
  3759  0AF2  00A0               	movwf	___fladd@b
  3760  0AF3                     l1685:
  3761  0AF3  0831               	movf	___fladd@aexp,w
  3762  0AF4  00FF               	movwf	btemp+1
  3763  0AF5  087F               	movf	btemp+1,w
  3764  0AF6  00B2               	movwf	___fladd@bexp
  3765  0AF7  2B21               	goto	l514
  3766  0AF8                     l516:
  3767  0AF8  1C33               	btfss	___fladd@grs,0
  3768  0AF9  2AFB               	goto	u1871
  3769  0AFA  2AFC               	goto	u1870
  3770  0AFB                     u1871:
  3771  0AFB  2B05               	goto	l1689
  3772  0AFC                     u1870:
  3773  0AFC                     l1687:
  3774  0AFC  0833               	movf	___fladd@grs,w
  3775  0AFD  00A8               	movwf	??___fladd
  3776  0AFE  1003               	clrc
  3777  0AFF  0C28               	rrf	??___fladd,w
  3778  0B00  3801               	iorlw	1
  3779  0B01  00FF               	movwf	btemp+1
  3780  0B02  087F               	movf	btemp+1,w
  3781  0B03  00B3               	movwf	___fladd@grs
  3782  0B04  2B07               	goto	l1691
  3783  0B05                     l1689:
  3784  0B05  1003               	clrc
  3785  0B06  0CB3               	rrf	___fladd@grs,f
  3786  0B07                     l1691:
  3787  0B07  1C20               	btfss	___fladd@b,0
  3788  0B08  2B0A               	goto	u1881
  3789  0B09  2B0B               	goto	u1880
  3790  0B0A                     u1881:
  3791  0B0A  2B0C               	goto	l1695
  3792  0B0B                     u1880:
  3793  0B0B                     l1693:
  3794  0B0B  17B3               	bsf	___fladd@grs,7
  3795  0B0C                     l1695:
  3796  0B0C  3001               	movlw	1
  3797  0B0D  00A8               	movwf	??___fladd
  3798  0B0E                     u1895:
  3799  0B0E  0D23               	rlf	___fladd@b+3,w
  3800  0B0F  0CA3               	rrf	___fladd@b+3,f
  3801  0B10  0CA2               	rrf	___fladd@b+2,f
  3802  0B11  0CA1               	rrf	___fladd@b+1,f
  3803  0B12  0CA0               	rrf	___fladd@b,f
  3804  0B13  0BA8               	decfsz	??___fladd& (0+127),f
  3805  0B14  2B0E               	goto	u1895
  3806  0B15                     l1697:
  3807  0B15  3001               	movlw	1
  3808  0B16  00FF               	movwf	btemp+1
  3809  0B17  087F               	movf	btemp+1,w
  3810  0B18  07B2               	addwf	___fladd@bexp,f
  3811  0B19                     l1699:
  3812  0B19  1283               	bcf	3,5	;RP0=0, select bank0
  3813  0B1A  1303               	bcf	3,6	;RP1=0, select bank0
  3814  0B1B  0831               	movf	___fladd@aexp,w
  3815  0B1C  0232               	subwf	___fladd@bexp,w
  3816  0B1D  1C03               	skipc
  3817  0B1E  2B20               	goto	u1901
  3818  0B1F  2B21               	goto	u1900
  3819  0B20                     u1901:
  3820  0B20  2AF8               	goto	l516
  3821  0B21                     u1900:
  3822  0B21                     l514:
  3823  0B21  1B30               	btfsc	___fladd@signs,6
  3824  0B22  2B24               	goto	u1911
  3825  0B23  2B25               	goto	u1910
  3826  0B24                     u1911:
  3827  0B24  2B70               	goto	l1725
  3828  0B25                     u1910:
  3829  0B25                     l1701:
  3830  0B25  0832               	movf	___fladd@bexp,w
  3831  0B26  1D03               	btfss	3,2
  3832  0B27  2B29               	goto	u1921
  3833  0B28  2B2A               	goto	u1920
  3834  0B29                     u1921:
  3835  0B29  2B33               	goto	l1707
  3836  0B2A                     u1920:
  3837  0B2A                     l1703:
  3838  0B2A  3000               	movlw	0
  3839  0B2B  00A3               	movwf	?___fladd+3
  3840  0B2C  3000               	movlw	0
  3841  0B2D  00A2               	movwf	?___fladd+2
  3842  0B2E  3000               	movlw	0
  3843  0B2F  00A1               	movwf	?___fladd+1
  3844  0B30  3000               	movlw	0
  3845  0B31  00A0               	movwf	?___fladd
  3846  0B32  2C9E               	goto	l523
  3847  0B33                     l1707:
  3848  0B33  0824               	movf	___fladd@a,w
  3849  0B34  07A0               	addwf	___fladd@b,f
  3850  0B35  0825               	movf	___fladd@a+1,w
  3851  0B36  1103               	clrz
  3852  0B37  1803               	skipnc
  3853  0B38  3E01               	addlw	1
  3854  0B39  1903               	skipnz
  3855  0B3A  2B3C               	goto	u1931
  3856  0B3B  07A1               	addwf	___fladd@b+1,f
  3857  0B3C                     u1931:
  3858  0B3C  0826               	movf	___fladd@a+2,w
  3859  0B3D  1103               	clrz
  3860  0B3E  1803               	skipnc
  3861  0B3F  3E01               	addlw	1
  3862  0B40  1903               	skipnz
  3863  0B41  2B43               	goto	u1932
  3864  0B42  07A2               	addwf	___fladd@b+2,f
  3865  0B43                     u1932:
  3866  0B43  0827               	movf	___fladd@a+3,w
  3867  0B44  1103               	clrz
  3868  0B45  1803               	skipnc
  3869  0B46  3E01               	addlw	1
  3870  0B47  1903               	skipnz
  3871  0B48  2B4A               	goto	u1933
  3872  0B49  07A3               	addwf	___fladd@b+3,f
  3873  0B4A                     u1933:
  3874  0B4A                     l1709:
  3875  0B4A  1C23               	btfss	___fladd@b+3,0
  3876  0B4B  2B4D               	goto	u1941
  3877  0B4C  2B4E               	goto	u1940
  3878  0B4D                     u1941:
  3879  0B4D  2C24               	goto	l1761
  3880  0B4E                     u1940:
  3881  0B4E                     l1711:
  3882  0B4E  1C33               	btfss	___fladd@grs,0
  3883  0B4F  2B51               	goto	u1951
  3884  0B50  2B52               	goto	u1950
  3885  0B51                     u1951:
  3886  0B51  2B5B               	goto	l1715
  3887  0B52                     u1950:
  3888  0B52                     l1713:
  3889  0B52  0833               	movf	___fladd@grs,w
  3890  0B53  00A8               	movwf	??___fladd
  3891  0B54  1003               	clrc
  3892  0B55  0C28               	rrf	??___fladd,w
  3893  0B56  3801               	iorlw	1
  3894  0B57  00FF               	movwf	btemp+1
  3895  0B58  087F               	movf	btemp+1,w
  3896  0B59  00B3               	movwf	___fladd@grs
  3897  0B5A  2B5D               	goto	l1717
  3898  0B5B                     l1715:
  3899  0B5B  1003               	clrc
  3900  0B5C  0CB3               	rrf	___fladd@grs,f
  3901  0B5D                     l1717:
  3902  0B5D  1C20               	btfss	___fladd@b,0
  3903  0B5E  2B60               	goto	u1961
  3904  0B5F  2B61               	goto	u1960
  3905  0B60                     u1961:
  3906  0B60  2B62               	goto	l1721
  3907  0B61                     u1960:
  3908  0B61                     l1719:
  3909  0B61  17B3               	bsf	___fladd@grs,7
  3910  0B62                     l1721:
  3911  0B62  3001               	movlw	1
  3912  0B63  00A8               	movwf	??___fladd
  3913  0B64                     u1975:
  3914  0B64  0D23               	rlf	___fladd@b+3,w
  3915  0B65  0CA3               	rrf	___fladd@b+3,f
  3916  0B66  0CA2               	rrf	___fladd@b+2,f
  3917  0B67  0CA1               	rrf	___fladd@b+1,f
  3918  0B68  0CA0               	rrf	___fladd@b,f
  3919  0B69  0BA8               	decfsz	??___fladd& (0+127),f
  3920  0B6A  2B64               	goto	u1975
  3921  0B6B                     l1723:
  3922  0B6B  3001               	movlw	1
  3923  0B6C  00FF               	movwf	btemp+1
  3924  0B6D  087F               	movf	btemp+1,w
  3925  0B6E  07B2               	addwf	___fladd@bexp,f
  3926  0B6F  2C24               	goto	l1761
  3927  0B70                     l1725:
  3928  0B70  0823               	movf	___fladd@b+3,w
  3929  0B71  3A80               	xorlw	128
  3930  0B72  00FF               	movwf	btemp+1
  3931  0B73  0827               	movf	___fladd@a+3,w
  3932  0B74  3A80               	xorlw	128
  3933  0B75  027F               	subwf	btemp+1,w
  3934  0B76  1D03               	skipz
  3935  0B77  2B82               	goto	u1983
  3936  0B78  0826               	movf	___fladd@a+2,w
  3937  0B79  0222               	subwf	___fladd@b+2,w
  3938  0B7A  1D03               	skipz
  3939  0B7B  2B82               	goto	u1983
  3940  0B7C  0825               	movf	___fladd@a+1,w
  3941  0B7D  0221               	subwf	___fladd@b+1,w
  3942  0B7E  1D03               	skipz
  3943  0B7F  2B82               	goto	u1983
  3944  0B80  0824               	movf	___fladd@a,w
  3945  0B81  0220               	subwf	___fladd@b,w
  3946  0B82                     u1983:
  3947  0B82  1803               	skipnc
  3948  0B83  2B85               	goto	u1981
  3949  0B84  2B86               	goto	u1980
  3950  0B85                     u1981:
  3951  0B85  2BDE               	goto	l1737
  3952  0B86                     u1980:
  3953  0B86                     l1727:
  3954  0B86  30FF               	movlw	255
  3955  0B87  00A8               	movwf	??___fladd
  3956  0B88  30FF               	movlw	255
  3957  0B89  00A9               	movwf	??___fladd+1
  3958  0B8A  30FF               	movlw	255
  3959  0B8B  00AA               	movwf	??___fladd+2
  3960  0B8C  30FF               	movlw	255
  3961  0B8D  00AB               	movwf	??___fladd+3
  3962  0B8E  0824               	movf	___fladd@a,w
  3963  0B8F  00AC               	movwf	??___fladd+4
  3964  0B90  0825               	movf	___fladd@a+1,w
  3965  0B91  00AD               	movwf	??___fladd+5
  3966  0B92  0826               	movf	___fladd@a+2,w
  3967  0B93  00AE               	movwf	??___fladd+6
  3968  0B94  0827               	movf	___fladd@a+3,w
  3969  0B95  00AF               	movwf	??___fladd+7
  3970  0B96  0820               	movf	___fladd@b,w
  3971  0B97  02AC               	subwf	??___fladd+4,f
  3972  0B98  0821               	movf	___fladd@b+1,w
  3973  0B99  1C03               	skipc
  3974  0B9A  0F21               	incfsz	___fladd@b+1,w
  3975  0B9B  2B9D               	goto	u1991
  3976  0B9C  2B9E               	goto	u1992
  3977  0B9D                     u1991:
  3978  0B9D  02AD               	subwf	??___fladd+5,f
  3979  0B9E                     u1992:
  3980  0B9E  0822               	movf	___fladd@b+2,w
  3981  0B9F  1C03               	skipc
  3982  0BA0  0F22               	incfsz	___fladd@b+2,w
  3983  0BA1  2BA3               	goto	u1993
  3984  0BA2  2BA4               	goto	u1994
  3985  0BA3                     u1993:
  3986  0BA3  02AE               	subwf	??___fladd+6,f
  3987  0BA4                     u1994:
  3988  0BA4  0823               	movf	___fladd@b+3,w
  3989  0BA5  1C03               	skipc
  3990  0BA6  0F23               	incfsz	___fladd@b+3,w
  3991  0BA7  2BA9               	goto	u1995
  3992  0BA8  2BAA               	goto	u1996
  3993  0BA9                     u1995:
  3994  0BA9  02AF               	subwf	??___fladd+7,f
  3995  0BAA                     u1996:
  3996  0BAA  082C               	movf	??___fladd+4,w
  3997  0BAB  07A8               	addwf	??___fladd,f
  3998  0BAC  082D               	movf	??___fladd+5,w
  3999  0BAD  1803               	skipnc
  4000  0BAE  0F2D               	incfsz	??___fladd+5,w
  4001  0BAF  2BB1               	goto	u2000
  4002  0BB0  2BB2               	goto	u2001
  4003  0BB1                     u2000:
  4004  0BB1  07A9               	addwf	??___fladd+1,f
  4005  0BB2                     u2001:
  4006  0BB2  082E               	movf	??___fladd+6,w
  4007  0BB3  1803               	skipnc
  4008  0BB4  0F2E               	incfsz	??___fladd+6,w
  4009  0BB5  2BB7               	goto	u2002
  4010  0BB6  2BB8               	goto	u2003
  4011  0BB7                     u2002:
  4012  0BB7  07AA               	addwf	??___fladd+2,f
  4013  0BB8                     u2003:
  4014  0BB8  082F               	movf	??___fladd+7,w
  4015  0BB9  1803               	skipnc
  4016  0BBA  0A2F               	incf	??___fladd+7,w
  4017  0BBB  07AB               	addwf	??___fladd+3,f
  4018  0BBC  082B               	movf	??___fladd+3,w
  4019  0BBD  00A3               	movwf	___fladd@b+3
  4020  0BBE  082A               	movf	??___fladd+2,w
  4021  0BBF  00A2               	movwf	___fladd@b+2
  4022  0BC0  0829               	movf	??___fladd+1,w
  4023  0BC1  00A1               	movwf	___fladd@b+1
  4024  0BC2  0828               	movf	??___fladd,w
  4025  0BC3  00A0               	movwf	___fladd@b
  4026  0BC4                     l1729:
  4027  0BC4  3080               	movlw	128
  4028  0BC5  00FF               	movwf	btemp+1
  4029  0BC6  087F               	movf	btemp+1,w
  4030  0BC7  06B0               	xorwf	___fladd@signs,f
  4031  0BC8                     l1731:
  4032  0BC8  09B3               	comf	___fladd@grs,f
  4033  0BC9  0AB3               	incf	___fladd@grs,f
  4034  0BCA                     l1733:
  4035  0BCA  0833               	movf	___fladd@grs,w
  4036  0BCB  1D03               	btfss	3,2
  4037  0BCC  2BCE               	goto	u2011
  4038  0BCD  2BCF               	goto	u2010
  4039  0BCE                     u2011:
  4040  0BCE  2BEC               	goto	l531
  4041  0BCF                     u2010:
  4042  0BCF                     l1735:
  4043  0BCF  3001               	movlw	1
  4044  0BD0  07A0               	addwf	___fladd@b,f
  4045  0BD1  3000               	movlw	0
  4046  0BD2  1803               	skipnc
  4047  0BD3  3001               	movlw	1
  4048  0BD4  07A1               	addwf	___fladd@b+1,f
  4049  0BD5  3000               	movlw	0
  4050  0BD6  1803               	skipnc
  4051  0BD7  3001               	movlw	1
  4052  0BD8  07A2               	addwf	___fladd@b+2,f
  4053  0BD9  3000               	movlw	0
  4054  0BDA  1803               	skipnc
  4055  0BDB  3001               	movlw	1
  4056  0BDC  07A3               	addwf	___fladd@b+3,f
  4057  0BDD  2BEC               	goto	l531
  4058  0BDE                     l1737:
  4059  0BDE  0824               	movf	___fladd@a,w
  4060  0BDF  02A0               	subwf	___fladd@b,f
  4061  0BE0  0825               	movf	___fladd@a+1,w
  4062  0BE1  1C03               	skipc
  4063  0BE2  0F25               	incfsz	___fladd@a+1,w
  4064  0BE3  02A1               	subwf	___fladd@b+1,f
  4065  0BE4  0826               	movf	___fladd@a+2,w
  4066  0BE5  1C03               	skipc
  4067  0BE6  0F26               	incfsz	___fladd@a+2,w
  4068  0BE7  02A2               	subwf	___fladd@b+2,f
  4069  0BE8  0827               	movf	___fladd@a+3,w
  4070  0BE9  1C03               	skipc
  4071  0BEA  0F27               	incfsz	___fladd@a+3,w
  4072  0BEB  02A3               	subwf	___fladd@b+3,f
  4073  0BEC                     l531:
  4074  0BEC  0823               	movf	___fladd@b+3,w
  4075  0BED  0422               	iorwf	___fladd@b+2,w
  4076  0BEE  0421               	iorwf	___fladd@b+1,w
  4077  0BEF  0420               	iorwf	___fladd@b,w
  4078  0BF0  1D03               	skipz
  4079  0BF1  2BF3               	goto	u2021
  4080  0BF2  2BF4               	goto	u2020
  4081  0BF3                     u2021:
  4082  0BF3  2C20               	goto	l1759
  4083  0BF4                     u2020:
  4084  0BF4                     l1739:
  4085  0BF4  0833               	movf	___fladd@grs,w
  4086  0BF5  1D03               	btfss	3,2
  4087  0BF6  2BF8               	goto	u2031
  4088  0BF7  2BF9               	goto	u2030
  4089  0BF8                     u2031:
  4090  0BF8  2C20               	goto	l1759
  4091  0BF9                     u2030:
  4092  0BF9                     l1741:
  4093  0BF9  3000               	movlw	0
  4094  0BFA  00A3               	movwf	?___fladd+3
  4095  0BFB  3000               	movlw	0
  4096  0BFC  00A2               	movwf	?___fladd+2
  4097  0BFD  3000               	movlw	0
  4098  0BFE  00A1               	movwf	?___fladd+1
  4099  0BFF  3000               	movlw	0
  4100  0C00  00A0               	movwf	?___fladd
  4101  0C01  2C9E               	goto	l523
  4102  0C02                     l1745:
  4103  0C02  3001               	movlw	1
  4104  0C03  00A8               	movwf	??___fladd
  4105  0C04                     u2045:
  4106  0C04  1003               	clrc
  4107  0C05  0DA0               	rlf	___fladd@b,f
  4108  0C06  0DA1               	rlf	___fladd@b+1,f
  4109  0C07  0DA2               	rlf	___fladd@b+2,f
  4110  0C08  0DA3               	rlf	___fladd@b+3,f
  4111  0C09  0BA8               	decfsz	??___fladd,f
  4112  0C0A  2C04               	goto	u2045
  4113  0C0B                     l1747:
  4114  0C0B  1FB3               	btfss	___fladd@grs,7
  4115  0C0C  2C0E               	goto	u2051
  4116  0C0D  2C0F               	goto	u2050
  4117  0C0E                     u2051:
  4118  0C0E  2C10               	goto	l535
  4119  0C0F                     u2050:
  4120  0C0F                     l1749:
  4121  0C0F  1420               	bsf	___fladd@b,0
  4122  0C10                     l535:
  4123  0C10  1C33               	btfss	___fladd@grs,0
  4124  0C11  2C13               	goto	u2061
  4125  0C12  2C14               	goto	u2060
  4126  0C13                     u2061:
  4127  0C13  2C17               	goto	l1753
  4128  0C14                     u2060:
  4129  0C14                     l1751:
  4130  0C14  1403               	setc
  4131  0C15  0DB3               	rlf	___fladd@grs,f
  4132  0C16  2C19               	goto	l1755
  4133  0C17                     l1753:
  4134  0C17  1003               	clrc
  4135  0C18  0DB3               	rlf	___fladd@grs,f
  4136  0C19                     l1755:
  4137  0C19  0832               	movf	___fladd@bexp,w
  4138  0C1A  1903               	btfsc	3,2
  4139  0C1B  2C1D               	goto	u2071
  4140  0C1C  2C1E               	goto	u2070
  4141  0C1D                     u2071:
  4142  0C1D  2C20               	goto	l1759
  4143  0C1E                     u2070:
  4144  0C1E                     l1757:
  4145  0C1E  3001               	movlw	1
  4146  0C1F  02B2               	subwf	___fladd@bexp,f
  4147  0C20                     l1759:
  4148  0C20  1FA2               	btfss	___fladd@b+2,7
  4149  0C21  2C23               	goto	u2081
  4150  0C22  2C24               	goto	u2080
  4151  0C23                     u2081:
  4152  0C23  2C02               	goto	l1745
  4153  0C24                     u2080:
  4154  0C24                     l1761:
  4155  0C24  01B1               	clrf	___fladd@aexp
  4156  0C25                     l1763:
  4157  0C25  1FB3               	btfss	___fladd@grs,7
  4158  0C26  2C28               	goto	u2091
  4159  0C27  2C29               	goto	u2090
  4160  0C28                     u2091:
  4161  0C28  2C37               	goto	l1771
  4162  0C29                     u2090:
  4163  0C29                     l1765:
  4164  0C29  0833               	movf	___fladd@grs,w
  4165  0C2A  397F               	andlw	127
  4166  0C2B  1903               	btfsc	3,2
  4167  0C2C  2C2E               	goto	u2101
  4168  0C2D  2C2F               	goto	u2100
  4169  0C2E                     u2101:
  4170  0C2E  2C32               	goto	l541
  4171  0C2F                     u2100:
  4172  0C2F                     l1767:
  4173  0C2F  01B1               	clrf	___fladd@aexp
  4174  0C30  0AB1               	incf	___fladd@aexp,f
  4175  0C31  2C37               	goto	l1771
  4176  0C32                     l541:
  4177  0C32  1C20               	btfss	___fladd@b,0
  4178  0C33  2C35               	goto	u2111
  4179  0C34  2C36               	goto	u2110
  4180  0C35                     u2111:
  4181  0C35  2C37               	goto	l1771
  4182  0C36                     u2110:
  4183  0C36  2C2F               	goto	l1767
  4184  0C37                     l1771:
  4185  0C37  0831               	movf	___fladd@aexp,w
  4186  0C38  1903               	btfsc	3,2
  4187  0C39  2C3B               	goto	u2121
  4188  0C3A  2C3C               	goto	u2120
  4189  0C3B                     u2121:
  4190  0C3B  2C70               	goto	l1781
  4191  0C3C                     u2120:
  4192  0C3C                     l1773:
  4193  0C3C  3001               	movlw	1
  4194  0C3D  07A0               	addwf	___fladd@b,f
  4195  0C3E  3000               	movlw	0
  4196  0C3F  1803               	skipnc
  4197  0C40  3001               	movlw	1
  4198  0C41  07A1               	addwf	___fladd@b+1,f
  4199  0C42  3000               	movlw	0
  4200  0C43  1803               	skipnc
  4201  0C44  3001               	movlw	1
  4202  0C45  07A2               	addwf	___fladd@b+2,f
  4203  0C46  3000               	movlw	0
  4204  0C47  1803               	skipnc
  4205  0C48  3001               	movlw	1
  4206  0C49  07A3               	addwf	___fladd@b+3,f
  4207  0C4A                     l1775:
  4208  0C4A  1C23               	btfss	___fladd@b+3,0
  4209  0C4B  2C4D               	goto	u2131
  4210  0C4C  2C4E               	goto	u2130
  4211  0C4D                     u2131:
  4212  0C4D  2C70               	goto	l1781
  4213  0C4E                     u2130:
  4214  0C4E                     l1777:
  4215  0C4E  0820               	movf	___fladd@b,w
  4216  0C4F  00A8               	movwf	??___fladd
  4217  0C50  0821               	movf	___fladd@b+1,w
  4218  0C51  00A9               	movwf	??___fladd+1
  4219  0C52  0822               	movf	___fladd@b+2,w
  4220  0C53  00AA               	movwf	??___fladd+2
  4221  0C54  0823               	movf	___fladd@b+3,w
  4222  0C55  00AB               	movwf	??___fladd+3
  4223  0C56  3001               	movlw	1
  4224  0C57  00AC               	movwf	??___fladd+4
  4225  0C58                     u2145:
  4226  0C58  0D2B               	rlf	??___fladd+3,w
  4227  0C59  0CAB               	rrf	??___fladd+3,f
  4228  0C5A  0CAA               	rrf	??___fladd+2,f
  4229  0C5B  0CA9               	rrf	??___fladd+1,f
  4230  0C5C  0CA8               	rrf	??___fladd,f
  4231  0C5D                     u2140:
  4232  0C5D  0BAC               	decfsz	??___fladd+4,f
  4233  0C5E  2C58               	goto	u2145
  4234  0C5F  082B               	movf	??___fladd+3,w
  4235  0C60  00A3               	movwf	___fladd@b+3
  4236  0C61  082A               	movf	??___fladd+2,w
  4237  0C62  00A2               	movwf	___fladd@b+2
  4238  0C63  0829               	movf	??___fladd+1,w
  4239  0C64  00A1               	movwf	___fladd@b+1
  4240  0C65  0828               	movf	??___fladd,w
  4241  0C66  00A0               	movwf	___fladd@b
  4242  0C67  0A32               	incf	___fladd@bexp,w
  4243  0C68  1903               	btfsc	3,2
  4244  0C69  2C6B               	goto	u2151
  4245  0C6A  2C6C               	goto	u2150
  4246  0C6B                     u2151:
  4247  0C6B  2C70               	goto	l1781
  4248  0C6C                     u2150:
  4249  0C6C                     l1779:
  4250  0C6C  3001               	movlw	1
  4251  0C6D  00FF               	movwf	btemp+1
  4252  0C6E  087F               	movf	btemp+1,w
  4253  0C6F  07B2               	addwf	___fladd@bexp,f
  4254  0C70                     l1781:
  4255  0C70  0A32               	incf	___fladd@bexp,w
  4256  0C71  1903               	btfsc	3,2
  4257  0C72  2C74               	goto	u2161
  4258  0C73  2C75               	goto	u2160
  4259  0C74                     u2161:
  4260  0C74  2C7A               	goto	l1785
  4261  0C75                     u2160:
  4262  0C75                     l1783:
  4263  0C75  0832               	movf	___fladd@bexp,w
  4264  0C76  1D03               	btfss	3,2
  4265  0C77  2C79               	goto	u2171
  4266  0C78  2C7A               	goto	u2170
  4267  0C79                     u2171:
  4268  0C79  2C88               	goto	l1791
  4269  0C7A                     u2170:
  4270  0C7A                     l1785:
  4271  0C7A  3000               	movlw	0
  4272  0C7B  00A3               	movwf	___fladd@b+3
  4273  0C7C  3000               	movlw	0
  4274  0C7D  00A2               	movwf	___fladd@b+2
  4275  0C7E  3000               	movlw	0
  4276  0C7F  00A1               	movwf	___fladd@b+1
  4277  0C80  3000               	movlw	0
  4278  0C81  00A0               	movwf	___fladd@b
  4279  0C82                     l1787:
  4280  0C82  0832               	movf	___fladd@bexp,w
  4281  0C83  1D03               	btfss	3,2
  4282  0C84  2C86               	goto	u2181
  4283  0C85  2C87               	goto	u2180
  4284  0C86                     u2181:
  4285  0C86  2C88               	goto	l1791
  4286  0C87                     u2180:
  4287  0C87                     l1789:
  4288  0C87  01B0               	clrf	___fladd@signs
  4289  0C88                     l1791:
  4290  0C88  1C32               	btfss	___fladd@bexp,0
  4291  0C89  2C8B               	goto	u2191
  4292  0C8A  2C8C               	goto	u2190
  4293  0C8B                     u2191:
  4294  0C8B  2C8E               	goto	l1795
  4295  0C8C                     u2190:
  4296  0C8C                     l1793:
  4297  0C8C  17A2               	bsf	___fladd@b+2,7
  4298  0C8D  2C92               	goto	l552
  4299  0C8E                     l1795:
  4300  0C8E  307F               	movlw	127
  4301  0C8F  00FF               	movwf	btemp+1
  4302  0C90  087F               	movf	btemp+1,w
  4303  0C91  05A2               	andwf	___fladd@b+2,f
  4304  0C92                     l552:
  4305  0C92  0832               	movf	___fladd@bexp,w
  4306  0C93  00A8               	movwf	??___fladd
  4307  0C94  1003               	clrc
  4308  0C95  0C28               	rrf	??___fladd,w
  4309  0C96  00FF               	movwf	btemp+1
  4310  0C97  087F               	movf	btemp+1,w
  4311  0C98  00A3               	movwf	___fladd@b+3
  4312  0C99                     l1797:
  4313  0C99  1FB0               	btfss	___fladd@signs,7
  4314  0C9A  2C9C               	goto	u2201
  4315  0C9B  2C9D               	goto	u2200
  4316  0C9C                     u2201:
  4317  0C9C  2C9E               	goto	l553
  4318  0C9D                     u2200:
  4319  0C9D                     l1799:
  4320  0C9D  17A3               	bsf	___fladd@b+3,7
  4321  0C9E                     l553:
  4322  0C9E                     l523:
  4323  0C9E  0008               	return
  4324  0C9F                     __end_of___fladd:
  4325                           
  4326                           	psect	text9
  4327  0C9F                     __ptext9:	
  4328 ;; *************** function ___flmul *****************
  4329 ;; Defined at:
  4330 ;;		line 8 in file "C:\Program Files\Microchip\xc8\v2.20\pic\sources\c90\common\sprcmul.c"
  4331 ;; Parameters:    Size  Location     Type
  4332 ;;  b               4   54[BANK0 ] unsigned char 
  4333 ;;  a               4   58[BANK0 ] unsigned char 
  4334 ;; Auto vars:     Size  Location     Type
  4335 ;;  prod            4   74[BANK0 ] struct .
  4336 ;;  grs             4   68[BANK0 ] unsigned long 
  4337 ;;  temp            2   78[BANK0 ] struct .
  4338 ;;  bexp            1   73[BANK0 ] unsigned char 
  4339 ;;  aexp            1   72[BANK0 ] unsigned char 
  4340 ;;  sign            1   67[BANK0 ] unsigned char 
  4341 ;; Return value:  Size  Location     Type
  4342 ;;                  4   54[BANK0 ] unsigned char 
  4343 ;; Registers used:
  4344 ;;		wreg, status,2, status,0, btemp+1, pclath, cstack
  4345 ;; Tracked objects:
  4346 ;;		On entry : 0/0
  4347 ;;		On exit  : 0/0
  4348 ;;		Unchanged: 0/0
  4349 ;; Data sizes:     COMMON   BANK0   BANK1   BANK3   BANK2
  4350 ;;      Params:         0       8       0       0       0
  4351 ;;      Locals:         0      13       0       0       0
  4352 ;;      Temps:          0       5       0       0       0
  4353 ;;      Totals:         0      26       0       0       0
  4354 ;;Total ram usage:       26 bytes
  4355 ;; Hardware stack levels used:    1
  4356 ;; Hardware stack levels required when called:    2
  4357 ;; This function calls:
  4358 ;;		__Umul8_16
  4359 ;; This function is called by:
  4360 ;;		_Voltage_Value
  4361 ;;		_Resistance_Value
  4362 ;;		_conversion_newton
  4363 ;;		_puts_float
  4364 ;; This function uses a non-reentrant model
  4365 ;;
  4366                           
  4367                           
  4368                           ;psect for function ___flmul
  4369  0C9F                     ___flmul:
  4370  0C9F                     l2017:	
  4371                           ;incstack = 0
  4372                           ; Regs used in ___flmul: [wreg+status,2+status,0+btemp+1+pclath+cstack]
  4373                           
  4374  0C9F  1283               	bcf	3,5	;RP0=0, select bank0
  4375  0CA0  1303               	bcf	3,6	;RP1=0, select bank0
  4376  0CA1  0859               	movf	___flmul@b+3,w
  4377  0CA2  3980               	andlw	128
  4378  0CA3  00FF               	movwf	btemp+1
  4379  0CA4  087F               	movf	btemp+1,w
  4380  0CA5  00E3               	movwf	___flmul@sign
  4381  0CA6                     l2019:
  4382  0CA6  0859               	movf	___flmul@b+3,w
  4383  0CA7  00DE               	movwf	??___flmul
  4384  0CA8  075E               	addwf	??___flmul,w
  4385  0CA9  00FF               	movwf	btemp+1
  4386  0CAA  087F               	movf	btemp+1,w
  4387  0CAB  00E9               	movwf	___flmul@bexp
  4388  0CAC                     l2021:
  4389  0CAC  1FD8               	btfss	___flmul@b+2,7
  4390  0CAD  2CAF               	goto	u2621
  4391  0CAE  2CB0               	goto	u2620
  4392  0CAF                     u2621:
  4393  0CAF  2CB1               	goto	l2025
  4394  0CB0                     u2620:
  4395  0CB0                     l2023:
  4396  0CB0  1469               	bsf	___flmul@bexp,0
  4397  0CB1                     l2025:
  4398  0CB1  0869               	movf	___flmul@bexp,w
  4399  0CB2  1903               	btfsc	3,2
  4400  0CB3  2CB5               	goto	u2631
  4401  0CB4  2CB6               	goto	u2630
  4402  0CB5                     u2631:
  4403  0CB5  2CC5               	goto	l2033
  4404  0CB6                     u2630:
  4405  0CB6                     l2027:
  4406  0CB6  0A69               	incf	___flmul@bexp,w
  4407  0CB7  1D03               	btfss	3,2
  4408  0CB8  2CBA               	goto	u2641
  4409  0CB9  2CBB               	goto	u2640
  4410  0CBA                     u2641:
  4411  0CBA  2CC3               	goto	l2031
  4412  0CBB                     u2640:
  4413  0CBB                     l2029:
  4414  0CBB  3000               	movlw	0
  4415  0CBC  00D9               	movwf	___flmul@b+3
  4416  0CBD  3000               	movlw	0
  4417  0CBE  00D8               	movwf	___flmul@b+2
  4418  0CBF  3000               	movlw	0
  4419  0CC0  00D7               	movwf	___flmul@b+1
  4420  0CC1  3000               	movlw	0
  4421  0CC2  00D6               	movwf	___flmul@b
  4422  0CC3                     l2031:
  4423  0CC3  17D8               	bsf	___flmul@b+2,7
  4424  0CC4  2CCD               	goto	l2035
  4425  0CC5                     l2033:
  4426  0CC5  3000               	movlw	0
  4427  0CC6  00D9               	movwf	___flmul@b+3
  4428  0CC7  3000               	movlw	0
  4429  0CC8  00D8               	movwf	___flmul@b+2
  4430  0CC9  3000               	movlw	0
  4431  0CCA  00D7               	movwf	___flmul@b+1
  4432  0CCB  3000               	movlw	0
  4433  0CCC  00D6               	movwf	___flmul@b
  4434  0CCD                     l2035:
  4435  0CCD  085D               	movf	___flmul@a+3,w
  4436  0CCE  3980               	andlw	128
  4437  0CCF  00FF               	movwf	btemp+1
  4438  0CD0  087F               	movf	btemp+1,w
  4439  0CD1  06E3               	xorwf	___flmul@sign,f
  4440  0CD2                     l2037:
  4441  0CD2  085D               	movf	___flmul@a+3,w
  4442  0CD3  00DE               	movwf	??___flmul
  4443  0CD4  075E               	addwf	??___flmul,w
  4444  0CD5  00FF               	movwf	btemp+1
  4445  0CD6  087F               	movf	btemp+1,w
  4446  0CD7  00E8               	movwf	___flmul@aexp
  4447  0CD8                     l2039:
  4448  0CD8  1FDC               	btfss	___flmul@a+2,7
  4449  0CD9  2CDB               	goto	u2651
  4450  0CDA  2CDC               	goto	u2650
  4451  0CDB                     u2651:
  4452  0CDB  2CDD               	goto	l2043
  4453  0CDC                     u2650:
  4454  0CDC                     l2041:
  4455  0CDC  1468               	bsf	___flmul@aexp,0
  4456  0CDD                     l2043:
  4457  0CDD  0868               	movf	___flmul@aexp,w
  4458  0CDE  1903               	btfsc	3,2
  4459  0CDF  2CE1               	goto	u2661
  4460  0CE0  2CE2               	goto	u2660
  4461  0CE1                     u2661:
  4462  0CE1  2CF1               	goto	l2051
  4463  0CE2                     u2660:
  4464  0CE2                     l2045:
  4465  0CE2  0A68               	incf	___flmul@aexp,w
  4466  0CE3  1D03               	btfss	3,2
  4467  0CE4  2CE6               	goto	u2671
  4468  0CE5  2CE7               	goto	u2670
  4469  0CE6                     u2671:
  4470  0CE6  2CEF               	goto	l2049
  4471  0CE7                     u2670:
  4472  0CE7                     l2047:
  4473  0CE7  3000               	movlw	0
  4474  0CE8  00DD               	movwf	___flmul@a+3
  4475  0CE9  3000               	movlw	0
  4476  0CEA  00DC               	movwf	___flmul@a+2
  4477  0CEB  3000               	movlw	0
  4478  0CEC  00DB               	movwf	___flmul@a+1
  4479  0CED  3000               	movlw	0
  4480  0CEE  00DA               	movwf	___flmul@a
  4481  0CEF                     l2049:
  4482  0CEF  17DC               	bsf	___flmul@a+2,7
  4483  0CF0  2CF9               	goto	l2053
  4484  0CF1                     l2051:
  4485  0CF1  3000               	movlw	0
  4486  0CF2  00DD               	movwf	___flmul@a+3
  4487  0CF3  3000               	movlw	0
  4488  0CF4  00DC               	movwf	___flmul@a+2
  4489  0CF5  3000               	movlw	0
  4490  0CF6  00DB               	movwf	___flmul@a+1
  4491  0CF7  3000               	movlw	0
  4492  0CF8  00DA               	movwf	___flmul@a
  4493  0CF9                     l2053:
  4494  0CF9  0868               	movf	___flmul@aexp,w
  4495  0CFA  1903               	btfsc	3,2
  4496  0CFB  2CFD               	goto	u2681
  4497  0CFC  2CFE               	goto	u2680
  4498  0CFD                     u2681:
  4499  0CFD  2D03               	goto	l2057
  4500  0CFE                     u2680:
  4501  0CFE                     l2055:
  4502  0CFE  0869               	movf	___flmul@bexp,w
  4503  0CFF  1D03               	btfss	3,2
  4504  0D00  2D02               	goto	u2691
  4505  0D01  2D03               	goto	u2690
  4506  0D02                     u2691:
  4507  0D02  2D0C               	goto	l2061
  4508  0D03                     u2690:
  4509  0D03                     l2057:
  4510  0D03  3000               	movlw	0
  4511  0D04  00D9               	movwf	?___flmul+3
  4512  0D05  3000               	movlw	0
  4513  0D06  00D8               	movwf	?___flmul+2
  4514  0D07  3000               	movlw	0
  4515  0D08  00D7               	movwf	?___flmul+1
  4516  0D09  3000               	movlw	0
  4517  0D0A  00D6               	movwf	?___flmul
  4518  0D0B  2FFF               	goto	l606
  4519  0D0C                     l2061:
  4520  0D0C  0856               	movf	___flmul@b,w
  4521  0D0D  00FF               	movwf	btemp+1
  4522  0D0E  087F               	movf	btemp+1,w
  4523  0D0F  00F2               	movwf	__Umul8_16@multiplicand
  4524  0D10  085C               	movf	___flmul@a+2,w
  4525  0D11  160A  118A  25F0  120A  158A  	fcall	__Umul8_16
  4526  0D16  0873               	movf	?__Umul8_16+1,w
  4527  0D17  1283               	bcf	3,5	;RP0=0, select bank0
  4528  0D18  1303               	bcf	3,6	;RP1=0, select bank0
  4529  0D19  00EF               	movwf	___flmul@temp+1
  4530  0D1A  0872               	movf	?__Umul8_16,w
  4531  0D1B  00EE               	movwf	___flmul@temp
  4532  0D1C                     l2063:
  4533  0D1C  086E               	movf	___flmul@temp,w
  4534  0D1D  00DE               	movwf	??___flmul
  4535  0D1E  01DF               	clrf	??___flmul+1
  4536  0D1F  01E0               	clrf	??___flmul+2
  4537  0D20  01E1               	clrf	??___flmul+3
  4538  0D21  0861               	movf	??___flmul+3,w
  4539  0D22  00E7               	movwf	___flmul@grs+3
  4540  0D23  0860               	movf	??___flmul+2,w
  4541  0D24  00E6               	movwf	___flmul@grs+2
  4542  0D25  085F               	movf	??___flmul+1,w
  4543  0D26  00E5               	movwf	___flmul@grs+1
  4544  0D27  085E               	movf	??___flmul,w
  4545  0D28  00E4               	movwf	___flmul@grs
  4546  0D29                     l2065:
  4547  0D29  086F               	movf	___flmul@temp+1,w
  4548  0D2A  00DE               	movwf	??___flmul
  4549  0D2B  01DF               	clrf	??___flmul+1
  4550  0D2C  01E0               	clrf	??___flmul+2
  4551  0D2D  01E1               	clrf	??___flmul+3
  4552  0D2E  0861               	movf	??___flmul+3,w
  4553  0D2F  00ED               	movwf	___flmul@prod+3
  4554  0D30  0860               	movf	??___flmul+2,w
  4555  0D31  00EC               	movwf	___flmul@prod+2
  4556  0D32  085F               	movf	??___flmul+1,w
  4557  0D33  00EB               	movwf	___flmul@prod+1
  4558  0D34  085E               	movf	??___flmul,w
  4559  0D35  00EA               	movwf	___flmul@prod
  4560  0D36  0857               	movf	___flmul@b+1,w
  4561  0D37  00FF               	movwf	btemp+1
  4562  0D38  087F               	movf	btemp+1,w
  4563  0D39  00F2               	movwf	__Umul8_16@multiplicand
  4564  0D3A  085B               	movf	___flmul@a+1,w
  4565  0D3B  160A  118A  25F0  120A  158A  	fcall	__Umul8_16
  4566  0D40  0873               	movf	?__Umul8_16+1,w
  4567  0D41  1283               	bcf	3,5	;RP0=0, select bank0
  4568  0D42  1303               	bcf	3,6	;RP1=0, select bank0
  4569  0D43  00EF               	movwf	___flmul@temp+1
  4570  0D44  0872               	movf	?__Umul8_16,w
  4571  0D45  00EE               	movwf	___flmul@temp
  4572  0D46                     l2067:
  4573  0D46  086E               	movf	___flmul@temp,w
  4574  0D47  00DE               	movwf	??___flmul
  4575  0D48  01DF               	clrf	??___flmul+1
  4576  0D49  01E0               	clrf	??___flmul+2
  4577  0D4A  01E1               	clrf	??___flmul+3
  4578  0D4B  085E               	movf	??___flmul,w
  4579  0D4C  07E4               	addwf	___flmul@grs,f
  4580  0D4D  085F               	movf	??___flmul+1,w
  4581  0D4E  1103               	clrz
  4582  0D4F  1803               	skipnc
  4583  0D50  3E01               	addlw	1
  4584  0D51  1903               	skipnz
  4585  0D52  2D54               	goto	u2701
  4586  0D53  07E5               	addwf	___flmul@grs+1,f
  4587  0D54                     u2701:
  4588  0D54  0860               	movf	??___flmul+2,w
  4589  0D55  1103               	clrz
  4590  0D56  1803               	skipnc
  4591  0D57  3E01               	addlw	1
  4592  0D58  1903               	skipnz
  4593  0D59  2D5B               	goto	u2702
  4594  0D5A  07E6               	addwf	___flmul@grs+2,f
  4595  0D5B                     u2702:
  4596  0D5B  0861               	movf	??___flmul+3,w
  4597  0D5C  1103               	clrz
  4598  0D5D  1803               	skipnc
  4599  0D5E  3E01               	addlw	1
  4600  0D5F  1903               	skipnz
  4601  0D60  2D62               	goto	u2703
  4602  0D61  07E7               	addwf	___flmul@grs+3,f
  4603  0D62                     u2703:
  4604  0D62                     l2069:
  4605  0D62  086F               	movf	___flmul@temp+1,w
  4606  0D63  00DE               	movwf	??___flmul
  4607  0D64  01DF               	clrf	??___flmul+1
  4608  0D65  01E0               	clrf	??___flmul+2
  4609  0D66  01E1               	clrf	??___flmul+3
  4610  0D67  085E               	movf	??___flmul,w
  4611  0D68  07EA               	addwf	___flmul@prod,f
  4612  0D69  085F               	movf	??___flmul+1,w
  4613  0D6A  1103               	clrz
  4614  0D6B  1803               	skipnc
  4615  0D6C  3E01               	addlw	1
  4616  0D6D  1903               	skipnz
  4617  0D6E  2D70               	goto	u2711
  4618  0D6F  07EB               	addwf	___flmul@prod+1,f
  4619  0D70                     u2711:
  4620  0D70  0860               	movf	??___flmul+2,w
  4621  0D71  1103               	clrz
  4622  0D72  1803               	skipnc
  4623  0D73  3E01               	addlw	1
  4624  0D74  1903               	skipnz
  4625  0D75  2D77               	goto	u2712
  4626  0D76  07EC               	addwf	___flmul@prod+2,f
  4627  0D77                     u2712:
  4628  0D77  0861               	movf	??___flmul+3,w
  4629  0D78  1103               	clrz
  4630  0D79  1803               	skipnc
  4631  0D7A  3E01               	addlw	1
  4632  0D7B  1903               	skipnz
  4633  0D7C  2D7E               	goto	u2713
  4634  0D7D  07ED               	addwf	___flmul@prod+3,f
  4635  0D7E                     u2713:
  4636  0D7E  0858               	movf	___flmul@b+2,w
  4637  0D7F  00FF               	movwf	btemp+1
  4638  0D80  087F               	movf	btemp+1,w
  4639  0D81  00F2               	movwf	__Umul8_16@multiplicand
  4640  0D82  085A               	movf	___flmul@a,w
  4641  0D83  160A  118A  25F0  120A  158A  	fcall	__Umul8_16
  4642  0D88  0873               	movf	?__Umul8_16+1,w
  4643  0D89  1283               	bcf	3,5	;RP0=0, select bank0
  4644  0D8A  1303               	bcf	3,6	;RP1=0, select bank0
  4645  0D8B  00EF               	movwf	___flmul@temp+1
  4646  0D8C  0872               	movf	?__Umul8_16,w
  4647  0D8D  00EE               	movwf	___flmul@temp
  4648  0D8E                     l2071:
  4649  0D8E  086E               	movf	___flmul@temp,w
  4650  0D8F  00DE               	movwf	??___flmul
  4651  0D90  01DF               	clrf	??___flmul+1
  4652  0D91  01E0               	clrf	??___flmul+2
  4653  0D92  01E1               	clrf	??___flmul+3
  4654  0D93  085E               	movf	??___flmul,w
  4655  0D94  07E4               	addwf	___flmul@grs,f
  4656  0D95  085F               	movf	??___flmul+1,w
  4657  0D96  1103               	clrz
  4658  0D97  1803               	skipnc
  4659  0D98  3E01               	addlw	1
  4660  0D99  1903               	skipnz
  4661  0D9A  2D9C               	goto	u2721
  4662  0D9B  07E5               	addwf	___flmul@grs+1,f
  4663  0D9C                     u2721:
  4664  0D9C  0860               	movf	??___flmul+2,w
  4665  0D9D  1103               	clrz
  4666  0D9E  1803               	skipnc
  4667  0D9F  3E01               	addlw	1
  4668  0DA0  1903               	skipnz
  4669  0DA1  2DA3               	goto	u2722
  4670  0DA2  07E6               	addwf	___flmul@grs+2,f
  4671  0DA3                     u2722:
  4672  0DA3  0861               	movf	??___flmul+3,w
  4673  0DA4  1103               	clrz
  4674  0DA5  1803               	skipnc
  4675  0DA6  3E01               	addlw	1
  4676  0DA7  1903               	skipnz
  4677  0DA8  2DAA               	goto	u2723
  4678  0DA9  07E7               	addwf	___flmul@grs+3,f
  4679  0DAA                     u2723:
  4680  0DAA                     l2073:
  4681  0DAA  086F               	movf	___flmul@temp+1,w
  4682  0DAB  00DE               	movwf	??___flmul
  4683  0DAC  01DF               	clrf	??___flmul+1
  4684  0DAD  01E0               	clrf	??___flmul+2
  4685  0DAE  01E1               	clrf	??___flmul+3
  4686  0DAF  085E               	movf	??___flmul,w
  4687  0DB0  07EA               	addwf	___flmul@prod,f
  4688  0DB1  085F               	movf	??___flmul+1,w
  4689  0DB2  1103               	clrz
  4690  0DB3  1803               	skipnc
  4691  0DB4  3E01               	addlw	1
  4692  0DB5  1903               	skipnz
  4693  0DB6  2DB8               	goto	u2731
  4694  0DB7  07EB               	addwf	___flmul@prod+1,f
  4695  0DB8                     u2731:
  4696  0DB8  0860               	movf	??___flmul+2,w
  4697  0DB9  1103               	clrz
  4698  0DBA  1803               	skipnc
  4699  0DBB  3E01               	addlw	1
  4700  0DBC  1903               	skipnz
  4701  0DBD  2DBF               	goto	u2732
  4702  0DBE  07EC               	addwf	___flmul@prod+2,f
  4703  0DBF                     u2732:
  4704  0DBF  0861               	movf	??___flmul+3,w
  4705  0DC0  1103               	clrz
  4706  0DC1  1803               	skipnc
  4707  0DC2  3E01               	addlw	1
  4708  0DC3  1903               	skipnz
  4709  0DC4  2DC6               	goto	u2733
  4710  0DC5  07ED               	addwf	___flmul@prod+3,f
  4711  0DC6                     u2733:
  4712  0DC6                     l2075:
  4713  0DC6  3008               	movlw	8
  4714  0DC7  00DE               	movwf	??___flmul
  4715  0DC8                     u2745:
  4716  0DC8  1003               	clrc
  4717  0DC9  0DE4               	rlf	___flmul@grs,f
  4718  0DCA  0DE5               	rlf	___flmul@grs+1,f
  4719  0DCB  0DE6               	rlf	___flmul@grs+2,f
  4720  0DCC  0DE7               	rlf	___flmul@grs+3,f
  4721  0DCD  0BDE               	decfsz	??___flmul,f
  4722  0DCE  2DC8               	goto	u2745
  4723  0DCF                     l2077:
  4724  0DCF  0857               	movf	___flmul@b+1,w
  4725  0DD0  00FF               	movwf	btemp+1
  4726  0DD1  087F               	movf	btemp+1,w
  4727  0DD2  00F2               	movwf	__Umul8_16@multiplicand
  4728  0DD3  085A               	movf	___flmul@a,w
  4729  0DD4  160A  118A  25F0  120A  158A  	fcall	__Umul8_16
  4730  0DD9  0873               	movf	?__Umul8_16+1,w
  4731  0DDA  1283               	bcf	3,5	;RP0=0, select bank0
  4732  0DDB  1303               	bcf	3,6	;RP1=0, select bank0
  4733  0DDC  00EF               	movwf	___flmul@temp+1
  4734  0DDD  0872               	movf	?__Umul8_16,w
  4735  0DDE  00EE               	movwf	___flmul@temp
  4736  0DDF                     l2079:
  4737  0DDF  086E               	movf	___flmul@temp,w
  4738  0DE0  00DE               	movwf	??___flmul
  4739  0DE1  086F               	movf	___flmul@temp+1,w
  4740  0DE2  00DF               	movwf	??___flmul+1
  4741  0DE3  01E0               	clrf	??___flmul+2
  4742  0DE4  01E1               	clrf	??___flmul+3
  4743  0DE5  085E               	movf	??___flmul,w
  4744  0DE6  07E4               	addwf	___flmul@grs,f
  4745  0DE7  085F               	movf	??___flmul+1,w
  4746  0DE8  1103               	clrz
  4747  0DE9  1803               	skipnc
  4748  0DEA  3E01               	addlw	1
  4749  0DEB  1903               	skipnz
  4750  0DEC  2DEE               	goto	u2751
  4751  0DED  07E5               	addwf	___flmul@grs+1,f
  4752  0DEE                     u2751:
  4753  0DEE  0860               	movf	??___flmul+2,w
  4754  0DEF  1103               	clrz
  4755  0DF0  1803               	skipnc
  4756  0DF1  3E01               	addlw	1
  4757  0DF2  1903               	skipnz
  4758  0DF3  2DF5               	goto	u2752
  4759  0DF4  07E6               	addwf	___flmul@grs+2,f
  4760  0DF5                     u2752:
  4761  0DF5  0861               	movf	??___flmul+3,w
  4762  0DF6  1103               	clrz
  4763  0DF7  1803               	skipnc
  4764  0DF8  3E01               	addlw	1
  4765  0DF9  1903               	skipnz
  4766  0DFA  2DFC               	goto	u2753
  4767  0DFB  07E7               	addwf	___flmul@grs+3,f
  4768  0DFC                     u2753:
  4769  0DFC                     l2081:
  4770  0DFC  0856               	movf	___flmul@b,w
  4771  0DFD  00FF               	movwf	btemp+1
  4772  0DFE  087F               	movf	btemp+1,w
  4773  0DFF  00F2               	movwf	__Umul8_16@multiplicand
  4774  0E00  085B               	movf	___flmul@a+1,w
  4775  0E01  160A  118A  25F0  120A  158A  	fcall	__Umul8_16
  4776  0E06  0873               	movf	?__Umul8_16+1,w
  4777  0E07  1283               	bcf	3,5	;RP0=0, select bank0
  4778  0E08  1303               	bcf	3,6	;RP1=0, select bank0
  4779  0E09  00EF               	movwf	___flmul@temp+1
  4780  0E0A  0872               	movf	?__Umul8_16,w
  4781  0E0B  00EE               	movwf	___flmul@temp
  4782  0E0C                     l2083:
  4783  0E0C  086E               	movf	___flmul@temp,w
  4784  0E0D  00DE               	movwf	??___flmul
  4785  0E0E  086F               	movf	___flmul@temp+1,w
  4786  0E0F  00DF               	movwf	??___flmul+1
  4787  0E10  01E0               	clrf	??___flmul+2
  4788  0E11  01E1               	clrf	??___flmul+3
  4789  0E12  085E               	movf	??___flmul,w
  4790  0E13  07E4               	addwf	___flmul@grs,f
  4791  0E14  085F               	movf	??___flmul+1,w
  4792  0E15  1103               	clrz
  4793  0E16  1803               	skipnc
  4794  0E17  3E01               	addlw	1
  4795  0E18  1903               	skipnz
  4796  0E19  2E1B               	goto	u2761
  4797  0E1A  07E5               	addwf	___flmul@grs+1,f
  4798  0E1B                     u2761:
  4799  0E1B  0860               	movf	??___flmul+2,w
  4800  0E1C  1103               	clrz
  4801  0E1D  1803               	skipnc
  4802  0E1E  3E01               	addlw	1
  4803  0E1F  1903               	skipnz
  4804  0E20  2E22               	goto	u2762
  4805  0E21  07E6               	addwf	___flmul@grs+2,f
  4806  0E22                     u2762:
  4807  0E22  0861               	movf	??___flmul+3,w
  4808  0E23  1103               	clrz
  4809  0E24  1803               	skipnc
  4810  0E25  3E01               	addlw	1
  4811  0E26  1903               	skipnz
  4812  0E27  2E29               	goto	u2763
  4813  0E28  07E7               	addwf	___flmul@grs+3,f
  4814  0E29                     u2763:
  4815  0E29                     l2085:
  4816  0E29  3008               	movlw	8
  4817  0E2A  00DE               	movwf	??___flmul
  4818  0E2B                     u2775:
  4819  0E2B  1003               	clrc
  4820  0E2C  0DE4               	rlf	___flmul@grs,f
  4821  0E2D  0DE5               	rlf	___flmul@grs+1,f
  4822  0E2E  0DE6               	rlf	___flmul@grs+2,f
  4823  0E2F  0DE7               	rlf	___flmul@grs+3,f
  4824  0E30  0BDE               	decfsz	??___flmul,f
  4825  0E31  2E2B               	goto	u2775
  4826  0E32  0856               	movf	___flmul@b,w
  4827  0E33  00FF               	movwf	btemp+1
  4828  0E34  087F               	movf	btemp+1,w
  4829  0E35  00F2               	movwf	__Umul8_16@multiplicand
  4830  0E36  085A               	movf	___flmul@a,w
  4831  0E37  160A  118A  25F0  120A  158A  	fcall	__Umul8_16
  4832  0E3C  0873               	movf	?__Umul8_16+1,w
  4833  0E3D  1283               	bcf	3,5	;RP0=0, select bank0
  4834  0E3E  1303               	bcf	3,6	;RP1=0, select bank0
  4835  0E3F  00EF               	movwf	___flmul@temp+1
  4836  0E40  0872               	movf	?__Umul8_16,w
  4837  0E41  00EE               	movwf	___flmul@temp
  4838  0E42                     l2087:
  4839  0E42  086E               	movf	___flmul@temp,w
  4840  0E43  00DE               	movwf	??___flmul
  4841  0E44  086F               	movf	___flmul@temp+1,w
  4842  0E45  00DF               	movwf	??___flmul+1
  4843  0E46  01E0               	clrf	??___flmul+2
  4844  0E47  01E1               	clrf	??___flmul+3
  4845  0E48  085E               	movf	??___flmul,w
  4846  0E49  07E4               	addwf	___flmul@grs,f
  4847  0E4A  085F               	movf	??___flmul+1,w
  4848  0E4B  1103               	clrz
  4849  0E4C  1803               	skipnc
  4850  0E4D  3E01               	addlw	1
  4851  0E4E  1903               	skipnz
  4852  0E4F  2E51               	goto	u2781
  4853  0E50  07E5               	addwf	___flmul@grs+1,f
  4854  0E51                     u2781:
  4855  0E51  0860               	movf	??___flmul+2,w
  4856  0E52  1103               	clrz
  4857  0E53  1803               	skipnc
  4858  0E54  3E01               	addlw	1
  4859  0E55  1903               	skipnz
  4860  0E56  2E58               	goto	u2782
  4861  0E57  07E6               	addwf	___flmul@grs+2,f
  4862  0E58                     u2782:
  4863  0E58  0861               	movf	??___flmul+3,w
  4864  0E59  1103               	clrz
  4865  0E5A  1803               	skipnc
  4866  0E5B  3E01               	addlw	1
  4867  0E5C  1903               	skipnz
  4868  0E5D  2E5F               	goto	u2783
  4869  0E5E  07E7               	addwf	___flmul@grs+3,f
  4870  0E5F                     u2783:
  4871  0E5F                     l2089:
  4872  0E5F  0857               	movf	___flmul@b+1,w
  4873  0E60  00FF               	movwf	btemp+1
  4874  0E61  087F               	movf	btemp+1,w
  4875  0E62  00F2               	movwf	__Umul8_16@multiplicand
  4876  0E63  085C               	movf	___flmul@a+2,w
  4877  0E64  160A  118A  25F0  120A  158A  	fcall	__Umul8_16
  4878  0E69  0873               	movf	?__Umul8_16+1,w
  4879  0E6A  1283               	bcf	3,5	;RP0=0, select bank0
  4880  0E6B  1303               	bcf	3,6	;RP1=0, select bank0
  4881  0E6C  00EF               	movwf	___flmul@temp+1
  4882  0E6D  0872               	movf	?__Umul8_16,w
  4883  0E6E  00EE               	movwf	___flmul@temp
  4884  0E6F  086E               	movf	___flmul@temp,w
  4885  0E70  00DE               	movwf	??___flmul
  4886  0E71  086F               	movf	___flmul@temp+1,w
  4887  0E72  00DF               	movwf	??___flmul+1
  4888  0E73  01E0               	clrf	??___flmul+2
  4889  0E74  01E1               	clrf	??___flmul+3
  4890  0E75  085E               	movf	??___flmul,w
  4891  0E76  07EA               	addwf	___flmul@prod,f
  4892  0E77  085F               	movf	??___flmul+1,w
  4893  0E78  1103               	clrz
  4894  0E79  1803               	skipnc
  4895  0E7A  3E01               	addlw	1
  4896  0E7B  1903               	skipnz
  4897  0E7C  2E7E               	goto	u2791
  4898  0E7D  07EB               	addwf	___flmul@prod+1,f
  4899  0E7E                     u2791:
  4900  0E7E  0860               	movf	??___flmul+2,w
  4901  0E7F  1103               	clrz
  4902  0E80  1803               	skipnc
  4903  0E81  3E01               	addlw	1
  4904  0E82  1903               	skipnz
  4905  0E83  2E85               	goto	u2792
  4906  0E84  07EC               	addwf	___flmul@prod+2,f
  4907  0E85                     u2792:
  4908  0E85  0861               	movf	??___flmul+3,w
  4909  0E86  1103               	clrz
  4910  0E87  1803               	skipnc
  4911  0E88  3E01               	addlw	1
  4912  0E89  1903               	skipnz
  4913  0E8A  2E8C               	goto	u2793
  4914  0E8B  07ED               	addwf	___flmul@prod+3,f
  4915  0E8C                     u2793:
  4916  0E8C                     l2091:
  4917  0E8C  0858               	movf	___flmul@b+2,w
  4918  0E8D  00FF               	movwf	btemp+1
  4919  0E8E  087F               	movf	btemp+1,w
  4920  0E8F  00F2               	movwf	__Umul8_16@multiplicand
  4921  0E90  085B               	movf	___flmul@a+1,w
  4922  0E91  160A  118A  25F0  120A  158A  	fcall	__Umul8_16
  4923  0E96  0873               	movf	?__Umul8_16+1,w
  4924  0E97  1283               	bcf	3,5	;RP0=0, select bank0
  4925  0E98  1303               	bcf	3,6	;RP1=0, select bank0
  4926  0E99  00EF               	movwf	___flmul@temp+1
  4927  0E9A  0872               	movf	?__Umul8_16,w
  4928  0E9B  00EE               	movwf	___flmul@temp
  4929  0E9C                     l2093:
  4930  0E9C  086E               	movf	___flmul@temp,w
  4931  0E9D  00DE               	movwf	??___flmul
  4932  0E9E  086F               	movf	___flmul@temp+1,w
  4933  0E9F  00DF               	movwf	??___flmul+1
  4934  0EA0  01E0               	clrf	??___flmul+2
  4935  0EA1  01E1               	clrf	??___flmul+3
  4936  0EA2  085E               	movf	??___flmul,w
  4937  0EA3  07EA               	addwf	___flmul@prod,f
  4938  0EA4  085F               	movf	??___flmul+1,w
  4939  0EA5  1103               	clrz
  4940  0EA6  1803               	skipnc
  4941  0EA7  3E01               	addlw	1
  4942  0EA8  1903               	skipnz
  4943  0EA9  2EAB               	goto	u2801
  4944  0EAA  07EB               	addwf	___flmul@prod+1,f
  4945  0EAB                     u2801:
  4946  0EAB  0860               	movf	??___flmul+2,w
  4947  0EAC  1103               	clrz
  4948  0EAD  1803               	skipnc
  4949  0EAE  3E01               	addlw	1
  4950  0EAF  1903               	skipnz
  4951  0EB0  2EB2               	goto	u2802
  4952  0EB1  07EC               	addwf	___flmul@prod+2,f
  4953  0EB2                     u2802:
  4954  0EB2  0861               	movf	??___flmul+3,w
  4955  0EB3  1103               	clrz
  4956  0EB4  1803               	skipnc
  4957  0EB5  3E01               	addlw	1
  4958  0EB6  1903               	skipnz
  4959  0EB7  2EB9               	goto	u2803
  4960  0EB8  07ED               	addwf	___flmul@prod+3,f
  4961  0EB9                     u2803:
  4962  0EB9  0858               	movf	___flmul@b+2,w
  4963  0EBA  00FF               	movwf	btemp+1
  4964  0EBB  087F               	movf	btemp+1,w
  4965  0EBC  00F2               	movwf	__Umul8_16@multiplicand
  4966  0EBD  085C               	movf	___flmul@a+2,w
  4967  0EBE  160A  118A  25F0  120A  158A  	fcall	__Umul8_16
  4968  0EC3  0873               	movf	?__Umul8_16+1,w
  4969  0EC4  1283               	bcf	3,5	;RP0=0, select bank0
  4970  0EC5  1303               	bcf	3,6	;RP1=0, select bank0
  4971  0EC6  00EF               	movwf	___flmul@temp+1
  4972  0EC7  0872               	movf	?__Umul8_16,w
  4973  0EC8  00EE               	movwf	___flmul@temp
  4974  0EC9                     l2095:
  4975  0EC9  086E               	movf	___flmul@temp,w
  4976  0ECA  00DE               	movwf	??___flmul
  4977  0ECB  086F               	movf	___flmul@temp+1,w
  4978  0ECC  00DF               	movwf	??___flmul+1
  4979  0ECD  01E0               	clrf	??___flmul+2
  4980  0ECE  01E1               	clrf	??___flmul+3
  4981  0ECF  3008               	movlw	8
  4982  0ED0                     u2815:
  4983  0ED0  1003               	clrc
  4984  0ED1  0DDE               	rlf	??___flmul,f
  4985  0ED2  0DDF               	rlf	??___flmul+1,f
  4986  0ED3  0DE0               	rlf	??___flmul+2,f
  4987  0ED4  0DE1               	rlf	??___flmul+3,f
  4988  0ED5                     u2810:
  4989  0ED5  3EFF               	addlw	-1
  4990  0ED6  1D03               	skipz
  4991  0ED7  2ED0               	goto	u2815
  4992  0ED8  085E               	movf	??___flmul,w
  4993  0ED9  07EA               	addwf	___flmul@prod,f
  4994  0EDA  085F               	movf	??___flmul+1,w
  4995  0EDB  1103               	clrz
  4996  0EDC  1803               	skipnc
  4997  0EDD  3E01               	addlw	1
  4998  0EDE  1903               	skipnz
  4999  0EDF  2EE1               	goto	u2821
  5000  0EE0  07EB               	addwf	___flmul@prod+1,f
  5001  0EE1                     u2821:
  5002  0EE1  0860               	movf	??___flmul+2,w
  5003  0EE2  1103               	clrz
  5004  0EE3  1803               	skipnc
  5005  0EE4  3E01               	addlw	1
  5006  0EE5  1903               	skipnz
  5007  0EE6  2EE8               	goto	u2822
  5008  0EE7  07EC               	addwf	___flmul@prod+2,f
  5009  0EE8                     u2822:
  5010  0EE8  0861               	movf	??___flmul+3,w
  5011  0EE9  1103               	clrz
  5012  0EEA  1803               	skipnc
  5013  0EEB  3E01               	addlw	1
  5014  0EEC  1903               	skipnz
  5015  0EED  2EEF               	goto	u2823
  5016  0EEE  07ED               	addwf	___flmul@prod+3,f
  5017  0EEF                     u2823:
  5018  0EEF                     l2097:
  5019  0EEF  0864               	movf	___flmul@grs,w
  5020  0EF0  00DE               	movwf	??___flmul
  5021  0EF1  0865               	movf	___flmul@grs+1,w
  5022  0EF2  00DF               	movwf	??___flmul+1
  5023  0EF3  0866               	movf	___flmul@grs+2,w
  5024  0EF4  00E0               	movwf	??___flmul+2
  5025  0EF5  0867               	movf	___flmul@grs+3,w
  5026  0EF6  00E1               	movwf	??___flmul+3
  5027  0EF7  3018               	movlw	24
  5028  0EF8                     u2835:
  5029  0EF8  1003               	clrc
  5030  0EF9  0CE1               	rrf	??___flmul+3,f
  5031  0EFA  0CE0               	rrf	??___flmul+2,f
  5032  0EFB  0CDF               	rrf	??___flmul+1,f
  5033  0EFC  0CDE               	rrf	??___flmul,f
  5034  0EFD                     u2830:
  5035  0EFD  3EFF               	addlw	-1
  5036  0EFE  1D03               	skipz
  5037  0EFF  2EF8               	goto	u2835
  5038  0F00  085E               	movf	??___flmul,w
  5039  0F01  07EA               	addwf	___flmul@prod,f
  5040  0F02  085F               	movf	??___flmul+1,w
  5041  0F03  1103               	clrz
  5042  0F04  1803               	skipnc
  5043  0F05  3E01               	addlw	1
  5044  0F06  1903               	skipnz
  5045  0F07  2F09               	goto	u2841
  5046  0F08  07EB               	addwf	___flmul@prod+1,f
  5047  0F09                     u2841:
  5048  0F09  0860               	movf	??___flmul+2,w
  5049  0F0A  1103               	clrz
  5050  0F0B  1803               	skipnc
  5051  0F0C  3E01               	addlw	1
  5052  0F0D  1903               	skipnz
  5053  0F0E  2F10               	goto	u2842
  5054  0F0F  07EC               	addwf	___flmul@prod+2,f
  5055  0F10                     u2842:
  5056  0F10  0861               	movf	??___flmul+3,w
  5057  0F11  1103               	clrz
  5058  0F12  1803               	skipnc
  5059  0F13  3E01               	addlw	1
  5060  0F14  1903               	skipnz
  5061  0F15  2F17               	goto	u2843
  5062  0F16  07ED               	addwf	___flmul@prod+3,f
  5063  0F17                     u2843:
  5064  0F17                     l2099:
  5065  0F17  3008               	movlw	8
  5066  0F18  00DE               	movwf	??___flmul
  5067  0F19                     u2855:
  5068  0F19  1003               	clrc
  5069  0F1A  0DE4               	rlf	___flmul@grs,f
  5070  0F1B  0DE5               	rlf	___flmul@grs+1,f
  5071  0F1C  0DE6               	rlf	___flmul@grs+2,f
  5072  0F1D  0DE7               	rlf	___flmul@grs+3,f
  5073  0F1E  0BDE               	decfsz	??___flmul,f
  5074  0F1F  2F19               	goto	u2855
  5075  0F20                     l2101:
  5076  0F20  0869               	movf	___flmul@bexp,w
  5077  0F21  0768               	addwf	___flmul@aexp,w
  5078  0F22  00DE               	movwf	??___flmul
  5079  0F23  01DF               	clrf	??___flmul+1
  5080  0F24  0DDF               	rlf	??___flmul+1,f
  5081  0F25  085E               	movf	??___flmul,w
  5082  0F26  3E82               	addlw	130
  5083  0F27  00EE               	movwf	___flmul@temp
  5084  0F28  085F               	movf	??___flmul+1,w
  5085  0F29  1803               	skipnc
  5086  0F2A  3E01               	addlw	1
  5087  0F2B  3EFF               	addlw	255
  5088  0F2C  00EF               	movwf	___flmul@temp+1
  5089  0F2D  2F4B               	goto	l2113
  5090  0F2E                     l2103:
  5091  0F2E  3001               	movlw	1
  5092  0F2F  00DE               	movwf	??___flmul
  5093  0F30                     u2865:
  5094  0F30  1003               	clrc
  5095  0F31  0DEA               	rlf	___flmul@prod,f
  5096  0F32  0DEB               	rlf	___flmul@prod+1,f
  5097  0F33  0DEC               	rlf	___flmul@prod+2,f
  5098  0F34  0DED               	rlf	___flmul@prod+3,f
  5099  0F35  0BDE               	decfsz	??___flmul,f
  5100  0F36  2F30               	goto	u2865
  5101  0F37                     l2105:
  5102  0F37  1FE7               	btfss	___flmul@grs+3,7
  5103  0F38  2F3A               	goto	u2871
  5104  0F39  2F3B               	goto	u2870
  5105  0F3A                     u2871:
  5106  0F3A  2F3C               	goto	l2109
  5107  0F3B                     u2870:
  5108  0F3B                     l2107:
  5109  0F3B  146A               	bsf	___flmul@prod,0
  5110  0F3C                     l2109:
  5111  0F3C  3001               	movlw	1
  5112  0F3D  00DE               	movwf	??___flmul
  5113  0F3E                     u2885:
  5114  0F3E  1003               	clrc
  5115  0F3F  0DE4               	rlf	___flmul@grs,f
  5116  0F40  0DE5               	rlf	___flmul@grs+1,f
  5117  0F41  0DE6               	rlf	___flmul@grs+2,f
  5118  0F42  0DE7               	rlf	___flmul@grs+3,f
  5119  0F43  0BDE               	decfsz	??___flmul,f
  5120  0F44  2F3E               	goto	u2885
  5121  0F45                     l2111:
  5122  0F45  30FF               	movlw	255
  5123  0F46  07EE               	addwf	___flmul@temp,f
  5124  0F47  1803               	skipnc
  5125  0F48  0AEF               	incf	___flmul@temp+1,f
  5126  0F49  30FF               	movlw	255
  5127  0F4A  07EF               	addwf	___flmul@temp+1,f
  5128  0F4B                     l2113:
  5129  0F4B  1FEC               	btfss	___flmul@prod+2,7
  5130  0F4C  2F4E               	goto	u2891
  5131  0F4D  2F4F               	goto	u2890
  5132  0F4E                     u2891:
  5133  0F4E  2F2E               	goto	l2103
  5134  0F4F                     u2890:
  5135  0F4F                     l2115:
  5136  0F4F  01E8               	clrf	___flmul@aexp
  5137  0F50                     l2117:
  5138  0F50  1FE7               	btfss	___flmul@grs+3,7
  5139  0F51  2F53               	goto	u2901
  5140  0F52  2F54               	goto	u2900
  5141  0F53                     u2901:
  5142  0F53  2F70               	goto	l2125
  5143  0F54                     u2900:
  5144  0F54                     l2119:
  5145  0F54  30FF               	movlw	255
  5146  0F55  0564               	andwf	___flmul@grs,w
  5147  0F56  00DE               	movwf	??___flmul
  5148  0F57  30FF               	movlw	255
  5149  0F58  0565               	andwf	___flmul@grs+1,w
  5150  0F59  00DF               	movwf	??___flmul+1
  5151  0F5A  30FF               	movlw	255
  5152  0F5B  0566               	andwf	___flmul@grs+2,w
  5153  0F5C  00E0               	movwf	??___flmul+2
  5154  0F5D  307F               	movlw	127
  5155  0F5E  0567               	andwf	___flmul@grs+3,w
  5156  0F5F  00E1               	movwf	??___flmul+3
  5157  0F60  0861               	movf	??___flmul+3,w
  5158  0F61  0460               	iorwf	??___flmul+2,w
  5159  0F62  045F               	iorwf	??___flmul+1,w
  5160  0F63  045E               	iorwf	??___flmul,w
  5161  0F64  1903               	skipnz
  5162  0F65  2F67               	goto	u2911
  5163  0F66  2F68               	goto	u2910
  5164  0F67                     u2911:
  5165  0F67  2F6B               	goto	l612
  5166  0F68                     u2910:
  5167  0F68                     l2121:
  5168  0F68  01E8               	clrf	___flmul@aexp
  5169  0F69  0AE8               	incf	___flmul@aexp,f
  5170  0F6A  2F70               	goto	l2125
  5171  0F6B                     l612:
  5172  0F6B  1C6A               	btfss	___flmul@prod,0
  5173  0F6C  2F6E               	goto	u2921
  5174  0F6D  2F6F               	goto	u2920
  5175  0F6E                     u2921:
  5176  0F6E  2F70               	goto	l2125
  5177  0F6F                     u2920:
  5178  0F6F  2F68               	goto	l2121
  5179  0F70                     l2125:
  5180  0F70  0868               	movf	___flmul@aexp,w
  5181  0F71  1903               	btfsc	3,2
  5182  0F72  2F74               	goto	u2931
  5183  0F73  2F75               	goto	u2930
  5184  0F74                     u2931:
  5185  0F74  2FA6               	goto	l2135
  5186  0F75                     u2930:
  5187  0F75                     l2127:
  5188  0F75  3001               	movlw	1
  5189  0F76  07EA               	addwf	___flmul@prod,f
  5190  0F77  3000               	movlw	0
  5191  0F78  1803               	skipnc
  5192  0F79  3001               	movlw	1
  5193  0F7A  07EB               	addwf	___flmul@prod+1,f
  5194  0F7B  3000               	movlw	0
  5195  0F7C  1803               	skipnc
  5196  0F7D  3001               	movlw	1
  5197  0F7E  07EC               	addwf	___flmul@prod+2,f
  5198  0F7F  3000               	movlw	0
  5199  0F80  1803               	skipnc
  5200  0F81  3001               	movlw	1
  5201  0F82  07ED               	addwf	___flmul@prod+3,f
  5202  0F83                     l2129:
  5203  0F83  1C6D               	btfss	___flmul@prod+3,0
  5204  0F84  2F86               	goto	u2941
  5205  0F85  2F87               	goto	u2940
  5206  0F86                     u2941:
  5207  0F86  2FA6               	goto	l2135
  5208  0F87                     u2940:
  5209  0F87                     l2131:
  5210  0F87  086A               	movf	___flmul@prod,w
  5211  0F88  00DE               	movwf	??___flmul
  5212  0F89  086B               	movf	___flmul@prod+1,w
  5213  0F8A  00DF               	movwf	??___flmul+1
  5214  0F8B  086C               	movf	___flmul@prod+2,w
  5215  0F8C  00E0               	movwf	??___flmul+2
  5216  0F8D  086D               	movf	___flmul@prod+3,w
  5217  0F8E  00E1               	movwf	??___flmul+3
  5218  0F8F  3001               	movlw	1
  5219  0F90  00E2               	movwf	??___flmul+4
  5220  0F91                     u2955:
  5221  0F91  0D61               	rlf	??___flmul+3,w
  5222  0F92  0CE1               	rrf	??___flmul+3,f
  5223  0F93  0CE0               	rrf	??___flmul+2,f
  5224  0F94  0CDF               	rrf	??___flmul+1,f
  5225  0F95  0CDE               	rrf	??___flmul,f
  5226  0F96                     u2950:
  5227  0F96  0BE2               	decfsz	??___flmul+4,f
  5228  0F97  2F91               	goto	u2955
  5229  0F98  0861               	movf	??___flmul+3,w
  5230  0F99  00ED               	movwf	___flmul@prod+3
  5231  0F9A  0860               	movf	??___flmul+2,w
  5232  0F9B  00EC               	movwf	___flmul@prod+2
  5233  0F9C  085F               	movf	??___flmul+1,w
  5234  0F9D  00EB               	movwf	___flmul@prod+1
  5235  0F9E  085E               	movf	??___flmul,w
  5236  0F9F  00EA               	movwf	___flmul@prod
  5237  0FA0                     l2133:
  5238  0FA0  3001               	movlw	1
  5239  0FA1  07EE               	addwf	___flmul@temp,f
  5240  0FA2  1803               	skipnc
  5241  0FA3  0AEF               	incf	___flmul@temp+1,f
  5242  0FA4  3000               	movlw	0
  5243  0FA5  07EF               	addwf	___flmul@temp+1,f
  5244  0FA6                     l2135:
  5245  0FA6  086F               	movf	___flmul@temp+1,w
  5246  0FA7  3A80               	xorlw	128
  5247  0FA8  00FF               	movwf	btemp+1
  5248  0FA9  3080               	movlw	128
  5249  0FAA  027F               	subwf	btemp+1,w
  5250  0FAB  1D03               	skipz
  5251  0FAC  2FAF               	goto	u2965
  5252  0FAD  30FF               	movlw	255
  5253  0FAE  026E               	subwf	___flmul@temp,w
  5254  0FAF                     u2965:
  5255  0FAF  1C03               	skipc
  5256  0FB0  2FB2               	goto	u2961
  5257  0FB1  2FB3               	goto	u2960
  5258  0FB2                     u2961:
  5259  0FB2  2FBE               	goto	l2139
  5260  0FB3                     u2960:
  5261  0FB3                     l2137:
  5262  0FB3  307F               	movlw	127
  5263  0FB4  1283               	bcf	3,5	;RP0=0, select bank0
  5264  0FB5  1303               	bcf	3,6	;RP1=0, select bank0
  5265  0FB6  00ED               	movwf	___flmul@prod+3
  5266  0FB7  3080               	movlw	128
  5267  0FB8  00EC               	movwf	___flmul@prod+2
  5268  0FB9  3000               	movlw	0
  5269  0FBA  00EB               	movwf	___flmul@prod+1
  5270  0FBB  3000               	movlw	0
  5271  0FBC  00EA               	movwf	___flmul@prod
  5272  0FBD  2FF3               	goto	l618
  5273  0FBE                     l2139:
  5274  0FBE  1283               	bcf	3,5	;RP0=0, select bank0
  5275  0FBF  1303               	bcf	3,6	;RP1=0, select bank0
  5276  0FC0  086F               	movf	___flmul@temp+1,w
  5277  0FC1  3A80               	xorlw	128
  5278  0FC2  00FF               	movwf	btemp+1
  5279  0FC3  3080               	movlw	128
  5280  0FC4  027F               	subwf	btemp+1,w
  5281  0FC5  1D03               	skipz
  5282  0FC6  2FC9               	goto	u2975
  5283  0FC7  3001               	movlw	1
  5284  0FC8  026E               	subwf	___flmul@temp,w
  5285  0FC9                     u2975:
  5286  0FC9  1803               	skipnc
  5287  0FCA  2FCC               	goto	u2971
  5288  0FCB  2FCD               	goto	u2970
  5289  0FCC                     u2971:
  5290  0FCC  2FD9               	goto	l2145
  5291  0FCD                     u2970:
  5292  0FCD                     l2141:
  5293  0FCD  3000               	movlw	0
  5294  0FCE  1283               	bcf	3,5	;RP0=0, select bank0
  5295  0FCF  1303               	bcf	3,6	;RP1=0, select bank0
  5296  0FD0  00ED               	movwf	___flmul@prod+3
  5297  0FD1  3000               	movlw	0
  5298  0FD2  00EC               	movwf	___flmul@prod+2
  5299  0FD3  3000               	movlw	0
  5300  0FD4  00EB               	movwf	___flmul@prod+1
  5301  0FD5  3000               	movlw	0
  5302  0FD6  00EA               	movwf	___flmul@prod
  5303  0FD7                     l2143:
  5304  0FD7  01E3               	clrf	___flmul@sign
  5305  0FD8  2FF3               	goto	l618
  5306  0FD9                     l2145:
  5307  0FD9  1283               	bcf	3,5	;RP0=0, select bank0
  5308  0FDA  1303               	bcf	3,6	;RP1=0, select bank0
  5309  0FDB  086E               	movf	___flmul@temp,w
  5310  0FDC  00FF               	movwf	btemp+1
  5311  0FDD  087F               	movf	btemp+1,w
  5312  0FDE  00E9               	movwf	___flmul@bexp
  5313  0FDF                     l2147:
  5314  0FDF  30FF               	movlw	255
  5315  0FE0  05EA               	andwf	___flmul@prod,f
  5316  0FE1  30FF               	movlw	255
  5317  0FE2  05EB               	andwf	___flmul@prod+1,f
  5318  0FE3  307F               	movlw	127
  5319  0FE4  05EC               	andwf	___flmul@prod+2,f
  5320  0FE5  3000               	movlw	0
  5321  0FE6  05ED               	andwf	___flmul@prod+3,f
  5322  0FE7                     l2149:
  5323  0FE7  1C69               	btfss	___flmul@bexp,0
  5324  0FE8  2FEA               	goto	u2981
  5325  0FE9  2FEB               	goto	u2980
  5326  0FEA                     u2981:
  5327  0FEA  2FEC               	goto	l2153
  5328  0FEB                     u2980:
  5329  0FEB                     l2151:
  5330  0FEB  17EC               	bsf	___flmul@prod+2,7
  5331  0FEC                     l2153:
  5332  0FEC  0869               	movf	___flmul@bexp,w
  5333  0FED  00DE               	movwf	??___flmul
  5334  0FEE  1003               	clrc
  5335  0FEF  0C5E               	rrf	??___flmul,w
  5336  0FF0  00FF               	movwf	btemp+1
  5337  0FF1  087F               	movf	btemp+1,w
  5338  0FF2  00ED               	movwf	___flmul@prod+3
  5339  0FF3                     l618:
  5340  0FF3  0863               	movf	___flmul@sign,w
  5341  0FF4  00FF               	movwf	btemp+1
  5342  0FF5  087F               	movf	btemp+1,w
  5343  0FF6  04ED               	iorwf	___flmul@prod+3,f
  5344  0FF7                     l2155:
  5345  0FF7  086D               	movf	___flmul@prod+3,w
  5346  0FF8  00D9               	movwf	?___flmul+3
  5347  0FF9  086C               	movf	___flmul@prod+2,w
  5348  0FFA  00D8               	movwf	?___flmul+2
  5349  0FFB  086B               	movf	___flmul@prod+1,w
  5350  0FFC  00D7               	movwf	?___flmul+1
  5351  0FFD  086A               	movf	___flmul@prod,w
  5352  0FFE  00D6               	movwf	?___flmul
  5353  0FFF                     l606:
  5354  0FFF  0008               	return
  5355  1000                     __end_of___flmul:
  5356                           
  5357                           	psect	text10
  5358  15F0                     __ptext10:	
  5359 ;; *************** function __Umul8_16 *****************
  5360 ;; Defined at:
  5361 ;;		line 4 in file "C:\Program Files\Microchip\xc8\v2.20\pic\sources\c90\common\Umul8_16.c"
  5362 ;; Parameters:    Size  Location     Type
  5363 ;;  multiplier      1    wreg     unsigned char 
  5364 ;;  multiplicand    1    2[COMMON] unsigned char 
  5365 ;; Auto vars:     Size  Location     Type
  5366 ;;  multiplier      1   10[COMMON] unsigned char 
  5367 ;;  word_mpld       2    8[COMMON] unsigned int 
  5368 ;;  product         2    6[COMMON] unsigned int 
  5369 ;; Return value:  Size  Location     Type
  5370 ;;                  2    2[COMMON] unsigned int 
  5371 ;; Registers used:
  5372 ;;		wreg, status,2, status,0
  5373 ;; Tracked objects:
  5374 ;;		On entry : 0/0
  5375 ;;		On exit  : 0/0
  5376 ;;		Unchanged: 0/0
  5377 ;; Data sizes:     COMMON   BANK0   BANK1   BANK3   BANK2
  5378 ;;      Params:         2       0       0       0       0
  5379 ;;      Locals:         5       0       0       0       0
  5380 ;;      Temps:          2       0       0       0       0
  5381 ;;      Totals:         9       0       0       0       0
  5382 ;;Total ram usage:        9 bytes
  5383 ;; Hardware stack levels used:    1
  5384 ;; Hardware stack levels required when called:    1
  5385 ;; This function calls:
  5386 ;;		Nothing
  5387 ;; This function is called by:
  5388 ;;		___flmul
  5389 ;; This function uses a non-reentrant model
  5390 ;;
  5391                           
  5392                           
  5393                           ;psect for function __Umul8_16
  5394  15F0                     __Umul8_16:
  5395                           
  5396                           ;incstack = 0
  5397                           ; Regs used in __Umul8_16: [wreg+status,2+status,0]
  5398                           ;__Umul8_16@multiplier stored from wreg
  5399  15F0  00FA               	movwf	__Umul8_16@multiplier
  5400  15F1                     l1801:
  5401  15F1  01F6               	clrf	__Umul8_16@product
  5402  15F2  01F7               	clrf	__Umul8_16@product+1
  5403  15F3                     l1803:
  5404  15F3  0872               	movf	__Umul8_16@multiplicand,w
  5405  15F4  00F4               	movwf	??__Umul8_16
  5406  15F5  01F5               	clrf	??__Umul8_16+1
  5407  15F6  0874               	movf	??__Umul8_16,w
  5408  15F7  00F8               	movwf	__Umul8_16@word_mpld
  5409  15F8  0875               	movf	??__Umul8_16+1,w
  5410  15F9  00F9               	movwf	__Umul8_16@word_mpld+1
  5411  15FA                     l1805:
  5412  15FA  1C7A               	btfss	__Umul8_16@multiplier,0
  5413  15FB  2DFD               	goto	u2211
  5414  15FC  2DFE               	goto	u2210
  5415  15FD                     u2211:
  5416  15FD  2E04               	goto	l625
  5417  15FE                     u2210:
  5418  15FE                     l1807:
  5419  15FE  0878               	movf	__Umul8_16@word_mpld,w
  5420  15FF  07F6               	addwf	__Umul8_16@product,f
  5421  1600  1803               	skipnc
  5422  1601  0AF7               	incf	__Umul8_16@product+1,f
  5423  1602  0879               	movf	__Umul8_16@word_mpld+1,w
  5424  1603  07F7               	addwf	__Umul8_16@product+1,f
  5425  1604                     l625:
  5426  1604  3001               	movlw	1
  5427  1605                     u2225:
  5428  1605  1003               	clrc
  5429  1606  0DF8               	rlf	__Umul8_16@word_mpld,f
  5430  1607  0DF9               	rlf	__Umul8_16@word_mpld+1,f
  5431  1608  3EFF               	addlw	-1
  5432  1609  1D03               	skipz
  5433  160A  2E05               	goto	u2225
  5434  160B  1003               	clrc
  5435  160C  0CFA               	rrf	__Umul8_16@multiplier,f
  5436  160D                     l1809:
  5437  160D  087A               	movf	__Umul8_16@multiplier,w
  5438  160E  1D03               	btfss	3,2
  5439  160F  2E11               	goto	u2231
  5440  1610  2E12               	goto	u2230
  5441  1611                     u2231:
  5442  1611  2DFA               	goto	l1805
  5443  1612                     u2230:
  5444  1612                     l1811:
  5445  1612  0877               	movf	__Umul8_16@product+1,w
  5446  1613  00F3               	movwf	?__Umul8_16+1
  5447  1614  0876               	movf	__Umul8_16@product,w
  5448  1615  00F2               	movwf	?__Umul8_16
  5449  1616                     l627:
  5450  1616  0008               	return
  5451  1617                     __end_of__Umul8_16:
  5452                           
  5453                           	psect	text11
  5454  083A                     __ptext11:	
  5455 ;; *************** function ___fldiv *****************
  5456 ;; Defined at:
  5457 ;;		line 8 in file "C:\Program Files\Microchip\xc8\v2.20\pic\sources\c90\common\sprcdiv.c"
  5458 ;; Parameters:    Size  Location     Type
  5459 ;;  a               4   28[BANK0 ] unsigned int 
  5460 ;;  b               4   32[BANK0 ] unsigned int 
  5461 ;; Auto vars:     Size  Location     Type
  5462 ;;  grs             4   48[BANK0 ] unsigned long 
  5463 ;;  rem             4   41[BANK0 ] unsigned long 
  5464 ;;  new_exp         2   46[BANK0 ] int 
  5465 ;;  aexp            1   53[BANK0 ] unsigned char 
  5466 ;;  bexp            1   52[BANK0 ] unsigned char 
  5467 ;;  sign            1   45[BANK0 ] unsigned char 
  5468 ;; Return value:  Size  Location     Type
  5469 ;;                  4   28[BANK0 ] unsigned char 
  5470 ;; Registers used:
  5471 ;;		wreg, status,2, status,0, btemp+1
  5472 ;; Tracked objects:
  5473 ;;		On entry : 0/0
  5474 ;;		On exit  : 0/0
  5475 ;;		Unchanged: 0/0
  5476 ;; Data sizes:     COMMON   BANK0   BANK1   BANK3   BANK2
  5477 ;;      Params:         0       8       0       0       0
  5478 ;;      Locals:         0      13       0       0       0
  5479 ;;      Temps:          0       5       0       0       0
  5480 ;;      Totals:         0      26       0       0       0
  5481 ;;Total ram usage:       26 bytes
  5482 ;; Hardware stack levels used:    1
  5483 ;; Hardware stack levels required when called:    1
  5484 ;; This function calls:
  5485 ;;		Nothing
  5486 ;; This function is called by:
  5487 ;;		_Voltage_Value
  5488 ;;		_Resistance_Value
  5489 ;;		_conversion_newton
  5490 ;; This function uses a non-reentrant model
  5491 ;;
  5492                           
  5493                           
  5494                           ;psect for function ___fldiv
  5495  083A                     ___fldiv:
  5496  083A                     l1873:	
  5497                           ;incstack = 0
  5498                           ; Regs used in ___fldiv: [wreg+status,2+status,0+btemp+1]
  5499                           
  5500  083A  1283               	bcf	3,5	;RP0=0, select bank0
  5501  083B  1303               	bcf	3,6	;RP1=0, select bank0
  5502  083C  0843               	movf	___fldiv@b+3,w
  5503  083D  3980               	andlw	128
  5504  083E  00FF               	movwf	btemp+1
  5505  083F  087F               	movf	btemp+1,w
  5506  0840  00CD               	movwf	___fldiv@sign
  5507  0841                     l1875:
  5508  0841  0843               	movf	___fldiv@b+3,w
  5509  0842  00C4               	movwf	??___fldiv
  5510  0843  0744               	addwf	??___fldiv,w
  5511  0844  00FF               	movwf	btemp+1
  5512  0845  087F               	movf	btemp+1,w
  5513  0846  00D4               	movwf	___fldiv@bexp
  5514  0847                     l1877:
  5515  0847  1FC2               	btfss	___fldiv@b+2,7
  5516  0848  284A               	goto	u2331
  5517  0849  284B               	goto	u2330
  5518  084A                     u2331:
  5519  084A  284C               	goto	l1881
  5520  084B                     u2330:
  5521  084B                     l1879:
  5522  084B  1454               	bsf	___fldiv@bexp,0
  5523  084C                     l1881:
  5524  084C  0854               	movf	___fldiv@bexp,w
  5525  084D  1903               	btfsc	3,2
  5526  084E  2850               	goto	u2341
  5527  084F  2851               	goto	u2340
  5528  0850                     u2341:
  5529  0850  2861               	goto	l1891
  5530  0851                     u2340:
  5531  0851                     l1883:
  5532  0851  0A54               	incf	___fldiv@bexp,w
  5533  0852  1D03               	btfss	3,2
  5534  0853  2855               	goto	u2351
  5535  0854  2856               	goto	u2350
  5536  0855                     u2351:
  5537  0855  285E               	goto	l1887
  5538  0856                     u2350:
  5539  0856                     l1885:
  5540  0856  3000               	movlw	0
  5541  0857  00C3               	movwf	___fldiv@b+3
  5542  0858  3000               	movlw	0
  5543  0859  00C2               	movwf	___fldiv@b+2
  5544  085A  3000               	movlw	0
  5545  085B  00C1               	movwf	___fldiv@b+1
  5546  085C  3000               	movlw	0
  5547  085D  00C0               	movwf	___fldiv@b
  5548  085E                     l1887:
  5549  085E  17C2               	bsf	___fldiv@b+2,7
  5550  085F                     l1889:
  5551  085F  01C3               	clrf	___fldiv@b+3
  5552  0860  2869               	goto	l1893
  5553  0861                     l1891:
  5554  0861  3000               	movlw	0
  5555  0862  00C3               	movwf	___fldiv@b+3
  5556  0863  3000               	movlw	0
  5557  0864  00C2               	movwf	___fldiv@b+2
  5558  0865  3000               	movlw	0
  5559  0866  00C1               	movwf	___fldiv@b+1
  5560  0867  3000               	movlw	0
  5561  0868  00C0               	movwf	___fldiv@b
  5562  0869                     l1893:
  5563  0869  083F               	movf	___fldiv@a+3,w
  5564  086A  3980               	andlw	128
  5565  086B  00FF               	movwf	btemp+1
  5566  086C  087F               	movf	btemp+1,w
  5567  086D  06CD               	xorwf	___fldiv@sign,f
  5568  086E                     l1895:
  5569  086E  083F               	movf	___fldiv@a+3,w
  5570  086F  00C4               	movwf	??___fldiv
  5571  0870  0744               	addwf	??___fldiv,w
  5572  0871  00FF               	movwf	btemp+1
  5573  0872  087F               	movf	btemp+1,w
  5574  0873  00D5               	movwf	___fldiv@aexp
  5575  0874                     l1897:
  5576  0874  1FBE               	btfss	___fldiv@a+2,7
  5577  0875  2877               	goto	u2361
  5578  0876  2878               	goto	u2360
  5579  0877                     u2361:
  5580  0877  2879               	goto	l1901
  5581  0878                     u2360:
  5582  0878                     l1899:
  5583  0878  1455               	bsf	___fldiv@aexp,0
  5584  0879                     l1901:
  5585  0879  0855               	movf	___fldiv@aexp,w
  5586  087A  1903               	btfsc	3,2
  5587  087B  287D               	goto	u2371
  5588  087C  287E               	goto	u2370
  5589  087D                     u2371:
  5590  087D  288E               	goto	l1911
  5591  087E                     u2370:
  5592  087E                     l1903:
  5593  087E  0A55               	incf	___fldiv@aexp,w
  5594  087F  1D03               	btfss	3,2
  5595  0880  2882               	goto	u2381
  5596  0881  2883               	goto	u2380
  5597  0882                     u2381:
  5598  0882  288B               	goto	l1907
  5599  0883                     u2380:
  5600  0883                     l1905:
  5601  0883  3000               	movlw	0
  5602  0884  00BF               	movwf	___fldiv@a+3
  5603  0885  3000               	movlw	0
  5604  0886  00BE               	movwf	___fldiv@a+2
  5605  0887  3000               	movlw	0
  5606  0888  00BD               	movwf	___fldiv@a+1
  5607  0889  3000               	movlw	0
  5608  088A  00BC               	movwf	___fldiv@a
  5609  088B                     l1907:
  5610  088B  17BE               	bsf	___fldiv@a+2,7
  5611  088C                     l1909:
  5612  088C  01BF               	clrf	___fldiv@a+3
  5613  088D  2896               	goto	l566
  5614  088E                     l1911:
  5615  088E  3000               	movlw	0
  5616  088F  00BF               	movwf	___fldiv@a+3
  5617  0890  3000               	movlw	0
  5618  0891  00BE               	movwf	___fldiv@a+2
  5619  0892  3000               	movlw	0
  5620  0893  00BD               	movwf	___fldiv@a+1
  5621  0894  3000               	movlw	0
  5622  0895  00BC               	movwf	___fldiv@a
  5623  0896                     l566:
  5624  0896  083F               	movf	___fldiv@a+3,w
  5625  0897  043E               	iorwf	___fldiv@a+2,w
  5626  0898  043D               	iorwf	___fldiv@a+1,w
  5627  0899  043C               	iorwf	___fldiv@a,w
  5628  089A  1D03               	skipz
  5629  089B  289D               	goto	u2391
  5630  089C  289E               	goto	u2390
  5631  089D                     u2391:
  5632  089D  28B7               	goto	l1921
  5633  089E                     u2390:
  5634  089E                     l1913:
  5635  089E  3000               	movlw	0
  5636  089F  00C3               	movwf	___fldiv@b+3
  5637  08A0  3000               	movlw	0
  5638  08A1  00C2               	movwf	___fldiv@b+2
  5639  08A2  3000               	movlw	0
  5640  08A3  00C1               	movwf	___fldiv@b+1
  5641  08A4  3000               	movlw	0
  5642  08A5  00C0               	movwf	___fldiv@b
  5643  08A6  3080               	movlw	128
  5644  08A7  04C2               	iorwf	___fldiv@b+2,f
  5645  08A8  307F               	movlw	127
  5646  08A9  04C3               	iorwf	___fldiv@b+3,f
  5647  08AA                     l1915:
  5648  08AA  084D               	movf	___fldiv@sign,w
  5649  08AB  00FF               	movwf	btemp+1
  5650  08AC  087F               	movf	btemp+1,w
  5651  08AD  04C3               	iorwf	___fldiv@b+3,f
  5652  08AE                     l1917:
  5653  08AE  0843               	movf	___fldiv@b+3,w
  5654  08AF  00BF               	movwf	?___fldiv+3
  5655  08B0  0842               	movf	___fldiv@b+2,w
  5656  08B1  00BE               	movwf	?___fldiv+2
  5657  08B2  0841               	movf	___fldiv@b+1,w
  5658  08B3  00BD               	movwf	?___fldiv+1
  5659  08B4  0840               	movf	___fldiv@b,w
  5660  08B5  00BC               	movwf	?___fldiv
  5661  08B6  2A16               	goto	l568
  5662  08B7                     l1921:
  5663  08B7  0854               	movf	___fldiv@bexp,w
  5664  08B8  1D03               	btfss	3,2
  5665  08B9  28BB               	goto	u2401
  5666  08BA  28BC               	goto	u2400
  5667  08BB                     u2401:
  5668  08BB  28C5               	goto	l1927
  5669  08BC                     u2400:
  5670  08BC                     l1923:
  5671  08BC  3000               	movlw	0
  5672  08BD  00BF               	movwf	?___fldiv+3
  5673  08BE  3000               	movlw	0
  5674  08BF  00BE               	movwf	?___fldiv+2
  5675  08C0  3000               	movlw	0
  5676  08C1  00BD               	movwf	?___fldiv+1
  5677  08C2  3000               	movlw	0
  5678  08C3  00BC               	movwf	?___fldiv
  5679  08C4  2A16               	goto	l568
  5680  08C5                     l1927:
  5681  08C5  0854               	movf	___fldiv@bexp,w
  5682  08C6  00C4               	movwf	??___fldiv
  5683  08C7  01C5               	clrf	??___fldiv+1
  5684  08C8  0845               	movf	??___fldiv+1,w
  5685  08C9  00C7               	movwf	??___fldiv+3
  5686  08CA  0855               	movf	___fldiv@aexp,w
  5687  08CB  0244               	subwf	??___fldiv,w
  5688  08CC  00C6               	movwf	??___fldiv+2
  5689  08CD  1C03               	skipc
  5690  08CE  03C7               	decf	??___fldiv+3,f
  5691  08CF  0846               	movf	??___fldiv+2,w
  5692  08D0  3E7F               	addlw	127
  5693  08D1  00CE               	movwf	___fldiv@new_exp
  5694  08D2  0847               	movf	??___fldiv+3,w
  5695  08D3  1803               	skipnc
  5696  08D4  3E01               	addlw	1
  5697  08D5  3E00               	addlw	0
  5698  08D6  00CF               	movwf	___fldiv@new_exp+1
  5699  08D7                     l1929:
  5700  08D7  0843               	movf	___fldiv@b+3,w
  5701  08D8  00CC               	movwf	___fldiv@rem+3
  5702  08D9  0842               	movf	___fldiv@b+2,w
  5703  08DA  00CB               	movwf	___fldiv@rem+2
  5704  08DB  0841               	movf	___fldiv@b+1,w
  5705  08DC  00CA               	movwf	___fldiv@rem+1
  5706  08DD  0840               	movf	___fldiv@b,w
  5707  08DE  00C9               	movwf	___fldiv@rem
  5708  08DF                     l1931:
  5709  08DF  3000               	movlw	0
  5710  08E0  00C3               	movwf	___fldiv@b+3
  5711  08E1  3000               	movlw	0
  5712  08E2  00C2               	movwf	___fldiv@b+2
  5713  08E3  3000               	movlw	0
  5714  08E4  00C1               	movwf	___fldiv@b+1
  5715  08E5  3000               	movlw	0
  5716  08E6  00C0               	movwf	___fldiv@b
  5717  08E7                     l1933:
  5718  08E7  3000               	movlw	0
  5719  08E8  00D3               	movwf	___fldiv@grs+3
  5720  08E9  3000               	movlw	0
  5721  08EA  00D2               	movwf	___fldiv@grs+2
  5722  08EB  3000               	movlw	0
  5723  08EC  00D1               	movwf	___fldiv@grs+1
  5724  08ED  3000               	movlw	0
  5725  08EE  00D0               	movwf	___fldiv@grs
  5726  08EF                     l1935:
  5727  08EF  01D5               	clrf	___fldiv@aexp
  5728  08F0  293B               	goto	l1955
  5729  08F1                     l1937:
  5730  08F1  0855               	movf	___fldiv@aexp,w
  5731  08F2  1903               	btfsc	3,2
  5732  08F3  28F5               	goto	u2411
  5733  08F4  28F6               	goto	u2410
  5734  08F5                     u2411:
  5735  08F5  2916               	goto	l1947
  5736  08F6                     u2410:
  5737  08F6                     l1939:
  5738  08F6  3001               	movlw	1
  5739  08F7  00C4               	movwf	??___fldiv
  5740  08F8                     u2425:
  5741  08F8  1003               	clrc
  5742  08F9  0DC9               	rlf	___fldiv@rem,f
  5743  08FA  0DCA               	rlf	___fldiv@rem+1,f
  5744  08FB  0DCB               	rlf	___fldiv@rem+2,f
  5745  08FC  0DCC               	rlf	___fldiv@rem+3,f
  5746  08FD  0BC4               	decfsz	??___fldiv,f
  5747  08FE  28F8               	goto	u2425
  5748  08FF  3001               	movlw	1
  5749  0900  00C4               	movwf	??___fldiv
  5750  0901                     u2435:
  5751  0901  1003               	clrc
  5752  0902  0DC0               	rlf	___fldiv@b,f
  5753  0903  0DC1               	rlf	___fldiv@b+1,f
  5754  0904  0DC2               	rlf	___fldiv@b+2,f
  5755  0905  0DC3               	rlf	___fldiv@b+3,f
  5756  0906  0BC4               	decfsz	??___fldiv,f
  5757  0907  2901               	goto	u2435
  5758  0908                     l1941:
  5759  0908  1FD3               	btfss	___fldiv@grs+3,7
  5760  0909  290B               	goto	u2441
  5761  090A  290C               	goto	u2440
  5762  090B                     u2441:
  5763  090B  290D               	goto	l1945
  5764  090C                     u2440:
  5765  090C                     l1943:
  5766  090C  1440               	bsf	___fldiv@b,0
  5767  090D                     l1945:
  5768  090D  3001               	movlw	1
  5769  090E  00C4               	movwf	??___fldiv
  5770  090F                     u2455:
  5771  090F  1003               	clrc
  5772  0910  0DD0               	rlf	___fldiv@grs,f
  5773  0911  0DD1               	rlf	___fldiv@grs+1,f
  5774  0912  0DD2               	rlf	___fldiv@grs+2,f
  5775  0913  0DD3               	rlf	___fldiv@grs+3,f
  5776  0914  0BC4               	decfsz	??___fldiv,f
  5777  0915  290F               	goto	u2455
  5778  0916                     l1947:
  5779  0916  083F               	movf	___fldiv@a+3,w
  5780  0917  024C               	subwf	___fldiv@rem+3,w
  5781  0918  1D03               	skipz
  5782  0919  2924               	goto	u2465
  5783  091A  083E               	movf	___fldiv@a+2,w
  5784  091B  024B               	subwf	___fldiv@rem+2,w
  5785  091C  1D03               	skipz
  5786  091D  2924               	goto	u2465
  5787  091E  083D               	movf	___fldiv@a+1,w
  5788  091F  024A               	subwf	___fldiv@rem+1,w
  5789  0920  1D03               	skipz
  5790  0921  2924               	goto	u2465
  5791  0922  083C               	movf	___fldiv@a,w
  5792  0923  0249               	subwf	___fldiv@rem,w
  5793  0924                     u2465:
  5794  0924  1C03               	skipc
  5795  0925  2927               	goto	u2461
  5796  0926  2928               	goto	u2460
  5797  0927                     u2461:
  5798  0927  2937               	goto	l1953
  5799  0928                     u2460:
  5800  0928                     l1949:
  5801  0928  1753               	bsf	___fldiv@grs+3,6
  5802  0929                     l1951:
  5803  0929  083C               	movf	___fldiv@a,w
  5804  092A  02C9               	subwf	___fldiv@rem,f
  5805  092B  083D               	movf	___fldiv@a+1,w
  5806  092C  1C03               	skipc
  5807  092D  0F3D               	incfsz	___fldiv@a+1,w
  5808  092E  02CA               	subwf	___fldiv@rem+1,f
  5809  092F  083E               	movf	___fldiv@a+2,w
  5810  0930  1C03               	skipc
  5811  0931  0F3E               	incfsz	___fldiv@a+2,w
  5812  0932  02CB               	subwf	___fldiv@rem+2,f
  5813  0933  083F               	movf	___fldiv@a+3,w
  5814  0934  1C03               	skipc
  5815  0935  0F3F               	incfsz	___fldiv@a+3,w
  5816  0936  02CC               	subwf	___fldiv@rem+3,f
  5817  0937                     l1953:
  5818  0937  3001               	movlw	1
  5819  0938  00FF               	movwf	btemp+1
  5820  0939  087F               	movf	btemp+1,w
  5821  093A  07D5               	addwf	___fldiv@aexp,f
  5822  093B                     l1955:
  5823  093B  301A               	movlw	26
  5824  093C  0255               	subwf	___fldiv@aexp,w
  5825  093D  1C03               	skipc
  5826  093E  2940               	goto	u2471
  5827  093F  2941               	goto	u2470
  5828  0940                     u2471:
  5829  0940  28F1               	goto	l1937
  5830  0941                     u2470:
  5831  0941                     l1957:
  5832  0941  084C               	movf	___fldiv@rem+3,w
  5833  0942  044B               	iorwf	___fldiv@rem+2,w
  5834  0943  044A               	iorwf	___fldiv@rem+1,w
  5835  0944  0449               	iorwf	___fldiv@rem,w
  5836  0945  1903               	skipnz
  5837  0946  2948               	goto	u2481
  5838  0947  2949               	goto	u2480
  5839  0948                     u2481:
  5840  0948  2968               	goto	l1971
  5841  0949                     u2480:
  5842  0949                     l1959:
  5843  0949  1450               	bsf	___fldiv@grs,0
  5844  094A  2968               	goto	l1971
  5845  094B                     l1961:
  5846  094B  3001               	movlw	1
  5847  094C  00C4               	movwf	??___fldiv
  5848  094D                     u2495:
  5849  094D  1003               	clrc
  5850  094E  0DC0               	rlf	___fldiv@b,f
  5851  094F  0DC1               	rlf	___fldiv@b+1,f
  5852  0950  0DC2               	rlf	___fldiv@b+2,f
  5853  0951  0DC3               	rlf	___fldiv@b+3,f
  5854  0952  0BC4               	decfsz	??___fldiv,f
  5855  0953  294D               	goto	u2495
  5856  0954                     l1963:
  5857  0954  1FD3               	btfss	___fldiv@grs+3,7
  5858  0955  2957               	goto	u2501
  5859  0956  2958               	goto	u2500
  5860  0957                     u2501:
  5861  0957  2959               	goto	l1967
  5862  0958                     u2500:
  5863  0958                     l1965:
  5864  0958  1440               	bsf	___fldiv@b,0
  5865  0959                     l1967:
  5866  0959  3001               	movlw	1
  5867  095A  00C4               	movwf	??___fldiv
  5868  095B                     u2515:
  5869  095B  1003               	clrc
  5870  095C  0DD0               	rlf	___fldiv@grs,f
  5871  095D  0DD1               	rlf	___fldiv@grs+1,f
  5872  095E  0DD2               	rlf	___fldiv@grs+2,f
  5873  095F  0DD3               	rlf	___fldiv@grs+3,f
  5874  0960  0BC4               	decfsz	??___fldiv,f
  5875  0961  295B               	goto	u2515
  5876  0962                     l1969:
  5877  0962  30FF               	movlw	255
  5878  0963  07CE               	addwf	___fldiv@new_exp,f
  5879  0964  1803               	skipnc
  5880  0965  0ACF               	incf	___fldiv@new_exp+1,f
  5881  0966  30FF               	movlw	255
  5882  0967  07CF               	addwf	___fldiv@new_exp+1,f
  5883  0968                     l1971:
  5884  0968  1FC2               	btfss	___fldiv@b+2,7
  5885  0969  296B               	goto	u2521
  5886  096A  296C               	goto	u2520
  5887  096B                     u2521:
  5888  096B  294B               	goto	l1961
  5889  096C                     u2520:
  5890  096C                     l1973:
  5891  096C  01D5               	clrf	___fldiv@aexp
  5892  096D                     l1975:
  5893  096D  1FD3               	btfss	___fldiv@grs+3,7
  5894  096E  2970               	goto	u2531
  5895  096F  2971               	goto	u2530
  5896  0970                     u2531:
  5897  0970  298D               	goto	l1983
  5898  0971                     u2530:
  5899  0971                     l1977:
  5900  0971  30FF               	movlw	255
  5901  0972  0550               	andwf	___fldiv@grs,w
  5902  0973  00C4               	movwf	??___fldiv
  5903  0974  30FF               	movlw	255
  5904  0975  0551               	andwf	___fldiv@grs+1,w
  5905  0976  00C5               	movwf	??___fldiv+1
  5906  0977  30FF               	movlw	255
  5907  0978  0552               	andwf	___fldiv@grs+2,w
  5908  0979  00C6               	movwf	??___fldiv+2
  5909  097A  307F               	movlw	127
  5910  097B  0553               	andwf	___fldiv@grs+3,w
  5911  097C  00C7               	movwf	??___fldiv+3
  5912  097D  0847               	movf	??___fldiv+3,w
  5913  097E  0446               	iorwf	??___fldiv+2,w
  5914  097F  0445               	iorwf	??___fldiv+1,w
  5915  0980  0444               	iorwf	??___fldiv,w
  5916  0981  1903               	skipnz
  5917  0982  2984               	goto	u2541
  5918  0983  2985               	goto	u2540
  5919  0984                     u2541:
  5920  0984  2988               	goto	l582
  5921  0985                     u2540:
  5922  0985                     l1979:
  5923  0985  01D5               	clrf	___fldiv@aexp
  5924  0986  0AD5               	incf	___fldiv@aexp,f
  5925  0987  298D               	goto	l1983
  5926  0988                     l582:
  5927  0988  1C40               	btfss	___fldiv@b,0
  5928  0989  298B               	goto	u2551
  5929  098A  298C               	goto	u2550
  5930  098B                     u2551:
  5931  098B  298D               	goto	l1983
  5932  098C                     u2550:
  5933  098C  2985               	goto	l1979
  5934  098D                     l1983:
  5935  098D  0855               	movf	___fldiv@aexp,w
  5936  098E  1903               	btfsc	3,2
  5937  098F  2991               	goto	u2561
  5938  0990  2992               	goto	u2560
  5939  0991                     u2561:
  5940  0991  29C3               	goto	l1993
  5941  0992                     u2560:
  5942  0992                     l1985:
  5943  0992  3001               	movlw	1
  5944  0993  07C0               	addwf	___fldiv@b,f
  5945  0994  3000               	movlw	0
  5946  0995  1803               	skipnc
  5947  0996  3001               	movlw	1
  5948  0997  07C1               	addwf	___fldiv@b+1,f
  5949  0998  3000               	movlw	0
  5950  0999  1803               	skipnc
  5951  099A  3001               	movlw	1
  5952  099B  07C2               	addwf	___fldiv@b+2,f
  5953  099C  3000               	movlw	0
  5954  099D  1803               	skipnc
  5955  099E  3001               	movlw	1
  5956  099F  07C3               	addwf	___fldiv@b+3,f
  5957  09A0                     l1987:
  5958  09A0  1C43               	btfss	___fldiv@b+3,0
  5959  09A1  29A3               	goto	u2571
  5960  09A2  29A4               	goto	u2570
  5961  09A3                     u2571:
  5962  09A3  29C3               	goto	l1993
  5963  09A4                     u2570:
  5964  09A4                     l1989:
  5965  09A4  0840               	movf	___fldiv@b,w
  5966  09A5  00C4               	movwf	??___fldiv
  5967  09A6  0841               	movf	___fldiv@b+1,w
  5968  09A7  00C5               	movwf	??___fldiv+1
  5969  09A8  0842               	movf	___fldiv@b+2,w
  5970  09A9  00C6               	movwf	??___fldiv+2
  5971  09AA  0843               	movf	___fldiv@b+3,w
  5972  09AB  00C7               	movwf	??___fldiv+3
  5973  09AC  3001               	movlw	1
  5974  09AD  00C8               	movwf	??___fldiv+4
  5975  09AE                     u2585:
  5976  09AE  0D47               	rlf	??___fldiv+3,w
  5977  09AF  0CC7               	rrf	??___fldiv+3,f
  5978  09B0  0CC6               	rrf	??___fldiv+2,f
  5979  09B1  0CC5               	rrf	??___fldiv+1,f
  5980  09B2  0CC4               	rrf	??___fldiv,f
  5981  09B3                     u2580:
  5982  09B3  0BC8               	decfsz	??___fldiv+4,f
  5983  09B4  29AE               	goto	u2585
  5984  09B5  0847               	movf	??___fldiv+3,w
  5985  09B6  00C3               	movwf	___fldiv@b+3
  5986  09B7  0846               	movf	??___fldiv+2,w
  5987  09B8  00C2               	movwf	___fldiv@b+2
  5988  09B9  0845               	movf	??___fldiv+1,w
  5989  09BA  00C1               	movwf	___fldiv@b+1
  5990  09BB  0844               	movf	??___fldiv,w
  5991  09BC  00C0               	movwf	___fldiv@b
  5992  09BD                     l1991:
  5993  09BD  3001               	movlw	1
  5994  09BE  07CE               	addwf	___fldiv@new_exp,f
  5995  09BF  1803               	skipnc
  5996  09C0  0ACF               	incf	___fldiv@new_exp+1,f
  5997  09C1  3000               	movlw	0
  5998  09C2  07CF               	addwf	___fldiv@new_exp+1,f
  5999  09C3                     l1993:
  6000  09C3  084F               	movf	___fldiv@new_exp+1,w
  6001  09C4  3A80               	xorlw	128
  6002  09C5  00FF               	movwf	btemp+1
  6003  09C6  3080               	movlw	128
  6004  09C7  027F               	subwf	btemp+1,w
  6005  09C8  1D03               	skipz
  6006  09C9  29CC               	goto	u2595
  6007  09CA  30FF               	movlw	255
  6008  09CB  024E               	subwf	___fldiv@new_exp,w
  6009  09CC                     u2595:
  6010  09CC  1C03               	skipc
  6011  09CD  29CF               	goto	u2591
  6012  09CE  29D0               	goto	u2590
  6013  09CF                     u2591:
  6014  09CF  29DE               	goto	l1997
  6015  09D0                     u2590:
  6016  09D0                     l1995:
  6017  09D0  30FF               	movlw	255
  6018  09D1  1283               	bcf	3,5	;RP0=0, select bank0
  6019  09D2  1303               	bcf	3,6	;RP1=0, select bank0
  6020  09D3  00CE               	movwf	___fldiv@new_exp
  6021  09D4  3000               	movlw	0
  6022  09D5  00CF               	movwf	___fldiv@new_exp+1
  6023  09D6  3000               	movlw	0
  6024  09D7  00C3               	movwf	___fldiv@b+3
  6025  09D8  3000               	movlw	0
  6026  09D9  00C2               	movwf	___fldiv@b+2
  6027  09DA  3000               	movlw	0
  6028  09DB  00C1               	movwf	___fldiv@b+1
  6029  09DC  3000               	movlw	0
  6030  09DD  00C0               	movwf	___fldiv@b
  6031  09DE                     l1997:
  6032  09DE  1283               	bcf	3,5	;RP0=0, select bank0
  6033  09DF  1303               	bcf	3,6	;RP1=0, select bank0
  6034  09E0  084F               	movf	___fldiv@new_exp+1,w
  6035  09E1  3A80               	xorlw	128
  6036  09E2  00FF               	movwf	btemp+1
  6037  09E3  3080               	movlw	128
  6038  09E4  027F               	subwf	btemp+1,w
  6039  09E5  1D03               	skipz
  6040  09E6  29E9               	goto	u2605
  6041  09E7  3001               	movlw	1
  6042  09E8  024E               	subwf	___fldiv@new_exp,w
  6043  09E9                     u2605:
  6044  09E9  1803               	skipnc
  6045  09EA  29EC               	goto	u2601
  6046  09EB  29ED               	goto	u2600
  6047  09EC                     u2601:
  6048  09EC  29FA               	goto	l2005
  6049  09ED                     u2600:
  6050  09ED                     l1999:
  6051  09ED  1283               	bcf	3,5	;RP0=0, select bank0
  6052  09EE  1303               	bcf	3,6	;RP1=0, select bank0
  6053  09EF  01CE               	clrf	___fldiv@new_exp
  6054  09F0  01CF               	clrf	___fldiv@new_exp+1
  6055  09F1                     l2001:
  6056  09F1  3000               	movlw	0
  6057  09F2  00C3               	movwf	___fldiv@b+3
  6058  09F3  3000               	movlw	0
  6059  09F4  00C2               	movwf	___fldiv@b+2
  6060  09F5  3000               	movlw	0
  6061  09F6  00C1               	movwf	___fldiv@b+1
  6062  09F7  3000               	movlw	0
  6063  09F8  00C0               	movwf	___fldiv@b
  6064  09F9                     l2003:
  6065  09F9  01CD               	clrf	___fldiv@sign
  6066  09FA                     l2005:
  6067  09FA  1283               	bcf	3,5	;RP0=0, select bank0
  6068  09FB  1303               	bcf	3,6	;RP1=0, select bank0
  6069  09FC  084E               	movf	___fldiv@new_exp,w
  6070  09FD  00FF               	movwf	btemp+1
  6071  09FE  087F               	movf	btemp+1,w
  6072  09FF  00D4               	movwf	___fldiv@bexp
  6073  0A00                     l2007:
  6074  0A00  1C54               	btfss	___fldiv@bexp,0
  6075  0A01  2A03               	goto	u2611
  6076  0A02  2A04               	goto	u2610
  6077  0A03                     u2611:
  6078  0A03  2A06               	goto	l2011
  6079  0A04                     u2610:
  6080  0A04                     l2009:
  6081  0A04  17C2               	bsf	___fldiv@b+2,7
  6082  0A05  2A0A               	goto	l590
  6083  0A06                     l2011:
  6084  0A06  307F               	movlw	127
  6085  0A07  00FF               	movwf	btemp+1
  6086  0A08  087F               	movf	btemp+1,w
  6087  0A09  05C2               	andwf	___fldiv@b+2,f
  6088  0A0A                     l590:
  6089  0A0A  0854               	movf	___fldiv@bexp,w
  6090  0A0B  00C4               	movwf	??___fldiv
  6091  0A0C  1003               	clrc
  6092  0A0D  0C44               	rrf	??___fldiv,w
  6093  0A0E  00FF               	movwf	btemp+1
  6094  0A0F  087F               	movf	btemp+1,w
  6095  0A10  00C3               	movwf	___fldiv@b+3
  6096  0A11  084D               	movf	___fldiv@sign,w
  6097  0A12  00FF               	movwf	btemp+1
  6098  0A13  087F               	movf	btemp+1,w
  6099  0A14  04C3               	iorwf	___fldiv@b+3,f
  6100  0A15  28AE               	goto	l1917
  6101  0A16                     l568:
  6102  0A16  0008               	return
  6103  0A17                     __end_of___fldiv:
  6104                           
  6105                           	psect	text12
  6106  1565                     __ptext12:	
  6107 ;; *************** function _PORT_Select_Mux1 *****************
  6108 ;; Defined at:
  6109 ;;		line 158 in file "port.c"
  6110 ;; Parameters:    Size  Location     Type
  6111 ;;		None
  6112 ;; Auto vars:     Size  Location     Type
  6113 ;;		None
  6114 ;; Return value:  Size  Location     Type
  6115 ;;                  1    wreg      void 
  6116 ;; Registers used:
  6117 ;;		wreg, status,2, status,0, btemp+1
  6118 ;; Tracked objects:
  6119 ;;		On entry : 0/0
  6120 ;;		On exit  : 0/0
  6121 ;;		Unchanged: 0/0
  6122 ;; Data sizes:     COMMON   BANK0   BANK1   BANK3   BANK2
  6123 ;;      Params:         0       0       0       0       0
  6124 ;;      Locals:         0       0       0       0       0
  6125 ;;      Temps:          0       0       0       0       0
  6126 ;;      Totals:         0       0       0       0       0
  6127 ;;Total ram usage:        0 bytes
  6128 ;; Hardware stack levels used:    1
  6129 ;; Hardware stack levels required when called:    1
  6130 ;; This function calls:
  6131 ;;		Nothing
  6132 ;; This function is called by:
  6133 ;;		_main
  6134 ;; This function uses a non-reentrant model
  6135 ;;
  6136                           
  6137                           
  6138                           ;psect for function _PORT_Select_Mux1
  6139  1565                     _PORT_Select_Mux1:
  6140  1565                     l2259:	
  6141                           ;incstack = 0
  6142                           ; Regs used in _PORT_Select_Mux1: [wreg+status,2+status,0+btemp+1]
  6143                           
  6144                           
  6145                           ;port.c: 159:     PORTD |= 0x10;
  6146  1565  1283               	bcf	3,5	;RP0=0, select bank0
  6147  1566  1303               	bcf	3,6	;RP1=0, select bank0
  6148  1567  1608               	bsf	8,4	;volatile
  6149  1568                     l2261:
  6150                           
  6151                           ;port.c: 160:     PORTD &= 0xDF;
  6152  1568  30DF               	movlw	223
  6153  1569  00FF               	movwf	btemp+1
  6154  156A  087F               	movf	btemp+1,w
  6155  156B  0588               	andwf	8,f	;volatile
  6156  156C                     l174:
  6157  156C  0008               	return
  6158  156D                     __end_of_PORT_Select_Mux1:
  6159                           
  6160                           	psect	text13
  6161  1558                     __ptext13:	
  6162 ;; *************** function _PORT_Init_Gain *****************
  6163 ;; Defined at:
  6164 ;;		line 166 in file "port.c"
  6165 ;; Parameters:    Size  Location     Type
  6166 ;;		None
  6167 ;; Auto vars:     Size  Location     Type
  6168 ;;		None
  6169 ;; Return value:  Size  Location     Type
  6170 ;;                  1    wreg      void 
  6171 ;; Registers used:
  6172 ;;		None
  6173 ;; Tracked objects:
  6174 ;;		On entry : 0/0
  6175 ;;		On exit  : 0/0
  6176 ;;		Unchanged: 0/0
  6177 ;; Data sizes:     COMMON   BANK0   BANK1   BANK3   BANK2
  6178 ;;      Params:         0       0       0       0       0
  6179 ;;      Locals:         0       0       0       0       0
  6180 ;;      Temps:          0       0       0       0       0
  6181 ;;      Totals:         0       0       0       0       0
  6182 ;;Total ram usage:        0 bytes
  6183 ;; Hardware stack levels used:    1
  6184 ;; Hardware stack levels required when called:    1
  6185 ;; This function calls:
  6186 ;;		Nothing
  6187 ;; This function is called by:
  6188 ;;		_main
  6189 ;; This function uses a non-reentrant model
  6190 ;;
  6191                           
  6192                           
  6193                           ;psect for function _PORT_Init_Gain
  6194  1558                     _PORT_Init_Gain:
  6195  1558                     l2263:	
  6196                           ;incstack = 0
  6197                           ; Regs used in _PORT_Init_Gain: []
  6198                           
  6199                           
  6200                           ;port.c: 167:     PORTCbits.RC0 = 0;
  6201  1558  1283               	bcf	3,5	;RP0=0, select bank0
  6202  1559  1303               	bcf	3,6	;RP1=0, select bank0
  6203  155A  1007               	bcf	7,0	;volatile
  6204                           
  6205                           ;port.c: 168:     PORTCbits.RC1 = 1;
  6206  155B  1487               	bsf	7,1	;volatile
  6207  155C                     l177:
  6208  155C  0008               	return
  6209  155D                     __end_of_PORT_Init_Gain:
  6210                           
  6211                           	psect	text14
  6212  0801                     __ptext14:	
  6213 ;; *************** function _PORT_Init *****************
  6214 ;; Defined at:
  6215 ;;		line 44 in file "port.c"
  6216 ;; Parameters:    Size  Location     Type
  6217 ;;		None
  6218 ;; Auto vars:     Size  Location     Type
  6219 ;;		None
  6220 ;; Return value:  Size  Location     Type
  6221 ;;                  1    wreg      void 
  6222 ;; Registers used:
  6223 ;;		wreg, status,2, status,0, pclath, cstack
  6224 ;; Tracked objects:
  6225 ;;		On entry : 0/0
  6226 ;;		On exit  : 0/0
  6227 ;;		Unchanged: 0/0
  6228 ;; Data sizes:     COMMON   BANK0   BANK1   BANK3   BANK2
  6229 ;;      Params:         0       0       0       0       0
  6230 ;;      Locals:         0       0       0       0       0
  6231 ;;      Temps:          1       0       0       0       0
  6232 ;;      Totals:         1       0       0       0       0
  6233 ;;Total ram usage:        1 bytes
  6234 ;; Hardware stack levels used:    1
  6235 ;; Hardware stack levels required when called:    2
  6236 ;; This function calls:
  6237 ;;		_PORT_Init_Serial
  6238 ;; This function is called by:
  6239 ;;		_main
  6240 ;; This function uses a non-reentrant model
  6241 ;;
  6242                           
  6243                           
  6244                           ;psect for function _PORT_Init
  6245  0801                     _PORT_Init:
  6246  0801                     l2207:	
  6247                           ;incstack = 0
  6248                           ; Regs used in _PORT_Init: [wreg+status,2+status,0+pclath+cstack]
  6249                           
  6250                           
  6251                           ;port.c: 47:     WPUB=0;
  6252  0801  1683               	bsf	3,5	;RP0=1, select bank1
  6253  0802  1303               	bcf	3,6	;RP1=0, select bank1
  6254  0803  0195               	clrf	21	;volatile
  6255                           
  6256                           ;port.c: 48:     ANSELB = 0;
  6257  0804  1683               	bsf	3,5	;RP0=1, select bank3
  6258  0805  1703               	bsf	3,6	;RP1=1, select bank3
  6259  0806  0186               	clrf	6	;volatile
  6260  0807                     l2209:
  6261                           
  6262                           ;port.c: 51:     TRISB = 0xFE;
  6263  0807  30FE               	movlw	254
  6264  0808  1683               	bsf	3,5	;RP0=1, select bank1
  6265  0809  1303               	bcf	3,6	;RP1=0, select bank1
  6266  080A  0086               	movwf	6	;volatile
  6267  080B                     l2211:
  6268                           
  6269                           ;port.c: 54:     OSCCON = 0x30;
  6270  080B  3030               	movlw	48
  6271  080C  0090               	movwf	16	;volatile
  6272  080D                     l2213:	
  6273                           ;port.c: 55:     for( ; (OSCCON & 0xC) != 0xC ; );
  6274                           
  6275  080D  300C               	movlw	12
  6276  080E  0510               	andwf	16,w	;volatile
  6277  080F  00F2               	movwf	??_PORT_Init
  6278  0810  300C               	movlw	12
  6279  0811  0672               	xorwf	??_PORT_Init,w
  6280  0812  1D03               	btfss	3,2
  6281  0813  2815               	goto	u3131
  6282  0814  2816               	goto	u3130
  6283  0815                     u3131:
  6284  0815  280D               	goto	l2213
  6285  0816                     u3130:
  6286  0816                     l2215:
  6287                           
  6288                           ;port.c: 59:     ANSELD = 0x00;
  6289  0816  1683               	bsf	3,5	;RP0=1, select bank3
  6290  0817  1703               	bsf	3,6	;RP1=1, select bank3
  6291  0818  0188               	clrf	8	;volatile
  6292  0819                     l2217:
  6293                           
  6294                           ;port.c: 62:     TRISA = 0xFF;
  6295  0819  30FF               	movlw	255
  6296  081A  1683               	bsf	3,5	;RP0=1, select bank1
  6297  081B  1303               	bcf	3,6	;RP1=0, select bank1
  6298  081C  0085               	movwf	5	;volatile
  6299  081D                     l2219:
  6300                           
  6301                           ;port.c: 64:     TRISD = 0xC0;
  6302  081D  30C0               	movlw	192
  6303  081E  0088               	movwf	8	;volatile
  6304  081F                     l2221:
  6305                           
  6306                           ;port.c: 66:     PORT_Init_Serial();
  6307  081F  120A  118A  27D3  120A  158A  	fcall	_PORT_Init_Serial
  6308  0824                     l2223:
  6309                           
  6310                           ;port.c: 68:     ANSELA = 0x01;
  6311  0824  3001               	movlw	1
  6312  0825  1683               	bsf	3,5	;RP0=1, select bank3
  6313  0826  1703               	bsf	3,6	;RP1=1, select bank3
  6314  0827  0085               	movwf	5	;volatile
  6315  0828                     l2225:
  6316                           
  6317                           ;port.c: 70:     ADCON0=0x01;
  6318  0828  3001               	movlw	1
  6319  0829  1283               	bcf	3,5	;RP0=0, select bank0
  6320  082A  1303               	bcf	3,6	;RP1=0, select bank0
  6321  082B  009F               	movwf	31	;volatile
  6322  082C                     l2227:
  6323                           
  6324                           ;port.c: 71:     ADCON1=0x60;
  6325  082C  3060               	movlw	96
  6326  082D  1683               	bsf	3,5	;RP0=1, select bank1
  6327  082E  1303               	bcf	3,6	;RP1=0, select bank1
  6328  082F  009F               	movwf	31	;volatile
  6329  0830                     l2229:
  6330                           
  6331                           ;port.c: 73:     FVRCON=0;
  6332  0830  019D               	clrf	29	;volatile
  6333  0831                     l2231:
  6334                           
  6335                           ;port.c: 74:     DACCON0=0x0;
  6336  0831  1283               	bcf	3,5	;RP0=0, select bank2
  6337  0832  1703               	bsf	3,6	;RP1=1, select bank2
  6338  0833  0193               	clrf	19	;volatile
  6339  0834                     l2233:
  6340                           
  6341                           ;port.c: 75:     DACCON0=0x60;
  6342  0834  3060               	movlw	96
  6343  0835  0093               	movwf	19	;volatile
  6344  0836                     l2235:
  6345                           
  6346                           ;port.c: 76:     DACCON0|=0x80;
  6347  0836  1793               	bsf	19,7	;volatile
  6348  0837                     l2237:
  6349                           
  6350                           ;port.c: 78:     DACCON1=0x18;
  6351  0837  3018               	movlw	24
  6352  0838  0094               	movwf	20	;volatile
  6353  0839                     l140:
  6354  0839  0008               	return
  6355  083A                     __end_of_PORT_Init:
  6356                           
  6357                           	psect	text15
  6358  07D3                     __ptext15:	
  6359 ;; *************** function _PORT_Init_Serial *****************
  6360 ;; Defined at:
  6361 ;;		line 15 in file "port.c"
  6362 ;; Parameters:    Size  Location     Type
  6363 ;;		None
  6364 ;; Auto vars:     Size  Location     Type
  6365 ;;		None
  6366 ;; Return value:  Size  Location     Type
  6367 ;;                  1    wreg      void 
  6368 ;; Registers used:
  6369 ;;		wreg, status,2
  6370 ;; Tracked objects:
  6371 ;;		On entry : 0/0
  6372 ;;		On exit  : 0/0
  6373 ;;		Unchanged: 0/0
  6374 ;; Data sizes:     COMMON   BANK0   BANK1   BANK3   BANK2
  6375 ;;      Params:         0       0       0       0       0
  6376 ;;      Locals:         0       0       0       0       0
  6377 ;;      Temps:          0       0       0       0       0
  6378 ;;      Totals:         0       0       0       0       0
  6379 ;;Total ram usage:        0 bytes
  6380 ;; Hardware stack levels used:    1
  6381 ;; Hardware stack levels required when called:    1
  6382 ;; This function calls:
  6383 ;;		Nothing
  6384 ;; This function is called by:
  6385 ;;		_PORT_Init
  6386 ;; This function uses a non-reentrant model
  6387 ;;
  6388                           
  6389                           
  6390                           ;psect for function _PORT_Init_Serial
  6391  07D3                     _PORT_Init_Serial:
  6392  07D3                     l1825:	
  6393                           ;incstack = 0
  6394                           ; Regs used in _PORT_Init_Serial: [wreg+status,2]
  6395                           
  6396                           
  6397                           ;port.c: 18:     TRISC = 0xFF;
  6398  07D3  30FF               	movlw	255
  6399  07D4  1683               	bsf	3,5	;RP0=1, select bank1
  6400  07D5  1303               	bcf	3,6	;RP1=0, select bank1
  6401  07D6  0087               	movwf	7	;volatile
  6402                           
  6403                           ;port.c: 21:     SPBRG = 25;
  6404  07D7  3019               	movlw	25
  6405  07D8  0099               	movwf	25	;volatile
  6406  07D9                     l1827:
  6407                           
  6408                           ;port.c: 25:     TXSTA = TXSTA & 0xDF;
  6409  07D9  0818               	movf	24,w	;volatile
  6410  07DA  39DF               	andlw	223
  6411  07DB  0098               	movwf	24	;volatile
  6412  07DC                     l1829:
  6413                           
  6414                           ;port.c: 26:     TXSTA = TXSTA | 1;
  6415  07DC  0818               	movf	24,w	;volatile
  6416  07DD  3801               	iorlw	1
  6417  07DE  0098               	movwf	24	;volatile
  6418  07DF                     l1831:
  6419                           
  6420                           ;port.c: 27:     TXSTA = TXSTA & 0xFB;
  6421  07DF  0818               	movf	24,w	;volatile
  6422  07E0  39FB               	andlw	251
  6423  07E1  0098               	movwf	24	;volatile
  6424  07E2                     l1833:
  6425                           
  6426                           ;port.c: 30:     RCSTA = RCSTA | 0x20;
  6427  07E2  1283               	bcf	3,5	;RP0=0, select bank0
  6428  07E3  1303               	bcf	3,6	;RP1=0, select bank0
  6429  07E4  0818               	movf	24,w	;volatile
  6430  07E5  3820               	iorlw	32
  6431  07E6  0098               	movwf	24	;volatile
  6432  07E7                     l1835:
  6433                           
  6434                           ;port.c: 31:     RCSTA = RCSTA & 0xDF;
  6435  07E7  0818               	movf	24,w	;volatile
  6436  07E8  39DF               	andlw	223
  6437  07E9  0098               	movwf	24	;volatile
  6438  07EA                     l1837:
  6439                           
  6440                           ;port.c: 32:     RCSTA = RCSTA | 0x04;
  6441  07EA  0818               	movf	24,w	;volatile
  6442  07EB  3804               	iorlw	4
  6443  07EC  0098               	movwf	24	;volatile
  6444  07ED                     l1839:
  6445                           
  6446                           ;port.c: 33:     RCSTA = RCSTA | 0x02;
  6447  07ED  0818               	movf	24,w	;volatile
  6448  07EE  3802               	iorlw	2
  6449  07EF  0098               	movwf	24	;volatile
  6450  07F0                     l1841:
  6451                           
  6452                           ;port.c: 35:     TXSTA = TXSTA & 0xEF;
  6453  07F0  1683               	bsf	3,5	;RP0=1, select bank1
  6454  07F1  1303               	bcf	3,6	;RP1=0, select bank1
  6455  07F2  0818               	movf	24,w	;volatile
  6456  07F3  39EF               	andlw	239
  6457  07F4  0098               	movwf	24	;volatile
  6458  07F5                     l1843:
  6459                           
  6460                           ;port.c: 36:     TXSTA = TXSTA | 0x20;
  6461  07F5  0818               	movf	24,w	;volatile
  6462  07F6  3820               	iorlw	32
  6463  07F7  0098               	movwf	24	;volatile
  6464  07F8                     l1845:
  6465                           
  6466                           ;port.c: 37:     RCSTA = RCSTA | 0x80;
  6467  07F8  1283               	bcf	3,5	;RP0=0, select bank0
  6468  07F9  1303               	bcf	3,6	;RP1=0, select bank0
  6469  07FA  0818               	movf	24,w	;volatile
  6470  07FB  3880               	iorlw	128
  6471  07FC  0098               	movwf	24	;volatile
  6472  07FD                     l134:
  6473  07FD  0008               	return
  6474  07FE                     __end_of_PORT_Init_Serial:
  6475                           
  6476                           	psect	text16
  6477  156D                     __ptext16:	
  6478 ;; *************** function _PORT_Blink_LED *****************
  6479 ;; Defined at:
  6480 ;;		line 84 in file "port.c"
  6481 ;; Parameters:    Size  Location     Type
  6482 ;;		None
  6483 ;; Auto vars:     Size  Location     Type
  6484 ;;		None
  6485 ;; Return value:  Size  Location     Type
  6486 ;;                  1    wreg      void 
  6487 ;; Registers used:
  6488 ;;		status,0
  6489 ;; Tracked objects:
  6490 ;;		On entry : 0/0
  6491 ;;		On exit  : 0/0
  6492 ;;		Unchanged: 0/0
  6493 ;; Data sizes:     COMMON   BANK0   BANK1   BANK3   BANK2
  6494 ;;      Params:         0       0       0       0       0
  6495 ;;      Locals:         0       0       0       0       0
  6496 ;;      Temps:          0       0       0       0       0
  6497 ;;      Totals:         0       0       0       0       0
  6498 ;;Total ram usage:        0 bytes
  6499 ;; Hardware stack levels used:    1
  6500 ;; Hardware stack levels required when called:    1
  6501 ;; This function calls:
  6502 ;;		Nothing
  6503 ;; This function is called by:
  6504 ;;		_main
  6505 ;; This function uses a non-reentrant model
  6506 ;;
  6507                           
  6508                           
  6509                           ;psect for function _PORT_Blink_LED
  6510  156D                     _PORT_Blink_LED:
  6511  156D                     l2265:	
  6512                           ;incstack = 0
  6513                           ; Regs used in _PORT_Blink_LED: [status,0]
  6514                           
  6515                           
  6516                           ;port.c: 85:     PORTBbits.RB0 = !PORTBbits.RB0;
  6517  156D  1003               	clrc
  6518  156E  1283               	bcf	3,5	;RP0=0, select bank0
  6519  156F  1303               	bcf	3,6	;RP1=0, select bank0
  6520  1570  1C06               	btfss	6,0	;volatile
  6521  1571  1403               	setc
  6522  1572  1803               	btfsc	3,0
  6523  1573  2D75               	goto	u3141
  6524  1574  2D79               	goto	u3140
  6525  1575                     u3141:
  6526  1575  1283               	bcf	3,5	;RP0=0, select bank0
  6527  1576  1303               	bcf	3,6	;RP1=0, select bank0
  6528  1577  1406               	bsf	6,0	;volatile
  6529  1578  2D7C               	goto	u3154
  6530  1579                     u3140:
  6531  1579  1283               	bcf	3,5	;RP0=0, select bank0
  6532  157A  1303               	bcf	3,6	;RP1=0, select bank0
  6533  157B  1006               	bcf	6,0	;volatile
  6534  157C                     u3154:
  6535  157C                     l143:
  6536  157C  0008               	return
  6537  157D                     __end_of_PORT_Blink_LED:
  6538                           
  6539                           	psect	text17
  6540  158F                     __ptext17:	
  6541 ;; *************** function _ADC_GetValue *****************
  6542 ;; Defined at:
  6543 ;;		line 16 in file "adc.c"
  6544 ;; Parameters:    Size  Location     Type
  6545 ;;  channel         1    wreg     unsigned char 
  6546 ;; Auto vars:     Size  Location     Type
  6547 ;;  channel         1    3[COMMON] unsigned char 
  6548 ;; Return value:  Size  Location     Type
  6549 ;;                  1    wreg      unsigned char 
  6550 ;; Registers used:
  6551 ;;		wreg, status,2, status,0, btemp+1, pclath, cstack
  6552 ;; Tracked objects:
  6553 ;;		On entry : 0/0
  6554 ;;		On exit  : 0/0
  6555 ;;		Unchanged: 0/0
  6556 ;; Data sizes:     COMMON   BANK0   BANK1   BANK3   BANK2
  6557 ;;      Params:         0       0       0       0       0
  6558 ;;      Locals:         1       0       0       0       0
  6559 ;;      Temps:          0       0       0       0       0
  6560 ;;      Totals:         1       0       0       0       0
  6561 ;;Total ram usage:        1 bytes
  6562 ;; Hardware stack levels used:    1
  6563 ;; Hardware stack levels required when called:    2
  6564 ;; This function calls:
  6565 ;;		_PORT_Choose_Mux
  6566 ;;		_PORT_Get_Value_Adc
  6567 ;;		_PORT_Start_ADC
  6568 ;; This function is called by:
  6569 ;;		_main
  6570 ;; This function uses a non-reentrant model
  6571 ;;
  6572                           
  6573                           
  6574                           ;psect for function _ADC_GetValue
  6575  158F                     _ADC_GetValue:
  6576                           
  6577                           ;incstack = 0
  6578                           ; Regs used in _ADC_GetValue: [wreg+status,2+status,0+btemp+1+pclath+cstack]
  6579                           ;ADC_GetValue@channel stored from wreg
  6580  158F  00F3               	movwf	ADC_GetValue@channel
  6581  1590                     l2267:
  6582                           
  6583                           ;adc.c: 18:     PORT_Choose_Mux(channel);
  6584  1590  0873               	movf	ADC_GetValue@channel,w
  6585  1591  160A  118A  257D  160A  118A  	fcall	_PORT_Choose_Mux
  6586  1596                     l2269:
  6587                           
  6588                           ;adc.c: 19:     PORT_Start_ADC();
  6589  1596  160A  118A  255D  160A  118A  	fcall	_PORT_Start_ADC
  6590  159B                     l2271:
  6591                           
  6592                           ;adc.c: 20:     return PORT_Get_Value_Adc();
  6593  159B  160A  118A  2554  160A  118A  	fcall	_PORT_Get_Value_Adc
  6594  15A0                     l83:
  6595  15A0  0008               	return
  6596  15A1                     __end_of_ADC_GetValue:
  6597                           
  6598                           	psect	text18
  6599  155D                     __ptext18:	
  6600 ;; *************** function _PORT_Start_ADC *****************
  6601 ;; Defined at:
  6602 ;;		line 104 in file "port.c"
  6603 ;; Parameters:    Size  Location     Type
  6604 ;;		None
  6605 ;; Auto vars:     Size  Location     Type
  6606 ;;		None
  6607 ;; Return value:  Size  Location     Type
  6608 ;;                  1    wreg      void 
  6609 ;; Registers used:
  6610 ;;		None
  6611 ;; Tracked objects:
  6612 ;;		On entry : 0/0
  6613 ;;		On exit  : 0/0
  6614 ;;		Unchanged: 0/0
  6615 ;; Data sizes:     COMMON   BANK0   BANK1   BANK3   BANK2
  6616 ;;      Params:         0       0       0       0       0
  6617 ;;      Locals:         0       0       0       0       0
  6618 ;;      Temps:          0       0       0       0       0
  6619 ;;      Totals:         0       0       0       0       0
  6620 ;;Total ram usage:        0 bytes
  6621 ;; Hardware stack levels used:    1
  6622 ;; Hardware stack levels required when called:    1
  6623 ;; This function calls:
  6624 ;;		Nothing
  6625 ;; This function is called by:
  6626 ;;		_ADC_GetValue
  6627 ;; This function uses a non-reentrant model
  6628 ;;
  6629                           
  6630                           
  6631                           ;psect for function _PORT_Start_ADC
  6632  155D                     _PORT_Start_ADC:
  6633  155D                     l1819:	
  6634                           ;incstack = 0
  6635                           ; Regs used in _PORT_Start_ADC: []
  6636                           
  6637                           
  6638                           ;port.c: 105:     GO_nDONE=1;
  6639  155D  1283               	bcf	3,5	;RP0=0, select bank0
  6640  155E  1303               	bcf	3,6	;RP1=0, select bank0
  6641  155F  149F               	bsf	31,1	;volatile
  6642  1560                     l150:	
  6643                           ;port.c: 106:     while(GO_nDONE);
  6644                           
  6645  1560  189F               	btfsc	31,1	;volatile
  6646  1561  2D63               	goto	u2251
  6647  1562  2D64               	goto	u2250
  6648  1563                     u2251:
  6649  1563  2D60               	goto	l150
  6650  1564                     u2250:
  6651  1564                     l153:
  6652  1564  0008               	return
  6653  1565                     __end_of_PORT_Start_ADC:
  6654                           
  6655                           	psect	text19
  6656  1554                     __ptext19:	
  6657 ;; *************** function _PORT_Get_Value_Adc *****************
  6658 ;; Defined at:
  6659 ;;		line 118 in file "port.c"
  6660 ;; Parameters:    Size  Location     Type
  6661 ;;		None
  6662 ;; Auto vars:     Size  Location     Type
  6663 ;;		None
  6664 ;; Return value:  Size  Location     Type
  6665 ;;                  1    wreg      unsigned char 
  6666 ;; Registers used:
  6667 ;;		wreg
  6668 ;; Tracked objects:
  6669 ;;		On entry : 0/0
  6670 ;;		On exit  : 0/0
  6671 ;;		Unchanged: 0/0
  6672 ;; Data sizes:     COMMON   BANK0   BANK1   BANK3   BANK2
  6673 ;;      Params:         0       0       0       0       0
  6674 ;;      Locals:         0       0       0       0       0
  6675 ;;      Temps:          0       0       0       0       0
  6676 ;;      Totals:         0       0       0       0       0
  6677 ;;Total ram usage:        0 bytes
  6678 ;; Hardware stack levels used:    1
  6679 ;; Hardware stack levels required when called:    1
  6680 ;; This function calls:
  6681 ;;		Nothing
  6682 ;; This function is called by:
  6683 ;;		_ADC_GetValue
  6684 ;; This function uses a non-reentrant model
  6685 ;;
  6686                           
  6687                           
  6688                           ;psect for function _PORT_Get_Value_Adc
  6689  1554                     _PORT_Get_Value_Adc:
  6690  1554                     l1821:	
  6691                           ;incstack = 0
  6692                           ; Regs used in _PORT_Get_Value_Adc: [wreg]
  6693                           
  6694                           
  6695                           ;port.c: 119:     return ADRES;
  6696  1554  1283               	bcf	3,5	;RP0=0, select bank0
  6697  1555  1303               	bcf	3,6	;RP1=0, select bank0
  6698  1556  081E               	movf	30,w	;volatile
  6699  1557                     l156:
  6700  1557  0008               	return
  6701  1558                     __end_of_PORT_Get_Value_Adc:
  6702                           
  6703                           	psect	text20
  6704  157D                     __ptext20:	
  6705 ;; *************** function _PORT_Choose_Mux *****************
  6706 ;; Defined at:
  6707 ;;		line 94 in file "port.c"
  6708 ;; Parameters:    Size  Location     Type
  6709 ;;  _value          1    wreg     unsigned char 
  6710 ;; Auto vars:     Size  Location     Type
  6711 ;;  _value          1    2[COMMON] unsigned char 
  6712 ;; Return value:  Size  Location     Type
  6713 ;;                  1    wreg      void 
  6714 ;; Registers used:
  6715 ;;		wreg, status,2, status,0, btemp+1
  6716 ;; Tracked objects:
  6717 ;;		On entry : 0/0
  6718 ;;		On exit  : 0/0
  6719 ;;		Unchanged: 0/0
  6720 ;; Data sizes:     COMMON   BANK0   BANK1   BANK3   BANK2
  6721 ;;      Params:         0       0       0       0       0
  6722 ;;      Locals:         1       0       0       0       0
  6723 ;;      Temps:          0       0       0       0       0
  6724 ;;      Totals:         1       0       0       0       0
  6725 ;;Total ram usage:        1 bytes
  6726 ;; Hardware stack levels used:    1
  6727 ;; Hardware stack levels required when called:    1
  6728 ;; This function calls:
  6729 ;;		Nothing
  6730 ;; This function is called by:
  6731 ;;		_ADC_GetValue
  6732 ;; This function uses a non-reentrant model
  6733 ;;
  6734                           
  6735                           
  6736                           ;psect for function _PORT_Choose_Mux
  6737  157D                     _PORT_Choose_Mux:
  6738                           
  6739                           ;incstack = 0
  6740                           ; Regs used in _PORT_Choose_Mux: [wreg+status,2+status,0+btemp+1]
  6741                           ;PORT_Choose_Mux@_value stored from wreg
  6742  157D  00F2               	movwf	PORT_Choose_Mux@_value
  6743  157E                     l1815:
  6744                           
  6745                           ;port.c: 95:     if (_value <= 0x0F) {
  6746  157E  3010               	movlw	16
  6747  157F  0272               	subwf	PORT_Choose_Mux@_value,w
  6748  1580  1803               	skipnc
  6749  1581  2D83               	goto	u2241
  6750  1582  2D84               	goto	u2240
  6751  1583                     u2241:
  6752  1583  2D8E               	goto	l147
  6753  1584                     u2240:
  6754  1584                     l1817:
  6755                           
  6756                           ;port.c: 96:         PORTD &= 0xF0;
  6757  1584  30F0               	movlw	240
  6758  1585  00FF               	movwf	btemp+1
  6759  1586  087F               	movf	btemp+1,w
  6760  1587  1283               	bcf	3,5	;RP0=0, select bank0
  6761  1588  1303               	bcf	3,6	;RP1=0, select bank0
  6762  1589  0588               	andwf	8,f	;volatile
  6763                           
  6764                           ;port.c: 97:         PORTD |= _value;
  6765  158A  0872               	movf	PORT_Choose_Mux@_value,w	;volatile
  6766  158B  00FF               	movwf	btemp+1
  6767  158C  087F               	movf	btemp+1,w
  6768  158D  0488               	iorwf	8,f	;volatile
  6769  158E                     l147:
  6770  158E  0008               	return
  6771  158F                     __end_of_PORT_Choose_Mux:
  6772                           
  6773                           	psect	text21
  6774  15B3                     __ptext21:	
  6775 ;; *************** function _isr *****************
  6776 ;; Defined at:
  6777 ;;		line 78 in file "timer.c"
  6778 ;; Parameters:    Size  Location     Type
  6779 ;;		None
  6780 ;; Auto vars:     Size  Location     Type
  6781 ;;		None
  6782 ;; Return value:  Size  Location     Type
  6783 ;;                  1    wreg      void 
  6784 ;; Registers used:
  6785 ;;		None
  6786 ;; Tracked objects:
  6787 ;;		On entry : 0/0
  6788 ;;		On exit  : 0/0
  6789 ;;		Unchanged: 0/0
  6790 ;; Data sizes:     COMMON   BANK0   BANK1   BANK3   BANK2
  6791 ;;      Params:         0       0       0       0       0
  6792 ;;      Locals:         0       0       0       0       0
  6793 ;;      Temps:          2       0       0       0       0
  6794 ;;      Totals:         2       0       0       0       0
  6795 ;;Total ram usage:        2 bytes
  6796 ;; Hardware stack levels used:    1
  6797 ;; This function calls:
  6798 ;;		Nothing
  6799 ;; This function is called by:
  6800 ;;		Interrupt level 1
  6801 ;; This function uses a non-reentrant model
  6802 ;;
  6803                           
  6804                           
  6805                           ;psect for function _isr
  6806  15B3                     _isr:
  6807  15B3                     i1l2419:
  6808                           
  6809                           ;timer.c: 85: if (TMR1IF)
  6810  15B3  1283               	bcf	3,5	;RP0=0, select bank0
  6811  15B4  1303               	bcf	3,6	;RP1=0, select bank0
  6812  15B5  1C0C               	btfss	12,0	;volatile
  6813  15B6  2DB8               	goto	u345_21
  6814  15B7  2DB9               	goto	u345_20
  6815  15B8                     u345_21:
  6816  15B8  2DC0               	goto	i1l211
  6817  15B9                     u345_20:
  6818  15B9                     i1l2421:
  6819                           
  6820                           ;timer.c: 86:      {;timer.c: 88:      Fincompt1 = 1;
  6821  15B9  1683               	bsf	3,5	;RP0=1, select bank1
  6822  15BA  1303               	bcf	3,6	;RP1=0, select bank1
  6823  15BB  01D7               	clrf	_Fincompt1^(0+128)
  6824  15BC  0AD7               	incf	_Fincompt1^(0+128),f
  6825                           
  6826                           ;timer.c: 91:      TMR1IF=0;
  6827  15BD  1283               	bcf	3,5	;RP0=0, select bank0
  6828  15BE  1303               	bcf	3,6	;RP1=0, select bank0
  6829  15BF  100C               	bcf	12,0	;volatile
  6830  15C0                     i1l211:	
  6831                           ;timer.c: 92:      }
  6832                           
  6833                           
  6834                           ;timer.c: 94: if (TMRAIF)
  6835  15C0  1E0D               	btfss	13,4	;volatile
  6836  15C1  2DC3               	goto	u346_21
  6837  15C2  2DC4               	goto	u346_20
  6838  15C3                     u346_21:
  6839  15C3  2DC5               	goto	i1l213
  6840  15C4                     u346_20:
  6841  15C4                     i1l2423:
  6842                           
  6843                           ;timer.c: 95:      {;timer.c: 100:      TMRAIF=0;
  6844  15C4  120D               	bcf	13,4	;volatile
  6845  15C5                     i1l213:
  6846  15C5  0871               	movf	??_isr+1,w
  6847  15C6  008A               	movwf	10
  6848  15C7  0E70               	swapf	??_isr^(0+4294967168),w
  6849  15C8  0083               	movwf	3
  6850  15C9  0EFE               	swapf	btemp,f
  6851  15CA  0E7E               	swapf	btemp,w
  6852  15CB  0009               	retfie
  6853  15CC                     __end_of_isr:
  6854  007E                     btemp	set	126	;btemp
  6855  007E                     wtemp0	set	126
  6856                           
  6857                           	psect	intentry
  6858  0004                     __pintentry:	
  6859                           ;incstack = 0
  6860                           ; Regs used in _isr: []
  6861                           
  6862  0004                     interrupt_function:
  6863  007E                     saved_w	set	btemp
  6864  0004  00FE               	movwf	btemp
  6865  0005  0E03               	swapf	3,w
  6866  0006  00F0               	movwf	??_isr
  6867  0007  080A               	movf	10,w
  6868  0008  00F1               	movwf	??_isr+1
  6869  0009  160A  118A  2DB3   	ljmp	_isr
  6870                           
  6871                           	psect	config
  6872                           
  6873                           ;Config register CONFIG @ 0x2007
  6874                           ;	Oscillator Selection bits
  6875                           ;	FOSC = INTOSC, INTOSC oscillator: CLKOUT function on RA6/OSC2/CLKOUT pin, I/O function
      +                            on RA7/OSC1/CLKIN
  6876                           ;	Watchdog Timer Enable bit
  6877                           ;	WDTE = OFF, WDT disabled and can be enabled by SWDTEN bit of the WDTCON register
  6878                           ;	Power-up Timer Enable bit
  6879                           ;	PWRTE = OFF, PWRT disabled
  6880                           ;	RE3/MCLR Pin Function Select bit
  6881                           ;	MCLRE = ON, RE3/MCLR pin function is MCLR
  6882                           ;	Code Protection bit
  6883                           ;	CP = OFF, Program memory code protection is disabled
  6884                           ;	Brown-out Reset Selection bits
  6885                           ;	BOREN = ON, BOR enabled
  6886                           ;	Brown-out Reset Voltage Selection bit
  6887                           ;	BORV = 19, Brown-out Reset Voltage (VBOR) set to 1.9 V nominal
  6888                           ;	INTOSC PLLEN Enable Bit
  6889                           ;	PLLEN = ON, INTOSC Frequency is 16 MHz (32x)
  6890  2007                     	org	8199
  6891  2007  3FF5               	dw	16373
  6892                           
  6893                           ;Config register CONFIG2 @ 0x2008
  6894                           ;	Voltage Regulator Capacitor Enable bits
  6895                           ;	VCAPEN = OFF, All VCAP pin functions are disabled
  6896  2008                     	org	8200
  6897  2008  FFFF               	dw	65535

Data Sizes:
    Strings     0
    Constant    160
    Data        0
    BSS         1
    Persistent  0
    Stack       0

Auto Spaces:
    Space          Size  Autos    Used
    COMMON           14     12      12
    BANK0            80     80      80
    BANK1            80     55      56
    BANK3            96      0       0
    BANK2            91      0       0

Pointer List with Targets:

    None.

Critical Paths under _main in COMMON

    _main->_Voltage_Value
    ___flsub->__Umul8_16
    ___fladd->__Umul8_16
    ___flmul->__Umul8_16
    ___fldiv->__Umul8_16
    _ADC_GetValue->_PORT_Choose_Mux

Critical Paths under _isr in COMMON

    None.

Critical Paths under _main in BANK0

    _conversion_newton->___flmul
    _Voltage_Value->___flmul
    _Resistance_Value->___flmul
    ___flsub->___fladd
    ___flmul->___fldiv
    ___fldiv->___flsub

Critical Paths under _isr in BANK0

    None.

Critical Paths under _main in BANK1

    _main->_conversion_newton

Critical Paths under _isr in BANK1

    None.

Critical Paths under _main in BANK3

    None.

Critical Paths under _isr in BANK3

    None.

Critical Paths under _main in BANK2

    None.

Critical Paths under _isr in BANK2

    None.

Call Graph Tables:

 ---------------------------------------------------------------------------------
 (Depth) Function   	        Calls       Base Space   Used Autos Params    Refs
 ---------------------------------------------------------------------------------
 (0) _main                                                16    16      0   26476
                                             39 BANK1     16    16      0
                       _ADC_GetValue
                     _PORT_Blink_LED
                          _PORT_Init
                     _PORT_Init_Gain
                   _PORT_Select_Mux1
                   _Resistance_Value
                  _TIMER_init_timer1
                      _Voltage_Value
                  _conversion_newton
 ---------------------------------------------------------------------------------
 (1) _conversion_newton                                   39    35      4   13978
                                              0 BANK1     39    35      4
                            ___fladd
                            ___fldiv
                             ___flge
                            ___flmul
                            ___flsub
 ---------------------------------------------------------------------------------
 (2) ___flge                                              12     4      8    3526
                                              2 COMMON     8     0      8
                                              0 BANK0      4     4      0
 ---------------------------------------------------------------------------------
 (1) _Voltage_Value                                        9     5      4    4870
                                             11 COMMON     1     1      0
                                              0 BANK1      8     4      4
                            ___fldiv
                            ___flmul
                           ___xxtofl
 ---------------------------------------------------------------------------------
 (2) ___xxtofl                                            14    10      4     398
                                              2 COMMON     8     4      4
                                              0 BANK0      6     6      0
 ---------------------------------------------------------------------------------
 (1) _TIMER_init_timer1                                    0     0      0       0
 ---------------------------------------------------------------------------------
 (1) _Resistance_Value                                     4     0      4    7489
                                              0 BANK1      4     0      4
                            ___fldiv
                            ___flmul
                            ___flsub
 ---------------------------------------------------------------------------------
 (2) ___flsub                                              8     0      8    2941
                                             20 BANK0      8     0      8
                          __Umul8_16 (ARG)
                            ___fladd
 ---------------------------------------------------------------------------------
 (3) ___fladd                                             20    12      8    2288
                                              0 BANK0     20    12      8
                          __Umul8_16 (ARG)
 ---------------------------------------------------------------------------------
 (2) ___flmul                                             26    18      8    2873
                                             54 BANK0     26    18      8
                          __Umul8_16
                            ___fladd (ARG)
                            ___fldiv (ARG)
                            ___flsub (ARG)
                           ___xxtofl (ARG)
 ---------------------------------------------------------------------------------
 (3) __Umul8_16                                            9     7      2     799
                                              2 COMMON     9     7      2
 ---------------------------------------------------------------------------------
 (2) ___fldiv                                             26    18      8    1577
                                             28 BANK0     26    18      8
                          __Umul8_16 (ARG)
                            ___fladd (ARG)
                            ___flsub (ARG)
                           ___xxtofl (ARG)
 ---------------------------------------------------------------------------------
 (1) _PORT_Select_Mux1                                     0     0      0       0
 ---------------------------------------------------------------------------------
 (1) _PORT_Init_Gain                                       0     0      0       0
 ---------------------------------------------------------------------------------
 (1) _PORT_Init                                            1     1      0       0
                                              2 COMMON     1     1      0
                   _PORT_Init_Serial
 ---------------------------------------------------------------------------------
 (2) _PORT_Init_Serial                                     0     0      0       0
 ---------------------------------------------------------------------------------
 (1) _PORT_Blink_LED                                       0     0      0       0
 ---------------------------------------------------------------------------------
 (1) _ADC_GetValue                                         1     1      0      66
                                              3 COMMON     1     1      0
                    _PORT_Choose_Mux
                 _PORT_Get_Value_Adc
                     _PORT_Start_ADC
 ---------------------------------------------------------------------------------
 (2) _PORT_Start_ADC                                       0     0      0       0
 ---------------------------------------------------------------------------------
 (2) _PORT_Get_Value_Adc                                   0     0      0       0
 ---------------------------------------------------------------------------------
 (2) _PORT_Choose_Mux                                      1     1      0      44
                                              2 COMMON     1     1      0
 ---------------------------------------------------------------------------------
 Estimated maximum stack depth 3
 ---------------------------------------------------------------------------------
 (Depth) Function   	        Calls       Base Space   Used Autos Params    Refs
 ---------------------------------------------------------------------------------
 (4) _isr                                                  2     2      0       0
                                              0 COMMON     2     2      0
 ---------------------------------------------------------------------------------
 Estimated maximum stack depth 4
 ---------------------------------------------------------------------------------

 Call Graph Graphs:

 _main (ROOT)
   _ADC_GetValue
     _PORT_Choose_Mux
     _PORT_Get_Value_Adc
     _PORT_Start_ADC
   _PORT_Blink_LED
   _PORT_Init
     _PORT_Init_Serial
   _PORT_Init_Gain
   _PORT_Select_Mux1
   _Resistance_Value
     ___fldiv
       __Umul8_16 (ARG)
       ___fladd (ARG)
         __Umul8_16 (ARG)
       ___flsub (ARG)
         __Umul8_16 (ARG)
         ___fladd (ARG)
           __Umul8_16 (ARG)
       ___xxtofl (ARG)
     ___flmul
       __Umul8_16
       ___fladd (ARG)
         __Umul8_16 (ARG)
       ___fldiv (ARG)
         __Umul8_16 (ARG)
         ___fladd (ARG)
           __Umul8_16 (ARG)
         ___flsub (ARG)
           __Umul8_16 (ARG)
           ___fladd (ARG)
             __Umul8_16 (ARG)
         ___xxtofl (ARG)
       ___flsub (ARG)
         __Umul8_16 (ARG)
         ___fladd (ARG)
           __Umul8_16 (ARG)
       ___xxtofl (ARG)
     ___flsub
       __Umul8_16 (ARG)
       ___fladd (ARG)
         __Umul8_16 (ARG)
   _TIMER_init_timer1
   _Voltage_Value
     ___fldiv
       __Umul8_16 (ARG)
       ___fladd (ARG)
         __Umul8_16 (ARG)
       ___flsub (ARG)
         __Umul8_16 (ARG)
         ___fladd (ARG)
           __Umul8_16 (ARG)
       ___xxtofl (ARG)
     ___flmul
       __Umul8_16
       ___fladd (ARG)
         __Umul8_16 (ARG)
       ___fldiv (ARG)
         __Umul8_16 (ARG)
         ___fladd (ARG)
           __Umul8_16 (ARG)
         ___flsub (ARG)
           __Umul8_16 (ARG)
           ___fladd (ARG)
             __Umul8_16 (ARG)
         ___xxtofl (ARG)
       ___flsub (ARG)
         __Umul8_16 (ARG)
         ___fladd (ARG)
           __Umul8_16 (ARG)
       ___xxtofl (ARG)
     ___xxtofl
   _conversion_newton
     ___fladd
       __Umul8_16 (ARG)
     ___fldiv
       __Umul8_16 (ARG)
       ___fladd (ARG)
         __Umul8_16 (ARG)
       ___flsub (ARG)
         __Umul8_16 (ARG)
         ___fladd (ARG)
           __Umul8_16 (ARG)
       ___xxtofl (ARG)
     ___flge
     ___flmul
       __Umul8_16
       ___fladd (ARG)
         __Umul8_16 (ARG)
       ___fldiv (ARG)
         __Umul8_16 (ARG)
         ___fladd (ARG)
           __Umul8_16 (ARG)
         ___flsub (ARG)
           __Umul8_16 (ARG)
           ___fladd (ARG)
             __Umul8_16 (ARG)
         ___xxtofl (ARG)
       ___flsub (ARG)
         __Umul8_16 (ARG)
         ___fladd (ARG)
           __Umul8_16 (ARG)
       ___xxtofl (ARG)
     ___flsub
       __Umul8_16 (ARG)
       ___fladd (ARG)
         __Umul8_16 (ARG)

 _isr (ROOT)

 Address spaces:
Name               Size   Autos  Total    Cost      Usage
BITCOMMON            E      0       0       0        0.0%
NULL                 0      0       0       0        0.0%
CODE                 0      0       0       0        0.0%
COMMON               E      C       C       1       85.7%
BITSFR0              0      0       0       1        0.0%
SFR0                 0      0       0       1        0.0%
BITSFR1              0      0       0       2        0.0%
SFR1                 0      0       0       2        0.0%
STACK                0      0       0       2        0.0%
ABS                  0      0      94       3        0.0%
BITBANK0            50      0       0       4        0.0%
BITSFR3              0      0       0       4        0.0%
SFR3                 0      0       0       4        0.0%
BANK0               50     50      50       5      100.0%
BITSFR2              0      0       0       5        0.0%
SFR2                 0      0       0       5        0.0%
DATA                 0      0      94       6        0.0%
BITBANK1            50      0       0       7        0.0%
BANK1               50     37      38       8       70.0%
BITBANK3            60      0       0       9        0.0%
BANK3               60      0       0      10        0.0%
BITBANK2            5B      0       0      11        0.0%
BANK2               5B      0       0      12        0.0%


Microchip Technology PIC Macro Assembler V2.20 build 20200408173844 
Symbol Table                                                                                   Thu Jun 01 10:28:25 2023

                  ___fldiv@aexp 0055                    ___fldiv@bexp 0054                               pc 0002  
                  ___fldiv@sign 004D                              l42 1675                              l45 16E3  
                            l73 070C                              l74 0716                              l66 0484  
                            l83 15A0                              fsr 0004             __Umul8_16@word_mpld 0078  
              ??_PORT_Blink_LED 0072                             l140 0839                             l150 1560  
                           l134 07FD                             l206 15B2                             l143 157C  
                           l153 1564                             l147 158E                             l156 1557  
                           l174 156C                             l510 0A7A                             l177 155C  
                           l514 0B21                             l531 0BEC                             l523 0C9E  
                           l612 0F6B                             l516 0AF8                             l541 0C32  
                           l606 0FFF                             l535 0C10                             l391 177A  
                           l552 0C92                             l625 1604                             l553 0C9E  
                           l618 0FF3                             l650 073B                             l394 17E6  
                           l627 1616                             l395 17FF                             l556 15EF  
                           l652 07D2                             l590 0A0A                             l582 0988  
                           l566 0896                             l663 079C                             l568 0A16  
                           l664 07A8       __end_of_TIMER_init_timer1 15B3                             _isr 15B3  
                           fsr0 0004                    ___flmul@aexp 0068                    ___flmul@bexp 0069  
                  ___flmul@sign 0063                    ___flmul@temp 006E                    ___flmul@prod 006A  
      __end_of_PORT_Select_Mux1 156D                            l2001 09F1                            l2011 0A06  
                          l2003 09F9                            l2005 09FA                            l2101 0F20  
                          l2021 0CAC                            l2007 0A00                            l2111 0F45  
                          l2103 0F2E                            l2031 0CC3                            l2023 0CB0  
                          l2009 0A04                            l2121 0F68                            l2105 0F37  
                          l2113 0F4B                            l2041 0CDC                            l2033 0CC5  
                          l2025 0CB1                            l2017 0C9F                            l2201 07C9  
                          l2211 080B                            l2131 0F87                            l2115 0F4F  
                          l2107 0F3B                            l2051 0CF1                            l2043 0CDD  
                          l2035 0CCD                            l2027 0CB6                            l2019 0CA6  
                          l2203 07CA                            l2221 081F                            l2213 080D  
                          l2141 0FCD                            l2133 0FA0                            l2125 0F70  
                          l2117 0F50                            l2109 0F3C                            l2061 0D0C  
                          l2053 0CF9                            l2045 0CE2                            l2037 0CD2  
                          l2029 0CBB                            l2301 0166                            l2231 0831  
                          l2223 0824                            l2215 0816                            l2207 0801  
                          l2151 0FEB                            l2143 0FD7                            l2127 0F75  
                          l2135 0FA6                            l2119 0F54                            l2071 0D8E  
                          l2063 0D1C                            l2055 0CFE                            l2047 0CE7  
                          l2039 0CD8                            l2311 0213                            l2303 019B  
                          l2233 0834                            l2225 0828                            l2217 0819  
                          l2209 0807                            l2153 0FEC                            l2145 0FD9  
                          l2137 0FB3                            l2129 0F83                            l2081 0DFC  
                          l2073 0DAA                            l2065 0D29                            l2057 0D03  
                          l2049 0CEF                            l1601 0A1E                            l2241 15A5  
                          l2161 071F                            l2321 02EE                            l2313 0248  
                          l2305 01A2                            l2235 0836                            l2227 082C  
                          l2219 081D                            l2155 0FF7                            l2147 0FDF  
                          l2139 0FBE                            l2091 0E8C                            l2083 0E0C  
                          l2075 0DC6                            l2067 0D46                            l1611 0A33  
                          l1603 0A24                            l2251 15AC                            l2243 15A8  
                          l2171 074C                            l2163 0723                            l2331 039B  
                          l2323 02F5                            l2315 027D                            l2307 01D7  
                          l2237 0837                            l2229 0830                            l2261 1568  
                          l2149 0FE7                            l2093 0E9C                            l2085 0E29  
                          l2077 0DCF                            l2069 0D62                            l1701 0B25  
                          l1621 0A4B                            l1613 0A3B                            l1605 0A28  
                          l2253 15AD                            l2245 15A9                            l2181 0769  
                          l2173 0751                            l2165 0733                            l2341 0448  
                          l2333 03D0                            l2325 032A                            l2317 0284  
                          l2309 020C                            l2271 159B                            l2263 1558  
                          l2095 0EC9                            l2087 0E42                            l2079 0DDF  
                          l1711 0B4E                            l1703 0B2A                            l1631 0A5D  
                          l1623 0A51                            l1615 0A3C                            l1607 0A29  
                          l2255 15AE                            l2247 15AA                            l2239 15A1  
                          l2191 0796                            l2183 0777                            l2175 0755  
                          l2167 0743                            l2159 071A                            l2351 06C3  
                          l2343 047D                            l2335 03D7                            l2327 035F  
                          l2319 02B9                            l2265 156D                            l1801 15F1  
                          l2097 0EEF                            l2089 0E5F                            l1721 0B62  
                          l1713 0B52                            l1633 0A62                            l1641 0A72  
                          l1625 0A52                            l1609 0A2E                            l1617 0A3E  
                          l2257 15B1                            l2249 15AB                            l2193 07A0  
                          l2185 0780                            l2177 075E                            l2353 06CD  
                          l2337 040C                            l2329 0366                            l2345 0484  
                          l2361 16EE                            l2267 1590                            l2259 1565  
                          l1811 1612                            l1803 15F3                            l2099 0F17  
                          l1731 0BC8                            l1723 0B6B                            l1715 0B5B  
                          l1707 0B33                            l1651 0A90                            l1643 0A80  
                          l1635 0A67                            l1627 0A58                            l1619 0A46  
                          l2195 07AA                            l2187 0787                            l2179 0765  
                          l2275 1618                            l2355 0702                            l2347 0621  
                          l2339 0441                            l2291 00B9                            l2283 0016  
                          l2371 1705                            l2363 16F3                            l1821 1554  
                          l2269 1596                            l1901 0879                            l1805 15FA  
                          l1741 0BF9                            l1733 0BCA                            l1717 0B5D  
                          l1709 0B4A                            l1725 0B70                            l1661 0AA4  
                          l1653 0A94                            l1645 0A84                            l1637 0A6F  
                          l1629 0A5C                            l2197 07C0                            l2189 0792  
                          l2349 0690                            l2293 00C0                            l2285 004B  
                          l2381 1734                            l2373 1710                            l2365 16F8  
                          l1815 157E                            l1831 07DF                            l1903 087E  
                          l1911 088E                            l1807 15FE                            l1751 0C14  
                          l1735 0BCF                            l1727 0B86                            l1719 0B61  
                          l1671 0AB8                            l1663 0AA8                            l1655 0A98  
                          l1647 0A88                            l1639 0A70                            l2279 1676  
                          l2199 07C5                            l2295 00F5                            l2287 004F  
                          l2383 174B                            l2375 1716                            l2367 16FF  
                          l2359 16E4                            l1817 1584                            l1841 07F0  
                          l1833 07E2                            l1825 07D3                            l1913 089E  
                          l1921 08B7                            l1905 0883                            l1809 160D  
                          l1753 0C17                            l1745 0C02                            l1729 0BC4  
                          l1737 0BDE                            l1761 0C24                            l1681 0ADC  
                          l1673 0ABC                            l1665 0AAC                            l1657 0A9C  
                          l1649 0A8C                            l2297 012A                            l2289 0084  
                          l2377 171C                            l2369 1700                            l1819 155D  
                          l1843 07F5                            l1835 07E7                            l1827 07D9  
                          l1931 08DF                            l1923 08BC                            l1915 08AA  
                          l1907 088B                            l1771 0C37                            l1763 0C25  
                          l1755 0C19                            l1747 0C0B                            l1739 0BF4  
                          l1691 0B07                            l1683 0AEB                            l1675 0AC0  
                          l1667 0AB0                            l1659 0AA0                            l1851 178E  
                          l2299 0131                            l2379 1722                            l1845 07F8  
                          l1837 07EA                            l1829 07DC                            l1941 0908  
                          l1933 08E7                            l1917 08AE                            l1909 088C  
                          l1773 0C3C                            l1781 0C70                            l1765 0C29  
                          l1757 0C1E                            l1749 0C0F                            l1693 0B0B  
                          l1685 0AF3                            l1669 0AB4                            l1677 0AC4  
                          l1861 17FC                            l1853 1796                            l1839 07ED  
                          l1951 0929                            l1943 090C                            l1935 08EF  
                          l1927 08C5                            l1791 0C88                            l1783 0C75  
                          l1775 0C4A                            l1767 0C2F                            l1759 0C20  
                          l1695 0B0C                            l1687 0AFC                            l1679 0AC5  
                          l1599 0A17                            l1863 17FE                            l1855 179A  
                          l1847 175C                            l1961 094B                            l1953 0937  
                          l1945 090D                            l1937 08F1                            l1929 08D7  
                          l1881 084C                            l1873 083A                            l1793 0C8C  
                          l1785 0C7A                            l1777 0C4E                            l1697 0B15  
                          l1689 0B05                            l1857 17BE                            l1849 1772  
                          l1963 0954                            l1971 0968                            l1939 08F6  
                          l1947 0916                            l1955 093B                            l1883 0851  
                          l1891 0861                            l1875 0841                            l1795 0C8E  
                          l1787 0C82                            l1779 0C6C                            l1699 0B19  
                          l1867 15CC                            l1859 17C2                            l1973 096C  
                          l1965 0958                            l1957 0941                            l1949 0928  
                          l1893 0869                            l1885 0856                            l1877 0847  
                          l1797 0C99                            l1789 0C87                            l1869 15D0  
                          l1991 09BD                            l1983 098D                            l1975 096D  
                          l1967 0959                            l1959 0949                            l1895 086E  
                          l1887 085E                            l1879 084B                            l1799 0C9D  
                          l1985 0992                            l1993 09C3                            l1977 0971  
                          l1969 0962                            l1897 0874                            l1889 085F  
                          l1995 09D0                            l1987 09A0                            l1979 0985  
                          l1899 0878                            l1997 09DE                            l1989 09A4  
                          l1999 09ED                            ?_isr 0070                            u2000 0BB1  
                          u2001 0BB2                            u2010 0BCF                            u2002 0BB7  
                          u2011 0BCE                            u2003 0BB8                            u2100 0C2F  
                          u2020 0BF4                            u2101 0C2E                            u2021 0BF3  
                          u2110 0C36                            u2030 0BF9                            u2111 0C35  
                          u2031 0BF8                            u2200 0C9D                            u2120 0C3C  
                          u3000 0723                            u2201 0C9C                            u2121 0C3B  
                          u3001 0722                            u2210 15FE                            u2130 0C4E  
                          u2050 0C0F                            u3010 0743                            u2211 15FD  
                          u2131 0C4D                            u2051 0C0E                            u3011 0742  
                          u2140 0C5D                            u2060 0C14                            u3100 07B5  
                          u2300 17C2                            u2061 0C13                            u2045 0C04  
                          u2301 17C1                            u2230 1612                            u2150 0C6C  
                          u2070 0C1E                            u3110 07C5                            u3030 0764  
                          u2231 1611                            u2151 0C6B                            u2071 0C1D  
                          u3111 07C4                            u3031 0763                            u2311 17D1  
                          u2240 1584                            u2400 08BC                            u2160 0C75  
                          u2080 0C24                            u3120 07C9                            u2320 17FC  
                          u2312 17D2                            u3200 012A                            u2241 1583  
                          u2401 08BB                            u2225 1605                            u2161 0C74  
                          u2145 0C58                            u2081 0C23                            u3121 07C8  
                          u3105 07B0                            u3025 0756                            u2321 17FB  
                          u2313 17D7                            u3201 0129                            u2250 1564  
                          u3130 0816                            u2410 08F6                            u2330 084B  
                          u2170 0C7A                            u2090 0C29                            u3050 0786  
                          u2314 17D8                            u3210 0166                            u2251 1563  
                          u3131 0815                            u2411 08F5                            u2331 084A  
                          u2171 0C79                            u2091 0C28                            u3051 0785  
                          u2315 17DD                            u3211 0165                            u3140 1579  
                          u2500 0958                            u2340 0851                            u2180 0C87  
                          u2316 17DE                            u2260 1772                            u3300 035F  
                          u3220 019B                            u3141 1575                            u2501 0957  
                          u2341 0850                            u2181 0C86                            u3045 0778  
                          u2325 17F8                            u2261 1771                            u3301 035E  
                          u3221 019A                            u2350 0856                            u2190 0C8C  
                          u3070 0796                            u2270 178E                            u3310 039B  
                          u3230 01D7                            u2351 0855                            u2191 0C8B  
                          u3071 0795                            u2271 178D                            u3311 039A  
                          u3231 01D6                            u2600 09ED                            u2520 096C  
                          u2440 090C                            u2360 0878                            u1800 0A62  
                          u3080 079C                            u2280 179A                            u3320 03D0  
                          u3240 020C                            u3160 004B                            u2601 09EC  
                          u2521 096B                            u2441 090B                            u2425 08F8  
                          u2361 0877                            u1801 0A61                            u3081 079B  
                          u3065 078B                            u2281 1799                            u3321 03CF  
                          u3241 020B                            u3161 004A                            u3154 157C  
                          u2610 0A04                            u2530 0971                            u2370 087E  
                          u1810 0A67                            u3090 07A0                            u3330 040C  
                          u3250 0248                            u3170 0084                            u2611 0A03  
                          u2531 0970                            u2515 095B                            u2435 0901  
                          u2371 087D                            u1811 0A66                            u3091 079F  
                          u2291 17A9                            u3331 040B                            u3251 0247  
                          u3171 0083                            u2540 0985                            u2460 0928  
                          u2380 0883                            u2620 0CB0                            u1900 0B21  
                          u1820 0A80                            u2292 17AA                            u3420 06C3  
                          u3340 0441                            u3260 027D                            u3180 00B9  
                          u2605 09E9                            u2541 0984                            u2461 0927  
                          u2381 0882                            u2701 0D54                            u2621 0CAF  
                          u1901 0B20                            u1821 0A7F                            u2293 17AF  
                          u3421 06C2                            u3405 05AF                            u3341 0440  
                          u3261 027C                            u3181 00B8                            u2550 098C  
                          u2470 0941                            u2390 089E                            u2702 0D5B  
                          u2630 0CB6                            u1910 0B25                            u1830 0A84  
                          u1750 0A28                            u2294 17B0                            u3430 0702  
                          u3350 047D                            u3270 02B9                            u3190 00F5  
                          u2551 098B                            u2471 0940                            u2455 090F  
                          u2391 089D                            u2711 0D70                            u2703 0D62  
                          u2631 0CB5                            u1911 0B24                            u1831 0A83  
                          u1751 0A27                            u2295 17B5                            u3431 0701  
                          u3415 0624                            u3351 047C                            u3271 02B8  
                          u3191 00F4                            u2560 0992                            u2480 0949  
                          u2712 0D77                            u2640 0CBB                            u1920 0B2A  
                          u1840 0ADC                            u1760 0A2E                            u2296 17B6  
                          u3280 02EE                            u3440 16FF                            u2561 0991  
                          u2481 0948                            u2465 0924                            u2801 0EAB  
                          u2721 0D9C                            u2713 0D7E                            u2641 0CBA  
                          u1921 0B29                            u1841 0ADB                            u1761 0A2D  
                          u3281 02ED                            u3441 16FE                            u2570 09A4  
                          u2810 0ED5                            u2802 0EB2                            u2722 0DA3  
                          u2650 0CDC                            u1850 0AE7                            u1770 0A33  
                          u3290 032A                            u2571 09A3                            u2803 0EB9  
                          u2731 0DB8                            u2723 0DAA                            u2651 0CDB  
                          u1931 0B3C                            u1851 0AE5                            u1771 0A32  
                          u3291 0329                            u2580 09B3                            u2900 0F54  
                          u2732 0DBF                            u2660 0CE2                            u1940 0B4E  
                          u1932 0B43                            u1860 0AE8                            u1780 0A51  
                          u2901 0F53                            u2821 0EE1                            u2733 0DC6  
                          u2661 0CE1                            u1941 0B4D                            u1933 0B4A  
                          u1845 0AD8                            u1781 0A50                            u3365 0489  
                          u2590 09D0                            u2910 0F68                            u2830 0EFD  
                          u2822 0EE8                            u2670 0CE7                            u1950 0B52  
                          u1870 0AFC                            u1790 0A5C                            u2591 09CF  
                          u2495 094D                            u2911 0F67                            u2823 0EEF  
                          u2815 0ED0                            u2751 0DEE                            u2671 0CE6  
                          u1951 0B51                            u1871 0AFB                            u1791 0A5B  
                          u3375 04EC                            u2920 0F6F                            u2752 0DF5  
                          u2680 0CFE                            u1960 0B61                            u1880 0B0B  
                          u2585 09AE                            u2921 0F6E                            u2841 0F09  
                          u2761 0E1B                            u2753 0DFC                            u2745 0DC8  
                          u2681 0CFD                            u1961 0B60                            u1881 0B0A  
                          u3385 0528                            u2930 0F75                            u2842 0F10  
                          u2762 0E22                            u2690 0D03                            u2595 09CC  
                          u2931 0F74                            u2843 0F17                            u2835 0EF8  
                          u2763 0E29                            u2691 0D02                            u3395 0573  
                          u2940 0F87                            u1980 0B86                            u2941 0F86  
                          u2781 0E51                            u1981 0B85                            u2950 0F96  
                          u2870 0F3B                            u2782 0E58                            u2871 0F3A  
                          u2855 0F19                            u2791 0E7E                            u2783 0E5F  
                          u2775 0E2B                            u1991 0B9D                            u1983 0B82  
                          u1975 0B64                            u1895 0B0E                            u2960 0FB3  
                          u2792 0E85                            u1992 0B9E                            u2961 0FB2  
                          u2865 0F30                            u2793 0E8C                            u1993 0BA3  
                          u2970 0FCD                            u2890 0F4F                            u1994 0BA4  
                          u2971 0FCC                            u2955 0F91                            u2891 0F4E  
                          u1995 0BA9                            u2980 0FEB                            u1996 0BAA  
                          u2981 0FEA                            u2965 0FAF                            u2885 0F3E  
                          u2990 071F                            u2975 0FC9                            u2991 071E  
                          _TMRA 0110                            _WPUB 0095                            _main 16E4  
              ??_PORT_Init_Gain 0072                     main@sensor1 00D6                            btemp 007E  
             ??_PORT_Choose_Mux 0072                            start 000C                 ___fldiv@new_exp 004E  
         __size_of_ADC_GetValue 0012                           ??_isr 0070           _conversion_newton$764 00BD  
               __end_of___fladd 0C9F                           ?_main 0070                 __end_of___fldiv 0A17  
                         _ADRES 001E                 __end_of___flmul 1000                 __end_of___flsub 15F0  
                         i1l211 15C0                           i1l213 15C5                   _Voltage_Value 1617  
                         _RCSTA 0018                           _SPBRG 0099                           _PORTD 0008  
                         _TRISA 0085                           _TRISB 0086                           _TRISC 0087  
                         _TRISD 0088                           _TXREG 0019                           _TXSTA 0098  
              ??_PORT_Start_ADC 0072              __size_of_PORT_Init 0039                           pclath 000A  
                         status 0003                           wtemp0 007E                    _ADC_GetValue 158F  
    __end_of_PORT_Get_Value_Adc 1558                 __initialization 000F                    __end_of_main 175C  
                        ??_main 007C                  ?_Voltage_Value 00A0      __size_of_TIMER_init_timer1 0012  
      __end_of_Resistance_Value 16E4                          _ADCON0 001F                          _ADCON1 009F  
                        _ANSELA 0185                          _ANSELB 0186                          _ANSELD 0188  
                        i1l2421 15B9                          i1l2423 15C4                          i1l2419 15B3  
                        _T1SYNC 0082                          _FVRCON 009D                          u345_20 15B9  
                        u345_21 15B8                          u346_20 15C4                          u346_21 15C3  
                        _OSCCON 0090                          _TMR1GE 047F                          _TMR1IE 0460  
                        _TMR1IF 0060                          _TMR1ON 0080                          _TMRAIF 006C  
                        _TMRCS0 0086                          _TMRCS1 0087                __end_of___xxtofl 07D3  
                        ___flge 175C                       ??___fladd 0028                       ??___fldiv 0044  
                     ??___flmul 005E                       ??___flsub 007B               __end_of_PORT_Init 083A  
                        main@Rc 00CE               ?_PORT_Init_Serial 0070                          main@Vs 00D2  
            ??_PORT_Init_Serial 0072              __size_of__Umul8_16 0027                          saved_w 007E  
                    ___flge@ff1 0072                      ___flge@ff2 0076                    ___xxtofl@arg 0022  
                  ___xxtofl@exp 0021                    ___xxtofl@val 0072         __end_of__initialization 0012  
                __pcstackCOMMON 0070                 ??_Voltage_Value 00A4                 _PORT_Choose_Mux 157D  
             ?_PORT_Select_Mux1 0070                      __pbssBANK1 00D7              ??_PORT_Select_Mux1 0072  
             __end_of__Umul8_16 1617                      __pmaintext 16E4                         ?___flge 0072  
           ADC_GetValue@channel 0073                      __pintentry 0004                         _DACCON0 0113  
                       _DACCON1 0114                         _T1CKPS0 0084                         _T1CKPS1 0085  
                       _T1OSCEN 0083                       ?___xxtofl 0072                      __stringtab 1000  
               __size_of___flge 00A4                         ___fladd 0A17                         ___fldiv 083A  
                       ___flmul 0C9F                         ___flsub 15CC              conversion_newton@F 00C1  
            conversion_newton@n 00C5         __end_of_PORT_Choose_Mux 158F                         __ptext1 0016  
                       __ptext2 175C                         __ptext3 1617                         __ptext4 0717  
                       __ptext5 15A1                         __ptext6 1676                         __ptext7 15CC  
                       __ptext8 0A17                         __ptext9 0C9F              _PORT_Get_Value_Adc 1554  
                  __size_of_isr 0019                      ??___xxtofl 0076               ?_Resistance_Value 00A0  
           ?_PORT_Get_Value_Adc 0070               _conversion_newton 0016            end_of_initialization 0012  
       __size_of_PORT_Blink_LED 0010              ??_Resistance_Value 007B              ?_conversion_newton 00A0  
           ??_conversion_newton 00A4            ??_PORT_Get_Value_Adc 0072         __size_of_PORT_Init_Gain 0005  
                     _PORTBbits 0006                       _PORTCbits 0007                       _PORT_Init 0801  
                   ___fladd@grs 0033                   ___xxtofl@sign 0020       __end_of_conversion_newton 0717  
                   ___fldiv@grs 0050                     ___fldiv@rem 0049       __size_of_PORT_Init_Serial 002B  
                   ___flmul@grs 0064         __size_of_PORT_Start_ADC 0008                  __end_of___flge 1800  
                     _Fincompt1 00D7                ?_PORT_Choose_Mux 0070                      ?_PORT_Init 0070  
           start_initialization 000F                     __end_of_isr 15CC                        ??___flge 0020  
     __size_of_PORT_Select_Mux1 0008                       __Umul8_16 15F0           __end_of_Voltage_Value 1676  
                     ___fladd@a 0024                       ___fladd@b 0020                       ___fldiv@a 003C  
                     ___fldiv@b 0040                       ___flmul@a 005A                       ___flmul@b 0056  
                     ___flsub@a 0034                       ___flsub@b 0038                       ___latbits 0002  
                 __pcstackBANK0 0020                   __pcstackBANK1 00A0      __size_of_conversion_newton 0701  
        conversion_newton@F_tab 1056               __size_of___xxtofl 00BC          conversion_newton@R_tab 1006  
                _PORT_Blink_LED 156D                   ?_ADC_GetValue 0070                        ?___fladd 0020  
                      ?___fldiv 003C                        ?___flmul 0056                        ?___flsub 0034  
                    ?__Umul8_16 0072                  _PORT_Init_Gain 1558                       __pstrings 1000  
                   ??_PORT_Init 0072          __end_of_PORT_Blink_LED 157D                _PORT_Init_Serial 07D3  
                ??_ADC_GetValue 0073               interrupt_function 0004                  _PORT_Start_ADC 155D  
         PORT_Choose_Mux@_value 0072                        _GO_nDONE 00F9          __end_of_PORT_Init_Gain 155D  
     __size_of_Resistance_Value 006E                     __stringbase 1005                 ?_PORT_Blink_LED 0070  
        __end_of_PORT_Start_ADC 1565                 ?_PORT_Init_Gain 0070                _PORT_Select_Mux1 1565  
                   ??__Umul8_16 0074     __size_of_PORT_Get_Value_Adc 0004                __size_of___fladd 0288  
              __size_of___fldiv 01DD                __size_of___flmul 0361                __size_of___flsub 0024  
            __end_of__stringtab 1006                        ___xxtofl 0717             conversion_newton@Rc 00A0  
                      __ptext10 15F0                        __ptext11 083A                        __ptext20 157D  
                      __ptext12 1565                        __ptext21 15B3                        __ptext13 1558  
                      __ptext14 0801                        __ptext15 07D3                        __ptext16 156D  
                      __ptext17 158F                        __ptext18 155D                        __ptext19 1554  
               ?_PORT_Start_ADC 0070                   __size_of_main 0078            __end_of_ADC_GetValue 15A1  
      __size_of_PORT_Choose_Mux 0012                        intlevel1 0000                       stringcode 1000  
              _Resistance_Value 1676        __end_of_PORT_Init_Serial 07FE  __end_ofconversion_newton@F_tab 10A6  
        __Umul8_16@multiplicand 0072  __end_ofconversion_newton@R_tab 1056             Voltage_Value@sensor 007B  
                      stringdir 1000                        stringtab 1000               _TIMER_init_timer1 15A1  
       Resistance_Value@Voltage 00A0                   ___fladd@signs 0030              ?_TIMER_init_timer1 0070  
                  ___fladd@aexp 0031                    ___fladd@bexp 0032            __Umul8_16@multiplier 007A  
           ??_TIMER_init_timer1 0072          __size_of_Voltage_Value 005F               __Umul8_16@product 0076  
