

Microchip MPLAB XC8 Assembler V2.20 build 20200408173844 
                                                                                               Tue May 30 11:30:04 2023

Microchip MPLAB XC8 C Compiler v2.20 (Free license) build 20200408173844 Og1 
     1                           	processor	16F707
     2                           	pagewidth 120
     3                           	opt	flic
     4                           	psect	cinit,global,class=CODE,merge=1,delta=2
     5                           	psect	bssBANK0,global,class=BANK0,space=1,delta=1,noexec
     6                           	psect	cstackCOMMON,global,class=COMMON,space=1,delta=1,noexec
     7                           	psect	cstackBANK0,global,class=BANK0,space=1,delta=1,noexec
     8                           	psect	maintext,global,class=CODE,split=1,delta=2
     9                           	psect	text1,local,class=CODE,merge=1,delta=2
    10                           	psect	text2,local,class=CODE,merge=1,delta=2,group=1
    11                           	psect	text3,local,class=CODE,merge=1,delta=2,group=1
    12                           	psect	text4,local,class=CODE,merge=1,delta=2
    13                           	psect	text5,local,class=CODE,merge=1,delta=2
    14                           	psect	text6,local,class=CODE,merge=1,delta=2
    15                           	psect	text7,local,class=CODE,merge=1,delta=2
    16                           	psect	text8,local,class=CODE,merge=1,delta=2
    17                           	psect	text9,local,class=CODE,merge=1,delta=2
    18                           	psect	text10,local,class=CODE,merge=1,delta=2
    19                           	psect	text11,local,class=CODE,merge=1,delta=2
    20                           	psect	text12,local,class=CODE,merge=1,delta=2
    21                           	psect	text13,local,class=CODE,merge=1,delta=2
    22                           	psect	intentry,global,class=CODE,delta=2
    23                           	psect	config,global,abs,ovrld,class=CONFIG,space=4,delta=2,noexec
    24                           	dabs	1,0x7E,2
    25  0000                     
    26                           ; Version 2.20
    27                           ; Generated 12/02/2020 GMT
    28                           ; 
    29                           ; Copyright © 2020, Microchip Technology Inc. and its subsidiaries ("Microchip")
    30                           ; All rights reserved.
    31                           ; 
    32                           ; This software is developed by Microchip Technology Inc. and its subsidiaries ("Microch
      +                          ip").
    33                           ; 
    34                           ; Redistribution and use in source and binary forms, with or without modification, are
    35                           ; permitted provided that the following conditions are met:
    36                           ; 
    37                           ;     1. Redistributions of source code must retain the above copyright notice, this lis
      +                          t of
    38                           ;        conditions and the following disclaimer.
    39                           ; 
    40                           ;     2. Redistributions in binary form must reproduce the above copyright notice, this 
      +                          list
    41                           ;        of conditions and the following disclaimer in the documentation and/or other
    42                           ;        materials provided with the distribution.
    43                           ; 
    44                           ;     3. Microchip's name may not be used to endorse or promote products derived from th
      +                          is
    45                           ;        software without specific prior written permission.
    46                           ; 
    47                           ; THIS SOFTWARE IS PROVIDED BY MICROCHIP "AS IS" AND ANY EXPRESS OR IMPLIED WARRANTIES,
    48                           ; INCLUDING, BUT NOT LIMITED TO, THE IMPLIED WARRANTIES OF MERCHANTABILITY AND FITNESS F
      +                          OR
    49                           ; PURPOSE ARE DISCLAIMED.  IN NO EVENT SHALL MICROCHIP BE LIABLE FOR ANY DIRECT, INDIREC
      +                          T,
    50                           ; INCIDENTAL, SPECIAL, EXEMPLARY, OR CONSEQUENTIAL DAMAGES (INCLUDING BUT NOT LIMITED TO
    51                           ; PROCUREMENT OF SUBSTITUTE GOODS OR SERVICES; LOSS OF USE, DATA OR PROFITS; OR BUSINESS
    52                           ; INTERRUPTION) HOWSOEVER CAUSED AND ON ANY THEORY OF LIABILITY, WHETHER IN CONTRACT, ST
      +                          RICT
    53                           ; LIABILITY, OR TORT (INCLUDING NEGLIGENCE OR OTHERWISE) ARISING IN ANY WAY OUT OF THE U
      +                          SE OF
    54                           ; THIS SOFTWARE, EVEN IF ADVISED OF THE POSSIBILITY OF SUCH DAMAGE.
    55                           ; 
    56                           ; 
    57                           ; Code-generator required, PIC16F707 Definitions
    58                           ; 
    59                           ; SFR Addresses
    60  0000                     	;# 
    61  0001                     	;# 
    62  0002                     	;# 
    63  0003                     	;# 
    64  0004                     	;# 
    65  0005                     	;# 
    66  0006                     	;# 
    67  0007                     	;# 
    68  0008                     	;# 
    69  0009                     	;# 
    70  000A                     	;# 
    71  000B                     	;# 
    72  000C                     	;# 
    73  000D                     	;# 
    74  000E                     	;# 
    75  000E                     	;# 
    76  000F                     	;# 
    77  0010                     	;# 
    78  0011                     	;# 
    79  0012                     	;# 
    80  0013                     	;# 
    81  0014                     	;# 
    82  0015                     	;# 
    83  0015                     	;# 
    84  0016                     	;# 
    85  0017                     	;# 
    86  0018                     	;# 
    87  0019                     	;# 
    88  001A                     	;# 
    89  001B                     	;# 
    90  001B                     	;# 
    91  001C                     	;# 
    92  001D                     	;# 
    93  001E                     	;# 
    94  001F                     	;# 
    95  0081                     	;# 
    96  0085                     	;# 
    97  0086                     	;# 
    98  0087                     	;# 
    99  0088                     	;# 
   100  0089                     	;# 
   101  008C                     	;# 
   102  008D                     	;# 
   103  008E                     	;# 
   104  008F                     	;# 
   105  0090                     	;# 
   106  0091                     	;# 
   107  0092                     	;# 
   108  0093                     	;# 
   109  0093                     	;# 
   110  0094                     	;# 
   111  0095                     	;# 
   112  0096                     	;# 
   113  0097                     	;# 
   114  0098                     	;# 
   115  0099                     	;# 
   116  009A                     	;# 
   117  009A                     	;# 
   118  009B                     	;# 
   119  009C                     	;# 
   120  009D                     	;# 
   121  009E                     	;# 
   122  009F                     	;# 
   123  0105                     	;# 
   124  0106                     	;# 
   125  0107                     	;# 
   126  0108                     	;# 
   127  0109                     	;# 
   128  010C                     	;# 
   129  010D                     	;# 
   130  010E                     	;# 
   131  010F                     	;# 
   132  0110                     	;# 
   133  0111                     	;# 
   134  0112                     	;# 
   135  0113                     	;# 
   136  0114                     	;# 
   137  0185                     	;# 
   138  0186                     	;# 
   139  0187                     	;# 
   140  0188                     	;# 
   141  0189                     	;# 
   142  018C                     	;# 
   143  0000                     	;# 
   144  0001                     	;# 
   145  0002                     	;# 
   146  0003                     	;# 
   147  0004                     	;# 
   148  0005                     	;# 
   149  0006                     	;# 
   150  0007                     	;# 
   151  0008                     	;# 
   152  0009                     	;# 
   153  000A                     	;# 
   154  000B                     	;# 
   155  000C                     	;# 
   156  000D                     	;# 
   157  000E                     	;# 
   158  000E                     	;# 
   159  000F                     	;# 
   160  0010                     	;# 
   161  0011                     	;# 
   162  0012                     	;# 
   163  0013                     	;# 
   164  0014                     	;# 
   165  0015                     	;# 
   166  0015                     	;# 
   167  0016                     	;# 
   168  0017                     	;# 
   169  0018                     	;# 
   170  0019                     	;# 
   171  001A                     	;# 
   172  001B                     	;# 
   173  001B                     	;# 
   174  001C                     	;# 
   175  001D                     	;# 
   176  001E                     	;# 
   177  001F                     	;# 
   178  0081                     	;# 
   179  0085                     	;# 
   180  0086                     	;# 
   181  0087                     	;# 
   182  0088                     	;# 
   183  0089                     	;# 
   184  008C                     	;# 
   185  008D                     	;# 
   186  008E                     	;# 
   187  008F                     	;# 
   188  0090                     	;# 
   189  0091                     	;# 
   190  0092                     	;# 
   191  0093                     	;# 
   192  0093                     	;# 
   193  0094                     	;# 
   194  0095                     	;# 
   195  0096                     	;# 
   196  0097                     	;# 
   197  0098                     	;# 
   198  0099                     	;# 
   199  009A                     	;# 
   200  009A                     	;# 
   201  009B                     	;# 
   202  009C                     	;# 
   203  009D                     	;# 
   204  009E                     	;# 
   205  009F                     	;# 
   206  0105                     	;# 
   207  0106                     	;# 
   208  0107                     	;# 
   209  0108                     	;# 
   210  0109                     	;# 
   211  010C                     	;# 
   212  010D                     	;# 
   213  010E                     	;# 
   214  010F                     	;# 
   215  0110                     	;# 
   216  0111                     	;# 
   217  0112                     	;# 
   218  0113                     	;# 
   219  0114                     	;# 
   220  0185                     	;# 
   221  0186                     	;# 
   222  0187                     	;# 
   223  0188                     	;# 
   224  0189                     	;# 
   225  018C                     	;# 
   226  0000                     	;# 
   227  0001                     	;# 
   228  0002                     	;# 
   229  0003                     	;# 
   230  0004                     	;# 
   231  0005                     	;# 
   232  0006                     	;# 
   233  0007                     	;# 
   234  0008                     	;# 
   235  0009                     	;# 
   236  000A                     	;# 
   237  000B                     	;# 
   238  000C                     	;# 
   239  000D                     	;# 
   240  000E                     	;# 
   241  000E                     	;# 
   242  000F                     	;# 
   243  0010                     	;# 
   244  0011                     	;# 
   245  0012                     	;# 
   246  0013                     	;# 
   247  0014                     	;# 
   248  0015                     	;# 
   249  0015                     	;# 
   250  0016                     	;# 
   251  0017                     	;# 
   252  0018                     	;# 
   253  0019                     	;# 
   254  001A                     	;# 
   255  001B                     	;# 
   256  001B                     	;# 
   257  001C                     	;# 
   258  001D                     	;# 
   259  001E                     	;# 
   260  001F                     	;# 
   261  0081                     	;# 
   262  0085                     	;# 
   263  0086                     	;# 
   264  0087                     	;# 
   265  0088                     	;# 
   266  0089                     	;# 
   267  008C                     	;# 
   268  008D                     	;# 
   269  008E                     	;# 
   270  008F                     	;# 
   271  0090                     	;# 
   272  0091                     	;# 
   273  0092                     	;# 
   274  0093                     	;# 
   275  0093                     	;# 
   276  0094                     	;# 
   277  0095                     	;# 
   278  0096                     	;# 
   279  0097                     	;# 
   280  0098                     	;# 
   281  0099                     	;# 
   282  009A                     	;# 
   283  009A                     	;# 
   284  009B                     	;# 
   285  009C                     	;# 
   286  009D                     	;# 
   287  009E                     	;# 
   288  009F                     	;# 
   289  0105                     	;# 
   290  0106                     	;# 
   291  0107                     	;# 
   292  0108                     	;# 
   293  0109                     	;# 
   294  010C                     	;# 
   295  010D                     	;# 
   296  010E                     	;# 
   297  010F                     	;# 
   298  0110                     	;# 
   299  0111                     	;# 
   300  0112                     	;# 
   301  0113                     	;# 
   302  0114                     	;# 
   303  0185                     	;# 
   304  0186                     	;# 
   305  0187                     	;# 
   306  0188                     	;# 
   307  0189                     	;# 
   308  018C                     	;# 
   309  0019                     _TXREG	set	25
   310  001E                     _ADRES	set	30
   311  0008                     _PORTD	set	8
   312  0006                     _PORTBbits	set	6
   313  001F                     _ADCON0	set	31
   314  0018                     _RCSTA	set	24
   315  006C                     _TMRAIF	set	108
   316  0060                     _TMR1IF	set	96
   317  0080                     _TMR1ON	set	128
   318  0082                     _T1SYNC	set	130
   319  0085                     _T1CKPS1	set	133
   320  0084                     _T1CKPS0	set	132
   321  0086                     _TMRCS0	set	134
   322  0087                     _TMRCS1	set	135
   323  0083                     _T1OSCEN	set	131
   324  00F9                     _GO_nDONE	set	249
   325  009D                     _FVRCON	set	157
   326  009F                     _ADCON1	set	159
   327  0088                     _TRISD	set	136
   328  0085                     _TRISA	set	133
   329  0090                     _OSCCON	set	144
   330  0086                     _TRISB	set	134
   331  0095                     _WPUB	set	149
   332  0098                     _TXSTA	set	152
   333  0099                     _SPBRG	set	153
   334  0087                     _TRISC	set	135
   335  0460                     _TMR1IE	set	1120
   336  047F                     _TMR1GE	set	1151
   337  0110                     _TMRA	set	272
   338  0114                     _DACCON1	set	276
   339  0113                     _DACCON0	set	275
   340  0185                     _ANSELA	set	389
   341  0188                     _ANSELD	set	392
   342  0186                     _ANSELB	set	390
   343                           
   344                           	psect	cinit
   345  000F                     start_initialization:	
   346                           ; #config settings
   347                           
   348  000F                     __initialization:
   349                           
   350                           ; Clear objects allocated to BANK0
   351  000F  1283               	bcf	3,5	;RP0=0, select bank0
   352  0010  1303               	bcf	3,6	;RP1=0, select bank0
   353  0011  01B9               	clrf	__pbssBANK0& (0+127)
   354  0012                     end_of_initialization:	
   355                           ;End of C runtime variable initialization code
   356                           
   357  0012                     __end_of__initialization:
   358  0012  0183               	clrf	3
   359  0013  120A  118A  28D2   	ljmp	_main	;jump to C main() function
   360                           
   361                           	psect	bssBANK0
   362  0039                     __pbssBANK0:
   363  0039                     _Fincompt1:
   364  0039                     	ds	1
   365                           
   366                           	psect	cstackCOMMON
   367  0070                     __pcstackCOMMON:
   368  0070                     ?_PORT_Init:
   369  0070                     ?_TIMER_init_timer1:	
   370                           ; 1 bytes @ 0x0
   371                           
   372  0070                     ?_PORT_Select_Mux0:	
   373                           ; 1 bytes @ 0x0
   374                           
   375  0070                     ?_PORT_Blink_LED:	
   376                           ; 1 bytes @ 0x0
   377                           
   378  0070                     ?_ADC_GetValue:	
   379                           ; 1 bytes @ 0x0
   380                           
   381  0070                     ?_PORT_Choose_Mux:	
   382                           ; 1 bytes @ 0x0
   383                           
   384  0070                     ?_PORT_Start_ADC:	
   385                           ; 1 bytes @ 0x0
   386                           
   387  0070                     ?_PORT_Get_Value_Adc:	
   388                           ; 1 bytes @ 0x0
   389                           
   390  0070                     ?_main:	
   391                           ; 1 bytes @ 0x0
   392                           
   393  0070                     ?_PORT_Init_Serial:	
   394                           ; 1 bytes @ 0x0
   395                           
   396  0070                     ?_isr:	
   397                           ; 1 bytes @ 0x0
   398                           
   399  0070                     ??_isr:	
   400                           ; 1 bytes @ 0x0
   401                           
   402                           
   403                           ; 1 bytes @ 0x0
   404  0070                     	ds	2
   405  0072                     ??_PORT_Init:
   406  0072                     ??_TIMER_init_timer1:	
   407                           ; 1 bytes @ 0x2
   408                           
   409  0072                     ??_PORT_Select_Mux0:	
   410                           ; 1 bytes @ 0x2
   411                           
   412  0072                     ??_PORT_Blink_LED:	
   413                           ; 1 bytes @ 0x2
   414                           
   415  0072                     ??_PORT_Choose_Mux:	
   416                           ; 1 bytes @ 0x2
   417                           
   418  0072                     ??_PORT_Start_ADC:	
   419                           ; 1 bytes @ 0x2
   420                           
   421  0072                     ??_PORT_Get_Value_Adc:	
   422                           ; 1 bytes @ 0x2
   423                           
   424  0072                     ??_PORT_Init_Serial:	
   425                           ; 1 bytes @ 0x2
   426                           
   427  0072                     ?___wmul:	
   428                           ; 1 bytes @ 0x2
   429                           
   430  0072                     PORT_Choose_Mux@_value:	
   431                           ; 2 bytes @ 0x2
   432                           
   433  0072                     ___wmul@multiplier:	
   434                           ; 1 bytes @ 0x2
   435                           
   436                           
   437                           ; 2 bytes @ 0x2
   438  0072                     	ds	1
   439  0073                     ??_ADC_GetValue:
   440  0073                     ADC_GetValue@channel:	
   441                           ; 1 bytes @ 0x3
   442                           
   443                           
   444                           ; 1 bytes @ 0x3
   445  0073                     	ds	1
   446  0074                     ___wmul@multiplicand:
   447                           
   448                           ; 2 bytes @ 0x4
   449  0074                     	ds	2
   450  0076                     ??___wmul:
   451  0076                     ___wmul@product:	
   452                           ; 1 bytes @ 0x6
   453                           
   454                           
   455                           ; 2 bytes @ 0x6
   456  0076                     	ds	2
   457  0078                     ?___xxtofl:
   458  0078                     ___xxtofl@val:	
   459                           ; 4 bytes @ 0x8
   460                           
   461                           
   462                           ; 4 bytes @ 0x8
   463  0078                     	ds	4
   464  007C                     ??_main:
   465                           
   466                           	psect	cstackBANK0
   467  0020                     __pcstackBANK0:	
   468                           ; 1 bytes @ 0xC
   469                           
   470  0020                     ??___xxtofl:
   471                           
   472                           ; 1 bytes @ 0x0
   473  0020                     	ds	4
   474  0024                     ___xxtofl@sign:
   475                           
   476                           ; 1 bytes @ 0x4
   477  0024                     	ds	1
   478  0025                     ___xxtofl@exp:
   479                           
   480                           ; 1 bytes @ 0x5
   481  0025                     	ds	1
   482  0026                     ___xxtofl@arg:
   483                           
   484                           ; 4 bytes @ 0x6
   485  0026                     	ds	4
   486  002A                     ?_Voltage_Value:
   487                           
   488                           ; 4 bytes @ 0xA
   489  002A                     	ds	4
   490  002E                     ??_Voltage_Value:
   491                           
   492                           ; 1 bytes @ 0xE
   493  002E                     	ds	2
   494  0030                     Voltage_Value@sensor:
   495                           
   496                           ; 1 bytes @ 0x10
   497  0030                     	ds	5
   498  0035                     main@sensor2:
   499                           
   500                           ; 1 bytes @ 0x15
   501  0035                     	ds	1
   502  0036                     main@sensor3:
   503                           
   504                           ; 1 bytes @ 0x16
   505  0036                     	ds	1
   506  0037                     main@sensor4:
   507                           
   508                           ; 1 bytes @ 0x17
   509  0037                     	ds	1
   510  0038                     main@sensor1:
   511                           
   512                           ; 1 bytes @ 0x18
   513  0038                     	ds	1
   514                           
   515                           	psect	maintext
   516  00D2                     __pmaintext:	
   517 ;;
   518 ;;Main: autosize = 0, tempsize = 0, incstack = 0, save=0
   519 ;;
   520 ;; *************** function _main *****************
   521 ;; Defined at:
   522 ;;		line 22 in file "main.c"
   523 ;; Parameters:    Size  Location     Type
   524 ;;		None
   525 ;; Auto vars:     Size  Location     Type
   526 ;;  Vs              4    0        float 
   527 ;;  F               4    0        float 
   528 ;;  Rc              4    0        float 
   529 ;;  sensor1         1   24[BANK0 ] volatile unsigned char 
   530 ;;  sensor4         1   23[BANK0 ] volatile unsigned char 
   531 ;;  sensor3         1   22[BANK0 ] volatile unsigned char 
   532 ;;  sensor2         1   21[BANK0 ] volatile unsigned char 
   533 ;; Return value:  Size  Location     Type
   534 ;;                  1    wreg      void 
   535 ;; Registers used:
   536 ;;		wreg, status,2, status,0, btemp+1, pclath, cstack
   537 ;; Tracked objects:
   538 ;;		On entry : B00/0
   539 ;;		On exit  : 0/0
   540 ;;		Unchanged: 0/0
   541 ;; Data sizes:     COMMON   BANK0   BANK1   BANK3   BANK2
   542 ;;      Params:         0       0       0       0       0
   543 ;;      Locals:         0       8       0       0       0
   544 ;;      Temps:          0       0       0       0       0
   545 ;;      Totals:         0       8       0       0       0
   546 ;;Total ram usage:        8 bytes
   547 ;; Hardware stack levels required when called:    3
   548 ;; This function calls:
   549 ;;		_ADC_GetValue
   550 ;;		_PORT_Blink_LED
   551 ;;		_PORT_Init
   552 ;;		_PORT_Select_Mux0
   553 ;;		_TIMER_init_timer1
   554 ;;		_Voltage_Value
   555 ;; This function is called by:
   556 ;;		Startup code after reset
   557 ;; This function uses a non-reentrant model
   558 ;;
   559                           
   560                           
   561                           ;psect for function _main
   562  00D2                     _main:
   563  00D2                     l1069:	
   564                           ;incstack = 0
   565                           ; Regs used in _main: [wreg+status,2+status,0+btemp+1+pclath+cstack]
   566                           
   567                           
   568                           ;main.c: 24:     volatile unsigned char sensor1, sensor2, sensor3, sensor4;;main.c: 28: 
      +                              float Rc,Vs,F;;main.c: 30:     PORT_Init();
   569  00D2  120A  118A  2124  120A  118A  	fcall	_PORT_Init
   570                           
   571                           ;main.c: 31:     TIMER_init_timer1();
   572  00D7  120A  118A  21EE  120A  118A  	fcall	_TIMER_init_timer1
   573  00DC                     l1071:
   574                           
   575                           ;main.c: 33:     PORT_Select_Mux0();
   576  00DC  120A  118A  2234  120A  118A  	fcall	_PORT_Select_Mux0
   577  00E1                     l1073:
   578  00E1  1283               	bcf	3,5	;RP0=0, select bank0
   579  00E2  1303               	bcf	3,6	;RP1=0, select bank0
   580  00E3  0839               	movf	_Fincompt1,w
   581  00E4  1D03               	btfss	3,2
   582  00E5  28E7               	goto	u521
   583  00E6  28E8               	goto	u520
   584  00E7                     u521:
   585  00E7  28E1               	goto	l1073
   586  00E8                     u520:
   587  00E8                     l1075:
   588                           
   589                           ;main.c: 38:         Fincompt1 = 0;
   590  00E8  01B9               	clrf	_Fincompt1
   591  00E9                     l1077:
   592                           
   593                           ;main.c: 39:         PORT_Blink_LED();
   594  00E9  120A  118A  2224  120A  118A  	fcall	_PORT_Blink_LED
   595  00EE                     l1079:
   596                           
   597                           ;main.c: 41:         sensor1 = ADC_GetValue(0);
   598  00EE  3000               	movlw	0
   599  00EF  120A  118A  2200  120A  118A  	fcall	_ADC_GetValue
   600  00F4  00FF               	movwf	btemp+1
   601  00F5  087F               	movf	btemp+1,w
   602  00F6  1283               	bcf	3,5	;RP0=0, select bank0
   603  00F7  1303               	bcf	3,6	;RP1=0, select bank0
   604  00F8  00B8               	movwf	main@sensor1	;volatile
   605  00F9                     l1081:
   606                           
   607                           ;main.c: 42:         sensor2 = ADC_GetValue(1);
   608  00F9  3001               	movlw	1
   609  00FA  120A  118A  2200  120A  118A  	fcall	_ADC_GetValue
   610  00FF  00FF               	movwf	btemp+1
   611  0100  087F               	movf	btemp+1,w
   612  0101  1283               	bcf	3,5	;RP0=0, select bank0
   613  0102  1303               	bcf	3,6	;RP1=0, select bank0
   614  0103  00B5               	movwf	main@sensor2	;volatile
   615  0104                     l1083:
   616                           
   617                           ;main.c: 43:         sensor3 = ADC_GetValue(2);
   618  0104  3002               	movlw	2
   619  0105  120A  118A  2200  120A  118A  	fcall	_ADC_GetValue
   620  010A  00FF               	movwf	btemp+1
   621  010B  087F               	movf	btemp+1,w
   622  010C  1283               	bcf	3,5	;RP0=0, select bank0
   623  010D  1303               	bcf	3,6	;RP1=0, select bank0
   624  010E  00B6               	movwf	main@sensor3	;volatile
   625  010F                     l1085:
   626                           
   627                           ;main.c: 44:         sensor4 = ADC_GetValue(3);
   628  010F  3003               	movlw	3
   629  0110  120A  118A  2200  120A  118A  	fcall	_ADC_GetValue
   630  0115  00FF               	movwf	btemp+1
   631  0116  087F               	movf	btemp+1,w
   632  0117  1283               	bcf	3,5	;RP0=0, select bank0
   633  0118  1303               	bcf	3,6	;RP1=0, select bank0
   634  0119  00B7               	movwf	main@sensor4	;volatile
   635  011A                     l1087:
   636  011A  0838               	movf	main@sensor1,w	;volatile
   637  011B  120A  118A  215D  120A  118A  	fcall	_Voltage_Value
   638  0120  28E1               	goto	l1073
   639  0121  120A  118A  280C   	ljmp	start
   640  0124                     __end_of_main:
   641                           
   642                           	psect	text1
   643  015D                     __ptext1:	
   644 ;; *************** function _Voltage_Value *****************
   645 ;; Defined at:
   646 ;;		line 105 in file "main.c"
   647 ;; Parameters:    Size  Location     Type
   648 ;;  sensor          1    wreg     unsigned char 
   649 ;; Auto vars:     Size  Location     Type
   650 ;;  sensor          1   16[BANK0 ] unsigned char 
   651 ;; Return value:  Size  Location     Type
   652 ;;                  4   10[BANK0 ] float 
   653 ;; Registers used:
   654 ;;		wreg, status,2, status,0, btemp+1, pclath, cstack
   655 ;; Tracked objects:
   656 ;;		On entry : 0/0
   657 ;;		On exit  : 0/0
   658 ;;		Unchanged: 0/0
   659 ;; Data sizes:     COMMON   BANK0   BANK1   BANK3   BANK2
   660 ;;      Params:         0       4       0       0       0
   661 ;;      Locals:         0       1       0       0       0
   662 ;;      Temps:          0       2       0       0       0
   663 ;;      Totals:         0       7       0       0       0
   664 ;;Total ram usage:        7 bytes
   665 ;; Hardware stack levels used:    1
   666 ;; Hardware stack levels required when called:    2
   667 ;; This function calls:
   668 ;;		___wmul
   669 ;;		___xxtofl
   670 ;; This function is called by:
   671 ;;		_main
   672 ;; This function uses a non-reentrant model
   673 ;;
   674                           
   675                           
   676                           ;psect for function _Voltage_Value
   677  015D                     _Voltage_Value:
   678                           
   679                           ;incstack = 0
   680                           ; Regs used in _Voltage_Value: [wreg+status,2+status,0+btemp+1+pclath+cstack]
   681                           ;Voltage_Value@sensor stored from wreg
   682  015D  1283               	bcf	3,5	;RP0=0, select bank0
   683  015E  1303               	bcf	3,6	;RP1=0, select bank0
   684  015F  00B0               	movwf	Voltage_Value@sensor
   685  0160                     l1065:
   686                           
   687                           ;main.c: 106:     return (sensor*(5/255));
   688  0160  3000               	movlw	0
   689  0161  00F4               	movwf	___wmul@multiplicand
   690  0162  00F5               	movwf	___wmul@multiplicand+1
   691  0163  0830               	movf	Voltage_Value@sensor,w
   692  0164  00AE               	movwf	??_Voltage_Value
   693  0165  01AF               	clrf	??_Voltage_Value+1
   694  0166  082E               	movf	??_Voltage_Value,w
   695  0167  00F2               	movwf	___wmul@multiplier
   696  0168  082F               	movf	??_Voltage_Value+1,w
   697  0169  00F3               	movwf	___wmul@multiplier+1
   698  016A  120A  118A  21B4  120A  118A  	fcall	___wmul
   699  016F  0872               	movf	?___wmul,w
   700  0170  00F8               	movwf	___xxtofl@val
   701  0171  0873               	movf	?___wmul+1,w
   702  0172  00F9               	movwf	___xxtofl@val+1
   703  0173  3000               	movlw	0
   704  0174  1BF9               	btfsc	___xxtofl@val+1,7
   705  0175  30FF               	movlw	255
   706  0176  00FA               	movwf	___xxtofl@val+2
   707  0177  00FB               	movwf	___xxtofl@val+3
   708  0178  3001               	movlw	1
   709  0179  120A  118A  2016  120A  118A  	fcall	___xxtofl
   710  017E  087B               	movf	?___xxtofl+3,w
   711  017F  1283               	bcf	3,5	;RP0=0, select bank0
   712  0180  1303               	bcf	3,6	;RP1=0, select bank0
   713  0181  00AD               	movwf	?_Voltage_Value+3
   714  0182  087A               	movf	?___xxtofl+2,w
   715  0183  00AC               	movwf	?_Voltage_Value+2
   716  0184  0879               	movf	?___xxtofl+1,w
   717  0185  00AB               	movwf	?_Voltage_Value+1
   718  0186  0878               	movf	?___xxtofl,w
   719  0187  00AA               	movwf	?_Voltage_Value
   720  0188                     l33:
   721  0188  0008               	return
   722  0189                     __end_of_Voltage_Value:
   723                           
   724                           	psect	text2
   725  0016                     __ptext2:	
   726 ;; *************** function ___xxtofl *****************
   727 ;; Defined at:
   728 ;;		line 10 in file "C:\Program Files\Microchip\xc8\v2.20\pic\sources\c90\common\xxtofl.c"
   729 ;; Parameters:    Size  Location     Type
   730 ;;  sign            1    wreg     unsigned char 
   731 ;;  val             4    8[COMMON] long 
   732 ;; Auto vars:     Size  Location     Type
   733 ;;  sign            1    4[BANK0 ] unsigned char 
   734 ;;  arg             4    6[BANK0 ] unsigned long 
   735 ;;  exp             1    5[BANK0 ] unsigned char 
   736 ;; Return value:  Size  Location     Type
   737 ;;                  4    8[COMMON] unsigned char 
   738 ;; Registers used:
   739 ;;		wreg, status,2, status,0, btemp+1
   740 ;; Tracked objects:
   741 ;;		On entry : 0/0
   742 ;;		On exit  : 0/0
   743 ;;		Unchanged: 0/0
   744 ;; Data sizes:     COMMON   BANK0   BANK1   BANK3   BANK2
   745 ;;      Params:         4       0       0       0       0
   746 ;;      Locals:         0       6       0       0       0
   747 ;;      Temps:          0       4       0       0       0
   748 ;;      Totals:         4      10       0       0       0
   749 ;;Total ram usage:       14 bytes
   750 ;; Hardware stack levels used:    1
   751 ;; Hardware stack levels required when called:    1
   752 ;; This function calls:
   753 ;;		Nothing
   754 ;; This function is called by:
   755 ;;		_Voltage_Value
   756 ;; This function uses a non-reentrant model
   757 ;;
   758                           
   759                           
   760                           ;psect for function ___xxtofl
   761  0016                     ___xxtofl:
   762                           
   763                           ;incstack = 0
   764                           ; Regs used in ___xxtofl: [wreg+status,2+status,0+btemp+1]
   765                           ;___xxtofl@sign stored from wreg
   766  0016  1283               	bcf	3,5	;RP0=0, select bank0
   767  0017  1303               	bcf	3,6	;RP1=0, select bank0
   768  0018  00A4               	movwf	___xxtofl@sign
   769  0019                     l951:
   770  0019  0824               	movf	___xxtofl@sign,w
   771  001A  1903               	btfsc	3,2
   772  001B  281D               	goto	u351
   773  001C  281E               	goto	u350
   774  001D                     u351:
   775  001D  2832               	goto	l957
   776  001E                     u350:
   777  001E                     l953:
   778  001E  1FFB               	btfss	___xxtofl@val+3,7
   779  001F  2821               	goto	u361
   780  0020  2822               	goto	u360
   781  0021                     u361:
   782  0021  2832               	goto	l957
   783  0022                     u360:
   784  0022                     l955:
   785  0022  0978               	comf	___xxtofl@val,w
   786  0023  00A6               	movwf	___xxtofl@arg
   787  0024  0979               	comf	___xxtofl@val+1,w
   788  0025  00A7               	movwf	___xxtofl@arg+1
   789  0026  097A               	comf	___xxtofl@val+2,w
   790  0027  00A8               	movwf	___xxtofl@arg+2
   791  0028  097B               	comf	___xxtofl@val+3,w
   792  0029  00A9               	movwf	___xxtofl@arg+3
   793  002A  0AA6               	incf	___xxtofl@arg,f
   794  002B  1903               	skipnz
   795  002C  0AA7               	incf	___xxtofl@arg+1,f
   796  002D  1903               	skipnz
   797  002E  0AA8               	incf	___xxtofl@arg+2,f
   798  002F  1903               	skipnz
   799  0030  0AA9               	incf	___xxtofl@arg+3,f
   800  0031  283A               	goto	l604
   801  0032                     l957:
   802  0032  087B               	movf	___xxtofl@val+3,w
   803  0033  00A9               	movwf	___xxtofl@arg+3
   804  0034  087A               	movf	___xxtofl@val+2,w
   805  0035  00A8               	movwf	___xxtofl@arg+2
   806  0036  0879               	movf	___xxtofl@val+1,w
   807  0037  00A7               	movwf	___xxtofl@arg+1
   808  0038  0878               	movf	___xxtofl@val,w
   809  0039  00A6               	movwf	___xxtofl@arg
   810  003A                     l604:
   811  003A  087B               	movf	___xxtofl@val+3,w
   812  003B  047A               	iorwf	___xxtofl@val+2,w
   813  003C  0479               	iorwf	___xxtofl@val+1,w
   814  003D  0478               	iorwf	___xxtofl@val,w
   815  003E  1D03               	skipz
   816  003F  2841               	goto	u371
   817  0040  2842               	goto	u370
   818  0041                     u371:
   819  0041  284B               	goto	l963
   820  0042                     u370:
   821  0042                     l959:
   822  0042  3000               	movlw	0
   823  0043  00FB               	movwf	?___xxtofl+3
   824  0044  3000               	movlw	0
   825  0045  00FA               	movwf	?___xxtofl+2
   826  0046  3000               	movlw	0
   827  0047  00F9               	movwf	?___xxtofl+1
   828  0048  3000               	movlw	0
   829  0049  00F8               	movwf	?___xxtofl
   830  004A  28D1               	goto	l606
   831  004B                     l963:
   832  004B  3096               	movlw	150
   833  004C  00FF               	movwf	btemp+1
   834  004D  087F               	movf	btemp+1,w
   835  004E  00A5               	movwf	___xxtofl@exp
   836  004F  285D               	goto	l969
   837  0050                     l965:
   838  0050  3001               	movlw	1
   839  0051  00FF               	movwf	btemp+1
   840  0052  087F               	movf	btemp+1,w
   841  0053  07A5               	addwf	___xxtofl@exp,f
   842  0054                     l967:
   843  0054  3001               	movlw	1
   844  0055                     u385:
   845  0055  1003               	clrc
   846  0056  0CA9               	rrf	___xxtofl@arg+3,f
   847  0057  0CA8               	rrf	___xxtofl@arg+2,f
   848  0058  0CA7               	rrf	___xxtofl@arg+1,f
   849  0059  0CA6               	rrf	___xxtofl@arg,f
   850  005A  3EFF               	addlw	-1
   851  005B  1D03               	skipz
   852  005C  2855               	goto	u385
   853  005D                     l969:
   854  005D  30FE               	movlw	254
   855  005E  0529               	andwf	___xxtofl@arg+3,w
   856  005F  1D03               	btfss	3,2
   857  0060  2862               	goto	u391
   858  0061  2863               	goto	u390
   859  0062                     u391:
   860  0062  2850               	goto	l965
   861  0063                     u390:
   862  0063  287F               	goto	l977
   863  0064                     l971:
   864  0064  3001               	movlw	1
   865  0065  00FF               	movwf	btemp+1
   866  0066  087F               	movf	btemp+1,w
   867  0067  07A5               	addwf	___xxtofl@exp,f
   868  0068                     l973:
   869  0068  3001               	movlw	1
   870  0069  07A6               	addwf	___xxtofl@arg,f
   871  006A  3000               	movlw	0
   872  006B  1803               	skipnc
   873  006C  3001               	movlw	1
   874  006D  07A7               	addwf	___xxtofl@arg+1,f
   875  006E  3000               	movlw	0
   876  006F  1803               	skipnc
   877  0070  3001               	movlw	1
   878  0071  07A8               	addwf	___xxtofl@arg+2,f
   879  0072  3000               	movlw	0
   880  0073  1803               	skipnc
   881  0074  3001               	movlw	1
   882  0075  07A9               	addwf	___xxtofl@arg+3,f
   883  0076                     l975:
   884  0076  3001               	movlw	1
   885  0077                     u405:
   886  0077  1003               	clrc
   887  0078  0CA9               	rrf	___xxtofl@arg+3,f
   888  0079  0CA8               	rrf	___xxtofl@arg+2,f
   889  007A  0CA7               	rrf	___xxtofl@arg+1,f
   890  007B  0CA6               	rrf	___xxtofl@arg,f
   891  007C  3EFF               	addlw	-1
   892  007D  1D03               	skipz
   893  007E  2877               	goto	u405
   894  007F                     l977:
   895  007F  30FF               	movlw	255
   896  0080  0529               	andwf	___xxtofl@arg+3,w
   897  0081  1D03               	btfss	3,2
   898  0082  2884               	goto	u411
   899  0083  2885               	goto	u410
   900  0084                     u411:
   901  0084  2864               	goto	l971
   902  0085                     u410:
   903  0085  2891               	goto	l981
   904  0086                     l979:
   905  0086  3001               	movlw	1
   906  0087  02A5               	subwf	___xxtofl@exp,f
   907  0088  3001               	movlw	1
   908  0089  00A0               	movwf	??___xxtofl
   909  008A                     u425:
   910  008A  1003               	clrc
   911  008B  0DA6               	rlf	___xxtofl@arg,f
   912  008C  0DA7               	rlf	___xxtofl@arg+1,f
   913  008D  0DA8               	rlf	___xxtofl@arg+2,f
   914  008E  0DA9               	rlf	___xxtofl@arg+3,f
   915  008F  0BA0               	decfsz	??___xxtofl,f
   916  0090  288A               	goto	u425
   917  0091                     l981:
   918  0091  1BA8               	btfsc	___xxtofl@arg+2,7
   919  0092  2894               	goto	u431
   920  0093  2895               	goto	u430
   921  0094                     u431:
   922  0094  289B               	goto	l617
   923  0095                     u430:
   924  0095                     l983:
   925  0095  3002               	movlw	2
   926  0096  0225               	subwf	___xxtofl@exp,w
   927  0097  1803               	skipnc
   928  0098  289A               	goto	u441
   929  0099  289B               	goto	u440
   930  009A                     u441:
   931  009A  2886               	goto	l979
   932  009B                     u440:
   933  009B                     l617:
   934  009B  1825               	btfsc	___xxtofl@exp,0
   935  009C  289E               	goto	u451
   936  009D  289F               	goto	u450
   937  009E                     u451:
   938  009E  28A7               	goto	l618
   939  009F                     u450:
   940  009F                     l985:
   941  009F  30FF               	movlw	255
   942  00A0  05A6               	andwf	___xxtofl@arg,f
   943  00A1  30FF               	movlw	255
   944  00A2  05A7               	andwf	___xxtofl@arg+1,f
   945  00A3  307F               	movlw	127
   946  00A4  05A8               	andwf	___xxtofl@arg+2,f
   947  00A5  30FF               	movlw	255
   948  00A6  05A9               	andwf	___xxtofl@arg+3,f
   949  00A7                     l618:
   950  00A7  1003               	clrc
   951  00A8  0CA5               	rrf	___xxtofl@exp,f
   952  00A9                     l987:
   953  00A9  0825               	movf	___xxtofl@exp,w
   954  00AA  00A0               	movwf	??___xxtofl
   955  00AB  01A1               	clrf	??___xxtofl+1
   956  00AC  01A2               	clrf	??___xxtofl+2
   957  00AD  01A3               	clrf	??___xxtofl+3
   958  00AE  3018               	movlw	24
   959  00AF                     u465:
   960  00AF  1003               	clrc
   961  00B0  0DA0               	rlf	??___xxtofl,f
   962  00B1  0DA1               	rlf	??___xxtofl+1,f
   963  00B2  0DA2               	rlf	??___xxtofl+2,f
   964  00B3  0DA3               	rlf	??___xxtofl+3,f
   965  00B4                     u460:
   966  00B4  3EFF               	addlw	-1
   967  00B5  1D03               	skipz
   968  00B6  28AF               	goto	u465
   969  00B7  0820               	movf	??___xxtofl,w
   970  00B8  04A6               	iorwf	___xxtofl@arg,f
   971  00B9  0821               	movf	??___xxtofl+1,w
   972  00BA  04A7               	iorwf	___xxtofl@arg+1,f
   973  00BB  0822               	movf	??___xxtofl+2,w
   974  00BC  04A8               	iorwf	___xxtofl@arg+2,f
   975  00BD  0823               	movf	??___xxtofl+3,w
   976  00BE  04A9               	iorwf	___xxtofl@arg+3,f
   977  00BF                     l989:
   978  00BF  0824               	movf	___xxtofl@sign,w
   979  00C0  1903               	btfsc	3,2
   980  00C1  28C3               	goto	u471
   981  00C2  28C4               	goto	u470
   982  00C3                     u471:
   983  00C3  28C9               	goto	l995
   984  00C4                     u470:
   985  00C4                     l991:
   986  00C4  1FFB               	btfss	___xxtofl@val+3,7
   987  00C5  28C7               	goto	u481
   988  00C6  28C8               	goto	u480
   989  00C7                     u481:
   990  00C7  28C9               	goto	l995
   991  00C8                     u480:
   992  00C8                     l993:
   993  00C8  17A9               	bsf	___xxtofl@arg+3,7
   994  00C9                     l995:
   995  00C9  0829               	movf	___xxtofl@arg+3,w
   996  00CA  00FB               	movwf	?___xxtofl+3
   997  00CB  0828               	movf	___xxtofl@arg+2,w
   998  00CC  00FA               	movwf	?___xxtofl+2
   999  00CD  0827               	movf	___xxtofl@arg+1,w
  1000  00CE  00F9               	movwf	?___xxtofl+1
  1001  00CF  0826               	movf	___xxtofl@arg,w
  1002  00D0  00F8               	movwf	?___xxtofl
  1003  00D1                     l606:
  1004  00D1  0008               	return
  1005  00D2                     __end_of___xxtofl:
  1006                           
  1007                           	psect	text3
  1008  01B4                     __ptext3:	
  1009 ;; *************** function ___wmul *****************
  1010 ;; Defined at:
  1011 ;;		line 15 in file "C:\Program Files\Microchip\xc8\v2.20\pic\sources\c90\common\Umul16.c"
  1012 ;; Parameters:    Size  Location     Type
  1013 ;;  multiplier      2    2[COMMON] unsigned int 
  1014 ;;  multiplicand    2    4[COMMON] unsigned int 
  1015 ;; Auto vars:     Size  Location     Type
  1016 ;;  product         2    6[COMMON] unsigned int 
  1017 ;; Return value:  Size  Location     Type
  1018 ;;                  2    2[COMMON] unsigned int 
  1019 ;; Registers used:
  1020 ;;		wreg, status,2, status,0
  1021 ;; Tracked objects:
  1022 ;;		On entry : 0/0
  1023 ;;		On exit  : 0/0
  1024 ;;		Unchanged: 0/0
  1025 ;; Data sizes:     COMMON   BANK0   BANK1   BANK3   BANK2
  1026 ;;      Params:         4       0       0       0       0
  1027 ;;      Locals:         2       0       0       0       0
  1028 ;;      Temps:          0       0       0       0       0
  1029 ;;      Totals:         6       0       0       0       0
  1030 ;;Total ram usage:        6 bytes
  1031 ;; Hardware stack levels used:    1
  1032 ;; Hardware stack levels required when called:    1
  1033 ;; This function calls:
  1034 ;;		Nothing
  1035 ;; This function is called by:
  1036 ;;		_Voltage_Value
  1037 ;; This function uses a non-reentrant model
  1038 ;;
  1039                           
  1040                           
  1041                           ;psect for function ___wmul
  1042  01B4                     ___wmul:
  1043  01B4                     l937:	
  1044                           ;incstack = 0
  1045                           ; Regs used in ___wmul: [wreg+status,2+status,0]
  1046                           
  1047  01B4  01F6               	clrf	___wmul@product
  1048  01B5  01F7               	clrf	___wmul@product+1
  1049  01B6                     l939:
  1050  01B6  1C72               	btfss	___wmul@multiplier,0
  1051  01B7  29B9               	goto	u311
  1052  01B8  29BA               	goto	u310
  1053  01B9                     u311:
  1054  01B9  29C0               	goto	l171
  1055  01BA                     u310:
  1056  01BA                     l941:
  1057  01BA  0874               	movf	___wmul@multiplicand,w
  1058  01BB  07F6               	addwf	___wmul@product,f
  1059  01BC  1803               	skipnc
  1060  01BD  0AF7               	incf	___wmul@product+1,f
  1061  01BE  0875               	movf	___wmul@multiplicand+1,w
  1062  01BF  07F7               	addwf	___wmul@product+1,f
  1063  01C0                     l171:
  1064  01C0  3001               	movlw	1
  1065  01C1                     u325:
  1066  01C1  1003               	clrc
  1067  01C2  0DF4               	rlf	___wmul@multiplicand,f
  1068  01C3  0DF5               	rlf	___wmul@multiplicand+1,f
  1069  01C4  3EFF               	addlw	-1
  1070  01C5  1D03               	skipz
  1071  01C6  29C1               	goto	u325
  1072  01C7                     l943:
  1073  01C7  3001               	movlw	1
  1074  01C8                     u335:
  1075  01C8  1003               	clrc
  1076  01C9  0CF3               	rrf	___wmul@multiplier+1,f
  1077  01CA  0CF2               	rrf	___wmul@multiplier,f
  1078  01CB  3EFF               	addlw	-1
  1079  01CC  1D03               	skipz
  1080  01CD  29C8               	goto	u335
  1081  01CE                     l945:
  1082  01CE  0872               	movf	___wmul@multiplier,w
  1083  01CF  0473               	iorwf	___wmul@multiplier+1,w
  1084  01D0  1D03               	btfss	3,2
  1085  01D1  29D3               	goto	u341
  1086  01D2  29D4               	goto	u340
  1087  01D3                     u341:
  1088  01D3  29B6               	goto	l939
  1089  01D4                     u340:
  1090  01D4                     l947:
  1091  01D4  0877               	movf	___wmul@product+1,w
  1092  01D5  00F3               	movwf	?___wmul+1
  1093  01D6  0876               	movf	___wmul@product,w
  1094  01D7  00F2               	movwf	?___wmul
  1095  01D8                     l173:
  1096  01D8  0008               	return
  1097  01D9                     __end_of___wmul:
  1098                           
  1099                           	psect	text4
  1100  01EE                     __ptext4:	
  1101 ;; *************** function _TIMER_init_timer1 *****************
  1102 ;; Defined at:
  1103 ;;		line 8 in file "timer.c"
  1104 ;; Parameters:    Size  Location     Type
  1105 ;;		None
  1106 ;; Auto vars:     Size  Location     Type
  1107 ;;		None
  1108 ;; Return value:  Size  Location     Type
  1109 ;;                  1    wreg      void 
  1110 ;; Registers used:
  1111 ;;		wreg
  1112 ;; Tracked objects:
  1113 ;;		On entry : 0/0
  1114 ;;		On exit  : 0/0
  1115 ;;		Unchanged: 0/0
  1116 ;; Data sizes:     COMMON   BANK0   BANK1   BANK3   BANK2
  1117 ;;      Params:         0       0       0       0       0
  1118 ;;      Locals:         0       0       0       0       0
  1119 ;;      Temps:          0       0       0       0       0
  1120 ;;      Totals:         0       0       0       0       0
  1121 ;;Total ram usage:        0 bytes
  1122 ;; Hardware stack levels used:    1
  1123 ;; Hardware stack levels required when called:    1
  1124 ;; This function calls:
  1125 ;;		Nothing
  1126 ;; This function is called by:
  1127 ;;		_main
  1128 ;; This function uses a non-reentrant model
  1129 ;;
  1130                           
  1131                           
  1132                           ;psect for function _TIMER_init_timer1
  1133  01EE                     _TIMER_init_timer1:
  1134  01EE                     l1031:	
  1135                           ;incstack = 0
  1136                           ; Regs used in _TIMER_init_timer1: [wreg]
  1137                           
  1138                           
  1139                           ;timer.c: 10:     TMRA = 65535-5000;
  1140  01EE  3077               	movlw	119
  1141  01EF  1283               	bcf	3,5	;RP0=0, select bank2
  1142  01F0  1703               	bsf	3,6	;RP1=1, select bank2
  1143  01F1  0090               	movwf	16	;volatile
  1144  01F2                     l1033:
  1145                           
  1146                           ;timer.c: 24:     T1OSCEN=0;
  1147  01F2  1283               	bcf	3,5	;RP0=0, select bank0
  1148  01F3  1303               	bcf	3,6	;RP1=0, select bank0
  1149  01F4  1190               	bcf	16,3	;volatile
  1150  01F5                     l1035:
  1151                           
  1152                           ;timer.c: 36:     TMRCS1=0;
  1153  01F5  1390               	bcf	16,7	;volatile
  1154  01F6                     l1037:
  1155                           
  1156                           ;timer.c: 37:     TMRCS0=0;
  1157  01F6  1310               	bcf	16,6	;volatile
  1158  01F7                     l1039:
  1159                           
  1160                           ;timer.c: 46:     T1CKPS0=1;
  1161  01F7  1610               	bsf	16,4	;volatile
  1162  01F8                     l1041:
  1163                           
  1164                           ;timer.c: 47:     T1CKPS1=1;
  1165  01F8  1690               	bsf	16,5	;volatile
  1166  01F9                     l1043:
  1167                           
  1168                           ;timer.c: 56:     T1SYNC=1;
  1169  01F9  1510               	bsf	16,2	;volatile
  1170  01FA                     l1045:
  1171                           
  1172                           ;timer.c: 62:     TMR1ON=1;
  1173  01FA  1410               	bsf	16,0	;volatile
  1174  01FB                     l1047:
  1175                           
  1176                           ;timer.c: 71:     TMR1GE=0;
  1177  01FB  1683               	bsf	3,5	;RP0=1, select bank1
  1178  01FC  1303               	bcf	3,6	;RP1=0, select bank1
  1179  01FD  138F               	bcf	15,7	;volatile
  1180  01FE                     l1049:
  1181                           
  1182                           ;timer.c: 75:     TMR1IE=1;
  1183  01FE  140C               	bsf	12,0	;volatile
  1184  01FF                     l160:
  1185  01FF  0008               	return
  1186  0200                     __end_of_TIMER_init_timer1:
  1187                           
  1188                           	psect	text5
  1189  0234                     __ptext5:	
  1190 ;; *************** function _PORT_Select_Mux0 *****************
  1191 ;; Defined at:
  1192 ;;		line 149 in file "port.c"
  1193 ;; Parameters:    Size  Location     Type
  1194 ;;		None
  1195 ;; Auto vars:     Size  Location     Type
  1196 ;;		None
  1197 ;; Return value:  Size  Location     Type
  1198 ;;                  1    wreg      void 
  1199 ;; Registers used:
  1200 ;;		wreg, status,2, status,0, btemp+1
  1201 ;; Tracked objects:
  1202 ;;		On entry : 0/0
  1203 ;;		On exit  : 0/0
  1204 ;;		Unchanged: 0/0
  1205 ;; Data sizes:     COMMON   BANK0   BANK1   BANK3   BANK2
  1206 ;;      Params:         0       0       0       0       0
  1207 ;;      Locals:         0       0       0       0       0
  1208 ;;      Temps:          0       0       0       0       0
  1209 ;;      Totals:         0       0       0       0       0
  1210 ;;Total ram usage:        0 bytes
  1211 ;; Hardware stack levels used:    1
  1212 ;; Hardware stack levels required when called:    1
  1213 ;; This function calls:
  1214 ;;		Nothing
  1215 ;; This function is called by:
  1216 ;;		_main
  1217 ;; This function uses a non-reentrant model
  1218 ;;
  1219                           
  1220                           
  1221                           ;psect for function _PORT_Select_Mux0
  1222  0234                     _PORT_Select_Mux0:
  1223  0234                     l1051:	
  1224                           ;incstack = 0
  1225                           ; Regs used in _PORT_Select_Mux0: [wreg+status,2+status,0+btemp+1]
  1226                           
  1227                           
  1228                           ;port.c: 150:     PORTD |= 0x20;
  1229  0234  1283               	bcf	3,5	;RP0=0, select bank0
  1230  0235  1303               	bcf	3,6	;RP1=0, select bank0
  1231  0236  1688               	bsf	8,5	;volatile
  1232  0237                     l1053:
  1233                           
  1234                           ;port.c: 151:     PORTD &= 0xEF;
  1235  0237  30EF               	movlw	239
  1236  0238  00FF               	movwf	btemp+1
  1237  0239  087F               	movf	btemp+1,w
  1238  023A  0588               	andwf	8,f	;volatile
  1239  023B                     l128:
  1240  023B  0008               	return
  1241  023C                     __end_of_PORT_Select_Mux0:
  1242                           
  1243                           	psect	text6
  1244  0124                     __ptext6:	
  1245 ;; *************** function _PORT_Init *****************
  1246 ;; Defined at:
  1247 ;;		line 44 in file "port.c"
  1248 ;; Parameters:    Size  Location     Type
  1249 ;;		None
  1250 ;; Auto vars:     Size  Location     Type
  1251 ;;		None
  1252 ;; Return value:  Size  Location     Type
  1253 ;;                  1    wreg      void 
  1254 ;; Registers used:
  1255 ;;		wreg, status,2, status,0, pclath, cstack
  1256 ;; Tracked objects:
  1257 ;;		On entry : 0/0
  1258 ;;		On exit  : 0/0
  1259 ;;		Unchanged: 0/0
  1260 ;; Data sizes:     COMMON   BANK0   BANK1   BANK3   BANK2
  1261 ;;      Params:         0       0       0       0       0
  1262 ;;      Locals:         0       0       0       0       0
  1263 ;;      Temps:          1       0       0       0       0
  1264 ;;      Totals:         1       0       0       0       0
  1265 ;;Total ram usage:        1 bytes
  1266 ;; Hardware stack levels used:    1
  1267 ;; Hardware stack levels required when called:    2
  1268 ;; This function calls:
  1269 ;;		_PORT_Init_Serial
  1270 ;; This function is called by:
  1271 ;;		_main
  1272 ;; This function uses a non-reentrant model
  1273 ;;
  1274                           
  1275                           
  1276                           ;psect for function _PORT_Init
  1277  0124                     _PORT_Init:
  1278  0124                     l999:	
  1279                           ;incstack = 0
  1280                           ; Regs used in _PORT_Init: [wreg+status,2+status,0+pclath+cstack]
  1281                           
  1282                           
  1283                           ;port.c: 47:     WPUB=0;
  1284  0124  1683               	bsf	3,5	;RP0=1, select bank1
  1285  0125  1303               	bcf	3,6	;RP1=0, select bank1
  1286  0126  0195               	clrf	21	;volatile
  1287                           
  1288                           ;port.c: 48:     ANSELB = 0;
  1289  0127  1683               	bsf	3,5	;RP0=1, select bank3
  1290  0128  1703               	bsf	3,6	;RP1=1, select bank3
  1291  0129  0186               	clrf	6	;volatile
  1292  012A                     l1001:
  1293                           
  1294                           ;port.c: 51:     TRISB = 0xFE;
  1295  012A  30FE               	movlw	254
  1296  012B  1683               	bsf	3,5	;RP0=1, select bank1
  1297  012C  1303               	bcf	3,6	;RP1=0, select bank1
  1298  012D  0086               	movwf	6	;volatile
  1299  012E                     l1003:
  1300                           
  1301                           ;port.c: 54:     OSCCON = 0x30;
  1302  012E  3030               	movlw	48
  1303  012F  0090               	movwf	16	;volatile
  1304  0130                     l1005:	
  1305                           ;port.c: 55:     for( ; (OSCCON & 0xC) != 0xC ; );
  1306                           
  1307  0130  300C               	movlw	12
  1308  0131  0510               	andwf	16,w	;volatile
  1309  0132  00F2               	movwf	??_PORT_Init
  1310  0133  300C               	movlw	12
  1311  0134  0672               	xorwf	??_PORT_Init,w
  1312  0135  1D03               	btfss	3,2
  1313  0136  2938               	goto	u491
  1314  0137  2939               	goto	u490
  1315  0138                     u491:
  1316  0138  2930               	goto	l1005
  1317  0139                     u490:
  1318  0139                     l1007:
  1319                           
  1320                           ;port.c: 59:     ANSELD = 0x00;
  1321  0139  1683               	bsf	3,5	;RP0=1, select bank3
  1322  013A  1703               	bsf	3,6	;RP1=1, select bank3
  1323  013B  0188               	clrf	8	;volatile
  1324  013C                     l1009:
  1325                           
  1326                           ;port.c: 62:     TRISA = 0xFF;
  1327  013C  30FF               	movlw	255
  1328  013D  1683               	bsf	3,5	;RP0=1, select bank1
  1329  013E  1303               	bcf	3,6	;RP1=0, select bank1
  1330  013F  0085               	movwf	5	;volatile
  1331  0140                     l1011:
  1332                           
  1333                           ;port.c: 64:     TRISD = 0xC0;
  1334  0140  30C0               	movlw	192
  1335  0141  0088               	movwf	8	;volatile
  1336  0142                     l1013:
  1337                           
  1338                           ;port.c: 66:     PORT_Init_Serial();
  1339  0142  120A  118A  2189  120A  118A  	fcall	_PORT_Init_Serial
  1340  0147                     l1015:
  1341                           
  1342                           ;port.c: 68:     ANSELA = 0x01;
  1343  0147  3001               	movlw	1
  1344  0148  1683               	bsf	3,5	;RP0=1, select bank3
  1345  0149  1703               	bsf	3,6	;RP1=1, select bank3
  1346  014A  0085               	movwf	5	;volatile
  1347  014B                     l1017:
  1348                           
  1349                           ;port.c: 70:     ADCON0=0x01;
  1350  014B  3001               	movlw	1
  1351  014C  1283               	bcf	3,5	;RP0=0, select bank0
  1352  014D  1303               	bcf	3,6	;RP1=0, select bank0
  1353  014E  009F               	movwf	31	;volatile
  1354  014F                     l1019:
  1355                           
  1356                           ;port.c: 71:     ADCON1=0x60;
  1357  014F  3060               	movlw	96
  1358  0150  1683               	bsf	3,5	;RP0=1, select bank1
  1359  0151  1303               	bcf	3,6	;RP1=0, select bank1
  1360  0152  009F               	movwf	31	;volatile
  1361  0153                     l1021:
  1362                           
  1363                           ;port.c: 73:     FVRCON=0;
  1364  0153  019D               	clrf	29	;volatile
  1365  0154                     l1023:
  1366                           
  1367                           ;port.c: 74:     DACCON0=0x0;
  1368  0154  1283               	bcf	3,5	;RP0=0, select bank2
  1369  0155  1703               	bsf	3,6	;RP1=1, select bank2
  1370  0156  0193               	clrf	19	;volatile
  1371  0157                     l1025:
  1372                           
  1373                           ;port.c: 75:     DACCON0=0x60;
  1374  0157  3060               	movlw	96
  1375  0158  0093               	movwf	19	;volatile
  1376  0159                     l1027:
  1377                           
  1378                           ;port.c: 76:     DACCON0|=0x80;
  1379  0159  1793               	bsf	19,7	;volatile
  1380  015A                     l1029:
  1381                           
  1382                           ;port.c: 78:     DACCON1=0x18;
  1383  015A  3018               	movlw	24
  1384  015B  0094               	movwf	20	;volatile
  1385  015C                     l97:
  1386  015C  0008               	return
  1387  015D                     __end_of_PORT_Init:
  1388                           
  1389                           	psect	text7
  1390  0189                     __ptext7:	
  1391 ;; *************** function _PORT_Init_Serial *****************
  1392 ;; Defined at:
  1393 ;;		line 15 in file "port.c"
  1394 ;; Parameters:    Size  Location     Type
  1395 ;;		None
  1396 ;; Auto vars:     Size  Location     Type
  1397 ;;		None
  1398 ;; Return value:  Size  Location     Type
  1399 ;;                  1    wreg      void 
  1400 ;; Registers used:
  1401 ;;		wreg, status,2
  1402 ;; Tracked objects:
  1403 ;;		On entry : 0/0
  1404 ;;		On exit  : 0/0
  1405 ;;		Unchanged: 0/0
  1406 ;; Data sizes:     COMMON   BANK0   BANK1   BANK3   BANK2
  1407 ;;      Params:         0       0       0       0       0
  1408 ;;      Locals:         0       0       0       0       0
  1409 ;;      Temps:          0       0       0       0       0
  1410 ;;      Totals:         0       0       0       0       0
  1411 ;;Total ram usage:        0 bytes
  1412 ;; Hardware stack levels used:    1
  1413 ;; Hardware stack levels required when called:    1
  1414 ;; This function calls:
  1415 ;;		Nothing
  1416 ;; This function is called by:
  1417 ;;		_PORT_Init
  1418 ;; This function uses a non-reentrant model
  1419 ;;
  1420                           
  1421                           
  1422                           ;psect for function _PORT_Init_Serial
  1423  0189                     _PORT_Init_Serial:
  1424  0189                     l915:	
  1425                           ;incstack = 0
  1426                           ; Regs used in _PORT_Init_Serial: [wreg+status,2]
  1427                           
  1428                           
  1429                           ;port.c: 18:     TRISC = 0xFF;
  1430  0189  30FF               	movlw	255
  1431  018A  1683               	bsf	3,5	;RP0=1, select bank1
  1432  018B  1303               	bcf	3,6	;RP1=0, select bank1
  1433  018C  0087               	movwf	7	;volatile
  1434                           
  1435                           ;port.c: 21:     SPBRG = 25;
  1436  018D  3019               	movlw	25
  1437  018E  0099               	movwf	25	;volatile
  1438  018F                     l917:
  1439                           
  1440                           ;port.c: 25:     TXSTA = TXSTA & 0xDF;
  1441  018F  0818               	movf	24,w	;volatile
  1442  0190  39DF               	andlw	223
  1443  0191  0098               	movwf	24	;volatile
  1444  0192                     l919:
  1445                           
  1446                           ;port.c: 26:     TXSTA = TXSTA | 1;
  1447  0192  0818               	movf	24,w	;volatile
  1448  0193  3801               	iorlw	1
  1449  0194  0098               	movwf	24	;volatile
  1450  0195                     l921:
  1451                           
  1452                           ;port.c: 27:     TXSTA = TXSTA & 0xFB;
  1453  0195  0818               	movf	24,w	;volatile
  1454  0196  39FB               	andlw	251
  1455  0197  0098               	movwf	24	;volatile
  1456  0198                     l923:
  1457                           
  1458                           ;port.c: 30:     RCSTA = RCSTA | 0x20;
  1459  0198  1283               	bcf	3,5	;RP0=0, select bank0
  1460  0199  1303               	bcf	3,6	;RP1=0, select bank0
  1461  019A  0818               	movf	24,w	;volatile
  1462  019B  3820               	iorlw	32
  1463  019C  0098               	movwf	24	;volatile
  1464  019D                     l925:
  1465                           
  1466                           ;port.c: 31:     RCSTA = RCSTA & 0xDF;
  1467  019D  0818               	movf	24,w	;volatile
  1468  019E  39DF               	andlw	223
  1469  019F  0098               	movwf	24	;volatile
  1470  01A0                     l927:
  1471                           
  1472                           ;port.c: 32:     RCSTA = RCSTA | 0x04;
  1473  01A0  0818               	movf	24,w	;volatile
  1474  01A1  3804               	iorlw	4
  1475  01A2  0098               	movwf	24	;volatile
  1476  01A3                     l929:
  1477                           
  1478                           ;port.c: 33:     RCSTA = RCSTA | 0x02;
  1479  01A3  0818               	movf	24,w	;volatile
  1480  01A4  3802               	iorlw	2
  1481  01A5  0098               	movwf	24	;volatile
  1482  01A6                     l931:
  1483                           
  1484                           ;port.c: 35:     TXSTA = TXSTA & 0xEF;
  1485  01A6  1683               	bsf	3,5	;RP0=1, select bank1
  1486  01A7  1303               	bcf	3,6	;RP1=0, select bank1
  1487  01A8  0818               	movf	24,w	;volatile
  1488  01A9  39EF               	andlw	239
  1489  01AA  0098               	movwf	24	;volatile
  1490  01AB                     l933:
  1491                           
  1492                           ;port.c: 36:     TXSTA = TXSTA | 0x20;
  1493  01AB  0818               	movf	24,w	;volatile
  1494  01AC  3820               	iorlw	32
  1495  01AD  0098               	movwf	24	;volatile
  1496  01AE                     l935:
  1497                           
  1498                           ;port.c: 37:     RCSTA = RCSTA | 0x80;
  1499  01AE  1283               	bcf	3,5	;RP0=0, select bank0
  1500  01AF  1303               	bcf	3,6	;RP1=0, select bank0
  1501  01B0  0818               	movf	24,w	;volatile
  1502  01B1  3880               	iorlw	128
  1503  01B2  0098               	movwf	24	;volatile
  1504  01B3                     l91:
  1505  01B3  0008               	return
  1506  01B4                     __end_of_PORT_Init_Serial:
  1507                           
  1508                           	psect	text8
  1509  0224                     __ptext8:	
  1510 ;; *************** function _PORT_Blink_LED *****************
  1511 ;; Defined at:
  1512 ;;		line 84 in file "port.c"
  1513 ;; Parameters:    Size  Location     Type
  1514 ;;		None
  1515 ;; Auto vars:     Size  Location     Type
  1516 ;;		None
  1517 ;; Return value:  Size  Location     Type
  1518 ;;                  1    wreg      void 
  1519 ;; Registers used:
  1520 ;;		status,0
  1521 ;; Tracked objects:
  1522 ;;		On entry : 0/0
  1523 ;;		On exit  : 0/0
  1524 ;;		Unchanged: 0/0
  1525 ;; Data sizes:     COMMON   BANK0   BANK1   BANK3   BANK2
  1526 ;;      Params:         0       0       0       0       0
  1527 ;;      Locals:         0       0       0       0       0
  1528 ;;      Temps:          0       0       0       0       0
  1529 ;;      Totals:         0       0       0       0       0
  1530 ;;Total ram usage:        0 bytes
  1531 ;; Hardware stack levels used:    1
  1532 ;; Hardware stack levels required when called:    1
  1533 ;; This function calls:
  1534 ;;		Nothing
  1535 ;; This function is called by:
  1536 ;;		_main
  1537 ;; This function uses a non-reentrant model
  1538 ;;
  1539                           
  1540                           
  1541                           ;psect for function _PORT_Blink_LED
  1542  0224                     _PORT_Blink_LED:
  1543  0224                     l1055:	
  1544                           ;incstack = 0
  1545                           ; Regs used in _PORT_Blink_LED: [status,0]
  1546                           
  1547                           
  1548                           ;port.c: 85:     PORTBbits.RB0 = !PORTBbits.RB0;
  1549  0224  1003               	clrc
  1550  0225  1283               	bcf	3,5	;RP0=0, select bank0
  1551  0226  1303               	bcf	3,6	;RP1=0, select bank0
  1552  0227  1C06               	btfss	6,0	;volatile
  1553  0228  1403               	setc
  1554  0229  1803               	btfsc	3,0
  1555  022A  2A2C               	goto	u501
  1556  022B  2A30               	goto	u500
  1557  022C                     u501:
  1558  022C  1283               	bcf	3,5	;RP0=0, select bank0
  1559  022D  1303               	bcf	3,6	;RP1=0, select bank0
  1560  022E  1406               	bsf	6,0	;volatile
  1561  022F  2A33               	goto	u514
  1562  0230                     u500:
  1563  0230  1283               	bcf	3,5	;RP0=0, select bank0
  1564  0231  1303               	bcf	3,6	;RP1=0, select bank0
  1565  0232  1006               	bcf	6,0	;volatile
  1566  0233                     u514:
  1567  0233                     l100:
  1568  0233  0008               	return
  1569  0234                     __end_of_PORT_Blink_LED:
  1570                           
  1571                           	psect	text9
  1572  0200                     __ptext9:	
  1573 ;; *************** function _ADC_GetValue *****************
  1574 ;; Defined at:
  1575 ;;		line 16 in file "adc.c"
  1576 ;; Parameters:    Size  Location     Type
  1577 ;;  channel         1    wreg     unsigned char 
  1578 ;; Auto vars:     Size  Location     Type
  1579 ;;  channel         1    3[COMMON] unsigned char 
  1580 ;; Return value:  Size  Location     Type
  1581 ;;                  1    wreg      unsigned char 
  1582 ;; Registers used:
  1583 ;;		wreg, status,2, status,0, btemp+1, pclath, cstack
  1584 ;; Tracked objects:
  1585 ;;		On entry : 0/0
  1586 ;;		On exit  : 0/0
  1587 ;;		Unchanged: 0/0
  1588 ;; Data sizes:     COMMON   BANK0   BANK1   BANK3   BANK2
  1589 ;;      Params:         0       0       0       0       0
  1590 ;;      Locals:         1       0       0       0       0
  1591 ;;      Temps:          0       0       0       0       0
  1592 ;;      Totals:         1       0       0       0       0
  1593 ;;Total ram usage:        1 bytes
  1594 ;; Hardware stack levels used:    1
  1595 ;; Hardware stack levels required when called:    2
  1596 ;; This function calls:
  1597 ;;		_PORT_Choose_Mux
  1598 ;;		_PORT_Get_Value_Adc
  1599 ;;		_PORT_Start_ADC
  1600 ;; This function is called by:
  1601 ;;		_main
  1602 ;; This function uses a non-reentrant model
  1603 ;;
  1604                           
  1605                           
  1606                           ;psect for function _ADC_GetValue
  1607  0200                     _ADC_GetValue:
  1608                           
  1609                           ;incstack = 0
  1610                           ; Regs used in _ADC_GetValue: [wreg+status,2+status,0+btemp+1+pclath+cstack]
  1611                           ;ADC_GetValue@channel stored from wreg
  1612  0200  00F3               	movwf	ADC_GetValue@channel
  1613  0201                     l1057:
  1614                           
  1615                           ;adc.c: 18:     PORT_Choose_Mux(channel);
  1616  0201  0873               	movf	ADC_GetValue@channel,w
  1617  0202  120A  118A  2212  120A  118A  	fcall	_PORT_Choose_Mux
  1618  0207                     l1059:
  1619                           
  1620                           ;adc.c: 19:     PORT_Start_ADC();
  1621  0207  120A  118A  223C  120A  118A  	fcall	_PORT_Start_ADC
  1622  020C                     l1061:
  1623                           
  1624                           ;adc.c: 20:     return PORT_Get_Value_Adc();
  1625  020C  120A  118A  2244  120A  118A  	fcall	_PORT_Get_Value_Adc
  1626  0211                     l42:
  1627  0211  0008               	return
  1628  0212                     __end_of_ADC_GetValue:
  1629                           
  1630                           	psect	text10
  1631  023C                     __ptext10:	
  1632 ;; *************** function _PORT_Start_ADC *****************
  1633 ;; Defined at:
  1634 ;;		line 104 in file "port.c"
  1635 ;; Parameters:    Size  Location     Type
  1636 ;;		None
  1637 ;; Auto vars:     Size  Location     Type
  1638 ;;		None
  1639 ;; Return value:  Size  Location     Type
  1640 ;;                  1    wreg      void 
  1641 ;; Registers used:
  1642 ;;		None
  1643 ;; Tracked objects:
  1644 ;;		On entry : 0/0
  1645 ;;		On exit  : 0/0
  1646 ;;		Unchanged: 0/0
  1647 ;; Data sizes:     COMMON   BANK0   BANK1   BANK3   BANK2
  1648 ;;      Params:         0       0       0       0       0
  1649 ;;      Locals:         0       0       0       0       0
  1650 ;;      Temps:          0       0       0       0       0
  1651 ;;      Totals:         0       0       0       0       0
  1652 ;;Total ram usage:        0 bytes
  1653 ;; Hardware stack levels used:    1
  1654 ;; Hardware stack levels required when called:    1
  1655 ;; This function calls:
  1656 ;;		Nothing
  1657 ;; This function is called by:
  1658 ;;		_ADC_GetValue
  1659 ;; This function uses a non-reentrant model
  1660 ;;
  1661                           
  1662                           
  1663                           ;psect for function _PORT_Start_ADC
  1664  023C                     _PORT_Start_ADC:
  1665  023C                     l909:	
  1666                           ;incstack = 0
  1667                           ; Regs used in _PORT_Start_ADC: []
  1668                           
  1669                           
  1670                           ;port.c: 105:     GO_nDONE=1;
  1671  023C  1283               	bcf	3,5	;RP0=0, select bank0
  1672  023D  1303               	bcf	3,6	;RP1=0, select bank0
  1673  023E  149F               	bsf	31,1	;volatile
  1674  023F                     l107:	
  1675                           ;port.c: 106:     while(GO_nDONE);
  1676                           
  1677  023F  189F               	btfsc	31,1	;volatile
  1678  0240  2A42               	goto	u301
  1679  0241  2A43               	goto	u300
  1680  0242                     u301:
  1681  0242  2A3F               	goto	l107
  1682  0243                     u300:
  1683  0243                     l110:
  1684  0243  0008               	return
  1685  0244                     __end_of_PORT_Start_ADC:
  1686                           
  1687                           	psect	text11
  1688  0244                     __ptext11:	
  1689 ;; *************** function _PORT_Get_Value_Adc *****************
  1690 ;; Defined at:
  1691 ;;		line 118 in file "port.c"
  1692 ;; Parameters:    Size  Location     Type
  1693 ;;		None
  1694 ;; Auto vars:     Size  Location     Type
  1695 ;;		None
  1696 ;; Return value:  Size  Location     Type
  1697 ;;                  1    wreg      unsigned char 
  1698 ;; Registers used:
  1699 ;;		wreg
  1700 ;; Tracked objects:
  1701 ;;		On entry : 0/0
  1702 ;;		On exit  : 0/0
  1703 ;;		Unchanged: 0/0
  1704 ;; Data sizes:     COMMON   BANK0   BANK1   BANK3   BANK2
  1705 ;;      Params:         0       0       0       0       0
  1706 ;;      Locals:         0       0       0       0       0
  1707 ;;      Temps:          0       0       0       0       0
  1708 ;;      Totals:         0       0       0       0       0
  1709 ;;Total ram usage:        0 bytes
  1710 ;; Hardware stack levels used:    1
  1711 ;; Hardware stack levels required when called:    1
  1712 ;; This function calls:
  1713 ;;		Nothing
  1714 ;; This function is called by:
  1715 ;;		_ADC_GetValue
  1716 ;; This function uses a non-reentrant model
  1717 ;;
  1718                           
  1719                           
  1720                           ;psect for function _PORT_Get_Value_Adc
  1721  0244                     _PORT_Get_Value_Adc:
  1722  0244                     l911:	
  1723                           ;incstack = 0
  1724                           ; Regs used in _PORT_Get_Value_Adc: [wreg]
  1725                           
  1726                           
  1727                           ;port.c: 119:     return ADRES;
  1728  0244  1283               	bcf	3,5	;RP0=0, select bank0
  1729  0245  1303               	bcf	3,6	;RP1=0, select bank0
  1730  0246  081E               	movf	30,w	;volatile
  1731  0247                     l113:
  1732  0247  0008               	return
  1733  0248                     __end_of_PORT_Get_Value_Adc:
  1734                           
  1735                           	psect	text12
  1736  0212                     __ptext12:	
  1737 ;; *************** function _PORT_Choose_Mux *****************
  1738 ;; Defined at:
  1739 ;;		line 94 in file "port.c"
  1740 ;; Parameters:    Size  Location     Type
  1741 ;;  _value          1    wreg     unsigned char 
  1742 ;; Auto vars:     Size  Location     Type
  1743 ;;  _value          1    2[COMMON] unsigned char 
  1744 ;; Return value:  Size  Location     Type
  1745 ;;                  1    wreg      void 
  1746 ;; Registers used:
  1747 ;;		wreg, status,2, status,0, btemp+1
  1748 ;; Tracked objects:
  1749 ;;		On entry : 0/0
  1750 ;;		On exit  : 0/0
  1751 ;;		Unchanged: 0/0
  1752 ;; Data sizes:     COMMON   BANK0   BANK1   BANK3   BANK2
  1753 ;;      Params:         0       0       0       0       0
  1754 ;;      Locals:         1       0       0       0       0
  1755 ;;      Temps:          0       0       0       0       0
  1756 ;;      Totals:         1       0       0       0       0
  1757 ;;Total ram usage:        1 bytes
  1758 ;; Hardware stack levels used:    1
  1759 ;; Hardware stack levels required when called:    1
  1760 ;; This function calls:
  1761 ;;		Nothing
  1762 ;; This function is called by:
  1763 ;;		_ADC_GetValue
  1764 ;; This function uses a non-reentrant model
  1765 ;;
  1766                           
  1767                           
  1768                           ;psect for function _PORT_Choose_Mux
  1769  0212                     _PORT_Choose_Mux:
  1770                           
  1771                           ;incstack = 0
  1772                           ; Regs used in _PORT_Choose_Mux: [wreg+status,2+status,0+btemp+1]
  1773                           ;PORT_Choose_Mux@_value stored from wreg
  1774  0212  00F2               	movwf	PORT_Choose_Mux@_value
  1775  0213                     l905:
  1776                           
  1777                           ;port.c: 95:     if (_value <= 0x0F) {
  1778  0213  3010               	movlw	16
  1779  0214  0272               	subwf	PORT_Choose_Mux@_value,w
  1780  0215  1803               	skipnc
  1781  0216  2A18               	goto	u291
  1782  0217  2A19               	goto	u290
  1783  0218                     u291:
  1784  0218  2A23               	goto	l104
  1785  0219                     u290:
  1786  0219                     l907:
  1787                           
  1788                           ;port.c: 96:         PORTD &= 0xF0;
  1789  0219  30F0               	movlw	240
  1790  021A  00FF               	movwf	btemp+1
  1791  021B  087F               	movf	btemp+1,w
  1792  021C  1283               	bcf	3,5	;RP0=0, select bank0
  1793  021D  1303               	bcf	3,6	;RP1=0, select bank0
  1794  021E  0588               	andwf	8,f	;volatile
  1795                           
  1796                           ;port.c: 97:         PORTD |= _value;
  1797  021F  0872               	movf	PORT_Choose_Mux@_value,w	;volatile
  1798  0220  00FF               	movwf	btemp+1
  1799  0221  087F               	movf	btemp+1,w
  1800  0222  0488               	iorwf	8,f	;volatile
  1801  0223                     l104:
  1802  0223  0008               	return
  1803  0224                     __end_of_PORT_Choose_Mux:
  1804                           
  1805                           	psect	text13
  1806  01D9                     __ptext13:	
  1807 ;; *************** function _isr *****************
  1808 ;; Defined at:
  1809 ;;		line 78 in file "timer.c"
  1810 ;; Parameters:    Size  Location     Type
  1811 ;;		None
  1812 ;; Auto vars:     Size  Location     Type
  1813 ;;		None
  1814 ;; Return value:  Size  Location     Type
  1815 ;;                  1    wreg      void 
  1816 ;; Registers used:
  1817 ;;		None
  1818 ;; Tracked objects:
  1819 ;;		On entry : 0/0
  1820 ;;		On exit  : 0/0
  1821 ;;		Unchanged: 0/0
  1822 ;; Data sizes:     COMMON   BANK0   BANK1   BANK3   BANK2
  1823 ;;      Params:         0       0       0       0       0
  1824 ;;      Locals:         0       0       0       0       0
  1825 ;;      Temps:          2       0       0       0       0
  1826 ;;      Totals:         2       0       0       0       0
  1827 ;;Total ram usage:        2 bytes
  1828 ;; Hardware stack levels used:    1
  1829 ;; This function calls:
  1830 ;;		Nothing
  1831 ;; This function is called by:
  1832 ;;		Interrupt level 1
  1833 ;; This function uses a non-reentrant model
  1834 ;;
  1835                           
  1836                           
  1837                           ;psect for function _isr
  1838  01D9                     _isr:
  1839  01D9                     i1l1089:
  1840                           
  1841                           ;timer.c: 85: if (TMR1IF)
  1842  01D9  1283               	bcf	3,5	;RP0=0, select bank0
  1843  01DA  1303               	bcf	3,6	;RP1=0, select bank0
  1844  01DB  1C0C               	btfss	12,0	;volatile
  1845  01DC  29DE               	goto	u53_21
  1846  01DD  29DF               	goto	u53_20
  1847  01DE                     u53_21:
  1848  01DE  29E2               	goto	i1l165
  1849  01DF                     u53_20:
  1850  01DF                     i1l1091:
  1851                           
  1852                           ;timer.c: 86:      {;timer.c: 88:      Fincompt1 = 1;
  1853  01DF  01B9               	clrf	_Fincompt1
  1854  01E0  0AB9               	incf	_Fincompt1,f
  1855                           
  1856                           ;timer.c: 91:      TMR1IF=0;
  1857  01E1  100C               	bcf	12,0	;volatile
  1858  01E2                     i1l165:	
  1859                           ;timer.c: 92:      }
  1860                           
  1861                           
  1862                           ;timer.c: 94: if (TMRAIF)
  1863  01E2  1E0D               	btfss	13,4	;volatile
  1864  01E3  29E5               	goto	u54_21
  1865  01E4  29E6               	goto	u54_20
  1866  01E5                     u54_21:
  1867  01E5  29E7               	goto	i1l167
  1868  01E6                     u54_20:
  1869  01E6                     i1l1093:
  1870                           
  1871                           ;timer.c: 95:      {;timer.c: 100:      TMRAIF=0;
  1872  01E6  120D               	bcf	13,4	;volatile
  1873  01E7                     i1l167:
  1874  01E7  0871               	movf	??_isr+1,w
  1875  01E8  008A               	movwf	10
  1876  01E9  0E70               	swapf	??_isr^(0+4294967168),w
  1877  01EA  0083               	movwf	3
  1878  01EB  0EFE               	swapf	btemp,f
  1879  01EC  0E7E               	swapf	btemp,w
  1880  01ED  0009               	retfie
  1881  01EE                     __end_of_isr:
  1882  007E                     btemp	set	126	;btemp
  1883  007E                     wtemp0	set	126
  1884                           
  1885                           	psect	intentry
  1886  0004                     __pintentry:	
  1887                           ;incstack = 0
  1888                           ; Regs used in _isr: []
  1889                           
  1890  0004                     interrupt_function:
  1891  007E                     saved_w	set	btemp
  1892  0004  00FE               	movwf	btemp
  1893  0005  0E03               	swapf	3,w
  1894  0006  00F0               	movwf	??_isr
  1895  0007  080A               	movf	10,w
  1896  0008  00F1               	movwf	??_isr+1
  1897  0009  120A  118A  29D9   	ljmp	_isr
  1898                           
  1899                           	psect	config
  1900                           
  1901                           ;Config register CONFIG @ 0x2007
  1902                           ;	Oscillator Selection bits
  1903                           ;	FOSC = INTOSC, INTOSC oscillator: CLKOUT function on RA6/OSC2/CLKOUT pin, I/O function
      +                            on RA7/OSC1/CLKIN
  1904                           ;	Watchdog Timer Enable bit
  1905                           ;	WDTE = OFF, WDT disabled and can be enabled by SWDTEN bit of the WDTCON register
  1906                           ;	Power-up Timer Enable bit
  1907                           ;	PWRTE = OFF, PWRT disabled
  1908                           ;	RE3/MCLR Pin Function Select bit
  1909                           ;	MCLRE = ON, RE3/MCLR pin function is MCLR
  1910                           ;	Code Protection bit
  1911                           ;	CP = OFF, Program memory code protection is disabled
  1912                           ;	Brown-out Reset Selection bits
  1913                           ;	BOREN = ON, BOR enabled
  1914                           ;	Brown-out Reset Voltage Selection bit
  1915                           ;	BORV = 19, Brown-out Reset Voltage (VBOR) set to 1.9 V nominal
  1916                           ;	INTOSC PLLEN Enable Bit
  1917                           ;	PLLEN = ON, INTOSC Frequency is 16 MHz (32x)
  1918  2007                     	org	8199
  1919  2007  3FF5               	dw	16373
  1920                           
  1921                           ;Config register CONFIG2 @ 0x2008
  1922                           ;	Voltage Regulator Capacitor Enable bits
  1923                           ;	VCAPEN = OFF, All VCAP pin functions are disabled
  1924  2008                     	org	8200
  1925  2008  FFFF               	dw	65535

Data Sizes:
    Strings     0
    Constant    0
    Data        0
    BSS         1
    Persistent  0
    Stack       0

Auto Spaces:
    Space          Size  Autos    Used
    COMMON           14     12      12
    BANK0            80     25      26
    BANK1            80      0       0
    BANK3            96      0       0
    BANK2            91      0       0

Pointer List with Targets:

    None.

Critical Paths under _main in COMMON

    _Voltage_Value->___xxtofl
    ___xxtofl->___wmul
    _ADC_GetValue->_PORT_Choose_Mux

Critical Paths under _isr in COMMON

    None.

Critical Paths under _main in BANK0

    _main->_Voltage_Value
    _Voltage_Value->___xxtofl

Critical Paths under _isr in BANK0

    None.

Critical Paths under _main in BANK1

    None.

Critical Paths under _isr in BANK1

    None.

Critical Paths under _main in BANK3

    None.

Critical Paths under _isr in BANK3

    None.

Critical Paths under _main in BANK2

    None.

Critical Paths under _isr in BANK2

    None.

Call Graph Tables:

 ---------------------------------------------------------------------------------
 (Depth) Function   	        Calls       Base Space   Used Autos Params    Refs
 ---------------------------------------------------------------------------------
 (0) _main                                                16    16      0     757
                                             17 BANK0      8     8      0
                       _ADC_GetValue
                     _PORT_Blink_LED
                          _PORT_Init
                   _PORT_Select_Mux0
                  _TIMER_init_timer1
                      _Voltage_Value
 ---------------------------------------------------------------------------------
 (1) _Voltage_Value                                        7     3      4     664
                                             10 BANK0      7     3      4
                             ___wmul
                           ___xxtofl
 ---------------------------------------------------------------------------------
 (2) ___xxtofl                                            14    10      4     398
                                              8 COMMON     4     0      4
                                              0 BANK0     10    10      0
                             ___wmul (ARG)
 ---------------------------------------------------------------------------------
 (2) ___wmul                                               6     2      4     244
                                              2 COMMON     6     2      4
 ---------------------------------------------------------------------------------
 (1) _TIMER_init_timer1                                    0     0      0       0
 ---------------------------------------------------------------------------------
 (1) _PORT_Select_Mux0                                     0     0      0       0
 ---------------------------------------------------------------------------------
 (1) _PORT_Init                                            1     1      0       0
                                              2 COMMON     1     1      0
                   _PORT_Init_Serial
 ---------------------------------------------------------------------------------
 (2) _PORT_Init_Serial                                     0     0      0       0
 ---------------------------------------------------------------------------------
 (1) _PORT_Blink_LED                                       0     0      0       0
 ---------------------------------------------------------------------------------
 (1) _ADC_GetValue                                         1     1      0      66
                                              3 COMMON     1     1      0
                    _PORT_Choose_Mux
                 _PORT_Get_Value_Adc
                     _PORT_Start_ADC
 ---------------------------------------------------------------------------------
 (2) _PORT_Start_ADC                                       0     0      0       0
 ---------------------------------------------------------------------------------
 (2) _PORT_Get_Value_Adc                                   0     0      0       0
 ---------------------------------------------------------------------------------
 (2) _PORT_Choose_Mux                                      1     1      0      44
                                              2 COMMON     1     1      0
 ---------------------------------------------------------------------------------
 Estimated maximum stack depth 2
 ---------------------------------------------------------------------------------
 (Depth) Function   	        Calls       Base Space   Used Autos Params    Refs
 ---------------------------------------------------------------------------------
 (3) _isr                                                  2     2      0       0
                                              0 COMMON     2     2      0
 ---------------------------------------------------------------------------------
 Estimated maximum stack depth 3
 ---------------------------------------------------------------------------------

 Call Graph Graphs:

 _main (ROOT)
   _ADC_GetValue
     _PORT_Choose_Mux
     _PORT_Get_Value_Adc
     _PORT_Start_ADC
   _PORT_Blink_LED
   _PORT_Init
     _PORT_Init_Serial
   _PORT_Select_Mux0
   _TIMER_init_timer1
   _Voltage_Value
     ___wmul
     ___xxtofl
       ___wmul (ARG)

 _isr (ROOT)

 Address spaces:
Name               Size   Autos  Total    Cost      Usage
BITCOMMON            E      0       0       0        0.0%
NULL                 0      0       0       0        0.0%
CODE                 0      0       0       0        0.0%
COMMON               E      C       C       1       85.7%
BITSFR0              0      0       0       1        0.0%
SFR0                 0      0       0       1        0.0%
BITSFR1              0      0       0       2        0.0%
SFR1                 0      0       0       2        0.0%
STACK                0      0       0       2        0.0%
ABS                  0      0      26       3        0.0%
BITBANK0            50      0       0       4        0.0%
BITSFR3              0      0       0       4        0.0%
SFR3                 0      0       0       4        0.0%
BANK0               50     19      1A       5       32.5%
BITSFR2              0      0       0       5        0.0%
SFR2                 0      0       0       5        0.0%
DATA                 0      0      26       6        0.0%
BITBANK1            50      0       0       7        0.0%
BANK1               50      0       0       8        0.0%
BITBANK3            60      0       0       9        0.0%
BANK3               60      0       0      10        0.0%
BITBANK2            5B      0       0      11        0.0%
BANK2               5B      0       0      12        0.0%


Microchip Technology PIC Macro Assembler V2.20 build 20200408173844 
Symbol Table                                                                                   Tue May 30 11:30:04 2023

                         l33 0188                           l42 0211                           l91 01B3  
                         l97 015C          ___wmul@multiplicand 0074             ??_PORT_Blink_LED 0072  
                        l100 0233                          l110 0243                          l104 0223  
                        l113 0247                          l107 023F                          l128 023B  
                        l160 01FF                          l171 01C0                          l173 01D8  
                        l604 003A                          l606 00D1                          l617 009B  
                        l618 00A7                          l911 0244                          l905 0213  
                        l921 0195                          l907 0219                          l931 01A6  
                        l923 0198                          l915 0189                          l909 023C  
                        l933 01AB                          l925 019D                          l917 018F  
                        l941 01BA                          l935 01AE                          l927 01A0  
                        l919 0192                          l943 01C7                          l951 0019  
                        l929 01A3                          l945 01CE                          l937 01B4  
                        l953 001E                          l947 01D4                          l939 01B6  
                        l971 0064                          l963 004B                          l955 0022  
                        l981 0091                          l973 0068                          l965 0050  
                        l957 0032                          l991 00C4                          l983 0095  
                        l975 0076                          l967 0054                          l959 0042  
                        l993 00C8                          l985 009F                          l977 007F  
                        l969 005D                          l995 00C9                          l987 00A9  
                        l979 0086                          l989 00BF                          l999 0124  
                        u300 0243                          u301 0242                          u310 01BA  
                        u311 01B9                          u410 0085                          u411 0084  
                        u500 0230                          u340 01D4                          u501 022C  
                        u341 01D3                          u325 01C1                          u405 0077  
                        u430 0095                          u350 001E                          u335 01C8  
                        u431 0094                          u351 001D                          u440 009B  
                        u360 0022                          u520 00E8                          u441 009A  
                        u425 008A                          u361 0021                          u521 00E7  
                        u290 0219                          u514 0233                          u450 009F  
                        u370 0042                          u291 0218                          u451 009E  
                        u371 0041                          u460 00B4                          u470 00C4  
                        u390 0063                          u471 00C3                          u391 0062  
                        u480 00C8                          u481 00C7                          u465 00AF  
                        u385 0055                          u490 0139                          u491 0138  
  __end_of_TIMER_init_timer1 0200                          _isr 01D9     __end_of_PORT_Select_Mux0 023C  
                       l1001 012A                         l1011 0140                         l1003 012E  
                       l1021 0153                         l1013 0142                         l1005 0130  
                       l1023 0154                         l1015 0147                         l1007 0139  
                       l1031 01EE                         l1025 0157                         l1017 014B  
                       l1009 013C                         l1041 01F8                         l1033 01F2  
                       l1027 0159                         l1019 014F                         l1051 0234  
                       l1043 01F9                         l1035 01F5                         l1061 020C  
                       l1029 015A                         l1053 0237                         l1045 01FA  
                       l1037 01F6                         l1055 0224                         l1047 01FB  
                       l1039 01F7                         l1071 00DC                         l1057 0201  
                       l1049 01FE                         l1065 0160                         l1081 00F9  
                       l1073 00E1                         l1059 0207                         l1083 0104  
                       l1075 00E8                         l1085 010F                         l1077 00E9  
                       l1069 00D2                         l1087 011A                         l1079 00EE  
                       ?_isr 0070                         _TMRA 0110                         _WPUB 0095  
                       _main 00D2                  main@sensor1 0038                  main@sensor2 0035  
                main@sensor3 0036                  main@sensor4 0037                         btemp 007E  
          ??_PORT_Choose_Mux 0072                         start 000C        __size_of_ADC_GetValue 0012  
                      ??_isr 0070                        ?_main 0070                        _ADRES 001E  
                      i1l165 01E2                        i1l167 01E7                _Voltage_Value 015D  
                      _RCSTA 0018                        _SPBRG 0099                        _PORTD 0008  
                      u53_20 01DF                        u53_21 01DE                        u54_20 01E6  
                      u54_21 01E5                        _TRISA 0085                        _TRISB 0086  
                      _TRISC 0087                        _TRISD 0088                        _TXREG 0019  
                      _TXSTA 0098             ??_PORT_Start_ADC 0072           __size_of_PORT_Init 0039  
                      pclath 000A                        status 0003                        wtemp0 007E  
               _ADC_GetValue 0200   __end_of_PORT_Get_Value_Adc 0248              __initialization 000F  
               __end_of_main 0124                       ??_main 007C               ?_Voltage_Value 002A  
 __size_of_TIMER_init_timer1 0012                       _ADCON0 001F                       _ADCON1 009F  
                     _ANSELA 0185                       _ANSELB 0186                       _ANSELD 0188  
                     i1l1091 01DF                       i1l1093 01E6                       i1l1089 01D9  
                     _T1SYNC 0082                       _FVRCON 009D                       _OSCCON 0090  
                     _TMR1GE 047F                       _TMR1IE 0460                       _TMR1IF 0060  
                     _TMR1ON 0080                       _TMRAIF 006C                       _TMRCS0 0086  
                     _TMRCS1 0087             __end_of___xxtofl 00D2                       ___wmul 01B4  
          __end_of_PORT_Init 015D            ?_PORT_Init_Serial 0070           ??_PORT_Init_Serial 0072  
                     saved_w 007E                 ___xxtofl@arg 0026                 ___xxtofl@exp 0025  
               ___xxtofl@val 0078      __end_of__initialization 0012               __pcstackCOMMON 0070  
            ??_Voltage_Value 002E              _PORT_Choose_Mux 0212            ?_PORT_Select_Mux0 0070  
                 __pbssBANK0 0039           ??_PORT_Select_Mux0 0072                   __pmaintext 00D2  
                    ?___wmul 0072          ADC_GetValue@channel 0073                   __pintentry 0004  
                    _DACCON0 0113                      _DACCON1 0114                      _T1CKPS0 0084  
                    _T1CKPS1 0085                      _T1OSCEN 0083                    ?___xxtofl 0078  
            __size_of___wmul 0025      __end_of_PORT_Choose_Mux 0224                      __ptext1 015D  
                    __ptext2 0016                      __ptext3 01B4                      __ptext4 01EE  
                    __ptext5 0234                      __ptext6 0124                      __ptext7 0189  
                    __ptext8 0224                      __ptext9 0200           _PORT_Get_Value_Adc 0244  
               __size_of_isr 0015                   ??___xxtofl 0020          ?_PORT_Get_Value_Adc 0070  
       end_of_initialization 0012      __size_of_PORT_Blink_LED 0010         ??_PORT_Get_Value_Adc 0072  
                  _PORTBbits 0006                    _PORT_Init 0124                ___xxtofl@sign 0024  
  __size_of_PORT_Init_Serial 002B      __size_of_PORT_Start_ADC 0008               __end_of___wmul 01D9  
                  _Fincompt1 0039             ?_PORT_Choose_Mux 0070                   ?_PORT_Init 0070  
        start_initialization 000F                  __end_of_isr 01EE    __size_of_PORT_Select_Mux0 0008  
                   ??___wmul 0076        __end_of_Voltage_Value 0189                    ___latbits 0002  
              __pcstackBANK0 0020            __size_of___xxtofl 00BC               _PORT_Blink_LED 0224  
              ?_ADC_GetValue 0070                  ??_PORT_Init 0072       __end_of_PORT_Blink_LED 0234  
           _PORT_Init_Serial 0189               ??_ADC_GetValue 0073            interrupt_function 0004  
             ___wmul@product 0076               _PORT_Start_ADC 023C        PORT_Choose_Mux@_value 0072  
                   _GO_nDONE 00F9            ___wmul@multiplier 0072              ?_PORT_Blink_LED 0070  
     __end_of_PORT_Start_ADC 0244             _PORT_Select_Mux0 0234  __size_of_PORT_Get_Value_Adc 0004  
                   ___xxtofl 0016                     __ptext10 023C                     __ptext11 0244  
                   __ptext12 0212                     __ptext13 01D9              ?_PORT_Start_ADC 0070  
              __size_of_main 0052         __end_of_ADC_GetValue 0212     __size_of_PORT_Choose_Mux 0012  
                   intlevel1 0000     __end_of_PORT_Init_Serial 01B4          Voltage_Value@sensor 0030  
          _TIMER_init_timer1 01EE           ?_TIMER_init_timer1 0070          ??_TIMER_init_timer1 0072  
     __size_of_Voltage_Value 002C  
