

Microchip MPLAB XC8 Assembler V2.20 build 20200408173844 
                                                                                               Thu Jun 08 14:46:53 2023

Microchip MPLAB XC8 C Compiler v2.20 (Free license) build 20200408173844 Og1 
     1                           	processor	16F707
     2                           	pagewidth 120
     3                           	opt	flic
     4                           	psect	strings,global,class=STRING,delta=2,noexec
     5                           	psect	cinit,global,class=CODE,merge=1,delta=2
     6                           	psect	bssBANK1,global,class=BANK1,space=1,delta=1,noexec
     7                           	psect	cstackBANK1,global,class=BANK1,space=1,delta=1,noexec
     8                           	psect	cstackCOMMON,global,class=COMMON,space=1,delta=1,noexec
     9                           	psect	cstackBANK0,global,class=BANK0,space=1,delta=1,noexec
    10                           	psect	maintext,global,class=CODE,split=1,delta=2
    11                           	psect	text1,local,class=CODE,merge=1,delta=2
    12                           	psect	text2,local,class=CODE,merge=1,delta=2,group=1
    13                           	psect	text3,local,class=CODE,merge=1,delta=2
    14                           	psect	text4,local,class=CODE,merge=1,delta=2
    15                           	psect	text5,local,class=CODE,merge=1,delta=2
    16                           	psect	text6,local,class=CODE,merge=1,delta=2,group=1
    17                           	psect	text7,local,class=CODE,merge=1,delta=2,group=1
    18                           	psect	text8,local,class=CODE,merge=1,delta=2,group=1
    19                           	psect	text9,local,class=CODE,merge=1,delta=2,group=1
    20                           	psect	text10,local,class=CODE,merge=1,delta=2,group=1
    21                           	psect	text11,local,class=CODE,merge=1,delta=2,group=1
    22                           	psect	text12,local,class=CODE,merge=1,delta=2,group=1
    23                           	psect	text13,local,class=CODE,merge=1,delta=2
    24                           	psect	text14,local,class=CODE,merge=1,delta=2
    25                           	psect	text15,local,class=CODE,merge=1,delta=2
    26                           	psect	text16,local,class=CODE,merge=1,delta=2
    27                           	psect	text17,local,class=CODE,merge=1,delta=2
    28                           	psect	text18,local,class=CODE,merge=1,delta=2
    29                           	psect	text19,local,class=CODE,merge=1,delta=2
    30                           	psect	text20,local,class=CODE,merge=1,delta=2
    31                           	psect	text21,local,class=CODE,merge=1,delta=2
    32                           	psect	text22,local,class=CODE,merge=1,delta=2
    33                           	psect	intentry,global,class=CODE,delta=2
    34                           	psect	config,global,abs,ovrld,class=CONFIG,space=4,delta=2,noexec
    35                           	dabs	1,0x7E,2
    36  0000                     
    37                           ; Version 2.20
    38                           ; Generated 12/02/2020 GMT
    39                           ; 
    40                           ; Copyright © 2020, Microchip Technology Inc. and its subsidiaries ("Microchip")
    41                           ; All rights reserved.
    42                           ; 
    43                           ; This software is developed by Microchip Technology Inc. and its subsidiaries ("Microch
      +                          ip").
    44                           ; 
    45                           ; Redistribution and use in source and binary forms, with or without modification, are
    46                           ; permitted provided that the following conditions are met:
    47                           ; 
    48                           ;     1. Redistributions of source code must retain the above copyright notice, this lis
      +                          t of
    49                           ;        conditions and the following disclaimer.
    50                           ; 
    51                           ;     2. Redistributions in binary form must reproduce the above copyright notice, this 
      +                          list
    52                           ;        of conditions and the following disclaimer in the documentation and/or other
    53                           ;        materials provided with the distribution.
    54                           ; 
    55                           ;     3. Microchip's name may not be used to endorse or promote products derived from th
      +                          is
    56                           ;        software without specific prior written permission.
    57                           ; 
    58                           ; THIS SOFTWARE IS PROVIDED BY MICROCHIP "AS IS" AND ANY EXPRESS OR IMPLIED WARRANTIES,
    59                           ; INCLUDING, BUT NOT LIMITED TO, THE IMPLIED WARRANTIES OF MERCHANTABILITY AND FITNESS F
      +                          OR
    60                           ; PURPOSE ARE DISCLAIMED.  IN NO EVENT SHALL MICROCHIP BE LIABLE FOR ANY DIRECT, INDIREC
      +                          T,
    61                           ; INCIDENTAL, SPECIAL, EXEMPLARY, OR CONSEQUENTIAL DAMAGES (INCLUDING BUT NOT LIMITED TO
    62                           ; PROCUREMENT OF SUBSTITUTE GOODS OR SERVICES; LOSS OF USE, DATA OR PROFITS; OR BUSINESS
    63                           ; INTERRUPTION) HOWSOEVER CAUSED AND ON ANY THEORY OF LIABILITY, WHETHER IN CONTRACT, ST
      +                          RICT
    64                           ; LIABILITY, OR TORT (INCLUDING NEGLIGENCE OR OTHERWISE) ARISING IN ANY WAY OUT OF THE U
      +                          SE OF
    65                           ; THIS SOFTWARE, EVEN IF ADVISED OF THE POSSIBILITY OF SUCH DAMAGE.
    66                           ; 
    67                           ; 
    68                           ; Code-generator required, PIC16F707 Definitions
    69                           ; 
    70                           ; SFR Addresses
    71  0000                     	;# 
    72  0001                     	;# 
    73  0002                     	;# 
    74  0003                     	;# 
    75  0004                     	;# 
    76  0005                     	;# 
    77  0006                     	;# 
    78  0007                     	;# 
    79  0008                     	;# 
    80  0009                     	;# 
    81  000A                     	;# 
    82  000B                     	;# 
    83  000C                     	;# 
    84  000D                     	;# 
    85  000E                     	;# 
    86  000E                     	;# 
    87  000F                     	;# 
    88  0010                     	;# 
    89  0011                     	;# 
    90  0012                     	;# 
    91  0013                     	;# 
    92  0014                     	;# 
    93  0015                     	;# 
    94  0015                     	;# 
    95  0016                     	;# 
    96  0017                     	;# 
    97  0018                     	;# 
    98  0019                     	;# 
    99  001A                     	;# 
   100  001B                     	;# 
   101  001B                     	;# 
   102  001C                     	;# 
   103  001D                     	;# 
   104  001E                     	;# 
   105  001F                     	;# 
   106  0081                     	;# 
   107  0085                     	;# 
   108  0086                     	;# 
   109  0087                     	;# 
   110  0088                     	;# 
   111  0089                     	;# 
   112  008C                     	;# 
   113  008D                     	;# 
   114  008E                     	;# 
   115  008F                     	;# 
   116  0090                     	;# 
   117  0091                     	;# 
   118  0092                     	;# 
   119  0093                     	;# 
   120  0093                     	;# 
   121  0094                     	;# 
   122  0095                     	;# 
   123  0096                     	;# 
   124  0097                     	;# 
   125  0098                     	;# 
   126  0099                     	;# 
   127  009A                     	;# 
   128  009A                     	;# 
   129  009B                     	;# 
   130  009C                     	;# 
   131  009D                     	;# 
   132  009E                     	;# 
   133  009F                     	;# 
   134  0105                     	;# 
   135  0106                     	;# 
   136  0107                     	;# 
   137  0108                     	;# 
   138  0109                     	;# 
   139  010C                     	;# 
   140  010D                     	;# 
   141  010E                     	;# 
   142  010F                     	;# 
   143  0110                     	;# 
   144  0111                     	;# 
   145  0112                     	;# 
   146  0113                     	;# 
   147  0114                     	;# 
   148  0185                     	;# 
   149  0186                     	;# 
   150  0187                     	;# 
   151  0188                     	;# 
   152  0189                     	;# 
   153  018C                     	;# 
   154  0000                     	;# 
   155  0001                     	;# 
   156  0002                     	;# 
   157  0003                     	;# 
   158  0004                     	;# 
   159  0005                     	;# 
   160  0006                     	;# 
   161  0007                     	;# 
   162  0008                     	;# 
   163  0009                     	;# 
   164  000A                     	;# 
   165  000B                     	;# 
   166  000C                     	;# 
   167  000D                     	;# 
   168  000E                     	;# 
   169  000E                     	;# 
   170  000F                     	;# 
   171  0010                     	;# 
   172  0011                     	;# 
   173  0012                     	;# 
   174  0013                     	;# 
   175  0014                     	;# 
   176  0015                     	;# 
   177  0015                     	;# 
   178  0016                     	;# 
   179  0017                     	;# 
   180  0018                     	;# 
   181  0019                     	;# 
   182  001A                     	;# 
   183  001B                     	;# 
   184  001B                     	;# 
   185  001C                     	;# 
   186  001D                     	;# 
   187  001E                     	;# 
   188  001F                     	;# 
   189  0081                     	;# 
   190  0085                     	;# 
   191  0086                     	;# 
   192  0087                     	;# 
   193  0088                     	;# 
   194  0089                     	;# 
   195  008C                     	;# 
   196  008D                     	;# 
   197  008E                     	;# 
   198  008F                     	;# 
   199  0090                     	;# 
   200  0091                     	;# 
   201  0092                     	;# 
   202  0093                     	;# 
   203  0093                     	;# 
   204  0094                     	;# 
   205  0095                     	;# 
   206  0096                     	;# 
   207  0097                     	;# 
   208  0098                     	;# 
   209  0099                     	;# 
   210  009A                     	;# 
   211  009A                     	;# 
   212  009B                     	;# 
   213  009C                     	;# 
   214  009D                     	;# 
   215  009E                     	;# 
   216  009F                     	;# 
   217  0105                     	;# 
   218  0106                     	;# 
   219  0107                     	;# 
   220  0108                     	;# 
   221  0109                     	;# 
   222  010C                     	;# 
   223  010D                     	;# 
   224  010E                     	;# 
   225  010F                     	;# 
   226  0110                     	;# 
   227  0111                     	;# 
   228  0112                     	;# 
   229  0113                     	;# 
   230  0114                     	;# 
   231  0185                     	;# 
   232  0186                     	;# 
   233  0187                     	;# 
   234  0188                     	;# 
   235  0189                     	;# 
   236  018C                     	;# 
   237  0000                     	;# 
   238  0001                     	;# 
   239  0002                     	;# 
   240  0003                     	;# 
   241  0004                     	;# 
   242  0005                     	;# 
   243  0006                     	;# 
   244  0007                     	;# 
   245  0008                     	;# 
   246  0009                     	;# 
   247  000A                     	;# 
   248  000B                     	;# 
   249  000C                     	;# 
   250  000D                     	;# 
   251  000E                     	;# 
   252  000E                     	;# 
   253  000F                     	;# 
   254  0010                     	;# 
   255  0011                     	;# 
   256  0012                     	;# 
   257  0013                     	;# 
   258  0014                     	;# 
   259  0015                     	;# 
   260  0015                     	;# 
   261  0016                     	;# 
   262  0017                     	;# 
   263  0018                     	;# 
   264  0019                     	;# 
   265  001A                     	;# 
   266  001B                     	;# 
   267  001B                     	;# 
   268  001C                     	;# 
   269  001D                     	;# 
   270  001E                     	;# 
   271  001F                     	;# 
   272  0081                     	;# 
   273  0085                     	;# 
   274  0086                     	;# 
   275  0087                     	;# 
   276  0088                     	;# 
   277  0089                     	;# 
   278  008C                     	;# 
   279  008D                     	;# 
   280  008E                     	;# 
   281  008F                     	;# 
   282  0090                     	;# 
   283  0091                     	;# 
   284  0092                     	;# 
   285  0093                     	;# 
   286  0093                     	;# 
   287  0094                     	;# 
   288  0095                     	;# 
   289  0096                     	;# 
   290  0097                     	;# 
   291  0098                     	;# 
   292  0099                     	;# 
   293  009A                     	;# 
   294  009A                     	;# 
   295  009B                     	;# 
   296  009C                     	;# 
   297  009D                     	;# 
   298  009E                     	;# 
   299  009F                     	;# 
   300  0105                     	;# 
   301  0106                     	;# 
   302  0107                     	;# 
   303  0108                     	;# 
   304  0109                     	;# 
   305  010C                     	;# 
   306  010D                     	;# 
   307  010E                     	;# 
   308  010F                     	;# 
   309  0110                     	;# 
   310  0111                     	;# 
   311  0112                     	;# 
   312  0113                     	;# 
   313  0114                     	;# 
   314  0185                     	;# 
   315  0186                     	;# 
   316  0187                     	;# 
   317  0188                     	;# 
   318  0189                     	;# 
   319  018C                     	;# 
   320                           
   321                           	psect	strings
   322  1000                     __pstrings:
   323  1000                     stringtab:
   324  1000                     __stringtab:
   325  1000                     stringcode:	
   326                           ;	String table - string pointers are 1 byte each
   327                           
   328  1000                     stringdir:
   329  1000  3010               	movlw	high stringdir
   330  1001  008A               	movwf	10
   331  1002  0804               	movf	4,w
   332  1003  0A84               	incf	4,f
   333  1004  0782               	addwf	2,f
   334  1005                     __stringbase:
   335  1005  3400               	retlw	0
   336  1006                     __end_of__stringtab:
   337  1006                     conversion_newton@R_tab:
   338  1006  3400               	retlw	0
   339  1007  3400               	retlw	0
   340  1008  34FA               	retlw	250
   341  1009  3444               	retlw	68
   342  100A  3400               	retlw	0
   343  100B  3440               	retlw	64
   344  100C  341C               	retlw	28
   345  100D  3445               	retlw	69
   346  100E  3400               	retlw	0
   347  100F  3480               	retlw	128
   348  1010  3422               	retlw	34
   349  1011  3445               	retlw	69
   350  1012  3400               	retlw	0
   351  1013  34C0               	retlw	192
   352  1014  3428               	retlw	40
   353  1015  3445               	retlw	69
   354  1016  3400               	retlw	0
   355  1017  3440               	retlw	64
   356  1018  3435               	retlw	53
   357  1019  3445               	retlw	69
   358  101A  3400               	retlw	0
   359  101B  3400               	retlw	0
   360  101C  3448               	retlw	72
   361  101D  3445               	retlw	69
   362  101E  3400               	retlw	0
   363  101F  3480               	retlw	128
   364  1020  3454               	retlw	84
   365  1021  3445               	retlw	69
   366  1022  3400               	retlw	0
   367  1023  34C0               	retlw	192
   368  1024  345A               	retlw	90
   369  1025  3445               	retlw	69
   370  1026  3400               	retlw	0
   371  1027  34C0               	retlw	192
   372  1028  3473               	retlw	115
   373  1029  3445               	retlw	69
   374  102A  3400               	retlw	0
   375  102B  3460               	retlw	96
   376  102C  3486               	retlw	134
   377  102D  3445               	retlw	69
   378  102E  3400               	retlw	0
   379  102F  3400               	retlw	0
   380  1030  3496               	retlw	150
   381  1031  3445               	retlw	69
   382  1032  3400               	retlw	0
   383  1033  34E0               	retlw	224
   384  1034  34AB               	retlw	171
   385  1035  3445               	retlw	69
   386  1036  3400               	retlw	0
   387  1037  3480               	retlw	128
   388  1038  34D4               	retlw	212
   389  1039  3445               	retlw	69
   390  103A  3400               	retlw	0
   391  103B  34D0               	retlw	208
   392  103C  3404               	retlw	4
   393  103D  3446               	retlw	70
   394  103E  3400               	retlw	0
   395  103F  34E0               	retlw	224
   396  1040  342B               	retlw	43
   397  1041  3446               	retlw	70
   398  1042  3400               	retlw	0
   399  1043  3400               	retlw	0
   400  1044  347A               	retlw	122
   401  1045  3446               	retlw	70
   402  1046  3400               	retlw	0
   403  1047  34F0               	retlw	240
   404  1048  34D2               	retlw	210
   405  1049  3446               	retlw	70
   406  104A  3400               	retlw	0
   407  104B  34C8               	retlw	200
   408  104C  342F               	retlw	47
   409  104D  3447               	retlw	71
   410  104E  3400               	retlw	0
   411  104F  34E8               	retlw	232
   412  1050  347D               	retlw	125
   413  1051  3447               	retlw	71
   414  1052  3400               	retlw	0
   415  1053  348C               	retlw	140
   416  1054  34B9               	retlw	185
   417  1055  3447               	retlw	71
   418  1056                     __end_ofconversion_newton@R_tab:
   419  1056                     conversion_newton@F_tab:
   420  1056  3400               	retlw	0
   421  1057  3400               	retlw	0
   422  1058  348C               	retlw	140
   423  1059  3442               	retlw	66
   424  105A  3400               	retlw	0
   425  105B  3400               	retlw	0
   426  105C  340C               	retlw	12
   427  105D  3442               	retlw	66
   428  105E  3400               	retlw	0
   429  105F  3400               	retlw	0
   430  1060  34F0               	retlw	240
   431  1061  3441               	retlw	65
   432  1062  3400               	retlw	0
   433  1063  3400               	retlw	0
   434  1064  34E0               	retlw	224
   435  1065  3441               	retlw	65
   436  1066  3400               	retlw	0
   437  1067  3400               	retlw	0
   438  1068  34C8               	retlw	200
   439  1069  3441               	retlw	65
   440  106A  3400               	retlw	0
   441  106B  3400               	retlw	0
   442  106C  34A0               	retlw	160
   443  106D  3441               	retlw	65
   444  106E  3400               	retlw	0
   445  106F  3400               	retlw	0
   446  1070  3498               	retlw	152
   447  1071  3441               	retlw	65
   448  1072  3400               	retlw	0
   449  1073  3400               	retlw	0
   450  1074  3490               	retlw	144
   451  1075  3441               	retlw	65
   452  1076  3400               	retlw	0
   453  1077  3400               	retlw	0
   454  1078  3470               	retlw	112
   455  1079  3441               	retlw	65
   456  107A  3400               	retlw	0
   457  107B  3400               	retlw	0
   458  107C  3450               	retlw	80
   459  107D  3441               	retlw	65
   460  107E  3400               	retlw	0
   461  107F  3400               	retlw	0
   462  1080  3420               	retlw	32
   463  1081  3441               	retlw	65
   464  1082  3400               	retlw	0
   465  1083  3400               	retlw	0
   466  1084  34E0               	retlw	224
   467  1085  3440               	retlw	64
   468  1086  34CD               	retlw	205
   469  1087  34CC               	retlw	204
   470  1088  34AC               	retlw	172
   471  1089  3440               	retlw	64
   472  108A  3400               	retlw	0
   473  108B  3400               	retlw	0
   474  108C  3480               	retlw	128
   475  108D  3440               	retlw	64
   476  108E  3400               	retlw	0
   477  108F  3400               	retlw	0
   478  1090  3440               	retlw	64
   479  1091  3440               	retlw	64
   480  1092  34CD               	retlw	205
   481  1093  34CC               	retlw	204
   482  1094  340C               	retlw	12
   483  1095  3440               	retlw	64
   484  1096  3400               	retlw	0
   485  1097  3400               	retlw	0
   486  1098  34C0               	retlw	192
   487  1099  343F               	retlw	63
   488  109A  3466               	retlw	102
   489  109B  3466               	retlw	102
   490  109C  3466               	retlw	102
   491  109D  343F               	retlw	63
   492  109E  3466               	retlw	102
   493  109F  3466               	retlw	102
   494  10A0  34E6               	retlw	230
   495  10A1  343E               	retlw	62
   496  10A2  348F               	retlw	143
   497  10A3  34C2               	retlw	194
   498  10A4  34F5               	retlw	245
   499  10A5  343D               	retlw	61
   500  10A6                     __end_ofconversion_newton@F_tab:
   501  0007                     _PORTCbits	set	7
   502  0019                     _TXREG	set	25
   503  001E                     _ADRES	set	30
   504  0008                     _PORTD	set	8
   505  0006                     _PORTBbits	set	6
   506  001F                     _ADCON0	set	31
   507  0018                     _RCSTA	set	24
   508  006C                     _TMRAIF	set	108
   509  0060                     _TMR1IF	set	96
   510  0080                     _TMR1ON	set	128
   511  0082                     _T1SYNC	set	130
   512  0085                     _T1CKPS1	set	133
   513  0084                     _T1CKPS0	set	132
   514  0086                     _TMRCS0	set	134
   515  0087                     _TMRCS1	set	135
   516  0083                     _T1OSCEN	set	131
   517  00F9                     _GO_nDONE	set	249
   518  009D                     _FVRCON	set	157
   519  009F                     _ADCON1	set	159
   520  0088                     _TRISD	set	136
   521  0085                     _TRISA	set	133
   522  0090                     _OSCCON	set	144
   523  0086                     _TRISB	set	134
   524  0095                     _WPUB	set	149
   525  0098                     _TXSTA	set	152
   526  0099                     _SPBRG	set	153
   527  0087                     _TRISC	set	135
   528  0460                     _TMR1IE	set	1120
   529  047F                     _TMR1GE	set	1151
   530  0110                     _TMRA	set	272
   531  0114                     _DACCON1	set	276
   532  0113                     _DACCON0	set	275
   533  0185                     _ANSELA	set	389
   534  0188                     _ANSELD	set	392
   535  0186                     _ANSELB	set	390
   536                           
   537                           	psect	cinit
   538  000F                     start_initialization:	
   539                           ; #config settings
   540                           
   541  000F                     __initialization:
   542                           
   543                           ; Clear objects allocated to BANK1
   544  000F  1683               	bsf	3,5	;RP0=1, select bank1
   545  0010  1303               	bcf	3,6	;RP1=0, select bank1
   546  0011  01D6               	clrf	__pbssBANK1& (0+127)
   547  0012                     end_of_initialization:	
   548                           ;End of C runtime variable initialization code
   549                           
   550  0012                     __end_of__initialization:
   551  0012  0183               	clrf	3
   552  0013  160A  118A  2E5E   	ljmp	_main	;jump to C main() function
   553                           
   554                           	psect	bssBANK1
   555  00D6                     __pbssBANK1:
   556  00D6                     _Fincompt1:
   557  00D6                     	ds	1
   558                           
   559                           	psect	cstackBANK1
   560  00A0                     __pcstackBANK1:
   561  00A0                     ?_Voltage_Value:
   562  00A0                     ?_Resistance_Value:	
   563                           ; 4 bytes @ 0x0
   564                           
   565  00A0                     ?_conversion_newton:	
   566                           ; 4 bytes @ 0x0
   567                           
   568  00A0                     Resistance_Value@Voltage:	
   569                           ; 4 bytes @ 0x0
   570                           
   571  00A0                     conversion_newton@Rc:	
   572                           ; 4 bytes @ 0x0
   573                           
   574                           
   575                           ; 4 bytes @ 0x0
   576  00A0                     	ds	4
   577  00A4                     ??_Voltage_Value:
   578  00A4                     ??_conversion_newton:	
   579                           ; 1 bytes @ 0x4
   580                           
   581  00A4                     Resistance_Value@R:	
   582                           ; 1 bytes @ 0x4
   583                           
   584                           
   585                           ; 2 bytes @ 0x4
   586  00A4                     	ds	4
   587  00A8                     Voltage_Value@sensor:
   588                           
   589                           ; 1 bytes @ 0x8
   590  00A8                     	ds	21
   591  00BD                     _conversion_newton$771:
   592                           
   593                           ; 4 bytes @ 0x1D
   594  00BD                     	ds	4
   595  00C1                     conversion_newton@F:
   596                           
   597                           ; 4 bytes @ 0x21
   598  00C1                     	ds	4
   599  00C5                     conversion_newton@n:
   600                           
   601                           ; 2 bytes @ 0x25
   602  00C5                     	ds	6
   603  00CB                     main@Rc:
   604                           
   605                           ; 4 bytes @ 0x2B
   606  00CB                     	ds	4
   607  00CF                     main@Vs:
   608                           
   609                           ; 4 bytes @ 0x2F
   610  00CF                     	ds	4
   611  00D3                     main@R:
   612                           
   613                           ; 2 bytes @ 0x33
   614  00D3                     	ds	2
   615  00D5                     main@sensor1:
   616                           
   617                           ; 1 bytes @ 0x35
   618  00D5                     	ds	1
   619                           
   620                           	psect	cstackCOMMON
   621  0070                     __pcstackCOMMON:
   622  0070                     ?_PORT_Init:
   623  0070                     ?_TIMER_init_timer1:	
   624                           ; 1 bytes @ 0x0
   625                           
   626  0070                     ?_PORT_Select_Mux1:	
   627                           ; 1 bytes @ 0x0
   628                           
   629  0070                     ?_PORT_Blink_LED:	
   630                           ; 1 bytes @ 0x0
   631                           
   632  0070                     ?_ADC_GetValue:	
   633                           ; 1 bytes @ 0x0
   634                           
   635  0070                     ?_PORT_Choose_Mux:	
   636                           ; 1 bytes @ 0x0
   637                           
   638  0070                     ?_PORT_Start_ADC:	
   639                           ; 1 bytes @ 0x0
   640                           
   641  0070                     ?_PORT_Get_Value_Adc:	
   642                           ; 1 bytes @ 0x0
   643                           
   644  0070                     ?_main:	
   645                           ; 1 bytes @ 0x0
   646                           
   647  0070                     ?_PORT_Init_Serial:	
   648                           ; 1 bytes @ 0x0
   649                           
   650  0070                     ?_isr:	
   651                           ; 1 bytes @ 0x0
   652                           
   653  0070                     ??_isr:	
   654                           ; 1 bytes @ 0x0
   655                           
   656                           
   657                           ; 1 bytes @ 0x0
   658  0070                     	ds	2
   659  0072                     ?___flge:
   660  0072                     ??_PORT_Init:	
   661                           ; 1 bit 
   662                           
   663  0072                     ??_TIMER_init_timer1:	
   664                           ; 1 bytes @ 0x2
   665                           
   666  0072                     ??_PORT_Select_Mux1:	
   667                           ; 1 bytes @ 0x2
   668                           
   669  0072                     ??_PORT_Blink_LED:	
   670                           ; 1 bytes @ 0x2
   671                           
   672  0072                     ??_PORT_Choose_Mux:	
   673                           ; 1 bytes @ 0x2
   674                           
   675  0072                     ??_PORT_Start_ADC:	
   676                           ; 1 bytes @ 0x2
   677                           
   678  0072                     ??_PORT_Get_Value_Adc:	
   679                           ; 1 bytes @ 0x2
   680                           
   681  0072                     ??_PORT_Init_Serial:	
   682                           ; 1 bytes @ 0x2
   683                           
   684  0072                     ?_PORT_Change_Gain:	
   685                           ; 1 bytes @ 0x2
   686                           
   687  0072                     ?__Umul8_16:	
   688                           ; 2 bytes @ 0x2
   689                           
   690  0072                     ?___wmul:	
   691                           ; 2 bytes @ 0x2
   692                           
   693  0072                     PORT_Choose_Mux@_value:	
   694                           ; 2 bytes @ 0x2
   695                           
   696  0072                     PORT_Change_Gain@INTER1:	
   697                           ; 1 bytes @ 0x2
   698                           
   699  0072                     __Umul8_16@multiplicand:	
   700                           ; 1 bytes @ 0x2
   701                           
   702  0072                     ___wmul@multiplier:	
   703                           ; 1 bytes @ 0x2
   704                           
   705  0072                     ___flge@ff1:	
   706                           ; 2 bytes @ 0x2
   707                           
   708                           
   709                           ; 4 bytes @ 0x2
   710  0072                     	ds	1
   711  0073                     ??_ADC_GetValue:
   712  0073                     ADC_GetValue@channel:	
   713                           ; 1 bytes @ 0x3
   714                           
   715                           
   716                           ; 1 bytes @ 0x3
   717  0073                     	ds	1
   718  0074                     ??__Umul8_16:
   719  0074                     ___wmul@multiplicand:	
   720                           ; 1 bytes @ 0x4
   721                           
   722                           
   723                           ; 2 bytes @ 0x4
   724  0074                     	ds	1
   725  0075                     ??_PORT_Change_Gain:
   726  0075                     PORT_Change_Gain@INTER0:	
   727                           ; 1 bytes @ 0x5
   728                           
   729                           
   730                           ; 1 bytes @ 0x5
   731  0075                     	ds	1
   732  0076                     ??___wmul:
   733  0076                     ___wmul@product:	
   734                           ; 1 bytes @ 0x6
   735                           
   736  0076                     __Umul8_16@product:	
   737                           ; 2 bytes @ 0x6
   738                           
   739  0076                     ___flge@ff2:	
   740                           ; 2 bytes @ 0x6
   741                           
   742                           
   743                           ; 4 bytes @ 0x6
   744  0076                     	ds	2
   745  0078                     ?___xxtofl:
   746  0078                     __Umul8_16@word_mpld:	
   747                           ; 4 bytes @ 0x8
   748                           
   749  0078                     ___xxtofl@val:	
   750                           ; 2 bytes @ 0x8
   751                           
   752                           
   753                           ; 4 bytes @ 0x8
   754  0078                     	ds	2
   755  007A                     __Umul8_16@multiplier:
   756                           
   757                           ; 1 bytes @ 0xA
   758  007A                     	ds	1
   759  007B                     ??___flsub:
   760                           
   761                           ; 1 bytes @ 0xB
   762  007B                     	ds	1
   763  007C                     ??_Resistance_Value:
   764  007C                     ??_main:	
   765                           ; 1 bytes @ 0xC
   766                           
   767                           
   768                           	psect	cstackBANK0
   769  0020                     __pcstackBANK0:	
   770                           ; 1 bytes @ 0xC
   771                           
   772  0020                     ??___flge:
   773  0020                     ??___xxtofl:	
   774                           ; 1 bytes @ 0x0
   775                           
   776  0020                     ?___fladd:	
   777                           ; 1 bytes @ 0x0
   778                           
   779  0020                     ___fladd@b:	
   780                           ; 4 bytes @ 0x0
   781                           
   782                           
   783                           ; 4 bytes @ 0x0
   784  0020                     	ds	4
   785  0024                     ___xxtofl@sign:
   786  0024                     ___fladd@a:	
   787                           ; 1 bytes @ 0x4
   788                           
   789                           
   790                           ; 4 bytes @ 0x4
   791  0024                     	ds	1
   792  0025                     ___xxtofl@exp:
   793                           
   794                           ; 1 bytes @ 0x5
   795  0025                     	ds	1
   796  0026                     ___xxtofl@arg:
   797                           
   798                           ; 4 bytes @ 0x6
   799  0026                     	ds	2
   800  0028                     ??___fladd:
   801                           
   802                           ; 1 bytes @ 0x8
   803  0028                     	ds	8
   804  0030                     ___fladd@signs:
   805                           
   806                           ; 1 bytes @ 0x10
   807  0030                     	ds	1
   808  0031                     ___fladd@aexp:
   809                           
   810                           ; 1 bytes @ 0x11
   811  0031                     	ds	1
   812  0032                     ___fladd@bexp:
   813                           
   814                           ; 1 bytes @ 0x12
   815  0032                     	ds	1
   816  0033                     ___fladd@grs:
   817                           
   818                           ; 1 bytes @ 0x13
   819  0033                     	ds	1
   820  0034                     ?___flsub:
   821  0034                     ___flsub@a:	
   822                           ; 4 bytes @ 0x14
   823                           
   824                           
   825                           ; 4 bytes @ 0x14
   826  0034                     	ds	4
   827  0038                     ___flsub@b:
   828                           
   829                           ; 4 bytes @ 0x18
   830  0038                     	ds	4
   831  003C                     ?___fldiv:
   832  003C                     ___fldiv@a:	
   833                           ; 4 bytes @ 0x1C
   834                           
   835                           
   836                           ; 4 bytes @ 0x1C
   837  003C                     	ds	4
   838  0040                     ___fldiv@b:
   839                           
   840                           ; 4 bytes @ 0x20
   841  0040                     	ds	4
   842  0044                     ??___fldiv:
   843                           
   844                           ; 1 bytes @ 0x24
   845  0044                     	ds	5
   846  0049                     ___fldiv@rem:
   847                           
   848                           ; 4 bytes @ 0x29
   849  0049                     	ds	4
   850  004D                     ___fldiv@sign:
   851                           
   852                           ; 1 bytes @ 0x2D
   853  004D                     	ds	1
   854  004E                     ___fldiv@new_exp:
   855                           
   856                           ; 2 bytes @ 0x2E
   857  004E                     	ds	2
   858  0050                     ___fldiv@grs:
   859                           
   860                           ; 4 bytes @ 0x30
   861  0050                     	ds	4
   862  0054                     ___fldiv@bexp:
   863                           
   864                           ; 1 bytes @ 0x34
   865  0054                     	ds	1
   866  0055                     ___fldiv@aexp:
   867                           
   868                           ; 1 bytes @ 0x35
   869  0055                     	ds	1
   870  0056                     ?___flmul:
   871  0056                     ___flmul@b:	
   872                           ; 4 bytes @ 0x36
   873                           
   874                           
   875                           ; 4 bytes @ 0x36
   876  0056                     	ds	4
   877  005A                     ___flmul@a:
   878                           
   879                           ; 4 bytes @ 0x3A
   880  005A                     	ds	4
   881  005E                     ??___flmul:
   882                           
   883                           ; 1 bytes @ 0x3E
   884  005E                     	ds	5
   885  0063                     ___flmul@sign:
   886                           
   887                           ; 1 bytes @ 0x43
   888  0063                     	ds	1
   889  0064                     ___flmul@grs:
   890                           
   891                           ; 4 bytes @ 0x44
   892  0064                     	ds	4
   893  0068                     ___flmul@aexp:
   894                           
   895                           ; 1 bytes @ 0x48
   896  0068                     	ds	1
   897  0069                     ___flmul@bexp:
   898                           
   899                           ; 1 bytes @ 0x49
   900  0069                     	ds	1
   901  006A                     ___flmul@prod:
   902                           
   903                           ; 4 bytes @ 0x4A
   904  006A                     	ds	4
   905  006E                     ___flmul@temp:
   906                           
   907                           ; 2 bytes @ 0x4E
   908  006E                     	ds	2
   909                           
   910                           	psect	maintext
   911  165E                     __pmaintext:	
   912 ;;
   913 ;;Main: autosize = 0, tempsize = 0, incstack = 0, save=0
   914 ;;
   915 ;; *************** function _main *****************
   916 ;; Defined at:
   917 ;;		line 26 in file "main.c"
   918 ;; Parameters:    Size  Location     Type
   919 ;;		None
   920 ;; Auto vars:     Size  Location     Type
   921 ;;  Vs              4   47[BANK1 ] float 
   922 ;;  Rc              4   43[BANK1 ] float 
   923 ;;  F               4    0        float 
   924 ;;  R               2   51[BANK1 ] int 
   925 ;;  sensor1         1   53[BANK1 ] unsigned char 
   926 ;;  sensor4         1    0        unsigned char 
   927 ;;  sensor3         1    0        unsigned char 
   928 ;;  sensor2         1    0        unsigned char 
   929 ;; Return value:  Size  Location     Type
   930 ;;                  1    wreg      void 
   931 ;; Registers used:
   932 ;;		wreg, fsr0l, fsr0h, status,2, status,0, btemp+1, pclath, cstack
   933 ;; Tracked objects:
   934 ;;		On entry : B00/0
   935 ;;		On exit  : 0/0
   936 ;;		Unchanged: 0/0
   937 ;; Data sizes:     COMMON   BANK0   BANK1   BANK3   BANK2
   938 ;;      Params:         0       0       0       0       0
   939 ;;      Locals:         0       0      15       0       0
   940 ;;      Temps:          0       0       0       0       0
   941 ;;      Totals:         0       0      15       0       0
   942 ;;Total ram usage:       15 bytes
   943 ;; Hardware stack levels required when called:    4
   944 ;; This function calls:
   945 ;;		_ADC_GetValue
   946 ;;		_PORT_Blink_LED
   947 ;;		_PORT_Change_Gain
   948 ;;		_PORT_Init
   949 ;;		_PORT_Select_Mux1
   950 ;;		_Resistance_Value
   951 ;;		_TIMER_init_timer1
   952 ;;		_Voltage_Value
   953 ;;		_conversion_newton
   954 ;; This function is called by:
   955 ;;		Startup code after reset
   956 ;; This function uses a non-reentrant model
   957 ;;
   958                           
   959                           
   960                           ;psect for function _main
   961  165E                     _main:
   962  165E                     l2442:	
   963                           ;incstack = 0
   964                           ; Regs used in _main: [wreg-fsr0h+status,2+status,0+btemp+1+pclath+cstack]
   965                           
   966                           
   967                           ;main.c: 28:     unsigned char sensor1, sensor2, sensor3, sensor4;;main.c: 30:     float
      +                           Rc,Vs,F;;main.c: 31:     int R;;main.c: 33:     PORT_Init();
   968  165E  160A  118A  25C4  160A  118A  	fcall	_PORT_Init
   969                           
   970                           ;main.c: 34:     TIMER_init_timer1();
   971  1663  160A  118A  2529  160A  118A  	fcall	_TIMER_init_timer1
   972  1668                     l2444:
   973                           
   974                           ;main.c: 36:     PORT_Select_Mux1();
   975  1668  160A  118A  24ED  160A  118A  	fcall	_PORT_Select_Mux1
   976  166D                     l2446:
   977  166D  1683               	bsf	3,5	;RP0=1, select bank1
   978  166E  1303               	bcf	3,6	;RP1=0, select bank1
   979  166F  0856               	movf	_Fincompt1^(0+128),w
   980  1670  1D03               	btfss	3,2
   981  1671  2E73               	goto	u3641
   982  1672  2E74               	goto	u3640
   983  1673                     u3641:
   984  1673  2E6D               	goto	l2446
   985  1674                     u3640:
   986  1674                     l2448:
   987                           
   988                           ;main.c: 41:         Fincompt1 = 0;
   989  1674  01D6               	clrf	_Fincompt1^(0+128)
   990  1675                     l2450:
   991                           
   992                           ;main.c: 42:         PORT_Blink_LED();
   993  1675  160A  118A  24F5  160A  118A  	fcall	_PORT_Blink_LED
   994  167A                     l2452:
   995                           
   996                           ;main.c: 51:         R = PORT_Change_Gain(0, 0);
   997  167A  01F2               	clrf	PORT_Change_Gain@INTER1
   998  167B  3000               	movlw	0
   999  167C  120A  158A  2000  160A  118A  	fcall	_PORT_Change_Gain
  1000  1681  0873               	movf	?_PORT_Change_Gain+1,w
  1001  1682  1683               	bsf	3,5	;RP0=1, select bank1
  1002  1683  1303               	bcf	3,6	;RP1=0, select bank1
  1003  1684  00D4               	movwf	(main@R+1)^(0+128)
  1004  1685  0872               	movf	?_PORT_Change_Gain,w
  1005  1686  00D3               	movwf	main@R^(0+128)
  1006  1687                     l2454:
  1007                           
  1008                           ;main.c: 52:         sensor1 = ADC_GetValue(0);
  1009  1687  3000               	movlw	0
  1010  1688  160A  118A  2517  160A  118A  	fcall	_ADC_GetValue
  1011  168D  00FF               	movwf	btemp+1
  1012  168E  087F               	movf	btemp+1,w
  1013  168F  1683               	bsf	3,5	;RP0=1, select bank1
  1014  1690  1303               	bcf	3,6	;RP1=0, select bank1
  1015  1691  00D5               	movwf	main@sensor1^(0+128)
  1016  1692                     l2456:
  1017                           
  1018                           ;main.c: 63:         Vs = Voltage_Value(sensor1);
  1019  1692  0855               	movf	main@sensor1^(0+128),w
  1020  1693  160A  118A  25FD  160A  118A  	fcall	_Voltage_Value
  1021  1698  1683               	bsf	3,5	;RP0=1, select bank1
  1022  1699  1303               	bcf	3,6	;RP1=0, select bank1
  1023  169A  0823               	movf	(?_Voltage_Value+3)^(0+128),w
  1024  169B  00D2               	movwf	(main@Vs+3)^(0+128)
  1025  169C  0822               	movf	(?_Voltage_Value+2)^(0+128),w
  1026  169D  00D1               	movwf	(main@Vs+2)^(0+128)
  1027  169E  0821               	movf	(?_Voltage_Value+1)^(0+128),w
  1028  169F  00D0               	movwf	(main@Vs+1)^(0+128)
  1029  16A0  0820               	movf	?_Voltage_Value^(0+128),w
  1030  16A1  00CF               	movwf	main@Vs^(0+128)
  1031  16A2                     l2458:
  1032                           
  1033                           ;main.c: 70:         Rc = Resistance_Value(Vs, R);
  1034  16A2  0852               	movf	(main@Vs+3)^(0+128),w
  1035  16A3  00A3               	movwf	(Resistance_Value@Voltage+3)^(0+128)
  1036  16A4  0851               	movf	(main@Vs+2)^(0+128),w
  1037  16A5  00A2               	movwf	(Resistance_Value@Voltage+2)^(0+128)
  1038  16A6  0850               	movf	(main@Vs+1)^(0+128),w
  1039  16A7  00A1               	movwf	(Resistance_Value@Voltage+1)^(0+128)
  1040  16A8  084F               	movf	main@Vs^(0+128),w
  1041  16A9  00A0               	movwf	Resistance_Value@Voltage^(0+128)
  1042  16AA  0854               	movf	(main@R+1)^(0+128),w
  1043  16AB  00A5               	movwf	(Resistance_Value@R+1)^(0+128)
  1044  16AC  0853               	movf	main@R^(0+128),w
  1045  16AD  00A4               	movwf	Resistance_Value@R^(0+128)
  1046  16AE  160A  118A  26CE  160A  118A  	fcall	_Resistance_Value
  1047  16B3  1683               	bsf	3,5	;RP0=1, select bank1
  1048  16B4  1303               	bcf	3,6	;RP1=0, select bank1
  1049  16B5  0823               	movf	(?_Resistance_Value+3)^(0+128),w
  1050  16B6  00CE               	movwf	(main@Rc+3)^(0+128)
  1051  16B7  0822               	movf	(?_Resistance_Value+2)^(0+128),w
  1052  16B8  00CD               	movwf	(main@Rc+2)^(0+128)
  1053  16B9  0821               	movf	(?_Resistance_Value+1)^(0+128),w
  1054  16BA  00CC               	movwf	(main@Rc+1)^(0+128)
  1055  16BB  0820               	movf	?_Resistance_Value^(0+128),w
  1056  16BC  00CB               	movwf	main@Rc^(0+128)
  1057  16BD                     l2460:
  1058  16BD  084E               	movf	(main@Rc+3)^(0+128),w
  1059  16BE  00A3               	movwf	(conversion_newton@Rc+3)^(0+128)
  1060  16BF  084D               	movf	(main@Rc+2)^(0+128),w
  1061  16C0  00A2               	movwf	(conversion_newton@Rc+2)^(0+128)
  1062  16C1  084C               	movf	(main@Rc+1)^(0+128),w
  1063  16C2  00A1               	movwf	(conversion_newton@Rc+1)^(0+128)
  1064  16C3  084B               	movf	main@Rc^(0+128),w
  1065  16C4  00A0               	movwf	conversion_newton@Rc^(0+128)
  1066  16C5  120A  118A  2016  160A  118A  	fcall	_conversion_newton
  1067  16CA  2E6D               	goto	l2446
  1068  16CB  120A  118A  280C   	ljmp	start
  1069  16CE                     __end_of_main:
  1070                           
  1071                           	psect	text1
  1072  0016                     __ptext1:	
  1073 ;; *************** function _conversion_newton *****************
  1074 ;; Defined at:
  1075 ;;		line 172 in file "main.c"
  1076 ;; Parameters:    Size  Location     Type
  1077 ;;  Rc              4    0[BANK1 ] float 
  1078 ;; Auto vars:     Size  Location     Type
  1079 ;;  F               4   33[BANK1 ] float 
  1080 ;;  n               2   37[BANK1 ] int 
  1081 ;; Return value:  Size  Location     Type
  1082 ;;                  4    0[BANK1 ] float 
  1083 ;; Registers used:
  1084 ;;		wreg, fsr0l, fsr0h, status,2, status,0, btemp+1, pclath, cstack
  1085 ;; Tracked objects:
  1086 ;;		On entry : 0/0
  1087 ;;		On exit  : 0/0
  1088 ;;		Unchanged: 0/0
  1089 ;; Data sizes:     COMMON   BANK0   BANK1   BANK3   BANK2
  1090 ;;      Params:         0       0       4       0       0
  1091 ;;      Locals:         0       0      10       0       0
  1092 ;;      Temps:          0       0      25       0       0
  1093 ;;      Totals:         0       0      39       0       0
  1094 ;;Total ram usage:       39 bytes
  1095 ;; Hardware stack levels used:    1
  1096 ;; Hardware stack levels required when called:    3
  1097 ;; This function calls:
  1098 ;;		___fladd
  1099 ;;		___fldiv
  1100 ;;		___flge
  1101 ;;		___flmul
  1102 ;;		___flsub
  1103 ;; This function is called by:
  1104 ;;		_main
  1105 ;; This function uses a non-reentrant model
  1106 ;;
  1107                           
  1108                           
  1109                           ;psect for function _conversion_newton
  1110  0016                     _conversion_newton:
  1111  0016                     l2366:	
  1112                           ;incstack = 0
  1113                           ; Regs used in _conversion_newton: [wreg-fsr0h+status,2+status,0+btemp+1+pclath+cstack]
  1114                           
  1115                           
  1116                           ;main.c: 173:      float F;;main.c: 174:      int n;;main.c: 175:      const float F_tab
      +                          [20]={70,35,30,28,25,20,19,18,15,13,10,7, 5.4, 4, 3, 2.2, 1.5, 0.9, 0.45, 0.12};;main.c:
      +                           176:      const float R_tab[20]={2000,2500,2600,2700,2900,3200,3400,3500,3900,4300,4800
      +                          ,5500,6800,8500,11000,16000,27000,45000,65000,95000};;main.c: 179:      if (Rc <= R_tab[
      +                          1])
  1117  0016  3005               	movlw	low (((conversion_newton@R_tab+4)-__stringbase)| (0+32768))
  1118  0017  0084               	movwf	4
  1119  0018  160A  118A  2000  120A  118A  	fcall	stringdir
  1120  001D  1683               	bsf	3,5	;RP0=1, select bank1
  1121  001E  1303               	bcf	3,6	;RP1=0, select bank1
  1122  001F  00A4               	movwf	??_conversion_newton^(0+128)
  1123  0020  160A  118A  2000  120A  118A  	fcall	stringdir
  1124  0025  00A5               	movwf	(??_conversion_newton^(0+128)+1)
  1125  0026  160A  118A  2000  120A  118A  	fcall	stringdir
  1126  002B  00A6               	movwf	(??_conversion_newton^(0+128)+2)
  1127  002C  160A  118A  2000  120A  118A  	fcall	stringdir
  1128  0031  00A7               	movwf	(??_conversion_newton^(0+128)+3)
  1129  0032  0827               	movf	(??_conversion_newton+3)^(0+128),w
  1130  0033  00F5               	movwf	___flge@ff1+3
  1131  0034  0826               	movf	(??_conversion_newton+2)^(0+128),w
  1132  0035  00F4               	movwf	___flge@ff1+2
  1133  0036  0825               	movf	(??_conversion_newton+1)^(0+128),w
  1134  0037  00F3               	movwf	___flge@ff1+1
  1135  0038  0824               	movf	??_conversion_newton^(0+128),w
  1136  0039  00F2               	movwf	___flge@ff1
  1137  003A  0823               	movf	(conversion_newton@Rc+3)^(0+128),w
  1138  003B  00F9               	movwf	___flge@ff2+3
  1139  003C  0822               	movf	(conversion_newton@Rc+2)^(0+128),w
  1140  003D  00F8               	movwf	___flge@ff2+2
  1141  003E  0821               	movf	(conversion_newton@Rc+1)^(0+128),w
  1142  003F  00F7               	movwf	___flge@ff2+1
  1143  0040  0820               	movf	conversion_newton@Rc^(0+128),w
  1144  0041  00F6               	movwf	___flge@ff2
  1145  0042  160A  118A  275C  120A  118A  	fcall	___flge
  1146  0047  1C03               	btfss	3,0
  1147  0048  284A               	goto	u3361
  1148  0049  284B               	goto	u3360
  1149  004A                     u3361:
  1150  004A  284F               	goto	l2370
  1151  004B                     u3360:
  1152  004B                     l2368:
  1153                           
  1154                           ;main.c: 180:          {;main.c: 181:          n = 0;
  1155  004B  1683               	bsf	3,5	;RP0=1, select bank1
  1156  004C  1303               	bcf	3,6	;RP1=0, select bank1
  1157  004D  01C5               	clrf	conversion_newton@n^(0+128)
  1158  004E  01C6               	clrf	(conversion_newton@n+1)^(0+128)
  1159  004F                     l2370:
  1160                           
  1161                           ;main.c: 183:      if ((Rc <= R_tab[2]) && (Rc > R_tab[1]))
  1162  004F  3009               	movlw	low (((conversion_newton@R_tab+8)-__stringbase)| (0+32768))
  1163  0050  0084               	movwf	4
  1164  0051  160A  118A  2000  120A  118A  	fcall	stringdir
  1165  0056  1683               	bsf	3,5	;RP0=1, select bank1
  1166  0057  1303               	bcf	3,6	;RP1=0, select bank1
  1167  0058  00A4               	movwf	??_conversion_newton^(0+128)
  1168  0059  160A  118A  2000  120A  118A  	fcall	stringdir
  1169  005E  00A5               	movwf	(??_conversion_newton^(0+128)+1)
  1170  005F  160A  118A  2000  120A  118A  	fcall	stringdir
  1171  0064  00A6               	movwf	(??_conversion_newton^(0+128)+2)
  1172  0065  160A  118A  2000  120A  118A  	fcall	stringdir
  1173  006A  00A7               	movwf	(??_conversion_newton^(0+128)+3)
  1174  006B  0827               	movf	(??_conversion_newton+3)^(0+128),w
  1175  006C  00F5               	movwf	___flge@ff1+3
  1176  006D  0826               	movf	(??_conversion_newton+2)^(0+128),w
  1177  006E  00F4               	movwf	___flge@ff1+2
  1178  006F  0825               	movf	(??_conversion_newton+1)^(0+128),w
  1179  0070  00F3               	movwf	___flge@ff1+1
  1180  0071  0824               	movf	??_conversion_newton^(0+128),w
  1181  0072  00F2               	movwf	___flge@ff1
  1182  0073  0823               	movf	(conversion_newton@Rc+3)^(0+128),w
  1183  0074  00F9               	movwf	___flge@ff2+3
  1184  0075  0822               	movf	(conversion_newton@Rc+2)^(0+128),w
  1185  0076  00F8               	movwf	___flge@ff2+2
  1186  0077  0821               	movf	(conversion_newton@Rc+1)^(0+128),w
  1187  0078  00F7               	movwf	___flge@ff2+1
  1188  0079  0820               	movf	conversion_newton@Rc^(0+128),w
  1189  007A  00F6               	movwf	___flge@ff2
  1190  007B  160A  118A  275C  120A  118A  	fcall	___flge
  1191  0080  1C03               	btfss	3,0
  1192  0081  2883               	goto	u3371
  1193  0082  2884               	goto	u3370
  1194  0083                     u3371:
  1195  0083  28C0               	goto	l2376
  1196  0084                     u3370:
  1197  0084                     l2372:
  1198  0084  3005               	movlw	low (((conversion_newton@R_tab+4)-__stringbase)| (0+32768))
  1199  0085  0084               	movwf	4
  1200  0086  160A  118A  2000  120A  118A  	fcall	stringdir
  1201  008B  1683               	bsf	3,5	;RP0=1, select bank1
  1202  008C  1303               	bcf	3,6	;RP1=0, select bank1
  1203  008D  00A4               	movwf	??_conversion_newton^(0+128)
  1204  008E  160A  118A  2000  120A  118A  	fcall	stringdir
  1205  0093  00A5               	movwf	(??_conversion_newton^(0+128)+1)
  1206  0094  160A  118A  2000  120A  118A  	fcall	stringdir
  1207  0099  00A6               	movwf	(??_conversion_newton^(0+128)+2)
  1208  009A  160A  118A  2000  120A  118A  	fcall	stringdir
  1209  009F  00A7               	movwf	(??_conversion_newton^(0+128)+3)
  1210  00A0  0827               	movf	(??_conversion_newton+3)^(0+128),w
  1211  00A1  00F5               	movwf	___flge@ff1+3
  1212  00A2  0826               	movf	(??_conversion_newton+2)^(0+128),w
  1213  00A3  00F4               	movwf	___flge@ff1+2
  1214  00A4  0825               	movf	(??_conversion_newton+1)^(0+128),w
  1215  00A5  00F3               	movwf	___flge@ff1+1
  1216  00A6  0824               	movf	??_conversion_newton^(0+128),w
  1217  00A7  00F2               	movwf	___flge@ff1
  1218  00A8  0823               	movf	(conversion_newton@Rc+3)^(0+128),w
  1219  00A9  00F9               	movwf	___flge@ff2+3
  1220  00AA  0822               	movf	(conversion_newton@Rc+2)^(0+128),w
  1221  00AB  00F8               	movwf	___flge@ff2+2
  1222  00AC  0821               	movf	(conversion_newton@Rc+1)^(0+128),w
  1223  00AD  00F7               	movwf	___flge@ff2+1
  1224  00AE  0820               	movf	conversion_newton@Rc^(0+128),w
  1225  00AF  00F6               	movwf	___flge@ff2
  1226  00B0  160A  118A  275C  120A  118A  	fcall	___flge
  1227  00B5  1803               	btfsc	3,0
  1228  00B6  28B8               	goto	u3381
  1229  00B7  28B9               	goto	u3380
  1230  00B8                     u3381:
  1231  00B8  28C0               	goto	l2376
  1232  00B9                     u3380:
  1233  00B9                     l2374:
  1234                           
  1235                           ;main.c: 184:          {;main.c: 185:          n = 1;
  1236  00B9  3001               	movlw	1
  1237  00BA  1683               	bsf	3,5	;RP0=1, select bank1
  1238  00BB  1303               	bcf	3,6	;RP1=0, select bank1
  1239  00BC  00C5               	movwf	conversion_newton@n^(0+128)
  1240  00BD  3000               	movlw	0
  1241  00BE  00C6               	movwf	(conversion_newton@n^(0+128)+1)
  1242                           
  1243                           ;main.c: 186:          }
  1244  00BF  2C84               	goto	l2428
  1245  00C0                     l2376:
  1246  00C0  300D               	movlw	low (((conversion_newton@R_tab+12)-__stringbase)| (0+32768))
  1247  00C1  0084               	movwf	4
  1248  00C2  160A  118A  2000  120A  118A  	fcall	stringdir
  1249  00C7  1683               	bsf	3,5	;RP0=1, select bank1
  1250  00C8  1303               	bcf	3,6	;RP1=0, select bank1
  1251  00C9  00A4               	movwf	??_conversion_newton^(0+128)
  1252  00CA  160A  118A  2000  120A  118A  	fcall	stringdir
  1253  00CF  00A5               	movwf	(??_conversion_newton^(0+128)+1)
  1254  00D0  160A  118A  2000  120A  118A  	fcall	stringdir
  1255  00D5  00A6               	movwf	(??_conversion_newton^(0+128)+2)
  1256  00D6  160A  118A  2000  120A  118A  	fcall	stringdir
  1257  00DB  00A7               	movwf	(??_conversion_newton^(0+128)+3)
  1258  00DC  0827               	movf	(??_conversion_newton+3)^(0+128),w
  1259  00DD  00F5               	movwf	___flge@ff1+3
  1260  00DE  0826               	movf	(??_conversion_newton+2)^(0+128),w
  1261  00DF  00F4               	movwf	___flge@ff1+2
  1262  00E0  0825               	movf	(??_conversion_newton+1)^(0+128),w
  1263  00E1  00F3               	movwf	___flge@ff1+1
  1264  00E2  0824               	movf	??_conversion_newton^(0+128),w
  1265  00E3  00F2               	movwf	___flge@ff1
  1266  00E4  0823               	movf	(conversion_newton@Rc+3)^(0+128),w
  1267  00E5  00F9               	movwf	___flge@ff2+3
  1268  00E6  0822               	movf	(conversion_newton@Rc+2)^(0+128),w
  1269  00E7  00F8               	movwf	___flge@ff2+2
  1270  00E8  0821               	movf	(conversion_newton@Rc+1)^(0+128),w
  1271  00E9  00F7               	movwf	___flge@ff2+1
  1272  00EA  0820               	movf	conversion_newton@Rc^(0+128),w
  1273  00EB  00F6               	movwf	___flge@ff2
  1274  00EC  160A  118A  275C  120A  118A  	fcall	___flge
  1275  00F1  1C03               	btfss	3,0
  1276  00F2  28F4               	goto	u3391
  1277  00F3  28F5               	goto	u3390
  1278  00F4                     u3391:
  1279  00F4  2931               	goto	l2382
  1280  00F5                     u3390:
  1281  00F5                     l2378:
  1282  00F5  3009               	movlw	low (((conversion_newton@R_tab+8)-__stringbase)| (0+32768))
  1283  00F6  0084               	movwf	4
  1284  00F7  160A  118A  2000  120A  118A  	fcall	stringdir
  1285  00FC  1683               	bsf	3,5	;RP0=1, select bank1
  1286  00FD  1303               	bcf	3,6	;RP1=0, select bank1
  1287  00FE  00A4               	movwf	??_conversion_newton^(0+128)
  1288  00FF  160A  118A  2000  120A  118A  	fcall	stringdir
  1289  0104  00A5               	movwf	(??_conversion_newton^(0+128)+1)
  1290  0105  160A  118A  2000  120A  118A  	fcall	stringdir
  1291  010A  00A6               	movwf	(??_conversion_newton^(0+128)+2)
  1292  010B  160A  118A  2000  120A  118A  	fcall	stringdir
  1293  0110  00A7               	movwf	(??_conversion_newton^(0+128)+3)
  1294  0111  0827               	movf	(??_conversion_newton+3)^(0+128),w
  1295  0112  00F5               	movwf	___flge@ff1+3
  1296  0113  0826               	movf	(??_conversion_newton+2)^(0+128),w
  1297  0114  00F4               	movwf	___flge@ff1+2
  1298  0115  0825               	movf	(??_conversion_newton+1)^(0+128),w
  1299  0116  00F3               	movwf	___flge@ff1+1
  1300  0117  0824               	movf	??_conversion_newton^(0+128),w
  1301  0118  00F2               	movwf	___flge@ff1
  1302  0119  0823               	movf	(conversion_newton@Rc+3)^(0+128),w
  1303  011A  00F9               	movwf	___flge@ff2+3
  1304  011B  0822               	movf	(conversion_newton@Rc+2)^(0+128),w
  1305  011C  00F8               	movwf	___flge@ff2+2
  1306  011D  0821               	movf	(conversion_newton@Rc+1)^(0+128),w
  1307  011E  00F7               	movwf	___flge@ff2+1
  1308  011F  0820               	movf	conversion_newton@Rc^(0+128),w
  1309  0120  00F6               	movwf	___flge@ff2
  1310  0121  160A  118A  275C  120A  118A  	fcall	___flge
  1311  0126  1803               	btfsc	3,0
  1312  0127  2929               	goto	u3401
  1313  0128  292A               	goto	u3400
  1314  0129                     u3401:
  1315  0129  2931               	goto	l2382
  1316  012A                     u3400:
  1317  012A                     l2380:
  1318                           
  1319                           ;main.c: 188:          {;main.c: 189:          n = 2;
  1320  012A  3002               	movlw	2
  1321  012B  1683               	bsf	3,5	;RP0=1, select bank1
  1322  012C  1303               	bcf	3,6	;RP1=0, select bank1
  1323  012D  00C5               	movwf	conversion_newton@n^(0+128)
  1324  012E  3000               	movlw	0
  1325  012F  00C6               	movwf	(conversion_newton@n^(0+128)+1)
  1326                           
  1327                           ;main.c: 190:          }
  1328  0130  2C84               	goto	l2428
  1329  0131                     l2382:
  1330  0131  3011               	movlw	low (((conversion_newton@R_tab+16)-__stringbase)| (0+32768))
  1331  0132  0084               	movwf	4
  1332  0133  160A  118A  2000  120A  118A  	fcall	stringdir
  1333  0138  1683               	bsf	3,5	;RP0=1, select bank1
  1334  0139  1303               	bcf	3,6	;RP1=0, select bank1
  1335  013A  00A4               	movwf	??_conversion_newton^(0+128)
  1336  013B  160A  118A  2000  120A  118A  	fcall	stringdir
  1337  0140  00A5               	movwf	(??_conversion_newton^(0+128)+1)
  1338  0141  160A  118A  2000  120A  118A  	fcall	stringdir
  1339  0146  00A6               	movwf	(??_conversion_newton^(0+128)+2)
  1340  0147  160A  118A  2000  120A  118A  	fcall	stringdir
  1341  014C  00A7               	movwf	(??_conversion_newton^(0+128)+3)
  1342  014D  0827               	movf	(??_conversion_newton+3)^(0+128),w
  1343  014E  00F5               	movwf	___flge@ff1+3
  1344  014F  0826               	movf	(??_conversion_newton+2)^(0+128),w
  1345  0150  00F4               	movwf	___flge@ff1+2
  1346  0151  0825               	movf	(??_conversion_newton+1)^(0+128),w
  1347  0152  00F3               	movwf	___flge@ff1+1
  1348  0153  0824               	movf	??_conversion_newton^(0+128),w
  1349  0154  00F2               	movwf	___flge@ff1
  1350  0155  0823               	movf	(conversion_newton@Rc+3)^(0+128),w
  1351  0156  00F9               	movwf	___flge@ff2+3
  1352  0157  0822               	movf	(conversion_newton@Rc+2)^(0+128),w
  1353  0158  00F8               	movwf	___flge@ff2+2
  1354  0159  0821               	movf	(conversion_newton@Rc+1)^(0+128),w
  1355  015A  00F7               	movwf	___flge@ff2+1
  1356  015B  0820               	movf	conversion_newton@Rc^(0+128),w
  1357  015C  00F6               	movwf	___flge@ff2
  1358  015D  160A  118A  275C  120A  118A  	fcall	___flge
  1359  0162  1C03               	btfss	3,0
  1360  0163  2965               	goto	u3411
  1361  0164  2966               	goto	u3410
  1362  0165                     u3411:
  1363  0165  29A2               	goto	l2388
  1364  0166                     u3410:
  1365  0166                     l2384:
  1366  0166  300D               	movlw	low (((conversion_newton@R_tab+12)-__stringbase)| (0+32768))
  1367  0167  0084               	movwf	4
  1368  0168  160A  118A  2000  120A  118A  	fcall	stringdir
  1369  016D  1683               	bsf	3,5	;RP0=1, select bank1
  1370  016E  1303               	bcf	3,6	;RP1=0, select bank1
  1371  016F  00A4               	movwf	??_conversion_newton^(0+128)
  1372  0170  160A  118A  2000  120A  118A  	fcall	stringdir
  1373  0175  00A5               	movwf	(??_conversion_newton^(0+128)+1)
  1374  0176  160A  118A  2000  120A  118A  	fcall	stringdir
  1375  017B  00A6               	movwf	(??_conversion_newton^(0+128)+2)
  1376  017C  160A  118A  2000  120A  118A  	fcall	stringdir
  1377  0181  00A7               	movwf	(??_conversion_newton^(0+128)+3)
  1378  0182  0827               	movf	(??_conversion_newton+3)^(0+128),w
  1379  0183  00F5               	movwf	___flge@ff1+3
  1380  0184  0826               	movf	(??_conversion_newton+2)^(0+128),w
  1381  0185  00F4               	movwf	___flge@ff1+2
  1382  0186  0825               	movf	(??_conversion_newton+1)^(0+128),w
  1383  0187  00F3               	movwf	___flge@ff1+1
  1384  0188  0824               	movf	??_conversion_newton^(0+128),w
  1385  0189  00F2               	movwf	___flge@ff1
  1386  018A  0823               	movf	(conversion_newton@Rc+3)^(0+128),w
  1387  018B  00F9               	movwf	___flge@ff2+3
  1388  018C  0822               	movf	(conversion_newton@Rc+2)^(0+128),w
  1389  018D  00F8               	movwf	___flge@ff2+2
  1390  018E  0821               	movf	(conversion_newton@Rc+1)^(0+128),w
  1391  018F  00F7               	movwf	___flge@ff2+1
  1392  0190  0820               	movf	conversion_newton@Rc^(0+128),w
  1393  0191  00F6               	movwf	___flge@ff2
  1394  0192  160A  118A  275C  120A  118A  	fcall	___flge
  1395  0197  1803               	btfsc	3,0
  1396  0198  299A               	goto	u3421
  1397  0199  299B               	goto	u3420
  1398  019A                     u3421:
  1399  019A  29A2               	goto	l2388
  1400  019B                     u3420:
  1401  019B                     l2386:
  1402                           
  1403                           ;main.c: 192:          {;main.c: 193:          n = 3;
  1404  019B  3003               	movlw	3
  1405  019C  1683               	bsf	3,5	;RP0=1, select bank1
  1406  019D  1303               	bcf	3,6	;RP1=0, select bank1
  1407  019E  00C5               	movwf	conversion_newton@n^(0+128)
  1408  019F  3000               	movlw	0
  1409  01A0  00C6               	movwf	(conversion_newton@n^(0+128)+1)
  1410                           
  1411                           ;main.c: 194:          }
  1412  01A1  2C84               	goto	l2428
  1413  01A2                     l2388:
  1414  01A2  3015               	movlw	low (((conversion_newton@R_tab+20)-__stringbase)| (0+32768))
  1415  01A3  0084               	movwf	4
  1416  01A4  160A  118A  2000  120A  118A  	fcall	stringdir
  1417  01A9  1683               	bsf	3,5	;RP0=1, select bank1
  1418  01AA  1303               	bcf	3,6	;RP1=0, select bank1
  1419  01AB  00A4               	movwf	??_conversion_newton^(0+128)
  1420  01AC  160A  118A  2000  120A  118A  	fcall	stringdir
  1421  01B1  00A5               	movwf	(??_conversion_newton^(0+128)+1)
  1422  01B2  160A  118A  2000  120A  118A  	fcall	stringdir
  1423  01B7  00A6               	movwf	(??_conversion_newton^(0+128)+2)
  1424  01B8  160A  118A  2000  120A  118A  	fcall	stringdir
  1425  01BD  00A7               	movwf	(??_conversion_newton^(0+128)+3)
  1426  01BE  0827               	movf	(??_conversion_newton+3)^(0+128),w
  1427  01BF  00F5               	movwf	___flge@ff1+3
  1428  01C0  0826               	movf	(??_conversion_newton+2)^(0+128),w
  1429  01C1  00F4               	movwf	___flge@ff1+2
  1430  01C2  0825               	movf	(??_conversion_newton+1)^(0+128),w
  1431  01C3  00F3               	movwf	___flge@ff1+1
  1432  01C4  0824               	movf	??_conversion_newton^(0+128),w
  1433  01C5  00F2               	movwf	___flge@ff1
  1434  01C6  0823               	movf	(conversion_newton@Rc+3)^(0+128),w
  1435  01C7  00F9               	movwf	___flge@ff2+3
  1436  01C8  0822               	movf	(conversion_newton@Rc+2)^(0+128),w
  1437  01C9  00F8               	movwf	___flge@ff2+2
  1438  01CA  0821               	movf	(conversion_newton@Rc+1)^(0+128),w
  1439  01CB  00F7               	movwf	___flge@ff2+1
  1440  01CC  0820               	movf	conversion_newton@Rc^(0+128),w
  1441  01CD  00F6               	movwf	___flge@ff2
  1442  01CE  160A  118A  275C  120A  118A  	fcall	___flge
  1443  01D3  1C03               	btfss	3,0
  1444  01D4  29D6               	goto	u3431
  1445  01D5  29D7               	goto	u3430
  1446  01D6                     u3431:
  1447  01D6  2A13               	goto	l2394
  1448  01D7                     u3430:
  1449  01D7                     l2390:
  1450  01D7  3011               	movlw	low (((conversion_newton@R_tab+16)-__stringbase)| (0+32768))
  1451  01D8  0084               	movwf	4
  1452  01D9  160A  118A  2000  120A  118A  	fcall	stringdir
  1453  01DE  1683               	bsf	3,5	;RP0=1, select bank1
  1454  01DF  1303               	bcf	3,6	;RP1=0, select bank1
  1455  01E0  00A4               	movwf	??_conversion_newton^(0+128)
  1456  01E1  160A  118A  2000  120A  118A  	fcall	stringdir
  1457  01E6  00A5               	movwf	(??_conversion_newton^(0+128)+1)
  1458  01E7  160A  118A  2000  120A  118A  	fcall	stringdir
  1459  01EC  00A6               	movwf	(??_conversion_newton^(0+128)+2)
  1460  01ED  160A  118A  2000  120A  118A  	fcall	stringdir
  1461  01F2  00A7               	movwf	(??_conversion_newton^(0+128)+3)
  1462  01F3  0827               	movf	(??_conversion_newton+3)^(0+128),w
  1463  01F4  00F5               	movwf	___flge@ff1+3
  1464  01F5  0826               	movf	(??_conversion_newton+2)^(0+128),w
  1465  01F6  00F4               	movwf	___flge@ff1+2
  1466  01F7  0825               	movf	(??_conversion_newton+1)^(0+128),w
  1467  01F8  00F3               	movwf	___flge@ff1+1
  1468  01F9  0824               	movf	??_conversion_newton^(0+128),w
  1469  01FA  00F2               	movwf	___flge@ff1
  1470  01FB  0823               	movf	(conversion_newton@Rc+3)^(0+128),w
  1471  01FC  00F9               	movwf	___flge@ff2+3
  1472  01FD  0822               	movf	(conversion_newton@Rc+2)^(0+128),w
  1473  01FE  00F8               	movwf	___flge@ff2+2
  1474  01FF  0821               	movf	(conversion_newton@Rc+1)^(0+128),w
  1475  0200  00F7               	movwf	___flge@ff2+1
  1476  0201  0820               	movf	conversion_newton@Rc^(0+128),w
  1477  0202  00F6               	movwf	___flge@ff2
  1478  0203  160A  118A  275C  120A  118A  	fcall	___flge
  1479  0208  1803               	btfsc	3,0
  1480  0209  2A0B               	goto	u3441
  1481  020A  2A0C               	goto	u3440
  1482  020B                     u3441:
  1483  020B  2A13               	goto	l2394
  1484  020C                     u3440:
  1485  020C                     l2392:
  1486                           
  1487                           ;main.c: 196:          {;main.c: 197:          n = 4;
  1488  020C  3004               	movlw	4
  1489  020D  1683               	bsf	3,5	;RP0=1, select bank1
  1490  020E  1303               	bcf	3,6	;RP1=0, select bank1
  1491  020F  00C5               	movwf	conversion_newton@n^(0+128)
  1492  0210  3000               	movlw	0
  1493  0211  00C6               	movwf	(conversion_newton@n^(0+128)+1)
  1494                           
  1495                           ;main.c: 198:          }
  1496  0212  2C84               	goto	l2428
  1497  0213                     l2394:
  1498  0213  3019               	movlw	low (((conversion_newton@R_tab+24)-__stringbase)| (0+32768))
  1499  0214  0084               	movwf	4
  1500  0215  160A  118A  2000  120A  118A  	fcall	stringdir
  1501  021A  1683               	bsf	3,5	;RP0=1, select bank1
  1502  021B  1303               	bcf	3,6	;RP1=0, select bank1
  1503  021C  00A4               	movwf	??_conversion_newton^(0+128)
  1504  021D  160A  118A  2000  120A  118A  	fcall	stringdir
  1505  0222  00A5               	movwf	(??_conversion_newton^(0+128)+1)
  1506  0223  160A  118A  2000  120A  118A  	fcall	stringdir
  1507  0228  00A6               	movwf	(??_conversion_newton^(0+128)+2)
  1508  0229  160A  118A  2000  120A  118A  	fcall	stringdir
  1509  022E  00A7               	movwf	(??_conversion_newton^(0+128)+3)
  1510  022F  0827               	movf	(??_conversion_newton+3)^(0+128),w
  1511  0230  00F5               	movwf	___flge@ff1+3
  1512  0231  0826               	movf	(??_conversion_newton+2)^(0+128),w
  1513  0232  00F4               	movwf	___flge@ff1+2
  1514  0233  0825               	movf	(??_conversion_newton+1)^(0+128),w
  1515  0234  00F3               	movwf	___flge@ff1+1
  1516  0235  0824               	movf	??_conversion_newton^(0+128),w
  1517  0236  00F2               	movwf	___flge@ff1
  1518  0237  0823               	movf	(conversion_newton@Rc+3)^(0+128),w
  1519  0238  00F9               	movwf	___flge@ff2+3
  1520  0239  0822               	movf	(conversion_newton@Rc+2)^(0+128),w
  1521  023A  00F8               	movwf	___flge@ff2+2
  1522  023B  0821               	movf	(conversion_newton@Rc+1)^(0+128),w
  1523  023C  00F7               	movwf	___flge@ff2+1
  1524  023D  0820               	movf	conversion_newton@Rc^(0+128),w
  1525  023E  00F6               	movwf	___flge@ff2
  1526  023F  160A  118A  275C  120A  118A  	fcall	___flge
  1527  0244  1C03               	btfss	3,0
  1528  0245  2A47               	goto	u3451
  1529  0246  2A48               	goto	u3450
  1530  0247                     u3451:
  1531  0247  2A84               	goto	l2400
  1532  0248                     u3450:
  1533  0248                     l2396:
  1534  0248  3015               	movlw	low (((conversion_newton@R_tab+20)-__stringbase)| (0+32768))
  1535  0249  0084               	movwf	4
  1536  024A  160A  118A  2000  120A  118A  	fcall	stringdir
  1537  024F  1683               	bsf	3,5	;RP0=1, select bank1
  1538  0250  1303               	bcf	3,6	;RP1=0, select bank1
  1539  0251  00A4               	movwf	??_conversion_newton^(0+128)
  1540  0252  160A  118A  2000  120A  118A  	fcall	stringdir
  1541  0257  00A5               	movwf	(??_conversion_newton^(0+128)+1)
  1542  0258  160A  118A  2000  120A  118A  	fcall	stringdir
  1543  025D  00A6               	movwf	(??_conversion_newton^(0+128)+2)
  1544  025E  160A  118A  2000  120A  118A  	fcall	stringdir
  1545  0263  00A7               	movwf	(??_conversion_newton^(0+128)+3)
  1546  0264  0827               	movf	(??_conversion_newton+3)^(0+128),w
  1547  0265  00F5               	movwf	___flge@ff1+3
  1548  0266  0826               	movf	(??_conversion_newton+2)^(0+128),w
  1549  0267  00F4               	movwf	___flge@ff1+2
  1550  0268  0825               	movf	(??_conversion_newton+1)^(0+128),w
  1551  0269  00F3               	movwf	___flge@ff1+1
  1552  026A  0824               	movf	??_conversion_newton^(0+128),w
  1553  026B  00F2               	movwf	___flge@ff1
  1554  026C  0823               	movf	(conversion_newton@Rc+3)^(0+128),w
  1555  026D  00F9               	movwf	___flge@ff2+3
  1556  026E  0822               	movf	(conversion_newton@Rc+2)^(0+128),w
  1557  026F  00F8               	movwf	___flge@ff2+2
  1558  0270  0821               	movf	(conversion_newton@Rc+1)^(0+128),w
  1559  0271  00F7               	movwf	___flge@ff2+1
  1560  0272  0820               	movf	conversion_newton@Rc^(0+128),w
  1561  0273  00F6               	movwf	___flge@ff2
  1562  0274  160A  118A  275C  120A  118A  	fcall	___flge
  1563  0279  1803               	btfsc	3,0
  1564  027A  2A7C               	goto	u3461
  1565  027B  2A7D               	goto	u3460
  1566  027C                     u3461:
  1567  027C  2A84               	goto	l2400
  1568  027D                     u3460:
  1569  027D                     l2398:
  1570                           
  1571                           ;main.c: 200:          {;main.c: 201:          n = 5;
  1572  027D  3005               	movlw	5
  1573  027E  1683               	bsf	3,5	;RP0=1, select bank1
  1574  027F  1303               	bcf	3,6	;RP1=0, select bank1
  1575  0280  00C5               	movwf	conversion_newton@n^(0+128)
  1576  0281  3000               	movlw	0
  1577  0282  00C6               	movwf	(conversion_newton@n^(0+128)+1)
  1578                           
  1579                           ;main.c: 202:          }
  1580  0283  2C84               	goto	l2428
  1581  0284                     l2400:
  1582  0284  301D               	movlw	low (((conversion_newton@R_tab+28)-__stringbase)| (0+32768))
  1583  0285  0084               	movwf	4
  1584  0286  160A  118A  2000  120A  118A  	fcall	stringdir
  1585  028B  1683               	bsf	3,5	;RP0=1, select bank1
  1586  028C  1303               	bcf	3,6	;RP1=0, select bank1
  1587  028D  00A4               	movwf	??_conversion_newton^(0+128)
  1588  028E  160A  118A  2000  120A  118A  	fcall	stringdir
  1589  0293  00A5               	movwf	(??_conversion_newton^(0+128)+1)
  1590  0294  160A  118A  2000  120A  118A  	fcall	stringdir
  1591  0299  00A6               	movwf	(??_conversion_newton^(0+128)+2)
  1592  029A  160A  118A  2000  120A  118A  	fcall	stringdir
  1593  029F  00A7               	movwf	(??_conversion_newton^(0+128)+3)
  1594  02A0  0827               	movf	(??_conversion_newton+3)^(0+128),w
  1595  02A1  00F5               	movwf	___flge@ff1+3
  1596  02A2  0826               	movf	(??_conversion_newton+2)^(0+128),w
  1597  02A3  00F4               	movwf	___flge@ff1+2
  1598  02A4  0825               	movf	(??_conversion_newton+1)^(0+128),w
  1599  02A5  00F3               	movwf	___flge@ff1+1
  1600  02A6  0824               	movf	??_conversion_newton^(0+128),w
  1601  02A7  00F2               	movwf	___flge@ff1
  1602  02A8  0823               	movf	(conversion_newton@Rc+3)^(0+128),w
  1603  02A9  00F9               	movwf	___flge@ff2+3
  1604  02AA  0822               	movf	(conversion_newton@Rc+2)^(0+128),w
  1605  02AB  00F8               	movwf	___flge@ff2+2
  1606  02AC  0821               	movf	(conversion_newton@Rc+1)^(0+128),w
  1607  02AD  00F7               	movwf	___flge@ff2+1
  1608  02AE  0820               	movf	conversion_newton@Rc^(0+128),w
  1609  02AF  00F6               	movwf	___flge@ff2
  1610  02B0  160A  118A  275C  120A  118A  	fcall	___flge
  1611  02B5  1C03               	btfss	3,0
  1612  02B6  2AB8               	goto	u3471
  1613  02B7  2AB9               	goto	u3470
  1614  02B8                     u3471:
  1615  02B8  2AF5               	goto	l2406
  1616  02B9                     u3470:
  1617  02B9                     l2402:
  1618  02B9  3019               	movlw	low (((conversion_newton@R_tab+24)-__stringbase)| (0+32768))
  1619  02BA  0084               	movwf	4
  1620  02BB  160A  118A  2000  120A  118A  	fcall	stringdir
  1621  02C0  1683               	bsf	3,5	;RP0=1, select bank1
  1622  02C1  1303               	bcf	3,6	;RP1=0, select bank1
  1623  02C2  00A4               	movwf	??_conversion_newton^(0+128)
  1624  02C3  160A  118A  2000  120A  118A  	fcall	stringdir
  1625  02C8  00A5               	movwf	(??_conversion_newton^(0+128)+1)
  1626  02C9  160A  118A  2000  120A  118A  	fcall	stringdir
  1627  02CE  00A6               	movwf	(??_conversion_newton^(0+128)+2)
  1628  02CF  160A  118A  2000  120A  118A  	fcall	stringdir
  1629  02D4  00A7               	movwf	(??_conversion_newton^(0+128)+3)
  1630  02D5  0827               	movf	(??_conversion_newton+3)^(0+128),w
  1631  02D6  00F5               	movwf	___flge@ff1+3
  1632  02D7  0826               	movf	(??_conversion_newton+2)^(0+128),w
  1633  02D8  00F4               	movwf	___flge@ff1+2
  1634  02D9  0825               	movf	(??_conversion_newton+1)^(0+128),w
  1635  02DA  00F3               	movwf	___flge@ff1+1
  1636  02DB  0824               	movf	??_conversion_newton^(0+128),w
  1637  02DC  00F2               	movwf	___flge@ff1
  1638  02DD  0823               	movf	(conversion_newton@Rc+3)^(0+128),w
  1639  02DE  00F9               	movwf	___flge@ff2+3
  1640  02DF  0822               	movf	(conversion_newton@Rc+2)^(0+128),w
  1641  02E0  00F8               	movwf	___flge@ff2+2
  1642  02E1  0821               	movf	(conversion_newton@Rc+1)^(0+128),w
  1643  02E2  00F7               	movwf	___flge@ff2+1
  1644  02E3  0820               	movf	conversion_newton@Rc^(0+128),w
  1645  02E4  00F6               	movwf	___flge@ff2
  1646  02E5  160A  118A  275C  120A  118A  	fcall	___flge
  1647  02EA  1803               	btfsc	3,0
  1648  02EB  2AED               	goto	u3481
  1649  02EC  2AEE               	goto	u3480
  1650  02ED                     u3481:
  1651  02ED  2AF5               	goto	l2406
  1652  02EE                     u3480:
  1653  02EE                     l2404:
  1654                           
  1655                           ;main.c: 204:          {;main.c: 205:          n = 6;
  1656  02EE  3006               	movlw	6
  1657  02EF  1683               	bsf	3,5	;RP0=1, select bank1
  1658  02F0  1303               	bcf	3,6	;RP1=0, select bank1
  1659  02F1  00C5               	movwf	conversion_newton@n^(0+128)
  1660  02F2  3000               	movlw	0
  1661  02F3  00C6               	movwf	(conversion_newton@n^(0+128)+1)
  1662                           
  1663                           ;main.c: 206:          }
  1664  02F4  2C84               	goto	l2428
  1665  02F5                     l2406:
  1666  02F5  3021               	movlw	low (((conversion_newton@R_tab+32)-__stringbase)| (0+32768))
  1667  02F6  0084               	movwf	4
  1668  02F7  160A  118A  2000  120A  118A  	fcall	stringdir
  1669  02FC  1683               	bsf	3,5	;RP0=1, select bank1
  1670  02FD  1303               	bcf	3,6	;RP1=0, select bank1
  1671  02FE  00A4               	movwf	??_conversion_newton^(0+128)
  1672  02FF  160A  118A  2000  120A  118A  	fcall	stringdir
  1673  0304  00A5               	movwf	(??_conversion_newton^(0+128)+1)
  1674  0305  160A  118A  2000  120A  118A  	fcall	stringdir
  1675  030A  00A6               	movwf	(??_conversion_newton^(0+128)+2)
  1676  030B  160A  118A  2000  120A  118A  	fcall	stringdir
  1677  0310  00A7               	movwf	(??_conversion_newton^(0+128)+3)
  1678  0311  0827               	movf	(??_conversion_newton+3)^(0+128),w
  1679  0312  00F5               	movwf	___flge@ff1+3
  1680  0313  0826               	movf	(??_conversion_newton+2)^(0+128),w
  1681  0314  00F4               	movwf	___flge@ff1+2
  1682  0315  0825               	movf	(??_conversion_newton+1)^(0+128),w
  1683  0316  00F3               	movwf	___flge@ff1+1
  1684  0317  0824               	movf	??_conversion_newton^(0+128),w
  1685  0318  00F2               	movwf	___flge@ff1
  1686  0319  0823               	movf	(conversion_newton@Rc+3)^(0+128),w
  1687  031A  00F9               	movwf	___flge@ff2+3
  1688  031B  0822               	movf	(conversion_newton@Rc+2)^(0+128),w
  1689  031C  00F8               	movwf	___flge@ff2+2
  1690  031D  0821               	movf	(conversion_newton@Rc+1)^(0+128),w
  1691  031E  00F7               	movwf	___flge@ff2+1
  1692  031F  0820               	movf	conversion_newton@Rc^(0+128),w
  1693  0320  00F6               	movwf	___flge@ff2
  1694  0321  160A  118A  275C  120A  118A  	fcall	___flge
  1695  0326  1C03               	btfss	3,0
  1696  0327  2B29               	goto	u3491
  1697  0328  2B2A               	goto	u3490
  1698  0329                     u3491:
  1699  0329  2B66               	goto	l2412
  1700  032A                     u3490:
  1701  032A                     l2408:
  1702  032A  301D               	movlw	low (((conversion_newton@R_tab+28)-__stringbase)| (0+32768))
  1703  032B  0084               	movwf	4
  1704  032C  160A  118A  2000  120A  118A  	fcall	stringdir
  1705  0331  1683               	bsf	3,5	;RP0=1, select bank1
  1706  0332  1303               	bcf	3,6	;RP1=0, select bank1
  1707  0333  00A4               	movwf	??_conversion_newton^(0+128)
  1708  0334  160A  118A  2000  120A  118A  	fcall	stringdir
  1709  0339  00A5               	movwf	(??_conversion_newton^(0+128)+1)
  1710  033A  160A  118A  2000  120A  118A  	fcall	stringdir
  1711  033F  00A6               	movwf	(??_conversion_newton^(0+128)+2)
  1712  0340  160A  118A  2000  120A  118A  	fcall	stringdir
  1713  0345  00A7               	movwf	(??_conversion_newton^(0+128)+3)
  1714  0346  0827               	movf	(??_conversion_newton+3)^(0+128),w
  1715  0347  00F5               	movwf	___flge@ff1+3
  1716  0348  0826               	movf	(??_conversion_newton+2)^(0+128),w
  1717  0349  00F4               	movwf	___flge@ff1+2
  1718  034A  0825               	movf	(??_conversion_newton+1)^(0+128),w
  1719  034B  00F3               	movwf	___flge@ff1+1
  1720  034C  0824               	movf	??_conversion_newton^(0+128),w
  1721  034D  00F2               	movwf	___flge@ff1
  1722  034E  0823               	movf	(conversion_newton@Rc+3)^(0+128),w
  1723  034F  00F9               	movwf	___flge@ff2+3
  1724  0350  0822               	movf	(conversion_newton@Rc+2)^(0+128),w
  1725  0351  00F8               	movwf	___flge@ff2+2
  1726  0352  0821               	movf	(conversion_newton@Rc+1)^(0+128),w
  1727  0353  00F7               	movwf	___flge@ff2+1
  1728  0354  0820               	movf	conversion_newton@Rc^(0+128),w
  1729  0355  00F6               	movwf	___flge@ff2
  1730  0356  160A  118A  275C  120A  118A  	fcall	___flge
  1731  035B  1803               	btfsc	3,0
  1732  035C  2B5E               	goto	u3501
  1733  035D  2B5F               	goto	u3500
  1734  035E                     u3501:
  1735  035E  2B66               	goto	l2412
  1736  035F                     u3500:
  1737  035F                     l2410:
  1738                           
  1739                           ;main.c: 208:          {;main.c: 209:          n = 7;
  1740  035F  3007               	movlw	7
  1741  0360  1683               	bsf	3,5	;RP0=1, select bank1
  1742  0361  1303               	bcf	3,6	;RP1=0, select bank1
  1743  0362  00C5               	movwf	conversion_newton@n^(0+128)
  1744  0363  3000               	movlw	0
  1745  0364  00C6               	movwf	(conversion_newton@n^(0+128)+1)
  1746                           
  1747                           ;main.c: 210:          }
  1748  0365  2C84               	goto	l2428
  1749  0366                     l2412:
  1750  0366  3025               	movlw	low (((conversion_newton@R_tab+36)-__stringbase)| (0+32768))
  1751  0367  0084               	movwf	4
  1752  0368  160A  118A  2000  120A  118A  	fcall	stringdir
  1753  036D  1683               	bsf	3,5	;RP0=1, select bank1
  1754  036E  1303               	bcf	3,6	;RP1=0, select bank1
  1755  036F  00A4               	movwf	??_conversion_newton^(0+128)
  1756  0370  160A  118A  2000  120A  118A  	fcall	stringdir
  1757  0375  00A5               	movwf	(??_conversion_newton^(0+128)+1)
  1758  0376  160A  118A  2000  120A  118A  	fcall	stringdir
  1759  037B  00A6               	movwf	(??_conversion_newton^(0+128)+2)
  1760  037C  160A  118A  2000  120A  118A  	fcall	stringdir
  1761  0381  00A7               	movwf	(??_conversion_newton^(0+128)+3)
  1762  0382  0827               	movf	(??_conversion_newton+3)^(0+128),w
  1763  0383  00F5               	movwf	___flge@ff1+3
  1764  0384  0826               	movf	(??_conversion_newton+2)^(0+128),w
  1765  0385  00F4               	movwf	___flge@ff1+2
  1766  0386  0825               	movf	(??_conversion_newton+1)^(0+128),w
  1767  0387  00F3               	movwf	___flge@ff1+1
  1768  0388  0824               	movf	??_conversion_newton^(0+128),w
  1769  0389  00F2               	movwf	___flge@ff1
  1770  038A  0823               	movf	(conversion_newton@Rc+3)^(0+128),w
  1771  038B  00F9               	movwf	___flge@ff2+3
  1772  038C  0822               	movf	(conversion_newton@Rc+2)^(0+128),w
  1773  038D  00F8               	movwf	___flge@ff2+2
  1774  038E  0821               	movf	(conversion_newton@Rc+1)^(0+128),w
  1775  038F  00F7               	movwf	___flge@ff2+1
  1776  0390  0820               	movf	conversion_newton@Rc^(0+128),w
  1777  0391  00F6               	movwf	___flge@ff2
  1778  0392  160A  118A  275C  120A  118A  	fcall	___flge
  1779  0397  1C03               	btfss	3,0
  1780  0398  2B9A               	goto	u3511
  1781  0399  2B9B               	goto	u3510
  1782  039A                     u3511:
  1783  039A  2BD7               	goto	l2418
  1784  039B                     u3510:
  1785  039B                     l2414:
  1786  039B  3021               	movlw	low (((conversion_newton@R_tab+32)-__stringbase)| (0+32768))
  1787  039C  0084               	movwf	4
  1788  039D  160A  118A  2000  120A  118A  	fcall	stringdir
  1789  03A2  1683               	bsf	3,5	;RP0=1, select bank1
  1790  03A3  1303               	bcf	3,6	;RP1=0, select bank1
  1791  03A4  00A4               	movwf	??_conversion_newton^(0+128)
  1792  03A5  160A  118A  2000  120A  118A  	fcall	stringdir
  1793  03AA  00A5               	movwf	(??_conversion_newton^(0+128)+1)
  1794  03AB  160A  118A  2000  120A  118A  	fcall	stringdir
  1795  03B0  00A6               	movwf	(??_conversion_newton^(0+128)+2)
  1796  03B1  160A  118A  2000  120A  118A  	fcall	stringdir
  1797  03B6  00A7               	movwf	(??_conversion_newton^(0+128)+3)
  1798  03B7  0827               	movf	(??_conversion_newton+3)^(0+128),w
  1799  03B8  00F5               	movwf	___flge@ff1+3
  1800  03B9  0826               	movf	(??_conversion_newton+2)^(0+128),w
  1801  03BA  00F4               	movwf	___flge@ff1+2
  1802  03BB  0825               	movf	(??_conversion_newton+1)^(0+128),w
  1803  03BC  00F3               	movwf	___flge@ff1+1
  1804  03BD  0824               	movf	??_conversion_newton^(0+128),w
  1805  03BE  00F2               	movwf	___flge@ff1
  1806  03BF  0823               	movf	(conversion_newton@Rc+3)^(0+128),w
  1807  03C0  00F9               	movwf	___flge@ff2+3
  1808  03C1  0822               	movf	(conversion_newton@Rc+2)^(0+128),w
  1809  03C2  00F8               	movwf	___flge@ff2+2
  1810  03C3  0821               	movf	(conversion_newton@Rc+1)^(0+128),w
  1811  03C4  00F7               	movwf	___flge@ff2+1
  1812  03C5  0820               	movf	conversion_newton@Rc^(0+128),w
  1813  03C6  00F6               	movwf	___flge@ff2
  1814  03C7  160A  118A  275C  120A  118A  	fcall	___flge
  1815  03CC  1803               	btfsc	3,0
  1816  03CD  2BCF               	goto	u3521
  1817  03CE  2BD0               	goto	u3520
  1818  03CF                     u3521:
  1819  03CF  2BD7               	goto	l2418
  1820  03D0                     u3520:
  1821  03D0                     l2416:
  1822                           
  1823                           ;main.c: 212:          {;main.c: 213:          n = 8;
  1824  03D0  3008               	movlw	8
  1825  03D1  1683               	bsf	3,5	;RP0=1, select bank1
  1826  03D2  1303               	bcf	3,6	;RP1=0, select bank1
  1827  03D3  00C5               	movwf	conversion_newton@n^(0+128)
  1828  03D4  3000               	movlw	0
  1829  03D5  00C6               	movwf	(conversion_newton@n^(0+128)+1)
  1830                           
  1831                           ;main.c: 214:          }
  1832  03D6  2C84               	goto	l2428
  1833  03D7                     l2418:
  1834  03D7  3029               	movlw	low (((conversion_newton@R_tab+40)-__stringbase)| (0+32768))
  1835  03D8  0084               	movwf	4
  1836  03D9  160A  118A  2000  120A  118A  	fcall	stringdir
  1837  03DE  1683               	bsf	3,5	;RP0=1, select bank1
  1838  03DF  1303               	bcf	3,6	;RP1=0, select bank1
  1839  03E0  00A4               	movwf	??_conversion_newton^(0+128)
  1840  03E1  160A  118A  2000  120A  118A  	fcall	stringdir
  1841  03E6  00A5               	movwf	(??_conversion_newton^(0+128)+1)
  1842  03E7  160A  118A  2000  120A  118A  	fcall	stringdir
  1843  03EC  00A6               	movwf	(??_conversion_newton^(0+128)+2)
  1844  03ED  160A  118A  2000  120A  118A  	fcall	stringdir
  1845  03F2  00A7               	movwf	(??_conversion_newton^(0+128)+3)
  1846  03F3  0827               	movf	(??_conversion_newton+3)^(0+128),w
  1847  03F4  00F5               	movwf	___flge@ff1+3
  1848  03F5  0826               	movf	(??_conversion_newton+2)^(0+128),w
  1849  03F6  00F4               	movwf	___flge@ff1+2
  1850  03F7  0825               	movf	(??_conversion_newton+1)^(0+128),w
  1851  03F8  00F3               	movwf	___flge@ff1+1
  1852  03F9  0824               	movf	??_conversion_newton^(0+128),w
  1853  03FA  00F2               	movwf	___flge@ff1
  1854  03FB  0823               	movf	(conversion_newton@Rc+3)^(0+128),w
  1855  03FC  00F9               	movwf	___flge@ff2+3
  1856  03FD  0822               	movf	(conversion_newton@Rc+2)^(0+128),w
  1857  03FE  00F8               	movwf	___flge@ff2+2
  1858  03FF  0821               	movf	(conversion_newton@Rc+1)^(0+128),w
  1859  0400  00F7               	movwf	___flge@ff2+1
  1860  0401  0820               	movf	conversion_newton@Rc^(0+128),w
  1861  0402  00F6               	movwf	___flge@ff2
  1862  0403  160A  118A  275C  120A  118A  	fcall	___flge
  1863  0408  1C03               	btfss	3,0
  1864  0409  2C0B               	goto	u3531
  1865  040A  2C0C               	goto	u3530
  1866  040B                     u3531:
  1867  040B  2C48               	goto	l2424
  1868  040C                     u3530:
  1869  040C                     l2420:
  1870  040C  3025               	movlw	low (((conversion_newton@R_tab+36)-__stringbase)| (0+32768))
  1871  040D  0084               	movwf	4
  1872  040E  160A  118A  2000  120A  118A  	fcall	stringdir
  1873  0413  1683               	bsf	3,5	;RP0=1, select bank1
  1874  0414  1303               	bcf	3,6	;RP1=0, select bank1
  1875  0415  00A4               	movwf	??_conversion_newton^(0+128)
  1876  0416  160A  118A  2000  120A  118A  	fcall	stringdir
  1877  041B  00A5               	movwf	(??_conversion_newton^(0+128)+1)
  1878  041C  160A  118A  2000  120A  118A  	fcall	stringdir
  1879  0421  00A6               	movwf	(??_conversion_newton^(0+128)+2)
  1880  0422  160A  118A  2000  120A  118A  	fcall	stringdir
  1881  0427  00A7               	movwf	(??_conversion_newton^(0+128)+3)
  1882  0428  0827               	movf	(??_conversion_newton+3)^(0+128),w
  1883  0429  00F5               	movwf	___flge@ff1+3
  1884  042A  0826               	movf	(??_conversion_newton+2)^(0+128),w
  1885  042B  00F4               	movwf	___flge@ff1+2
  1886  042C  0825               	movf	(??_conversion_newton+1)^(0+128),w
  1887  042D  00F3               	movwf	___flge@ff1+1
  1888  042E  0824               	movf	??_conversion_newton^(0+128),w
  1889  042F  00F2               	movwf	___flge@ff1
  1890  0430  0823               	movf	(conversion_newton@Rc+3)^(0+128),w
  1891  0431  00F9               	movwf	___flge@ff2+3
  1892  0432  0822               	movf	(conversion_newton@Rc+2)^(0+128),w
  1893  0433  00F8               	movwf	___flge@ff2+2
  1894  0434  0821               	movf	(conversion_newton@Rc+1)^(0+128),w
  1895  0435  00F7               	movwf	___flge@ff2+1
  1896  0436  0820               	movf	conversion_newton@Rc^(0+128),w
  1897  0437  00F6               	movwf	___flge@ff2
  1898  0438  160A  118A  275C  120A  118A  	fcall	___flge
  1899  043D  1803               	btfsc	3,0
  1900  043E  2C40               	goto	u3541
  1901  043F  2C41               	goto	u3540
  1902  0440                     u3541:
  1903  0440  2C48               	goto	l2424
  1904  0441                     u3540:
  1905  0441                     l2422:
  1906                           
  1907                           ;main.c: 216:          {;main.c: 217:          n = 9;
  1908  0441  3009               	movlw	9
  1909  0442  1683               	bsf	3,5	;RP0=1, select bank1
  1910  0443  1303               	bcf	3,6	;RP1=0, select bank1
  1911  0444  00C5               	movwf	conversion_newton@n^(0+128)
  1912  0445  3000               	movlw	0
  1913  0446  00C6               	movwf	(conversion_newton@n^(0+128)+1)
  1914                           
  1915                           ;main.c: 218:          }
  1916  0447  2C84               	goto	l2428
  1917  0448                     l2424:
  1918  0448  3029               	movlw	low (((conversion_newton@R_tab+40)-__stringbase)| (0+32768))
  1919  0449  0084               	movwf	4
  1920  044A  160A  118A  2000  120A  118A  	fcall	stringdir
  1921  044F  1683               	bsf	3,5	;RP0=1, select bank1
  1922  0450  1303               	bcf	3,6	;RP1=0, select bank1
  1923  0451  00A4               	movwf	??_conversion_newton^(0+128)
  1924  0452  160A  118A  2000  120A  118A  	fcall	stringdir
  1925  0457  00A5               	movwf	(??_conversion_newton^(0+128)+1)
  1926  0458  160A  118A  2000  120A  118A  	fcall	stringdir
  1927  045D  00A6               	movwf	(??_conversion_newton^(0+128)+2)
  1928  045E  160A  118A  2000  120A  118A  	fcall	stringdir
  1929  0463  00A7               	movwf	(??_conversion_newton^(0+128)+3)
  1930  0464  0827               	movf	(??_conversion_newton+3)^(0+128),w
  1931  0465  00F5               	movwf	___flge@ff1+3
  1932  0466  0826               	movf	(??_conversion_newton+2)^(0+128),w
  1933  0467  00F4               	movwf	___flge@ff1+2
  1934  0468  0825               	movf	(??_conversion_newton+1)^(0+128),w
  1935  0469  00F3               	movwf	___flge@ff1+1
  1936  046A  0824               	movf	??_conversion_newton^(0+128),w
  1937  046B  00F2               	movwf	___flge@ff1
  1938  046C  0823               	movf	(conversion_newton@Rc+3)^(0+128),w
  1939  046D  00F9               	movwf	___flge@ff2+3
  1940  046E  0822               	movf	(conversion_newton@Rc+2)^(0+128),w
  1941  046F  00F8               	movwf	___flge@ff2+2
  1942  0470  0821               	movf	(conversion_newton@Rc+1)^(0+128),w
  1943  0471  00F7               	movwf	___flge@ff2+1
  1944  0472  0820               	movf	conversion_newton@Rc^(0+128),w
  1945  0473  00F6               	movwf	___flge@ff2
  1946  0474  160A  118A  275C  120A  118A  	fcall	___flge
  1947  0479  1803               	btfsc	3,0
  1948  047A  2C7C               	goto	u3551
  1949  047B  2C7D               	goto	u3550
  1950  047C                     u3551:
  1951  047C  2C84               	goto	l66
  1952  047D                     u3550:
  1953  047D                     l2426:
  1954                           
  1955                           ;main.c: 220:          {;main.c: 221:          n = 10;
  1956  047D  300A               	movlw	10
  1957  047E  1683               	bsf	3,5	;RP0=1, select bank1
  1958  047F  1303               	bcf	3,6	;RP1=0, select bank1
  1959  0480  00C5               	movwf	conversion_newton@n^(0+128)
  1960  0481  3000               	movlw	0
  1961  0482  00C6               	movwf	(conversion_newton@n^(0+128)+1)
  1962  0483  2C84               	goto	l2428
  1963  0484                     l66:
  1964  0484                     l2428:
  1965                           
  1966                           ;main.c: 223:      F = (((F_tab[n]-F_tab[n+1])/(R_tab[n+1]-R_tab[n]))*(Rc-R_tab[n]))+F_t
      +                          ab[n];
  1967  0484  1683               	bsf	3,5	;RP0=1, select bank1
  1968  0485  1303               	bcf	3,6	;RP1=0, select bank1
  1969  0486  0845               	movf	conversion_newton@n^(0+128),w
  1970  0487  00A4               	movwf	??_conversion_newton^(0+128)
  1971  0488  3001               	movlw	1
  1972  0489                     u3565:
  1973  0489  1003               	clrc
  1974  048A  0DA4               	rlf	??_conversion_newton^(0+128),f
  1975  048B  3EFF               	addlw	-1
  1976  048C  1D03               	skipz
  1977  048D  2C89               	goto	u3565
  1978  048E  1003               	clrc
  1979  048F  0D24               	rlf	??_conversion_newton^(0+128),w
  1980  0490  3E01               	addlw	low ((conversion_newton@R_tab-__stringbase)| (0+32768))
  1981  0491  0084               	movwf	4
  1982  0492  160A  118A  2000  120A  118A  	fcall	stringdir
  1983  0497  00A5               	movwf	(??_conversion_newton+1)^(0+128)
  1984  0498  160A  118A  2000  120A  118A  	fcall	stringdir
  1985  049D  00A6               	movwf	((??_conversion_newton+1)^(0+128)+1)
  1986  049E  160A  118A  2000  120A  118A  	fcall	stringdir
  1987  04A3  00A7               	movwf	((??_conversion_newton+1)^(0+128)+2)
  1988  04A4  160A  118A  2000  120A  118A  	fcall	stringdir
  1989  04A9  00A8               	movwf	((??_conversion_newton+1)^(0+128)+3)
  1990  04AA  0828               	movf	(??_conversion_newton+4)^(0+128),w
  1991  04AB  1283               	bcf	3,5	;RP0=0, select bank0
  1992  04AC  1303               	bcf	3,6	;RP1=0, select bank0
  1993  04AD  00B7               	movwf	___flsub@a+3
  1994  04AE  1683               	bsf	3,5	;RP0=1, select bank1
  1995  04AF  1303               	bcf	3,6	;RP1=0, select bank1
  1996  04B0  0827               	movf	(??_conversion_newton+3)^(0+128),w
  1997  04B1  1283               	bcf	3,5	;RP0=0, select bank0
  1998  04B2  1303               	bcf	3,6	;RP1=0, select bank0
  1999  04B3  00B6               	movwf	___flsub@a+2
  2000  04B4  1683               	bsf	3,5	;RP0=1, select bank1
  2001  04B5  1303               	bcf	3,6	;RP1=0, select bank1
  2002  04B6  0826               	movf	(??_conversion_newton+2)^(0+128),w
  2003  04B7  1283               	bcf	3,5	;RP0=0, select bank0
  2004  04B8  1303               	bcf	3,6	;RP1=0, select bank0
  2005  04B9  00B5               	movwf	___flsub@a+1
  2006  04BA  1683               	bsf	3,5	;RP0=1, select bank1
  2007  04BB  1303               	bcf	3,6	;RP1=0, select bank1
  2008  04BC  0825               	movf	(??_conversion_newton+1)^(0+128),w
  2009  04BD  1283               	bcf	3,5	;RP0=0, select bank0
  2010  04BE  1303               	bcf	3,6	;RP1=0, select bank0
  2011  04BF  00B4               	movwf	___flsub@a
  2012  04C0  1683               	bsf	3,5	;RP0=1, select bank1
  2013  04C1  1303               	bcf	3,6	;RP1=0, select bank1
  2014  04C2  0823               	movf	(conversion_newton@Rc+3)^(0+128),w
  2015  04C3  1283               	bcf	3,5	;RP0=0, select bank0
  2016  04C4  1303               	bcf	3,6	;RP1=0, select bank0
  2017  04C5  00BB               	movwf	___flsub@b+3
  2018  04C6  1683               	bsf	3,5	;RP0=1, select bank1
  2019  04C7  1303               	bcf	3,6	;RP1=0, select bank1
  2020  04C8  0822               	movf	(conversion_newton@Rc+2)^(0+128),w
  2021  04C9  1283               	bcf	3,5	;RP0=0, select bank0
  2022  04CA  1303               	bcf	3,6	;RP1=0, select bank0
  2023  04CB  00BA               	movwf	___flsub@b+2
  2024  04CC  1683               	bsf	3,5	;RP0=1, select bank1
  2025  04CD  1303               	bcf	3,6	;RP1=0, select bank1
  2026  04CE  0821               	movf	(conversion_newton@Rc+1)^(0+128),w
  2027  04CF  1283               	bcf	3,5	;RP0=0, select bank0
  2028  04D0  1303               	bcf	3,6	;RP1=0, select bank0
  2029  04D1  00B9               	movwf	___flsub@b+1
  2030  04D2  1683               	bsf	3,5	;RP0=1, select bank1
  2031  04D3  1303               	bcf	3,6	;RP1=0, select bank1
  2032  04D4  0820               	movf	conversion_newton@Rc^(0+128),w
  2033  04D5  1283               	bcf	3,5	;RP0=0, select bank0
  2034  04D6  1303               	bcf	3,6	;RP1=0, select bank0
  2035  04D7  00B8               	movwf	___flsub@b
  2036  04D8  160A  118A  2554  120A  118A  	fcall	___flsub
  2037  04DD  1283               	bcf	3,5	;RP0=0, select bank0
  2038  04DE  1303               	bcf	3,6	;RP1=0, select bank0
  2039  04DF  0837               	movf	?___flsub+3,w
  2040  04E0  00D9               	movwf	___flmul@b+3
  2041  04E1  0836               	movf	?___flsub+2,w
  2042  04E2  00D8               	movwf	___flmul@b+2
  2043  04E3  0835               	movf	?___flsub+1,w
  2044  04E4  00D7               	movwf	___flmul@b+1
  2045  04E5  0834               	movf	?___flsub,w
  2046  04E6  00D6               	movwf	___flmul@b
  2047  04E7  1683               	bsf	3,5	;RP0=1, select bank1
  2048  04E8  1303               	bcf	3,6	;RP1=0, select bank1
  2049  04E9  0845               	movf	conversion_newton@n^(0+128),w
  2050  04EA  00A9               	movwf	(??_conversion_newton+5)^(0+128)
  2051  04EB  3001               	movlw	1
  2052  04EC                     u3575:
  2053  04EC  1003               	clrc
  2054  04ED  0DA9               	rlf	(??_conversion_newton+5)^(0+128),f
  2055  04EE  3EFF               	addlw	-1
  2056  04EF  1D03               	skipz
  2057  04F0  2CEC               	goto	u3575
  2058  04F1  1003               	clrc
  2059  04F2  0D29               	rlf	(??_conversion_newton+5)^(0+128),w
  2060  04F3  3E01               	addlw	low ((conversion_newton@R_tab-__stringbase)| (0+32768))
  2061  04F4  0084               	movwf	4
  2062  04F5  160A  118A  2000  120A  118A  	fcall	stringdir
  2063  04FA  00AA               	movwf	(??_conversion_newton+6)^(0+128)
  2064  04FB  160A  118A  2000  120A  118A  	fcall	stringdir
  2065  0500  00AB               	movwf	((??_conversion_newton+6)^(0+128)+1)
  2066  0501  160A  118A  2000  120A  118A  	fcall	stringdir
  2067  0506  00AC               	movwf	((??_conversion_newton+6)^(0+128)+2)
  2068  0507  160A  118A  2000  120A  118A  	fcall	stringdir
  2069  050C  00AD               	movwf	((??_conversion_newton+6)^(0+128)+3)
  2070  050D  082D               	movf	(??_conversion_newton+9)^(0+128),w
  2071  050E  1283               	bcf	3,5	;RP0=0, select bank0
  2072  050F  1303               	bcf	3,6	;RP1=0, select bank0
  2073  0510  00B7               	movwf	___flsub@a+3
  2074  0511  1683               	bsf	3,5	;RP0=1, select bank1
  2075  0512  1303               	bcf	3,6	;RP1=0, select bank1
  2076  0513  082C               	movf	(??_conversion_newton+8)^(0+128),w
  2077  0514  1283               	bcf	3,5	;RP0=0, select bank0
  2078  0515  1303               	bcf	3,6	;RP1=0, select bank0
  2079  0516  00B6               	movwf	___flsub@a+2
  2080  0517  1683               	bsf	3,5	;RP0=1, select bank1
  2081  0518  1303               	bcf	3,6	;RP1=0, select bank1
  2082  0519  082B               	movf	(??_conversion_newton+7)^(0+128),w
  2083  051A  1283               	bcf	3,5	;RP0=0, select bank0
  2084  051B  1303               	bcf	3,6	;RP1=0, select bank0
  2085  051C  00B5               	movwf	___flsub@a+1
  2086  051D  1683               	bsf	3,5	;RP0=1, select bank1
  2087  051E  1303               	bcf	3,6	;RP1=0, select bank1
  2088  051F  082A               	movf	(??_conversion_newton+6)^(0+128),w
  2089  0520  1283               	bcf	3,5	;RP0=0, select bank0
  2090  0521  1303               	bcf	3,6	;RP1=0, select bank0
  2091  0522  00B4               	movwf	___flsub@a
  2092  0523  1683               	bsf	3,5	;RP0=1, select bank1
  2093  0524  1303               	bcf	3,6	;RP1=0, select bank1
  2094  0525  0845               	movf	conversion_newton@n^(0+128),w
  2095  0526  00AE               	movwf	(??_conversion_newton+10)^(0+128)
  2096  0527  3001               	movlw	1
  2097  0528                     u3585:
  2098  0528  1003               	clrc
  2099  0529  0DAE               	rlf	(??_conversion_newton+10)^(0+128),f
  2100  052A  3EFF               	addlw	-1
  2101  052B  1D03               	skipz
  2102  052C  2D28               	goto	u3585
  2103  052D  1003               	clrc
  2104  052E  0D2E               	rlf	(??_conversion_newton+10)^(0+128),w
  2105  052F  3E05               	addlw	low (((conversion_newton@R_tab-__stringbase)| (0+32768)+4))
  2106  0530  0084               	movwf	4
  2107  0531  160A  118A  2000  120A  118A  	fcall	stringdir
  2108  0536  00AF               	movwf	(??_conversion_newton+11)^(0+128)
  2109  0537  160A  118A  2000  120A  118A  	fcall	stringdir
  2110  053C  00B0               	movwf	((??_conversion_newton+11)^(0+128)+1)
  2111  053D  160A  118A  2000  120A  118A  	fcall	stringdir
  2112  0542  00B1               	movwf	((??_conversion_newton+11)^(0+128)+2)
  2113  0543  160A  118A  2000  120A  118A  	fcall	stringdir
  2114  0548  00B2               	movwf	((??_conversion_newton+11)^(0+128)+3)
  2115  0549  0832               	movf	(??_conversion_newton+14)^(0+128),w
  2116  054A  1283               	bcf	3,5	;RP0=0, select bank0
  2117  054B  1303               	bcf	3,6	;RP1=0, select bank0
  2118  054C  00BB               	movwf	___flsub@b+3
  2119  054D  1683               	bsf	3,5	;RP0=1, select bank1
  2120  054E  1303               	bcf	3,6	;RP1=0, select bank1
  2121  054F  0831               	movf	(??_conversion_newton+13)^(0+128),w
  2122  0550  1283               	bcf	3,5	;RP0=0, select bank0
  2123  0551  1303               	bcf	3,6	;RP1=0, select bank0
  2124  0552  00BA               	movwf	___flsub@b+2
  2125  0553  1683               	bsf	3,5	;RP0=1, select bank1
  2126  0554  1303               	bcf	3,6	;RP1=0, select bank1
  2127  0555  0830               	movf	(??_conversion_newton+12)^(0+128),w
  2128  0556  1283               	bcf	3,5	;RP0=0, select bank0
  2129  0557  1303               	bcf	3,6	;RP1=0, select bank0
  2130  0558  00B9               	movwf	___flsub@b+1
  2131  0559  1683               	bsf	3,5	;RP0=1, select bank1
  2132  055A  1303               	bcf	3,6	;RP1=0, select bank1
  2133  055B  082F               	movf	(??_conversion_newton+11)^(0+128),w
  2134  055C  1283               	bcf	3,5	;RP0=0, select bank0
  2135  055D  1303               	bcf	3,6	;RP1=0, select bank0
  2136  055E  00B8               	movwf	___flsub@b
  2137  055F  160A  118A  2554  120A  118A  	fcall	___flsub
  2138  0564  1283               	bcf	3,5	;RP0=0, select bank0
  2139  0565  1303               	bcf	3,6	;RP1=0, select bank0
  2140  0566  0837               	movf	?___flsub+3,w
  2141  0567  00BF               	movwf	___fldiv@a+3
  2142  0568  0836               	movf	?___flsub+2,w
  2143  0569  00BE               	movwf	___fldiv@a+2
  2144  056A  0835               	movf	?___flsub+1,w
  2145  056B  00BD               	movwf	___fldiv@a+1
  2146  056C  0834               	movf	?___flsub,w
  2147  056D  00BC               	movwf	___fldiv@a
  2148  056E  1683               	bsf	3,5	;RP0=1, select bank1
  2149  056F  1303               	bcf	3,6	;RP1=0, select bank1
  2150  0570  0845               	movf	conversion_newton@n^(0+128),w
  2151  0571  00B3               	movwf	(??_conversion_newton+15)^(0+128)
  2152  0572  3001               	movlw	1
  2153  0573                     u3595:
  2154  0573  1003               	clrc
  2155  0574  0DB3               	rlf	(??_conversion_newton+15)^(0+128),f
  2156  0575  3EFF               	addlw	-1
  2157  0576  1D03               	skipz
  2158  0577  2D73               	goto	u3595
  2159  0578  1003               	clrc
  2160  0579  0D33               	rlf	(??_conversion_newton+15)^(0+128),w
  2161  057A  3E55               	addlw	low (((conversion_newton@F_tab-__stringbase)| (0+32768)+4))
  2162  057B  0084               	movwf	4
  2163  057C  160A  118A  2000  120A  118A  	fcall	stringdir
  2164  0581  00B4               	movwf	(??_conversion_newton+16)^(0+128)
  2165  0582  160A  118A  2000  120A  118A  	fcall	stringdir
  2166  0587  00B5               	movwf	((??_conversion_newton+16)^(0+128)+1)
  2167  0588  160A  118A  2000  120A  118A  	fcall	stringdir
  2168  058D  00B6               	movwf	((??_conversion_newton+16)^(0+128)+2)
  2169  058E  160A  118A  2000  120A  118A  	fcall	stringdir
  2170  0593  00B7               	movwf	((??_conversion_newton+16)^(0+128)+3)
  2171  0594  0837               	movf	(??_conversion_newton+19)^(0+128),w
  2172  0595  1283               	bcf	3,5	;RP0=0, select bank0
  2173  0596  1303               	bcf	3,6	;RP1=0, select bank0
  2174  0597  00B7               	movwf	___flsub@a+3
  2175  0598  1683               	bsf	3,5	;RP0=1, select bank1
  2176  0599  1303               	bcf	3,6	;RP1=0, select bank1
  2177  059A  0836               	movf	(??_conversion_newton+18)^(0+128),w
  2178  059B  1283               	bcf	3,5	;RP0=0, select bank0
  2179  059C  1303               	bcf	3,6	;RP1=0, select bank0
  2180  059D  00B6               	movwf	___flsub@a+2
  2181  059E  1683               	bsf	3,5	;RP0=1, select bank1
  2182  059F  1303               	bcf	3,6	;RP1=0, select bank1
  2183  05A0  0835               	movf	(??_conversion_newton+17)^(0+128),w
  2184  05A1  1283               	bcf	3,5	;RP0=0, select bank0
  2185  05A2  1303               	bcf	3,6	;RP1=0, select bank0
  2186  05A3  00B5               	movwf	___flsub@a+1
  2187  05A4  1683               	bsf	3,5	;RP0=1, select bank1
  2188  05A5  1303               	bcf	3,6	;RP1=0, select bank1
  2189  05A6  0834               	movf	(??_conversion_newton+16)^(0+128),w
  2190  05A7  1283               	bcf	3,5	;RP0=0, select bank0
  2191  05A8  1303               	bcf	3,6	;RP1=0, select bank0
  2192  05A9  00B4               	movwf	___flsub@a
  2193  05AA  1683               	bsf	3,5	;RP0=1, select bank1
  2194  05AB  1303               	bcf	3,6	;RP1=0, select bank1
  2195  05AC  0845               	movf	conversion_newton@n^(0+128),w
  2196  05AD  00B8               	movwf	(??_conversion_newton+20)^(0+128)
  2197  05AE  3001               	movlw	1
  2198  05AF                     u3605:
  2199  05AF  1003               	clrc
  2200  05B0  0DB8               	rlf	(??_conversion_newton+20)^(0+128),f
  2201  05B1  3EFF               	addlw	-1
  2202  05B2  1D03               	skipz
  2203  05B3  2DAF               	goto	u3605
  2204  05B4  1003               	clrc
  2205  05B5  0D38               	rlf	(??_conversion_newton+20)^(0+128),w
  2206  05B6  3E51               	addlw	low ((conversion_newton@F_tab-__stringbase)| (0+32768))
  2207  05B7  0084               	movwf	4
  2208  05B8  160A  118A  2000  120A  118A  	fcall	stringdir
  2209  05BD  00B9               	movwf	(??_conversion_newton+21)^(0+128)
  2210  05BE  160A  118A  2000  120A  118A  	fcall	stringdir
  2211  05C3  00BA               	movwf	((??_conversion_newton+21)^(0+128)+1)
  2212  05C4  160A  118A  2000  120A  118A  	fcall	stringdir
  2213  05C9  00BB               	movwf	((??_conversion_newton+21)^(0+128)+2)
  2214  05CA  160A  118A  2000  120A  118A  	fcall	stringdir
  2215  05CF  00BC               	movwf	((??_conversion_newton+21)^(0+128)+3)
  2216  05D0  083C               	movf	(??_conversion_newton+24)^(0+128),w
  2217  05D1  1283               	bcf	3,5	;RP0=0, select bank0
  2218  05D2  1303               	bcf	3,6	;RP1=0, select bank0
  2219  05D3  00BB               	movwf	___flsub@b+3
  2220  05D4  1683               	bsf	3,5	;RP0=1, select bank1
  2221  05D5  1303               	bcf	3,6	;RP1=0, select bank1
  2222  05D6  083B               	movf	(??_conversion_newton+23)^(0+128),w
  2223  05D7  1283               	bcf	3,5	;RP0=0, select bank0
  2224  05D8  1303               	bcf	3,6	;RP1=0, select bank0
  2225  05D9  00BA               	movwf	___flsub@b+2
  2226  05DA  1683               	bsf	3,5	;RP0=1, select bank1
  2227  05DB  1303               	bcf	3,6	;RP1=0, select bank1
  2228  05DC  083A               	movf	(??_conversion_newton+22)^(0+128),w
  2229  05DD  1283               	bcf	3,5	;RP0=0, select bank0
  2230  05DE  1303               	bcf	3,6	;RP1=0, select bank0
  2231  05DF  00B9               	movwf	___flsub@b+1
  2232  05E0  1683               	bsf	3,5	;RP0=1, select bank1
  2233  05E1  1303               	bcf	3,6	;RP1=0, select bank1
  2234  05E2  0839               	movf	(??_conversion_newton+21)^(0+128),w
  2235  05E3  1283               	bcf	3,5	;RP0=0, select bank0
  2236  05E4  1303               	bcf	3,6	;RP1=0, select bank0
  2237  05E5  00B8               	movwf	___flsub@b
  2238  05E6  160A  118A  2554  120A  118A  	fcall	___flsub
  2239  05EB  1283               	bcf	3,5	;RP0=0, select bank0
  2240  05EC  1303               	bcf	3,6	;RP1=0, select bank0
  2241  05ED  0837               	movf	?___flsub+3,w
  2242  05EE  00C3               	movwf	___fldiv@b+3
  2243  05EF  0836               	movf	?___flsub+2,w
  2244  05F0  00C2               	movwf	___fldiv@b+2
  2245  05F1  0835               	movf	?___flsub+1,w
  2246  05F2  00C1               	movwf	___fldiv@b+1
  2247  05F3  0834               	movf	?___flsub,w
  2248  05F4  00C0               	movwf	___fldiv@b
  2249  05F5  120A  158A  203A  120A  118A  	fcall	___fldiv
  2250  05FA  1283               	bcf	3,5	;RP0=0, select bank0
  2251  05FB  1303               	bcf	3,6	;RP1=0, select bank0
  2252  05FC  083F               	movf	?___fldiv+3,w
  2253  05FD  00DD               	movwf	___flmul@a+3
  2254  05FE  083E               	movf	?___fldiv+2,w
  2255  05FF  00DC               	movwf	___flmul@a+2
  2256  0600  083D               	movf	?___fldiv+1,w
  2257  0601  00DB               	movwf	___flmul@a+1
  2258  0602  083C               	movf	?___fldiv,w
  2259  0603  00DA               	movwf	___flmul@a
  2260  0604  120A  158A  249F  120A  118A  	fcall	___flmul
  2261  0609  1283               	bcf	3,5	;RP0=0, select bank0
  2262  060A  1303               	bcf	3,6	;RP1=0, select bank0
  2263  060B  0859               	movf	?___flmul+3,w
  2264  060C  1683               	bsf	3,5	;RP0=1, select bank1
  2265  060D  1303               	bcf	3,6	;RP1=0, select bank1
  2266  060E  00C0               	movwf	(_conversion_newton$771+3)^(0+128)
  2267  060F  1283               	bcf	3,5	;RP0=0, select bank0
  2268  0610  1303               	bcf	3,6	;RP1=0, select bank0
  2269  0611  0858               	movf	?___flmul+2,w
  2270  0612  1683               	bsf	3,5	;RP0=1, select bank1
  2271  0613  1303               	bcf	3,6	;RP1=0, select bank1
  2272  0614  00BF               	movwf	(_conversion_newton$771+2)^(0+128)
  2273  0615  1283               	bcf	3,5	;RP0=0, select bank0
  2274  0616  1303               	bcf	3,6	;RP1=0, select bank0
  2275  0617  0857               	movf	?___flmul+1,w
  2276  0618  1683               	bsf	3,5	;RP0=1, select bank1
  2277  0619  1303               	bcf	3,6	;RP1=0, select bank1
  2278  061A  00BE               	movwf	(_conversion_newton$771+1)^(0+128)
  2279  061B  1283               	bcf	3,5	;RP0=0, select bank0
  2280  061C  1303               	bcf	3,6	;RP1=0, select bank0
  2281  061D  0856               	movf	?___flmul,w
  2282  061E  1683               	bsf	3,5	;RP0=1, select bank1
  2283  061F  1303               	bcf	3,6	;RP1=0, select bank1
  2284  0620  00BD               	movwf	_conversion_newton$771^(0+128)
  2285  0621                     l2430:
  2286                           
  2287                           ;main.c: 223:      F = (((F_tab[n]-F_tab[n+1])/(R_tab[n+1]-R_tab[n]))*(Rc-R_tab[n]))+F_t
      +                          ab[n];
  2288  0621  0845               	movf	conversion_newton@n^(0+128),w
  2289  0622  00A4               	movwf	??_conversion_newton^(0+128)
  2290  0623  3001               	movlw	1
  2291  0624                     u3615:
  2292  0624  1003               	clrc
  2293  0625  0DA4               	rlf	??_conversion_newton^(0+128),f
  2294  0626  3EFF               	addlw	-1
  2295  0627  1D03               	skipz
  2296  0628  2E24               	goto	u3615
  2297  0629  1003               	clrc
  2298  062A  0D24               	rlf	??_conversion_newton^(0+128),w
  2299  062B  3E51               	addlw	low ((conversion_newton@F_tab-__stringbase)| (0+32768))
  2300  062C  0084               	movwf	4
  2301  062D  160A  118A  2000  120A  118A  	fcall	stringdir
  2302  0632  00A5               	movwf	(??_conversion_newton+1)^(0+128)
  2303  0633  160A  118A  2000  120A  118A  	fcall	stringdir
  2304  0638  00A6               	movwf	((??_conversion_newton+1)^(0+128)+1)
  2305  0639  160A  118A  2000  120A  118A  	fcall	stringdir
  2306  063E  00A7               	movwf	((??_conversion_newton+1)^(0+128)+2)
  2307  063F  160A  118A  2000  120A  118A  	fcall	stringdir
  2308  0644  00A8               	movwf	((??_conversion_newton+1)^(0+128)+3)
  2309  0645  0828               	movf	(??_conversion_newton+4)^(0+128),w
  2310  0646  1283               	bcf	3,5	;RP0=0, select bank0
  2311  0647  1303               	bcf	3,6	;RP1=0, select bank0
  2312  0648  00A3               	movwf	___fladd@b+3
  2313  0649  1683               	bsf	3,5	;RP0=1, select bank1
  2314  064A  1303               	bcf	3,6	;RP1=0, select bank1
  2315  064B  0827               	movf	(??_conversion_newton+3)^(0+128),w
  2316  064C  1283               	bcf	3,5	;RP0=0, select bank0
  2317  064D  1303               	bcf	3,6	;RP1=0, select bank0
  2318  064E  00A2               	movwf	___fladd@b+2
  2319  064F  1683               	bsf	3,5	;RP0=1, select bank1
  2320  0650  1303               	bcf	3,6	;RP1=0, select bank1
  2321  0651  0826               	movf	(??_conversion_newton+2)^(0+128),w
  2322  0652  1283               	bcf	3,5	;RP0=0, select bank0
  2323  0653  1303               	bcf	3,6	;RP1=0, select bank0
  2324  0654  00A1               	movwf	___fladd@b+1
  2325  0655  1683               	bsf	3,5	;RP0=1, select bank1
  2326  0656  1303               	bcf	3,6	;RP1=0, select bank1
  2327  0657  0825               	movf	(??_conversion_newton+1)^(0+128),w
  2328  0658  1283               	bcf	3,5	;RP0=0, select bank0
  2329  0659  1303               	bcf	3,6	;RP1=0, select bank0
  2330  065A  00A0               	movwf	___fladd@b
  2331  065B  1683               	bsf	3,5	;RP0=1, select bank1
  2332  065C  1303               	bcf	3,6	;RP1=0, select bank1
  2333  065D  0840               	movf	(_conversion_newton$771+3)^(0+128),w
  2334  065E  1283               	bcf	3,5	;RP0=0, select bank0
  2335  065F  1303               	bcf	3,6	;RP1=0, select bank0
  2336  0660  00A7               	movwf	___fladd@a+3
  2337  0661  1683               	bsf	3,5	;RP0=1, select bank1
  2338  0662  1303               	bcf	3,6	;RP1=0, select bank1
  2339  0663  083F               	movf	(_conversion_newton$771+2)^(0+128),w
  2340  0664  1283               	bcf	3,5	;RP0=0, select bank0
  2341  0665  1303               	bcf	3,6	;RP1=0, select bank0
  2342  0666  00A6               	movwf	___fladd@a+2
  2343  0667  1683               	bsf	3,5	;RP0=1, select bank1
  2344  0668  1303               	bcf	3,6	;RP1=0, select bank1
  2345  0669  083E               	movf	(_conversion_newton$771+1)^(0+128),w
  2346  066A  1283               	bcf	3,5	;RP0=0, select bank0
  2347  066B  1303               	bcf	3,6	;RP1=0, select bank0
  2348  066C  00A5               	movwf	___fladd@a+1
  2349  066D  1683               	bsf	3,5	;RP0=1, select bank1
  2350  066E  1303               	bcf	3,6	;RP1=0, select bank1
  2351  066F  083D               	movf	_conversion_newton$771^(0+128),w
  2352  0670  1283               	bcf	3,5	;RP0=0, select bank0
  2353  0671  1303               	bcf	3,6	;RP1=0, select bank0
  2354  0672  00A4               	movwf	___fladd@a
  2355  0673  120A  158A  2217  120A  118A  	fcall	___fladd
  2356  0678  1283               	bcf	3,5	;RP0=0, select bank0
  2357  0679  1303               	bcf	3,6	;RP1=0, select bank0
  2358  067A  0823               	movf	?___fladd+3,w
  2359  067B  1683               	bsf	3,5	;RP0=1, select bank1
  2360  067C  1303               	bcf	3,6	;RP1=0, select bank1
  2361  067D  00C4               	movwf	(conversion_newton@F+3)^(0+128)
  2362  067E  1283               	bcf	3,5	;RP0=0, select bank0
  2363  067F  1303               	bcf	3,6	;RP1=0, select bank0
  2364  0680  0822               	movf	?___fladd+2,w
  2365  0681  1683               	bsf	3,5	;RP0=1, select bank1
  2366  0682  1303               	bcf	3,6	;RP1=0, select bank1
  2367  0683  00C3               	movwf	(conversion_newton@F+2)^(0+128)
  2368  0684  1283               	bcf	3,5	;RP0=0, select bank0
  2369  0685  1303               	bcf	3,6	;RP1=0, select bank0
  2370  0686  0821               	movf	?___fladd+1,w
  2371  0687  1683               	bsf	3,5	;RP0=1, select bank1
  2372  0688  1303               	bcf	3,6	;RP1=0, select bank1
  2373  0689  00C2               	movwf	(conversion_newton@F+1)^(0+128)
  2374  068A  1283               	bcf	3,5	;RP0=0, select bank0
  2375  068B  1303               	bcf	3,6	;RP1=0, select bank0
  2376  068C  0820               	movf	?___fladd,w
  2377  068D  1683               	bsf	3,5	;RP0=1, select bank1
  2378  068E  1303               	bcf	3,6	;RP1=0, select bank1
  2379  068F  00C1               	movwf	conversion_newton@F^(0+128)
  2380  0690                     l2432:
  2381                           
  2382                           ;main.c: 226:      if (Rc <= R_tab[10])
  2383  0690  3029               	movlw	low (((conversion_newton@R_tab+40)-__stringbase)| (0+32768))
  2384  0691  0084               	movwf	4
  2385  0692  160A  118A  2000  120A  118A  	fcall	stringdir
  2386  0697  00A4               	movwf	??_conversion_newton^(0+128)
  2387  0698  160A  118A  2000  120A  118A  	fcall	stringdir
  2388  069D  00A5               	movwf	(??_conversion_newton^(0+128)+1)
  2389  069E  160A  118A  2000  120A  118A  	fcall	stringdir
  2390  06A3  00A6               	movwf	(??_conversion_newton^(0+128)+2)
  2391  06A4  160A  118A  2000  120A  118A  	fcall	stringdir
  2392  06A9  00A7               	movwf	(??_conversion_newton^(0+128)+3)
  2393  06AA  0827               	movf	(??_conversion_newton+3)^(0+128),w
  2394  06AB  00F5               	movwf	___flge@ff1+3
  2395  06AC  0826               	movf	(??_conversion_newton+2)^(0+128),w
  2396  06AD  00F4               	movwf	___flge@ff1+2
  2397  06AE  0825               	movf	(??_conversion_newton+1)^(0+128),w
  2398  06AF  00F3               	movwf	___flge@ff1+1
  2399  06B0  0824               	movf	??_conversion_newton^(0+128),w
  2400  06B1  00F2               	movwf	___flge@ff1
  2401  06B2  0823               	movf	(conversion_newton@Rc+3)^(0+128),w
  2402  06B3  00F9               	movwf	___flge@ff2+3
  2403  06B4  0822               	movf	(conversion_newton@Rc+2)^(0+128),w
  2404  06B5  00F8               	movwf	___flge@ff2+2
  2405  06B6  0821               	movf	(conversion_newton@Rc+1)^(0+128),w
  2406  06B7  00F7               	movwf	___flge@ff2+1
  2407  06B8  0820               	movf	conversion_newton@Rc^(0+128),w
  2408  06B9  00F6               	movwf	___flge@ff2
  2409  06BA  160A  118A  275C  120A  118A  	fcall	___flge
  2410  06BF  1C03               	btfss	3,0
  2411  06C0  2EC2               	goto	u3621
  2412  06C1  2EC3               	goto	u3620
  2413  06C2                     u3621:
  2414  06C2  2ECD               	goto	l2436
  2415  06C3                     u3620:
  2416  06C3                     l2434:
  2417                           
  2418                           ;main.c: 227:          {;main.c: 228:          F = 70;
  2419  06C3  3042               	movlw	66
  2420  06C4  1683               	bsf	3,5	;RP0=1, select bank1
  2421  06C5  1303               	bcf	3,6	;RP1=0, select bank1
  2422  06C6  00C4               	movwf	(conversion_newton@F+3)^(0+128)
  2423  06C7  308C               	movlw	140
  2424  06C8  00C3               	movwf	(conversion_newton@F+2)^(0+128)
  2425  06C9  3000               	movlw	0
  2426  06CA  00C2               	movwf	(conversion_newton@F+1)^(0+128)
  2427  06CB  3000               	movlw	0
  2428  06CC  00C1               	movwf	conversion_newton@F^(0+128)
  2429  06CD                     l2436:
  2430                           
  2431                           ;main.c: 230:      if (Rc > R_tab[10])
  2432  06CD  3029               	movlw	low (((conversion_newton@R_tab+40)-__stringbase)| (0+32768))
  2433  06CE  0084               	movwf	4
  2434  06CF  160A  118A  2000  120A  118A  	fcall	stringdir
  2435  06D4  1683               	bsf	3,5	;RP0=1, select bank1
  2436  06D5  1303               	bcf	3,6	;RP1=0, select bank1
  2437  06D6  00A4               	movwf	??_conversion_newton^(0+128)
  2438  06D7  160A  118A  2000  120A  118A  	fcall	stringdir
  2439  06DC  00A5               	movwf	(??_conversion_newton^(0+128)+1)
  2440  06DD  160A  118A  2000  120A  118A  	fcall	stringdir
  2441  06E2  00A6               	movwf	(??_conversion_newton^(0+128)+2)
  2442  06E3  160A  118A  2000  120A  118A  	fcall	stringdir
  2443  06E8  00A7               	movwf	(??_conversion_newton^(0+128)+3)
  2444  06E9  0827               	movf	(??_conversion_newton+3)^(0+128),w
  2445  06EA  00F5               	movwf	___flge@ff1+3
  2446  06EB  0826               	movf	(??_conversion_newton+2)^(0+128),w
  2447  06EC  00F4               	movwf	___flge@ff1+2
  2448  06ED  0825               	movf	(??_conversion_newton+1)^(0+128),w
  2449  06EE  00F3               	movwf	___flge@ff1+1
  2450  06EF  0824               	movf	??_conversion_newton^(0+128),w
  2451  06F0  00F2               	movwf	___flge@ff1
  2452  06F1  0823               	movf	(conversion_newton@Rc+3)^(0+128),w
  2453  06F2  00F9               	movwf	___flge@ff2+3
  2454  06F3  0822               	movf	(conversion_newton@Rc+2)^(0+128),w
  2455  06F4  00F8               	movwf	___flge@ff2+2
  2456  06F5  0821               	movf	(conversion_newton@Rc+1)^(0+128),w
  2457  06F6  00F7               	movwf	___flge@ff2+1
  2458  06F7  0820               	movf	conversion_newton@Rc^(0+128),w
  2459  06F8  00F6               	movwf	___flge@ff2
  2460  06F9  160A  118A  275C  120A  118A  	fcall	___flge
  2461  06FE  1803               	btfsc	3,0
  2462  06FF  2F01               	goto	u3631
  2463  0700  2F02               	goto	u3630
  2464  0701                     u3631:
  2465  0701  2F0C               	goto	l73
  2466  0702                     u3630:
  2467  0702                     l2438:
  2468                           
  2469                           ;main.c: 231:          {;main.c: 232:          F = 0.12;
  2470  0702  303D               	movlw	61
  2471  0703  1683               	bsf	3,5	;RP0=1, select bank1
  2472  0704  1303               	bcf	3,6	;RP1=0, select bank1
  2473  0705  00C4               	movwf	(conversion_newton@F+3)^(0+128)
  2474  0706  30F5               	movlw	245
  2475  0707  00C3               	movwf	(conversion_newton@F+2)^(0+128)
  2476  0708  30C2               	movlw	194
  2477  0709  00C2               	movwf	(conversion_newton@F+1)^(0+128)
  2478  070A  308F               	movlw	143
  2479  070B  00C1               	movwf	conversion_newton@F^(0+128)
  2480  070C                     l73:	
  2481                           ;main.c: 233:          }
  2482                           
  2483                           
  2484                           ;main.c: 235:      return F;
  2485  070C  1683               	bsf	3,5	;RP0=1, select bank1
  2486  070D  1303               	bcf	3,6	;RP1=0, select bank1
  2487  070E  0844               	movf	(conversion_newton@F+3)^(0+128),w
  2488  070F  00A3               	movwf	(?_conversion_newton+3)^(0+128)
  2489  0710  0843               	movf	(conversion_newton@F+2)^(0+128),w
  2490  0711  00A2               	movwf	(?_conversion_newton+2)^(0+128)
  2491  0712  0842               	movf	(conversion_newton@F+1)^(0+128),w
  2492  0713  00A1               	movwf	(?_conversion_newton+1)^(0+128)
  2493  0714  0841               	movf	conversion_newton@F^(0+128),w
  2494  0715  00A0               	movwf	?_conversion_newton^(0+128)
  2495  0716                     l74:
  2496  0716  0008               	return
  2497  0717                     __end_of_conversion_newton:
  2498                           
  2499                           	psect	text2
  2500  175C                     __ptext2:	
  2501 ;; *************** function ___flge *****************
  2502 ;; Defined at:
  2503 ;;		line 4 in file "C:\Program Files\Microchip\xc8\v2.20\pic\sources\c90\common\flge.c"
  2504 ;; Parameters:    Size  Location     Type
  2505 ;;  ff1             4    2[COMMON] float 
  2506 ;;  ff2             4    6[COMMON] float 
  2507 ;; Auto vars:     Size  Location     Type
  2508 ;;		None
  2509 ;; Return value:  Size  Location     Type
  2510 ;;		None               void
  2511 ;; Registers used:
  2512 ;;		wreg, status,2, status,0
  2513 ;; Tracked objects:
  2514 ;;		On entry : 0/0
  2515 ;;		On exit  : 0/0
  2516 ;;		Unchanged: 0/0
  2517 ;; Data sizes:     COMMON   BANK0   BANK1   BANK3   BANK2
  2518 ;;      Params:         8       0       0       0       0
  2519 ;;      Locals:         0       0       0       0       0
  2520 ;;      Temps:          0       4       0       0       0
  2521 ;;      Totals:         8       4       0       0       0
  2522 ;;Total ram usage:       12 bytes
  2523 ;; Hardware stack levels used:    1
  2524 ;; Hardware stack levels required when called:    1
  2525 ;; This function calls:
  2526 ;;		Nothing
  2527 ;; This function is called by:
  2528 ;;		_conversion_newton
  2529 ;; This function uses a non-reentrant model
  2530 ;;
  2531                           
  2532                           
  2533                           ;psect for function ___flge
  2534  175C                     ___flge:
  2535  175C                     l1902:	
  2536                           ;incstack = 0
  2537                           ; Regs used in ___flge: [wreg+status,2+status,0]
  2538                           
  2539  175C  3000               	movlw	0
  2540  175D  0572               	andwf	___flge@ff1,w
  2541  175E  1283               	bcf	3,5	;RP0=0, select bank0
  2542  175F  1303               	bcf	3,6	;RP1=0, select bank0
  2543  1760  00A0               	movwf	??___flge
  2544  1761  3000               	movlw	0
  2545  1762  0573               	andwf	___flge@ff1+1,w
  2546  1763  00A1               	movwf	??___flge+1
  2547  1764  3080               	movlw	128
  2548  1765  0574               	andwf	___flge@ff1+2,w
  2549  1766  00A2               	movwf	??___flge+2
  2550  1767  307F               	movlw	127
  2551  1768  0575               	andwf	___flge@ff1+3,w
  2552  1769  00A3               	movwf	??___flge+3
  2553  176A  0823               	movf	??___flge+3,w
  2554  176B  0422               	iorwf	??___flge+2,w
  2555  176C  0421               	iorwf	??___flge+1,w
  2556  176D  0420               	iorwf	??___flge,w
  2557  176E  1D03               	skipz
  2558  176F  2F71               	goto	u2401
  2559  1770  2F72               	goto	u2400
  2560  1771                     u2401:
  2561  1771  2F7A               	goto	l396
  2562  1772                     u2400:
  2563  1772                     l1904:
  2564  1772  3000               	movlw	0
  2565  1773  00F5               	movwf	___flge@ff1+3
  2566  1774  3000               	movlw	0
  2567  1775  00F4               	movwf	___flge@ff1+2
  2568  1776  3000               	movlw	0
  2569  1777  00F3               	movwf	___flge@ff1+1
  2570  1778  3000               	movlw	0
  2571  1779  00F2               	movwf	___flge@ff1
  2572  177A                     l396:
  2573  177A  3000               	movlw	0
  2574  177B  0576               	andwf	___flge@ff2,w
  2575  177C  00A0               	movwf	??___flge
  2576  177D  3000               	movlw	0
  2577  177E  0577               	andwf	___flge@ff2+1,w
  2578  177F  00A1               	movwf	??___flge+1
  2579  1780  3080               	movlw	128
  2580  1781  0578               	andwf	___flge@ff2+2,w
  2581  1782  00A2               	movwf	??___flge+2
  2582  1783  307F               	movlw	127
  2583  1784  0579               	andwf	___flge@ff2+3,w
  2584  1785  00A3               	movwf	??___flge+3
  2585  1786  0823               	movf	??___flge+3,w
  2586  1787  0422               	iorwf	??___flge+2,w
  2587  1788  0421               	iorwf	??___flge+1,w
  2588  1789  0420               	iorwf	??___flge,w
  2589  178A  1D03               	skipz
  2590  178B  2F8D               	goto	u2411
  2591  178C  2F8E               	goto	u2410
  2592  178D                     u2411:
  2593  178D  2F96               	goto	l1908
  2594  178E                     u2410:
  2595  178E                     l1906:
  2596  178E  3000               	movlw	0
  2597  178F  00F9               	movwf	___flge@ff2+3
  2598  1790  3000               	movlw	0
  2599  1791  00F8               	movwf	___flge@ff2+2
  2600  1792  3000               	movlw	0
  2601  1793  00F7               	movwf	___flge@ff2+1
  2602  1794  3000               	movlw	0
  2603  1795  00F6               	movwf	___flge@ff2
  2604  1796                     l1908:
  2605  1796  1FF5               	btfss	___flge@ff1+3,7
  2606  1797  2F99               	goto	u2421
  2607  1798  2F9A               	goto	u2420
  2608  1799                     u2421:
  2609  1799  2FBE               	goto	l1912
  2610  179A                     u2420:
  2611  179A                     l1910:
  2612  179A  3000               	movlw	0
  2613  179B  00A0               	movwf	??___flge
  2614  179C  3000               	movlw	0
  2615  179D  00A1               	movwf	??___flge+1
  2616  179E  3000               	movlw	0
  2617  179F  00A2               	movwf	??___flge+2
  2618  17A0  3080               	movlw	128
  2619  17A1  00A3               	movwf	??___flge+3
  2620  17A2  0872               	movf	___flge@ff1,w
  2621  17A3  02A0               	subwf	??___flge,f
  2622  17A4  0873               	movf	___flge@ff1+1,w
  2623  17A5  1C03               	skipc
  2624  17A6  0F73               	incfsz	___flge@ff1+1,w
  2625  17A7  2FA9               	goto	u2431
  2626  17A8  2FAA               	goto	u2432
  2627  17A9                     u2431:
  2628  17A9  02A1               	subwf	??___flge+1,f
  2629  17AA                     u2432:
  2630  17AA  0874               	movf	___flge@ff1+2,w
  2631  17AB  1C03               	skipc
  2632  17AC  0F74               	incfsz	___flge@ff1+2,w
  2633  17AD  2FAF               	goto	u2433
  2634  17AE  2FB0               	goto	u2434
  2635  17AF                     u2433:
  2636  17AF  02A2               	subwf	??___flge+2,f
  2637  17B0                     u2434:
  2638  17B0  0875               	movf	___flge@ff1+3,w
  2639  17B1  1C03               	skipc
  2640  17B2  0F75               	incfsz	___flge@ff1+3,w
  2641  17B3  2FB5               	goto	u2435
  2642  17B4  2FB6               	goto	u2436
  2643  17B5                     u2435:
  2644  17B5  02A3               	subwf	??___flge+3,f
  2645  17B6                     u2436:
  2646  17B6  0823               	movf	??___flge+3,w
  2647  17B7  00F5               	movwf	___flge@ff1+3
  2648  17B8  0822               	movf	??___flge+2,w
  2649  17B9  00F4               	movwf	___flge@ff1+2
  2650  17BA  0821               	movf	??___flge+1,w
  2651  17BB  00F3               	movwf	___flge@ff1+1
  2652  17BC  0820               	movf	??___flge,w
  2653  17BD  00F2               	movwf	___flge@ff1
  2654  17BE                     l1912:
  2655  17BE  1FF9               	btfss	___flge@ff2+3,7
  2656  17BF  2FC1               	goto	u2441
  2657  17C0  2FC2               	goto	u2440
  2658  17C1                     u2441:
  2659  17C1  2FE6               	goto	l399
  2660  17C2                     u2440:
  2661  17C2                     l1914:
  2662  17C2  3000               	movlw	0
  2663  17C3  00A0               	movwf	??___flge
  2664  17C4  3000               	movlw	0
  2665  17C5  00A1               	movwf	??___flge+1
  2666  17C6  3000               	movlw	0
  2667  17C7  00A2               	movwf	??___flge+2
  2668  17C8  3080               	movlw	128
  2669  17C9  00A3               	movwf	??___flge+3
  2670  17CA  0876               	movf	___flge@ff2,w
  2671  17CB  02A0               	subwf	??___flge,f
  2672  17CC  0877               	movf	___flge@ff2+1,w
  2673  17CD  1C03               	skipc
  2674  17CE  0F77               	incfsz	___flge@ff2+1,w
  2675  17CF  2FD1               	goto	u2451
  2676  17D0  2FD2               	goto	u2452
  2677  17D1                     u2451:
  2678  17D1  02A1               	subwf	??___flge+1,f
  2679  17D2                     u2452:
  2680  17D2  0878               	movf	___flge@ff2+2,w
  2681  17D3  1C03               	skipc
  2682  17D4  0F78               	incfsz	___flge@ff2+2,w
  2683  17D5  2FD7               	goto	u2453
  2684  17D6  2FD8               	goto	u2454
  2685  17D7                     u2453:
  2686  17D7  02A2               	subwf	??___flge+2,f
  2687  17D8                     u2454:
  2688  17D8  0879               	movf	___flge@ff2+3,w
  2689  17D9  1C03               	skipc
  2690  17DA  0F79               	incfsz	___flge@ff2+3,w
  2691  17DB  2FDD               	goto	u2455
  2692  17DC  2FDE               	goto	u2456
  2693  17DD                     u2455:
  2694  17DD  02A3               	subwf	??___flge+3,f
  2695  17DE                     u2456:
  2696  17DE  0823               	movf	??___flge+3,w
  2697  17DF  00F9               	movwf	___flge@ff2+3
  2698  17E0  0822               	movf	??___flge+2,w
  2699  17E1  00F8               	movwf	___flge@ff2+2
  2700  17E2  0821               	movf	??___flge+1,w
  2701  17E3  00F7               	movwf	___flge@ff2+1
  2702  17E4  0820               	movf	??___flge,w
  2703  17E5  00F6               	movwf	___flge@ff2
  2704  17E6                     l399:
  2705  17E6  3080               	movlw	128
  2706  17E7  06F5               	xorwf	___flge@ff1+3,f
  2707  17E8  3080               	movlw	128
  2708  17E9  06F9               	xorwf	___flge@ff2+3,f
  2709  17EA  0879               	movf	___flge@ff2+3,w
  2710  17EB  0275               	subwf	___flge@ff1+3,w
  2711  17EC  1D03               	skipz
  2712  17ED  2FF8               	goto	u2465
  2713  17EE  0878               	movf	___flge@ff2+2,w
  2714  17EF  0274               	subwf	___flge@ff1+2,w
  2715  17F0  1D03               	skipz
  2716  17F1  2FF8               	goto	u2465
  2717  17F2  0877               	movf	___flge@ff2+1,w
  2718  17F3  0273               	subwf	___flge@ff1+1,w
  2719  17F4  1D03               	skipz
  2720  17F5  2FF8               	goto	u2465
  2721  17F6  0876               	movf	___flge@ff2,w
  2722  17F7  0272               	subwf	___flge@ff1,w
  2723  17F8                     u2465:
  2724  17F8  1803               	skipnc
  2725  17F9  2FFB               	goto	u2461
  2726  17FA  2FFC               	goto	u2460
  2727  17FB                     u2461:
  2728  17FB  2FFE               	goto	l1918
  2729  17FC                     u2460:
  2730  17FC                     l1916:
  2731  17FC  1003               	clrc
  2732  17FD  2FFF               	goto	l400
  2733  17FE                     l1918:
  2734  17FE  1403               	setc
  2735  17FF                     l400:
  2736  17FF  0008               	return
  2737  1800                     __end_of___flge:
  2738                           
  2739                           	psect	text3
  2740  15FD                     __ptext3:	
  2741 ;; *************** function _Voltage_Value *****************
  2742 ;; Defined at:
  2743 ;;		line 152 in file "main.c"
  2744 ;; Parameters:    Size  Location     Type
  2745 ;;  sensor          1    wreg     unsigned char 
  2746 ;; Auto vars:     Size  Location     Type
  2747 ;;  sensor          1    8[BANK1 ] unsigned char 
  2748 ;; Return value:  Size  Location     Type
  2749 ;;                  4    0[BANK1 ] float 
  2750 ;; Registers used:
  2751 ;;		wreg, status,2, status,0, btemp+1, pclath, cstack
  2752 ;; Tracked objects:
  2753 ;;		On entry : 0/0
  2754 ;;		On exit  : 0/0
  2755 ;;		Unchanged: 0/0
  2756 ;; Data sizes:     COMMON   BANK0   BANK1   BANK3   BANK2
  2757 ;;      Params:         0       0       4       0       0
  2758 ;;      Locals:         0       0       1       0       0
  2759 ;;      Temps:          0       0       4       0       0
  2760 ;;      Totals:         0       0       9       0       0
  2761 ;;Total ram usage:        9 bytes
  2762 ;; Hardware stack levels used:    1
  2763 ;; Hardware stack levels required when called:    3
  2764 ;; This function calls:
  2765 ;;		___fldiv
  2766 ;;		___flmul
  2767 ;;		___xxtofl
  2768 ;; This function is called by:
  2769 ;;		_main
  2770 ;; This function uses a non-reentrant model
  2771 ;;
  2772                           
  2773                           
  2774                           ;psect for function _Voltage_Value
  2775  15FD                     _Voltage_Value:
  2776                           
  2777                           ;incstack = 0
  2778                           ; Regs used in _Voltage_Value: [wreg+status,2+status,0+btemp+1+pclath+cstack]
  2779                           ;Voltage_Value@sensor stored from wreg
  2780  15FD  1683               	bsf	3,5	;RP0=1, select bank1
  2781  15FE  1303               	bcf	3,6	;RP1=0, select bank1
  2782  15FF  00A8               	movwf	Voltage_Value@sensor^(0+128)
  2783  1600                     l2358:
  2784                           
  2785                           ;main.c: 154:     return (float) sensor * 5/256;
  2786  1600  3043               	movlw	67
  2787  1601  1283               	bcf	3,5	;RP0=0, select bank0
  2788  1602  1303               	bcf	3,6	;RP1=0, select bank0
  2789  1603  00BF               	movwf	___fldiv@a+3
  2790  1604  3080               	movlw	128
  2791  1605  00BE               	movwf	___fldiv@a+2
  2792  1606  3000               	movlw	0
  2793  1607  00BD               	movwf	___fldiv@a+1
  2794  1608  3000               	movlw	0
  2795  1609  00BC               	movwf	___fldiv@a
  2796  160A  3040               	movlw	64
  2797  160B  00D9               	movwf	___flmul@b+3
  2798  160C  30A0               	movlw	160
  2799  160D  00D8               	movwf	___flmul@b+2
  2800  160E  3000               	movlw	0
  2801  160F  00D7               	movwf	___flmul@b+1
  2802  1610  3000               	movlw	0
  2803  1611  00D6               	movwf	___flmul@b
  2804  1612  1683               	bsf	3,5	;RP0=1, select bank1
  2805  1613  1303               	bcf	3,6	;RP1=0, select bank1
  2806  1614  0828               	movf	Voltage_Value@sensor^(0+128),w
  2807  1615  00A4               	movwf	??_Voltage_Value^(0+128)
  2808  1616  01A5               	clrf	(??_Voltage_Value^(0+128)+1)
  2809  1617  01A6               	clrf	(??_Voltage_Value^(0+128)+2)
  2810  1618  01A7               	clrf	(??_Voltage_Value^(0+128)+3)
  2811  1619  0827               	movf	(??_Voltage_Value+3)^(0+128),w
  2812  161A  00FB               	movwf	___xxtofl@val+3
  2813  161B  0826               	movf	(??_Voltage_Value+2)^(0+128),w
  2814  161C  00FA               	movwf	___xxtofl@val+2
  2815  161D  0825               	movf	(??_Voltage_Value+1)^(0+128),w
  2816  161E  00F9               	movwf	___xxtofl@val+1
  2817  161F  0824               	movf	??_Voltage_Value^(0+128),w
  2818  1620  00F8               	movwf	___xxtofl@val
  2819  1621  3000               	movlw	0
  2820  1622  120A  118A  2717  160A  118A  	fcall	___xxtofl
  2821  1627  087B               	movf	?___xxtofl+3,w
  2822  1628  1283               	bcf	3,5	;RP0=0, select bank0
  2823  1629  1303               	bcf	3,6	;RP1=0, select bank0
  2824  162A  00DD               	movwf	___flmul@a+3
  2825  162B  087A               	movf	?___xxtofl+2,w
  2826  162C  00DC               	movwf	___flmul@a+2
  2827  162D  0879               	movf	?___xxtofl+1,w
  2828  162E  00DB               	movwf	___flmul@a+1
  2829  162F  0878               	movf	?___xxtofl,w
  2830  1630  00DA               	movwf	___flmul@a
  2831  1631  120A  158A  249F  160A  118A  	fcall	___flmul
  2832  1636  1283               	bcf	3,5	;RP0=0, select bank0
  2833  1637  1303               	bcf	3,6	;RP1=0, select bank0
  2834  1638  0859               	movf	?___flmul+3,w
  2835  1639  00C3               	movwf	___fldiv@b+3
  2836  163A  0858               	movf	?___flmul+2,w
  2837  163B  00C2               	movwf	___fldiv@b+2
  2838  163C  0857               	movf	?___flmul+1,w
  2839  163D  00C1               	movwf	___fldiv@b+1
  2840  163E  0856               	movf	?___flmul,w
  2841  163F  00C0               	movwf	___fldiv@b
  2842  1640  120A  158A  203A  160A  118A  	fcall	___fldiv
  2843  1645  1283               	bcf	3,5	;RP0=0, select bank0
  2844  1646  1303               	bcf	3,6	;RP1=0, select bank0
  2845  1647  083F               	movf	?___fldiv+3,w
  2846  1648  1683               	bsf	3,5	;RP0=1, select bank1
  2847  1649  1303               	bcf	3,6	;RP1=0, select bank1
  2848  164A  00A3               	movwf	(?_Voltage_Value+3)^(0+128)
  2849  164B  1283               	bcf	3,5	;RP0=0, select bank0
  2850  164C  1303               	bcf	3,6	;RP1=0, select bank0
  2851  164D  083E               	movf	?___fldiv+2,w
  2852  164E  1683               	bsf	3,5	;RP0=1, select bank1
  2853  164F  1303               	bcf	3,6	;RP1=0, select bank1
  2854  1650  00A2               	movwf	(?_Voltage_Value+2)^(0+128)
  2855  1651  1283               	bcf	3,5	;RP0=0, select bank0
  2856  1652  1303               	bcf	3,6	;RP1=0, select bank0
  2857  1653  083D               	movf	?___fldiv+1,w
  2858  1654  1683               	bsf	3,5	;RP0=1, select bank1
  2859  1655  1303               	bcf	3,6	;RP1=0, select bank1
  2860  1656  00A1               	movwf	(?_Voltage_Value+1)^(0+128)
  2861  1657  1283               	bcf	3,5	;RP0=0, select bank0
  2862  1658  1303               	bcf	3,6	;RP1=0, select bank0
  2863  1659  083C               	movf	?___fldiv,w
  2864  165A  1683               	bsf	3,5	;RP0=1, select bank1
  2865  165B  1303               	bcf	3,6	;RP1=0, select bank1
  2866  165C  00A0               	movwf	?_Voltage_Value^(0+128)
  2867  165D                     l42:
  2868  165D  0008               	return
  2869  165E                     __end_of_Voltage_Value:
  2870                           
  2871                           	psect	text4
  2872  1529                     __ptext4:	
  2873 ;; *************** function _TIMER_init_timer1 *****************
  2874 ;; Defined at:
  2875 ;;		line 8 in file "timer.c"
  2876 ;; Parameters:    Size  Location     Type
  2877 ;;		None
  2878 ;; Auto vars:     Size  Location     Type
  2879 ;;		None
  2880 ;; Return value:  Size  Location     Type
  2881 ;;                  1    wreg      void 
  2882 ;; Registers used:
  2883 ;;		wreg
  2884 ;; Tracked objects:
  2885 ;;		On entry : 0/0
  2886 ;;		On exit  : 0/0
  2887 ;;		Unchanged: 0/0
  2888 ;; Data sizes:     COMMON   BANK0   BANK1   BANK3   BANK2
  2889 ;;      Params:         0       0       0       0       0
  2890 ;;      Locals:         0       0       0       0       0
  2891 ;;      Temps:          0       0       0       0       0
  2892 ;;      Totals:         0       0       0       0       0
  2893 ;;Total ram usage:        0 bytes
  2894 ;; Hardware stack levels used:    1
  2895 ;; Hardware stack levels required when called:    1
  2896 ;; This function calls:
  2897 ;;		Nothing
  2898 ;; This function is called by:
  2899 ;;		_main
  2900 ;; This function uses a non-reentrant model
  2901 ;;
  2902                           
  2903                           
  2904                           ;psect for function _TIMER_init_timer1
  2905  1529                     _TIMER_init_timer1:
  2906  1529                     l2294:	
  2907                           ;incstack = 0
  2908                           ; Regs used in _TIMER_init_timer1: [wreg]
  2909                           
  2910                           
  2911                           ;timer.c: 10:     TMRA = 65535-5000;
  2912  1529  3077               	movlw	119
  2913  152A  1283               	bcf	3,5	;RP0=0, select bank2
  2914  152B  1703               	bsf	3,6	;RP1=1, select bank2
  2915  152C  0090               	movwf	16	;volatile
  2916  152D                     l2296:
  2917                           
  2918                           ;timer.c: 24:     T1OSCEN=0;
  2919  152D  1283               	bcf	3,5	;RP0=0, select bank0
  2920  152E  1303               	bcf	3,6	;RP1=0, select bank0
  2921  152F  1190               	bcf	16,3	;volatile
  2922  1530                     l2298:
  2923                           
  2924                           ;timer.c: 36:     TMRCS1=0;
  2925  1530  1390               	bcf	16,7	;volatile
  2926  1531                     l2300:
  2927                           
  2928                           ;timer.c: 37:     TMRCS0=0;
  2929  1531  1310               	bcf	16,6	;volatile
  2930  1532                     l2302:
  2931                           
  2932                           ;timer.c: 46:     T1CKPS0=1;
  2933  1532  1610               	bsf	16,4	;volatile
  2934  1533                     l2304:
  2935                           
  2936                           ;timer.c: 47:     T1CKPS1=1;
  2937  1533  1690               	bsf	16,5	;volatile
  2938  1534                     l2306:
  2939                           
  2940                           ;timer.c: 56:     T1SYNC=1;
  2941  1534  1510               	bsf	16,2	;volatile
  2942  1535                     l2308:
  2943                           
  2944                           ;timer.c: 62:     TMR1ON=1;
  2945  1535  1410               	bsf	16,0	;volatile
  2946  1536                     l2310:
  2947                           
  2948                           ;timer.c: 71:     TMR1GE=0;
  2949  1536  1683               	bsf	3,5	;RP0=1, select bank1
  2950  1537  1303               	bcf	3,6	;RP1=0, select bank1
  2951  1538  138F               	bcf	15,7	;volatile
  2952  1539                     l2312:
  2953                           
  2954                           ;timer.c: 75:     TMR1IE=1;
  2955  1539  140C               	bsf	12,0	;volatile
  2956  153A                     l211:
  2957  153A  0008               	return
  2958  153B                     __end_of_TIMER_init_timer1:
  2959                           
  2960                           	psect	text5
  2961  16CE                     __ptext5:	
  2962 ;; *************** function _Resistance_Value *****************
  2963 ;; Defined at:
  2964 ;;		line 163 in file "main.c"
  2965 ;; Parameters:    Size  Location     Type
  2966 ;;  Voltage         4    0[BANK1 ] float 
  2967 ;;  R               2    4[BANK1 ] int 
  2968 ;; Auto vars:     Size  Location     Type
  2969 ;;		None
  2970 ;; Return value:  Size  Location     Type
  2971 ;;                  4    0[BANK1 ] float 
  2972 ;; Registers used:
  2973 ;;		wreg, status,2, status,0, btemp+1, pclath, cstack
  2974 ;; Tracked objects:
  2975 ;;		On entry : 0/0
  2976 ;;		On exit  : 0/0
  2977 ;;		Unchanged: 0/0
  2978 ;; Data sizes:     COMMON   BANK0   BANK1   BANK3   BANK2
  2979 ;;      Params:         0       0       6       0       0
  2980 ;;      Locals:         0       0       0       0       0
  2981 ;;      Temps:          0       0       0       0       0
  2982 ;;      Totals:         0       0       6       0       0
  2983 ;;Total ram usage:        6 bytes
  2984 ;; Hardware stack levels used:    1
  2985 ;; Hardware stack levels required when called:    3
  2986 ;; This function calls:
  2987 ;;		___fldiv
  2988 ;;		___flmul
  2989 ;;		___flsub
  2990 ;;		___wmul
  2991 ;;		___xxtofl
  2992 ;; This function is called by:
  2993 ;;		_main
  2994 ;; This function uses a non-reentrant model
  2995 ;;
  2996                           
  2997                           
  2998                           ;psect for function _Resistance_Value
  2999  16CE                     _Resistance_Value:
  3000  16CE                     l2362:	
  3001                           ;incstack = 0
  3002                           ; Regs used in _Resistance_Value: [wreg+status,2+status,0+btemp+1+pclath+cstack]
  3003                           
  3004                           
  3005                           ;main.c: 164:     return (R * 5)/(5 -(2*Voltage));
  3006  16CE  3040               	movlw	64
  3007  16CF  1283               	bcf	3,5	;RP0=0, select bank0
  3008  16D0  1303               	bcf	3,6	;RP1=0, select bank0
  3009  16D1  00BB               	movwf	___flsub@b+3
  3010  16D2  30A0               	movlw	160
  3011  16D3  00BA               	movwf	___flsub@b+2
  3012  16D4  3000               	movlw	0
  3013  16D5  00B9               	movwf	___flsub@b+1
  3014  16D6  3000               	movlw	0
  3015  16D7  00B8               	movwf	___flsub@b
  3016  16D8  1683               	bsf	3,5	;RP0=1, select bank1
  3017  16D9  1303               	bcf	3,6	;RP1=0, select bank1
  3018  16DA  0823               	movf	(Resistance_Value@Voltage+3)^(0+128),w
  3019  16DB  1283               	bcf	3,5	;RP0=0, select bank0
  3020  16DC  1303               	bcf	3,6	;RP1=0, select bank0
  3021  16DD  00DD               	movwf	___flmul@a+3
  3022  16DE  1683               	bsf	3,5	;RP0=1, select bank1
  3023  16DF  1303               	bcf	3,6	;RP1=0, select bank1
  3024  16E0  0822               	movf	(Resistance_Value@Voltage+2)^(0+128),w
  3025  16E1  1283               	bcf	3,5	;RP0=0, select bank0
  3026  16E2  1303               	bcf	3,6	;RP1=0, select bank0
  3027  16E3  00DC               	movwf	___flmul@a+2
  3028  16E4  1683               	bsf	3,5	;RP0=1, select bank1
  3029  16E5  1303               	bcf	3,6	;RP1=0, select bank1
  3030  16E6  0821               	movf	(Resistance_Value@Voltage+1)^(0+128),w
  3031  16E7  1283               	bcf	3,5	;RP0=0, select bank0
  3032  16E8  1303               	bcf	3,6	;RP1=0, select bank0
  3033  16E9  00DB               	movwf	___flmul@a+1
  3034  16EA  1683               	bsf	3,5	;RP0=1, select bank1
  3035  16EB  1303               	bcf	3,6	;RP1=0, select bank1
  3036  16EC  0820               	movf	Resistance_Value@Voltage^(0+128),w
  3037  16ED  1283               	bcf	3,5	;RP0=0, select bank0
  3038  16EE  1303               	bcf	3,6	;RP1=0, select bank0
  3039  16EF  00DA               	movwf	___flmul@a
  3040  16F0  3040               	movlw	64
  3041  16F1  00D9               	movwf	___flmul@b+3
  3042  16F2  3000               	movlw	0
  3043  16F3  00D8               	movwf	___flmul@b+2
  3044  16F4  3000               	movlw	0
  3045  16F5  00D7               	movwf	___flmul@b+1
  3046  16F6  3000               	movlw	0
  3047  16F7  00D6               	movwf	___flmul@b
  3048  16F8  120A  158A  249F  160A  118A  	fcall	___flmul
  3049  16FD  1283               	bcf	3,5	;RP0=0, select bank0
  3050  16FE  1303               	bcf	3,6	;RP1=0, select bank0
  3051  16FF  0859               	movf	?___flmul+3,w
  3052  1700  00B7               	movwf	___flsub@a+3
  3053  1701  0858               	movf	?___flmul+2,w
  3054  1702  00B6               	movwf	___flsub@a+2
  3055  1703  0857               	movf	?___flmul+1,w
  3056  1704  00B5               	movwf	___flsub@a+1
  3057  1705  0856               	movf	?___flmul,w
  3058  1706  00B4               	movwf	___flsub@a
  3059  1707  160A  118A  2554  160A  118A  	fcall	___flsub
  3060  170C  1283               	bcf	3,5	;RP0=0, select bank0
  3061  170D  1303               	bcf	3,6	;RP1=0, select bank0
  3062  170E  0837               	movf	?___flsub+3,w
  3063  170F  00BF               	movwf	___fldiv@a+3
  3064  1710  0836               	movf	?___flsub+2,w
  3065  1711  00BE               	movwf	___fldiv@a+2
  3066  1712  0835               	movf	?___flsub+1,w
  3067  1713  00BD               	movwf	___fldiv@a+1
  3068  1714  0834               	movf	?___flsub,w
  3069  1715  00BC               	movwf	___fldiv@a
  3070  1716  3005               	movlw	5
  3071  1717  00F4               	movwf	___wmul@multiplicand
  3072  1718  3000               	movlw	0
  3073  1719  00F5               	movwf	___wmul@multiplicand+1
  3074  171A  1683               	bsf	3,5	;RP0=1, select bank1
  3075  171B  1303               	bcf	3,6	;RP1=0, select bank1
  3076  171C  0825               	movf	(Resistance_Value@R+1)^(0+128),w
  3077  171D  00F3               	movwf	___wmul@multiplier+1
  3078  171E  0824               	movf	Resistance_Value@R^(0+128),w
  3079  171F  00F2               	movwf	___wmul@multiplier
  3080  1720  160A  118A  2578  160A  118A  	fcall	___wmul
  3081  1725  0872               	movf	?___wmul,w
  3082  1726  00F8               	movwf	___xxtofl@val
  3083  1727  0873               	movf	?___wmul+1,w
  3084  1728  00F9               	movwf	___xxtofl@val+1
  3085  1729  3000               	movlw	0
  3086  172A  1BF9               	btfsc	___xxtofl@val+1,7
  3087  172B  30FF               	movlw	255
  3088  172C  00FA               	movwf	___xxtofl@val+2
  3089  172D  00FB               	movwf	___xxtofl@val+3
  3090  172E  3001               	movlw	1
  3091  172F  120A  118A  2717  160A  118A  	fcall	___xxtofl
  3092  1734  087B               	movf	?___xxtofl+3,w
  3093  1735  1283               	bcf	3,5	;RP0=0, select bank0
  3094  1736  1303               	bcf	3,6	;RP1=0, select bank0
  3095  1737  00C3               	movwf	___fldiv@b+3
  3096  1738  087A               	movf	?___xxtofl+2,w
  3097  1739  00C2               	movwf	___fldiv@b+2
  3098  173A  0879               	movf	?___xxtofl+1,w
  3099  173B  00C1               	movwf	___fldiv@b+1
  3100  173C  0878               	movf	?___xxtofl,w
  3101  173D  00C0               	movwf	___fldiv@b
  3102  173E  120A  158A  203A  160A  118A  	fcall	___fldiv
  3103  1743  1283               	bcf	3,5	;RP0=0, select bank0
  3104  1744  1303               	bcf	3,6	;RP1=0, select bank0
  3105  1745  083F               	movf	?___fldiv+3,w
  3106  1746  1683               	bsf	3,5	;RP0=1, select bank1
  3107  1747  1303               	bcf	3,6	;RP1=0, select bank1
  3108  1748  00A3               	movwf	(?_Resistance_Value+3)^(0+128)
  3109  1749  1283               	bcf	3,5	;RP0=0, select bank0
  3110  174A  1303               	bcf	3,6	;RP1=0, select bank0
  3111  174B  083E               	movf	?___fldiv+2,w
  3112  174C  1683               	bsf	3,5	;RP0=1, select bank1
  3113  174D  1303               	bcf	3,6	;RP1=0, select bank1
  3114  174E  00A2               	movwf	(?_Resistance_Value+2)^(0+128)
  3115  174F  1283               	bcf	3,5	;RP0=0, select bank0
  3116  1750  1303               	bcf	3,6	;RP1=0, select bank0
  3117  1751  083D               	movf	?___fldiv+1,w
  3118  1752  1683               	bsf	3,5	;RP0=1, select bank1
  3119  1753  1303               	bcf	3,6	;RP1=0, select bank1
  3120  1754  00A1               	movwf	(?_Resistance_Value+1)^(0+128)
  3121  1755  1283               	bcf	3,5	;RP0=0, select bank0
  3122  1756  1303               	bcf	3,6	;RP1=0, select bank0
  3123  1757  083C               	movf	?___fldiv,w
  3124  1758  1683               	bsf	3,5	;RP0=1, select bank1
  3125  1759  1303               	bcf	3,6	;RP1=0, select bank1
  3126  175A  00A0               	movwf	?_Resistance_Value^(0+128)
  3127  175B                     l45:
  3128  175B  0008               	return
  3129  175C                     __end_of_Resistance_Value:
  3130                           
  3131                           	psect	text6
  3132  0717                     __ptext6:	
  3133 ;; *************** function ___xxtofl *****************
  3134 ;; Defined at:
  3135 ;;		line 10 in file "C:\Program Files\Microchip\xc8\v2.20\pic\sources\c90\common\xxtofl.c"
  3136 ;; Parameters:    Size  Location     Type
  3137 ;;  sign            1    wreg     unsigned char 
  3138 ;;  val             4    8[COMMON] long 
  3139 ;; Auto vars:     Size  Location     Type
  3140 ;;  sign            1    4[BANK0 ] unsigned char 
  3141 ;;  arg             4    6[BANK0 ] unsigned long 
  3142 ;;  exp             1    5[BANK0 ] unsigned char 
  3143 ;; Return value:  Size  Location     Type
  3144 ;;                  4    8[COMMON] unsigned char 
  3145 ;; Registers used:
  3146 ;;		wreg, status,2, status,0, btemp+1
  3147 ;; Tracked objects:
  3148 ;;		On entry : 0/0
  3149 ;;		On exit  : 0/0
  3150 ;;		Unchanged: 0/0
  3151 ;; Data sizes:     COMMON   BANK0   BANK1   BANK3   BANK2
  3152 ;;      Params:         4       0       0       0       0
  3153 ;;      Locals:         0       6       0       0       0
  3154 ;;      Temps:          0       4       0       0       0
  3155 ;;      Totals:         4      10       0       0       0
  3156 ;;Total ram usage:       14 bytes
  3157 ;; Hardware stack levels used:    1
  3158 ;; Hardware stack levels required when called:    1
  3159 ;; This function calls:
  3160 ;;		Nothing
  3161 ;; This function is called by:
  3162 ;;		_Voltage_Value
  3163 ;;		_Resistance_Value
  3164 ;; This function uses a non-reentrant model
  3165 ;;
  3166                           
  3167                           
  3168                           ;psect for function ___xxtofl
  3169  0717                     ___xxtofl:
  3170                           
  3171                           ;incstack = 0
  3172                           ; Regs used in ___xxtofl: [wreg+status,2+status,0+btemp+1]
  3173                           ;___xxtofl@sign stored from wreg
  3174  0717  1283               	bcf	3,5	;RP0=0, select bank0
  3175  0718  1303               	bcf	3,6	;RP1=0, select bank0
  3176  0719  00A4               	movwf	___xxtofl@sign
  3177  071A                     l2214:
  3178  071A  0824               	movf	___xxtofl@sign,w
  3179  071B  1903               	btfsc	3,2
  3180  071C  2F1E               	goto	u3131
  3181  071D  2F1F               	goto	u3130
  3182  071E                     u3131:
  3183  071E  2F33               	goto	l2220
  3184  071F                     u3130:
  3185  071F                     l2216:
  3186  071F  1FFB               	btfss	___xxtofl@val+3,7
  3187  0720  2F22               	goto	u3141
  3188  0721  2F23               	goto	u3140
  3189  0722                     u3141:
  3190  0722  2F33               	goto	l2220
  3191  0723                     u3140:
  3192  0723                     l2218:
  3193  0723  0978               	comf	___xxtofl@val,w
  3194  0724  00A6               	movwf	___xxtofl@arg
  3195  0725  0979               	comf	___xxtofl@val+1,w
  3196  0726  00A7               	movwf	___xxtofl@arg+1
  3197  0727  097A               	comf	___xxtofl@val+2,w
  3198  0728  00A8               	movwf	___xxtofl@arg+2
  3199  0729  097B               	comf	___xxtofl@val+3,w
  3200  072A  00A9               	movwf	___xxtofl@arg+3
  3201  072B  0AA6               	incf	___xxtofl@arg,f
  3202  072C  1903               	skipnz
  3203  072D  0AA7               	incf	___xxtofl@arg+1,f
  3204  072E  1903               	skipnz
  3205  072F  0AA8               	incf	___xxtofl@arg+2,f
  3206  0730  1903               	skipnz
  3207  0731  0AA9               	incf	___xxtofl@arg+3,f
  3208  0732  2F3B               	goto	l655
  3209  0733                     l2220:
  3210  0733  087B               	movf	___xxtofl@val+3,w
  3211  0734  00A9               	movwf	___xxtofl@arg+3
  3212  0735  087A               	movf	___xxtofl@val+2,w
  3213  0736  00A8               	movwf	___xxtofl@arg+2
  3214  0737  0879               	movf	___xxtofl@val+1,w
  3215  0738  00A7               	movwf	___xxtofl@arg+1
  3216  0739  0878               	movf	___xxtofl@val,w
  3217  073A  00A6               	movwf	___xxtofl@arg
  3218  073B                     l655:
  3219  073B  087B               	movf	___xxtofl@val+3,w
  3220  073C  047A               	iorwf	___xxtofl@val+2,w
  3221  073D  0479               	iorwf	___xxtofl@val+1,w
  3222  073E  0478               	iorwf	___xxtofl@val,w
  3223  073F  1D03               	skipz
  3224  0740  2F42               	goto	u3151
  3225  0741  2F43               	goto	u3150
  3226  0742                     u3151:
  3227  0742  2F4C               	goto	l2226
  3228  0743                     u3150:
  3229  0743                     l2222:
  3230  0743  3000               	movlw	0
  3231  0744  00FB               	movwf	?___xxtofl+3
  3232  0745  3000               	movlw	0
  3233  0746  00FA               	movwf	?___xxtofl+2
  3234  0747  3000               	movlw	0
  3235  0748  00F9               	movwf	?___xxtofl+1
  3236  0749  3000               	movlw	0
  3237  074A  00F8               	movwf	?___xxtofl
  3238  074B  2FD2               	goto	l657
  3239  074C                     l2226:
  3240  074C  3096               	movlw	150
  3241  074D  00FF               	movwf	btemp+1
  3242  074E  087F               	movf	btemp+1,w
  3243  074F  00A5               	movwf	___xxtofl@exp
  3244  0750  2F5E               	goto	l2232
  3245  0751                     l2228:
  3246  0751  3001               	movlw	1
  3247  0752  00FF               	movwf	btemp+1
  3248  0753  087F               	movf	btemp+1,w
  3249  0754  07A5               	addwf	___xxtofl@exp,f
  3250  0755                     l2230:
  3251  0755  3001               	movlw	1
  3252  0756                     u3165:
  3253  0756  1003               	clrc
  3254  0757  0CA9               	rrf	___xxtofl@arg+3,f
  3255  0758  0CA8               	rrf	___xxtofl@arg+2,f
  3256  0759  0CA7               	rrf	___xxtofl@arg+1,f
  3257  075A  0CA6               	rrf	___xxtofl@arg,f
  3258  075B  3EFF               	addlw	-1
  3259  075C  1D03               	skipz
  3260  075D  2F56               	goto	u3165
  3261  075E                     l2232:
  3262  075E  30FE               	movlw	254
  3263  075F  0529               	andwf	___xxtofl@arg+3,w
  3264  0760  1D03               	btfss	3,2
  3265  0761  2F63               	goto	u3171
  3266  0762  2F64               	goto	u3170
  3267  0763                     u3171:
  3268  0763  2F51               	goto	l2228
  3269  0764                     u3170:
  3270  0764  2F80               	goto	l2240
  3271  0765                     l2234:
  3272  0765  3001               	movlw	1
  3273  0766  00FF               	movwf	btemp+1
  3274  0767  087F               	movf	btemp+1,w
  3275  0768  07A5               	addwf	___xxtofl@exp,f
  3276  0769                     l2236:
  3277  0769  3001               	movlw	1
  3278  076A  07A6               	addwf	___xxtofl@arg,f
  3279  076B  3000               	movlw	0
  3280  076C  1803               	skipnc
  3281  076D  3001               	movlw	1
  3282  076E  07A7               	addwf	___xxtofl@arg+1,f
  3283  076F  3000               	movlw	0
  3284  0770  1803               	skipnc
  3285  0771  3001               	movlw	1
  3286  0772  07A8               	addwf	___xxtofl@arg+2,f
  3287  0773  3000               	movlw	0
  3288  0774  1803               	skipnc
  3289  0775  3001               	movlw	1
  3290  0776  07A9               	addwf	___xxtofl@arg+3,f
  3291  0777                     l2238:
  3292  0777  3001               	movlw	1
  3293  0778                     u3185:
  3294  0778  1003               	clrc
  3295  0779  0CA9               	rrf	___xxtofl@arg+3,f
  3296  077A  0CA8               	rrf	___xxtofl@arg+2,f
  3297  077B  0CA7               	rrf	___xxtofl@arg+1,f
  3298  077C  0CA6               	rrf	___xxtofl@arg,f
  3299  077D  3EFF               	addlw	-1
  3300  077E  1D03               	skipz
  3301  077F  2F78               	goto	u3185
  3302  0780                     l2240:
  3303  0780  30FF               	movlw	255
  3304  0781  0529               	andwf	___xxtofl@arg+3,w
  3305  0782  1D03               	btfss	3,2
  3306  0783  2F85               	goto	u3191
  3307  0784  2F86               	goto	u3190
  3308  0785                     u3191:
  3309  0785  2F65               	goto	l2234
  3310  0786                     u3190:
  3311  0786  2F92               	goto	l2244
  3312  0787                     l2242:
  3313  0787  3001               	movlw	1
  3314  0788  02A5               	subwf	___xxtofl@exp,f
  3315  0789  3001               	movlw	1
  3316  078A  00A0               	movwf	??___xxtofl
  3317  078B                     u3205:
  3318  078B  1003               	clrc
  3319  078C  0DA6               	rlf	___xxtofl@arg,f
  3320  078D  0DA7               	rlf	___xxtofl@arg+1,f
  3321  078E  0DA8               	rlf	___xxtofl@arg+2,f
  3322  078F  0DA9               	rlf	___xxtofl@arg+3,f
  3323  0790  0BA0               	decfsz	??___xxtofl,f
  3324  0791  2F8B               	goto	u3205
  3325  0792                     l2244:
  3326  0792  1BA8               	btfsc	___xxtofl@arg+2,7
  3327  0793  2F95               	goto	u3211
  3328  0794  2F96               	goto	u3210
  3329  0795                     u3211:
  3330  0795  2F9C               	goto	l668
  3331  0796                     u3210:
  3332  0796                     l2246:
  3333  0796  3002               	movlw	2
  3334  0797  0225               	subwf	___xxtofl@exp,w
  3335  0798  1803               	skipnc
  3336  0799  2F9B               	goto	u3221
  3337  079A  2F9C               	goto	u3220
  3338  079B                     u3221:
  3339  079B  2F87               	goto	l2242
  3340  079C                     u3220:
  3341  079C                     l668:
  3342  079C  1825               	btfsc	___xxtofl@exp,0
  3343  079D  2F9F               	goto	u3231
  3344  079E  2FA0               	goto	u3230
  3345  079F                     u3231:
  3346  079F  2FA8               	goto	l669
  3347  07A0                     u3230:
  3348  07A0                     l2248:
  3349  07A0  30FF               	movlw	255
  3350  07A1  05A6               	andwf	___xxtofl@arg,f
  3351  07A2  30FF               	movlw	255
  3352  07A3  05A7               	andwf	___xxtofl@arg+1,f
  3353  07A4  307F               	movlw	127
  3354  07A5  05A8               	andwf	___xxtofl@arg+2,f
  3355  07A6  30FF               	movlw	255
  3356  07A7  05A9               	andwf	___xxtofl@arg+3,f
  3357  07A8                     l669:
  3358  07A8  1003               	clrc
  3359  07A9  0CA5               	rrf	___xxtofl@exp,f
  3360  07AA                     l2250:
  3361  07AA  0825               	movf	___xxtofl@exp,w
  3362  07AB  00A0               	movwf	??___xxtofl
  3363  07AC  01A1               	clrf	??___xxtofl+1
  3364  07AD  01A2               	clrf	??___xxtofl+2
  3365  07AE  01A3               	clrf	??___xxtofl+3
  3366  07AF  3018               	movlw	24
  3367  07B0                     u3245:
  3368  07B0  1003               	clrc
  3369  07B1  0DA0               	rlf	??___xxtofl,f
  3370  07B2  0DA1               	rlf	??___xxtofl+1,f
  3371  07B3  0DA2               	rlf	??___xxtofl+2,f
  3372  07B4  0DA3               	rlf	??___xxtofl+3,f
  3373  07B5                     u3240:
  3374  07B5  3EFF               	addlw	-1
  3375  07B6  1D03               	skipz
  3376  07B7  2FB0               	goto	u3245
  3377  07B8  0820               	movf	??___xxtofl,w
  3378  07B9  04A6               	iorwf	___xxtofl@arg,f
  3379  07BA  0821               	movf	??___xxtofl+1,w
  3380  07BB  04A7               	iorwf	___xxtofl@arg+1,f
  3381  07BC  0822               	movf	??___xxtofl+2,w
  3382  07BD  04A8               	iorwf	___xxtofl@arg+2,f
  3383  07BE  0823               	movf	??___xxtofl+3,w
  3384  07BF  04A9               	iorwf	___xxtofl@arg+3,f
  3385  07C0                     l2252:
  3386  07C0  0824               	movf	___xxtofl@sign,w
  3387  07C1  1903               	btfsc	3,2
  3388  07C2  2FC4               	goto	u3251
  3389  07C3  2FC5               	goto	u3250
  3390  07C4                     u3251:
  3391  07C4  2FCA               	goto	l2258
  3392  07C5                     u3250:
  3393  07C5                     l2254:
  3394  07C5  1FFB               	btfss	___xxtofl@val+3,7
  3395  07C6  2FC8               	goto	u3261
  3396  07C7  2FC9               	goto	u3260
  3397  07C8                     u3261:
  3398  07C8  2FCA               	goto	l2258
  3399  07C9                     u3260:
  3400  07C9                     l2256:
  3401  07C9  17A9               	bsf	___xxtofl@arg+3,7
  3402  07CA                     l2258:
  3403  07CA  0829               	movf	___xxtofl@arg+3,w
  3404  07CB  00FB               	movwf	?___xxtofl+3
  3405  07CC  0828               	movf	___xxtofl@arg+2,w
  3406  07CD  00FA               	movwf	?___xxtofl+2
  3407  07CE  0827               	movf	___xxtofl@arg+1,w
  3408  07CF  00F9               	movwf	?___xxtofl+1
  3409  07D0  0826               	movf	___xxtofl@arg,w
  3410  07D1  00F8               	movwf	?___xxtofl
  3411  07D2                     l657:
  3412  07D2  0008               	return
  3413  07D3                     __end_of___xxtofl:
  3414                           
  3415                           	psect	text7
  3416  1578                     __ptext7:	
  3417 ;; *************** function ___wmul *****************
  3418 ;; Defined at:
  3419 ;;		line 15 in file "C:\Program Files\Microchip\xc8\v2.20\pic\sources\c90\common\Umul16.c"
  3420 ;; Parameters:    Size  Location     Type
  3421 ;;  multiplier      2    2[COMMON] unsigned int 
  3422 ;;  multiplicand    2    4[COMMON] unsigned int 
  3423 ;; Auto vars:     Size  Location     Type
  3424 ;;  product         2    6[COMMON] unsigned int 
  3425 ;; Return value:  Size  Location     Type
  3426 ;;                  2    2[COMMON] unsigned int 
  3427 ;; Registers used:
  3428 ;;		wreg, status,2, status,0
  3429 ;; Tracked objects:
  3430 ;;		On entry : 0/0
  3431 ;;		On exit  : 0/0
  3432 ;;		Unchanged: 0/0
  3433 ;; Data sizes:     COMMON   BANK0   BANK1   BANK3   BANK2
  3434 ;;      Params:         4       0       0       0       0
  3435 ;;      Locals:         2       0       0       0       0
  3436 ;;      Temps:          0       0       0       0       0
  3437 ;;      Totals:         6       0       0       0       0
  3438 ;;Total ram usage:        6 bytes
  3439 ;; Hardware stack levels used:    1
  3440 ;; Hardware stack levels required when called:    1
  3441 ;; This function calls:
  3442 ;;		Nothing
  3443 ;; This function is called by:
  3444 ;;		_Resistance_Value
  3445 ;; This function uses a non-reentrant model
  3446 ;;
  3447                           
  3448                           
  3449                           ;psect for function ___wmul
  3450  1578                     ___wmul:
  3451  1578                     l1888:	
  3452                           ;incstack = 0
  3453                           ; Regs used in ___wmul: [wreg+status,2+status,0]
  3454                           
  3455  1578  01F6               	clrf	___wmul@product
  3456  1579  01F7               	clrf	___wmul@product+1
  3457  157A                     l1890:
  3458  157A  1C72               	btfss	___wmul@multiplier,0
  3459  157B  2D7D               	goto	u2361
  3460  157C  2D7E               	goto	u2360
  3461  157D                     u2361:
  3462  157D  2D84               	goto	l222
  3463  157E                     u2360:
  3464  157E                     l1892:
  3465  157E  0874               	movf	___wmul@multiplicand,w
  3466  157F  07F6               	addwf	___wmul@product,f
  3467  1580  1803               	skipnc
  3468  1581  0AF7               	incf	___wmul@product+1,f
  3469  1582  0875               	movf	___wmul@multiplicand+1,w
  3470  1583  07F7               	addwf	___wmul@product+1,f
  3471  1584                     l222:
  3472  1584  3001               	movlw	1
  3473  1585                     u2375:
  3474  1585  1003               	clrc
  3475  1586  0DF4               	rlf	___wmul@multiplicand,f
  3476  1587  0DF5               	rlf	___wmul@multiplicand+1,f
  3477  1588  3EFF               	addlw	-1
  3478  1589  1D03               	skipz
  3479  158A  2D85               	goto	u2375
  3480  158B                     l1894:
  3481  158B  3001               	movlw	1
  3482  158C                     u2385:
  3483  158C  1003               	clrc
  3484  158D  0CF3               	rrf	___wmul@multiplier+1,f
  3485  158E  0CF2               	rrf	___wmul@multiplier,f
  3486  158F  3EFF               	addlw	-1
  3487  1590  1D03               	skipz
  3488  1591  2D8C               	goto	u2385
  3489  1592                     l1896:
  3490  1592  0872               	movf	___wmul@multiplier,w
  3491  1593  0473               	iorwf	___wmul@multiplier+1,w
  3492  1594  1D03               	btfss	3,2
  3493  1595  2D97               	goto	u2391
  3494  1596  2D98               	goto	u2390
  3495  1597                     u2391:
  3496  1597  2D7A               	goto	l1890
  3497  1598                     u2390:
  3498  1598                     l1898:
  3499  1598  0877               	movf	___wmul@product+1,w
  3500  1599  00F3               	movwf	?___wmul+1
  3501  159A  0876               	movf	___wmul@product,w
  3502  159B  00F2               	movwf	?___wmul
  3503  159C                     l224:
  3504  159C  0008               	return
  3505  159D                     __end_of___wmul:
  3506                           
  3507                           	psect	text8
  3508  1554                     __ptext8:	
  3509 ;; *************** function ___flsub *****************
  3510 ;; Defined at:
  3511 ;;		line 242 in file "C:\Program Files\Microchip\xc8\v2.20\pic\sources\c90\common\sprcadd.c"
  3512 ;; Parameters:    Size  Location     Type
  3513 ;;  a               4   20[BANK0 ] unsigned int 
  3514 ;;  b               4   24[BANK0 ] unsigned int 
  3515 ;; Auto vars:     Size  Location     Type
  3516 ;;		None
  3517 ;; Return value:  Size  Location     Type
  3518 ;;                  4   20[BANK0 ] unsigned int 
  3519 ;; Registers used:
  3520 ;;		wreg, status,2, status,0, btemp+1, pclath, cstack
  3521 ;; Tracked objects:
  3522 ;;		On entry : 0/0
  3523 ;;		On exit  : 0/0
  3524 ;;		Unchanged: 0/0
  3525 ;; Data sizes:     COMMON   BANK0   BANK1   BANK3   BANK2
  3526 ;;      Params:         0       8       0       0       0
  3527 ;;      Locals:         0       0       0       0       0
  3528 ;;      Temps:          0       0       0       0       0
  3529 ;;      Totals:         0       8       0       0       0
  3530 ;;Total ram usage:        8 bytes
  3531 ;; Hardware stack levels used:    1
  3532 ;; Hardware stack levels required when called:    2
  3533 ;; This function calls:
  3534 ;;		___fladd
  3535 ;; This function is called by:
  3536 ;;		_Resistance_Value
  3537 ;;		_conversion_newton
  3538 ;; This function uses a non-reentrant model
  3539 ;;
  3540                           
  3541                           
  3542                           ;psect for function ___flsub
  3543  1554                     ___flsub:
  3544  1554                     l1922:	
  3545                           ;incstack = 0
  3546                           ; Regs used in ___flsub: [wreg+status,2+status,0+btemp+1+pclath+cstack]
  3547                           
  3548  1554  3080               	movlw	128
  3549  1555  1283               	bcf	3,5	;RP0=0, select bank0
  3550  1556  1303               	bcf	3,6	;RP1=0, select bank0
  3551  1557  06B7               	xorwf	___flsub@a+3,f
  3552  1558                     l1924:
  3553  1558  083B               	movf	___flsub@b+3,w
  3554  1559  00A3               	movwf	___fladd@b+3
  3555  155A  083A               	movf	___flsub@b+2,w
  3556  155B  00A2               	movwf	___fladd@b+2
  3557  155C  0839               	movf	___flsub@b+1,w
  3558  155D  00A1               	movwf	___fladd@b+1
  3559  155E  0838               	movf	___flsub@b,w
  3560  155F  00A0               	movwf	___fladd@b
  3561  1560  0837               	movf	___flsub@a+3,w
  3562  1561  00A7               	movwf	___fladd@a+3
  3563  1562  0836               	movf	___flsub@a+2,w
  3564  1563  00A6               	movwf	___fladd@a+2
  3565  1564  0835               	movf	___flsub@a+1,w
  3566  1565  00A5               	movwf	___fladd@a+1
  3567  1566  0834               	movf	___flsub@a,w
  3568  1567  00A4               	movwf	___fladd@a
  3569  1568  120A  158A  2217  160A  118A  	fcall	___fladd
  3570  156D  1283               	bcf	3,5	;RP0=0, select bank0
  3571  156E  1303               	bcf	3,6	;RP1=0, select bank0
  3572  156F  0823               	movf	?___fladd+3,w
  3573  1570  00B7               	movwf	?___flsub+3
  3574  1571  0822               	movf	?___fladd+2,w
  3575  1572  00B6               	movwf	?___flsub+2
  3576  1573  0821               	movf	?___fladd+1,w
  3577  1574  00B5               	movwf	?___flsub+1
  3578  1575  0820               	movf	?___fladd,w
  3579  1576  00B4               	movwf	?___flsub
  3580  1577                     l561:
  3581  1577  0008               	return
  3582  1578                     __end_of___flsub:
  3583                           
  3584                           	psect	text9
  3585  0A17                     __ptext9:	
  3586 ;; *************** function ___fladd *****************
  3587 ;; Defined at:
  3588 ;;		line 10 in file "C:\Program Files\Microchip\xc8\v2.20\pic\sources\c90\common\sprcadd.c"
  3589 ;; Parameters:    Size  Location     Type
  3590 ;;  b               4    0[BANK0 ] unsigned int 
  3591 ;;  a               4    4[BANK0 ] unsigned int 
  3592 ;; Auto vars:     Size  Location     Type
  3593 ;;  grs             1   19[BANK0 ] unsigned char 
  3594 ;;  bexp            1   18[BANK0 ] unsigned char 
  3595 ;;  aexp            1   17[BANK0 ] unsigned char 
  3596 ;;  signs           1   16[BANK0 ] unsigned char 
  3597 ;; Return value:  Size  Location     Type
  3598 ;;                  4    0[BANK0 ] unsigned char 
  3599 ;; Registers used:
  3600 ;;		wreg, status,2, status,0, btemp+1
  3601 ;; Tracked objects:
  3602 ;;		On entry : 0/0
  3603 ;;		On exit  : 0/0
  3604 ;;		Unchanged: 0/0
  3605 ;; Data sizes:     COMMON   BANK0   BANK1   BANK3   BANK2
  3606 ;;      Params:         0       8       0       0       0
  3607 ;;      Locals:         0       4       0       0       0
  3608 ;;      Temps:          0       8       0       0       0
  3609 ;;      Totals:         0      20       0       0       0
  3610 ;;Total ram usage:       20 bytes
  3611 ;; Hardware stack levels used:    1
  3612 ;; Hardware stack levels required when called:    1
  3613 ;; This function calls:
  3614 ;;		Nothing
  3615 ;; This function is called by:
  3616 ;;		_conversion_newton
  3617 ;;		___flsub
  3618 ;; This function uses a non-reentrant model
  3619 ;;
  3620                           
  3621                           
  3622                           ;psect for function ___fladd
  3623  0A17                     ___fladd:
  3624  0A17                     l1640:	
  3625                           ;incstack = 0
  3626                           ; Regs used in ___fladd: [wreg+status,2+status,0+btemp+1]
  3627                           
  3628  0A17  1283               	bcf	3,5	;RP0=0, select bank0
  3629  0A18  1303               	bcf	3,6	;RP1=0, select bank0
  3630  0A19  0823               	movf	___fladd@b+3,w
  3631  0A1A  3980               	andlw	128
  3632  0A1B  00FF               	movwf	btemp+1
  3633  0A1C  087F               	movf	btemp+1,w
  3634  0A1D  00B0               	movwf	___fladd@signs
  3635  0A1E                     l1642:
  3636  0A1E  0823               	movf	___fladd@b+3,w
  3637  0A1F  00A8               	movwf	??___fladd
  3638  0A20  0728               	addwf	??___fladd,w
  3639  0A21  00FF               	movwf	btemp+1
  3640  0A22  087F               	movf	btemp+1,w
  3641  0A23  00B2               	movwf	___fladd@bexp
  3642  0A24                     l1644:
  3643  0A24  1FA2               	btfss	___fladd@b+2,7
  3644  0A25  2A27               	goto	u1851
  3645  0A26  2A28               	goto	u1850
  3646  0A27                     u1851:
  3647  0A27  2A29               	goto	l1648
  3648  0A28                     u1850:
  3649  0A28                     l1646:
  3650  0A28  1432               	bsf	___fladd@bexp,0
  3651  0A29                     l1648:
  3652  0A29  0832               	movf	___fladd@bexp,w
  3653  0A2A  1903               	btfsc	3,2
  3654  0A2B  2A2D               	goto	u1861
  3655  0A2C  2A2E               	goto	u1860
  3656  0A2D                     u1861:
  3657  0A2D  2A3E               	goto	l1658
  3658  0A2E                     u1860:
  3659  0A2E                     l1650:
  3660  0A2E  0A32               	incf	___fladd@bexp,w
  3661  0A2F  1D03               	btfss	3,2
  3662  0A30  2A32               	goto	u1871
  3663  0A31  2A33               	goto	u1870
  3664  0A32                     u1871:
  3665  0A32  2A3B               	goto	l1654
  3666  0A33                     u1870:
  3667  0A33                     l1652:
  3668  0A33  3000               	movlw	0
  3669  0A34  00A3               	movwf	___fladd@b+3
  3670  0A35  3000               	movlw	0
  3671  0A36  00A2               	movwf	___fladd@b+2
  3672  0A37  3000               	movlw	0
  3673  0A38  00A1               	movwf	___fladd@b+1
  3674  0A39  3000               	movlw	0
  3675  0A3A  00A0               	movwf	___fladd@b
  3676  0A3B                     l1654:
  3677  0A3B  17A2               	bsf	___fladd@b+2,7
  3678  0A3C                     l1656:
  3679  0A3C  01A3               	clrf	___fladd@b+3
  3680  0A3D  2A46               	goto	l1660
  3681  0A3E                     l1658:
  3682  0A3E  3000               	movlw	0
  3683  0A3F  00A3               	movwf	___fladd@b+3
  3684  0A40  3000               	movlw	0
  3685  0A41  00A2               	movwf	___fladd@b+2
  3686  0A42  3000               	movlw	0
  3687  0A43  00A1               	movwf	___fladd@b+1
  3688  0A44  3000               	movlw	0
  3689  0A45  00A0               	movwf	___fladd@b
  3690  0A46                     l1660:
  3691  0A46  0827               	movf	___fladd@a+3,w
  3692  0A47  3980               	andlw	128
  3693  0A48  00FF               	movwf	btemp+1
  3694  0A49  087F               	movf	btemp+1,w
  3695  0A4A  00B1               	movwf	___fladd@aexp
  3696  0A4B                     l1662:
  3697  0A4B  0831               	movf	___fladd@aexp,w
  3698  0A4C  0630               	xorwf	___fladd@signs,w
  3699  0A4D  1903               	skipnz
  3700  0A4E  2A50               	goto	u1881
  3701  0A4F  2A51               	goto	u1880
  3702  0A50                     u1881:
  3703  0A50  2A52               	goto	l1666
  3704  0A51                     u1880:
  3705  0A51                     l1664:
  3706  0A51  1730               	bsf	___fladd@signs,6
  3707  0A52                     l1666:
  3708  0A52  0827               	movf	___fladd@a+3,w
  3709  0A53  00A8               	movwf	??___fladd
  3710  0A54  0728               	addwf	??___fladd,w
  3711  0A55  00FF               	movwf	btemp+1
  3712  0A56  087F               	movf	btemp+1,w
  3713  0A57  00B1               	movwf	___fladd@aexp
  3714  0A58                     l1668:
  3715  0A58  1FA6               	btfss	___fladd@a+2,7
  3716  0A59  2A5B               	goto	u1891
  3717  0A5A  2A5C               	goto	u1890
  3718  0A5B                     u1891:
  3719  0A5B  2A5D               	goto	l1672
  3720  0A5C                     u1890:
  3721  0A5C                     l1670:
  3722  0A5C  1431               	bsf	___fladd@aexp,0
  3723  0A5D                     l1672:
  3724  0A5D  0831               	movf	___fladd@aexp,w
  3725  0A5E  1903               	btfsc	3,2
  3726  0A5F  2A61               	goto	u1901
  3727  0A60  2A62               	goto	u1900
  3728  0A61                     u1901:
  3729  0A61  2A72               	goto	l1682
  3730  0A62                     u1900:
  3731  0A62                     l1674:
  3732  0A62  0A31               	incf	___fladd@aexp,w
  3733  0A63  1D03               	btfss	3,2
  3734  0A64  2A66               	goto	u1911
  3735  0A65  2A67               	goto	u1910
  3736  0A66                     u1911:
  3737  0A66  2A6F               	goto	l1678
  3738  0A67                     u1910:
  3739  0A67                     l1676:
  3740  0A67  3000               	movlw	0
  3741  0A68  00A7               	movwf	___fladd@a+3
  3742  0A69  3000               	movlw	0
  3743  0A6A  00A6               	movwf	___fladd@a+2
  3744  0A6B  3000               	movlw	0
  3745  0A6C  00A5               	movwf	___fladd@a+1
  3746  0A6D  3000               	movlw	0
  3747  0A6E  00A4               	movwf	___fladd@a
  3748  0A6F                     l1678:
  3749  0A6F  17A6               	bsf	___fladd@a+2,7
  3750  0A70                     l1680:
  3751  0A70  01A7               	clrf	___fladd@a+3
  3752  0A71  2A7A               	goto	l515
  3753  0A72                     l1682:
  3754  0A72  3000               	movlw	0
  3755  0A73  00A7               	movwf	___fladd@a+3
  3756  0A74  3000               	movlw	0
  3757  0A75  00A6               	movwf	___fladd@a+2
  3758  0A76  3000               	movlw	0
  3759  0A77  00A5               	movwf	___fladd@a+1
  3760  0A78  3000               	movlw	0
  3761  0A79  00A4               	movwf	___fladd@a
  3762  0A7A                     l515:
  3763  0A7A  0832               	movf	___fladd@bexp,w
  3764  0A7B  0231               	subwf	___fladd@aexp,w
  3765  0A7C  1803               	skipnc
  3766  0A7D  2A7F               	goto	u1921
  3767  0A7E  2A80               	goto	u1920
  3768  0A7F                     u1921:
  3769  0A7F  2AC4               	goto	l1718
  3770  0A80                     u1920:
  3771  0A80                     l1684:
  3772  0A80  1F30               	btfss	___fladd@signs,6
  3773  0A81  2A83               	goto	u1931
  3774  0A82  2A84               	goto	u1930
  3775  0A83                     u1931:
  3776  0A83  2A88               	goto	l1688
  3777  0A84                     u1930:
  3778  0A84                     l1686:
  3779  0A84  3080               	movlw	128
  3780  0A85  00FF               	movwf	btemp+1
  3781  0A86  087F               	movf	btemp+1,w
  3782  0A87  06B0               	xorwf	___fladd@signs,f
  3783  0A88                     l1688:
  3784  0A88  0832               	movf	___fladd@bexp,w
  3785  0A89  00FF               	movwf	btemp+1
  3786  0A8A  087F               	movf	btemp+1,w
  3787  0A8B  00B3               	movwf	___fladd@grs
  3788  0A8C                     l1690:
  3789  0A8C  0831               	movf	___fladd@aexp,w
  3790  0A8D  00FF               	movwf	btemp+1
  3791  0A8E  087F               	movf	btemp+1,w
  3792  0A8F  00B2               	movwf	___fladd@bexp
  3793  0A90                     l1692:
  3794  0A90  0833               	movf	___fladd@grs,w
  3795  0A91  00FF               	movwf	btemp+1
  3796  0A92  087F               	movf	btemp+1,w
  3797  0A93  00B1               	movwf	___fladd@aexp
  3798  0A94                     l1694:
  3799  0A94  0820               	movf	___fladd@b,w
  3800  0A95  00FF               	movwf	btemp+1
  3801  0A96  087F               	movf	btemp+1,w
  3802  0A97  00B3               	movwf	___fladd@grs
  3803  0A98                     l1696:
  3804  0A98  0824               	movf	___fladd@a,w
  3805  0A99  00FF               	movwf	btemp+1
  3806  0A9A  087F               	movf	btemp+1,w
  3807  0A9B  00A0               	movwf	___fladd@b
  3808  0A9C                     l1698:
  3809  0A9C  0833               	movf	___fladd@grs,w
  3810  0A9D  00FF               	movwf	btemp+1
  3811  0A9E  087F               	movf	btemp+1,w
  3812  0A9F  00A4               	movwf	___fladd@a
  3813  0AA0                     l1700:
  3814  0AA0  0821               	movf	___fladd@b+1,w
  3815  0AA1  00FF               	movwf	btemp+1
  3816  0AA2  087F               	movf	btemp+1,w
  3817  0AA3  00B3               	movwf	___fladd@grs
  3818  0AA4                     l1702:
  3819  0AA4  0825               	movf	___fladd@a+1,w
  3820  0AA5  00FF               	movwf	btemp+1
  3821  0AA6  087F               	movf	btemp+1,w
  3822  0AA7  00A1               	movwf	___fladd@b+1
  3823  0AA8                     l1704:
  3824  0AA8  0833               	movf	___fladd@grs,w
  3825  0AA9  00FF               	movwf	btemp+1
  3826  0AAA  087F               	movf	btemp+1,w
  3827  0AAB  00A5               	movwf	___fladd@a+1
  3828  0AAC                     l1706:
  3829  0AAC  0822               	movf	___fladd@b+2,w
  3830  0AAD  00FF               	movwf	btemp+1
  3831  0AAE  087F               	movf	btemp+1,w
  3832  0AAF  00B3               	movwf	___fladd@grs
  3833  0AB0                     l1708:
  3834  0AB0  0826               	movf	___fladd@a+2,w
  3835  0AB1  00FF               	movwf	btemp+1
  3836  0AB2  087F               	movf	btemp+1,w
  3837  0AB3  00A2               	movwf	___fladd@b+2
  3838  0AB4                     l1710:
  3839  0AB4  0833               	movf	___fladd@grs,w
  3840  0AB5  00FF               	movwf	btemp+1
  3841  0AB6  087F               	movf	btemp+1,w
  3842  0AB7  00A6               	movwf	___fladd@a+2
  3843  0AB8                     l1712:
  3844  0AB8  0823               	movf	___fladd@b+3,w
  3845  0AB9  00FF               	movwf	btemp+1
  3846  0ABA  087F               	movf	btemp+1,w
  3847  0ABB  00B3               	movwf	___fladd@grs
  3848  0ABC                     l1714:
  3849  0ABC  0827               	movf	___fladd@a+3,w
  3850  0ABD  00FF               	movwf	btemp+1
  3851  0ABE  087F               	movf	btemp+1,w
  3852  0ABF  00A3               	movwf	___fladd@b+3
  3853  0AC0                     l1716:
  3854  0AC0  0833               	movf	___fladd@grs,w
  3855  0AC1  00FF               	movwf	btemp+1
  3856  0AC2  087F               	movf	btemp+1,w
  3857  0AC3  00A7               	movwf	___fladd@a+3
  3858  0AC4                     l1718:
  3859  0AC4  01B3               	clrf	___fladd@grs
  3860  0AC5                     l1720:
  3861  0AC5  0831               	movf	___fladd@aexp,w
  3862  0AC6  00A8               	movwf	??___fladd
  3863  0AC7  01A9               	clrf	??___fladd+1
  3864  0AC8  0829               	movf	??___fladd+1,w
  3865  0AC9  00AB               	movwf	??___fladd+3
  3866  0ACA  0832               	movf	___fladd@bexp,w
  3867  0ACB  0228               	subwf	??___fladd,w
  3868  0ACC  00AA               	movwf	??___fladd+2
  3869  0ACD  1C03               	skipc
  3870  0ACE  03AB               	decf	??___fladd+3,f
  3871  0ACF  082B               	movf	??___fladd+3,w
  3872  0AD0  3A80               	xorlw	128
  3873  0AD1  00FF               	movwf	btemp+1
  3874  0AD2  3080               	movlw	128
  3875  0AD3  027F               	subwf	btemp+1,w
  3876  0AD4  1D03               	skipz
  3877  0AD5  2AD8               	goto	u1945
  3878  0AD6  301A               	movlw	26
  3879  0AD7  022A               	subwf	??___fladd+2,w
  3880  0AD8                     u1945:
  3881  0AD8  1C03               	skipc
  3882  0AD9  2ADB               	goto	u1941
  3883  0ADA  2ADC               	goto	u1940
  3884  0ADB                     u1941:
  3885  0ADB  2B19               	goto	l1740
  3886  0ADC                     u1940:
  3887  0ADC                     l1722:
  3888  0ADC  1283               	bcf	3,5	;RP0=0, select bank0
  3889  0ADD  1303               	bcf	3,6	;RP1=0, select bank0
  3890  0ADE  0823               	movf	___fladd@b+3,w
  3891  0ADF  0422               	iorwf	___fladd@b+2,w
  3892  0AE0  0421               	iorwf	___fladd@b+1,w
  3893  0AE1  0420               	iorwf	___fladd@b,w
  3894  0AE2  1D03               	skipz
  3895  0AE3  2AE5               	goto	u1951
  3896  0AE4  2AE7               	goto	u1950
  3897  0AE5                     u1951:
  3898  0AE5  3001               	movlw	1
  3899  0AE6  2AE8               	goto	u1960
  3900  0AE7                     u1950:
  3901  0AE7  3000               	movlw	0
  3902  0AE8                     u1960:
  3903  0AE8  00FF               	movwf	btemp+1
  3904  0AE9  087F               	movf	btemp+1,w
  3905  0AEA  00B3               	movwf	___fladd@grs
  3906  0AEB                     l1724:
  3907  0AEB  3000               	movlw	0
  3908  0AEC  00A3               	movwf	___fladd@b+3
  3909  0AED  3000               	movlw	0
  3910  0AEE  00A2               	movwf	___fladd@b+2
  3911  0AEF  3000               	movlw	0
  3912  0AF0  00A1               	movwf	___fladd@b+1
  3913  0AF1  3000               	movlw	0
  3914  0AF2  00A0               	movwf	___fladd@b
  3915  0AF3                     l1726:
  3916  0AF3  0831               	movf	___fladd@aexp,w
  3917  0AF4  00FF               	movwf	btemp+1
  3918  0AF5  087F               	movf	btemp+1,w
  3919  0AF6  00B2               	movwf	___fladd@bexp
  3920  0AF7  2B21               	goto	l519
  3921  0AF8                     l521:
  3922  0AF8  1C33               	btfss	___fladd@grs,0
  3923  0AF9  2AFB               	goto	u1971
  3924  0AFA  2AFC               	goto	u1970
  3925  0AFB                     u1971:
  3926  0AFB  2B05               	goto	l1730
  3927  0AFC                     u1970:
  3928  0AFC                     l1728:
  3929  0AFC  0833               	movf	___fladd@grs,w
  3930  0AFD  00A8               	movwf	??___fladd
  3931  0AFE  1003               	clrc
  3932  0AFF  0C28               	rrf	??___fladd,w
  3933  0B00  3801               	iorlw	1
  3934  0B01  00FF               	movwf	btemp+1
  3935  0B02  087F               	movf	btemp+1,w
  3936  0B03  00B3               	movwf	___fladd@grs
  3937  0B04  2B07               	goto	l1732
  3938  0B05                     l1730:
  3939  0B05  1003               	clrc
  3940  0B06  0CB3               	rrf	___fladd@grs,f
  3941  0B07                     l1732:
  3942  0B07  1C20               	btfss	___fladd@b,0
  3943  0B08  2B0A               	goto	u1981
  3944  0B09  2B0B               	goto	u1980
  3945  0B0A                     u1981:
  3946  0B0A  2B0C               	goto	l1736
  3947  0B0B                     u1980:
  3948  0B0B                     l1734:
  3949  0B0B  17B3               	bsf	___fladd@grs,7
  3950  0B0C                     l1736:
  3951  0B0C  3001               	movlw	1
  3952  0B0D  00A8               	movwf	??___fladd
  3953  0B0E                     u1995:
  3954  0B0E  0D23               	rlf	___fladd@b+3,w
  3955  0B0F  0CA3               	rrf	___fladd@b+3,f
  3956  0B10  0CA2               	rrf	___fladd@b+2,f
  3957  0B11  0CA1               	rrf	___fladd@b+1,f
  3958  0B12  0CA0               	rrf	___fladd@b,f
  3959  0B13  0BA8               	decfsz	??___fladd& (0+127),f
  3960  0B14  2B0E               	goto	u1995
  3961  0B15                     l1738:
  3962  0B15  3001               	movlw	1
  3963  0B16  00FF               	movwf	btemp+1
  3964  0B17  087F               	movf	btemp+1,w
  3965  0B18  07B2               	addwf	___fladd@bexp,f
  3966  0B19                     l1740:
  3967  0B19  1283               	bcf	3,5	;RP0=0, select bank0
  3968  0B1A  1303               	bcf	3,6	;RP1=0, select bank0
  3969  0B1B  0831               	movf	___fladd@aexp,w
  3970  0B1C  0232               	subwf	___fladd@bexp,w
  3971  0B1D  1C03               	skipc
  3972  0B1E  2B20               	goto	u2001
  3973  0B1F  2B21               	goto	u2000
  3974  0B20                     u2001:
  3975  0B20  2AF8               	goto	l521
  3976  0B21                     u2000:
  3977  0B21                     l519:
  3978  0B21  1B30               	btfsc	___fladd@signs,6
  3979  0B22  2B24               	goto	u2011
  3980  0B23  2B25               	goto	u2010
  3981  0B24                     u2011:
  3982  0B24  2B70               	goto	l1766
  3983  0B25                     u2010:
  3984  0B25                     l1742:
  3985  0B25  0832               	movf	___fladd@bexp,w
  3986  0B26  1D03               	btfss	3,2
  3987  0B27  2B29               	goto	u2021
  3988  0B28  2B2A               	goto	u2020
  3989  0B29                     u2021:
  3990  0B29  2B33               	goto	l1748
  3991  0B2A                     u2020:
  3992  0B2A                     l1744:
  3993  0B2A  3000               	movlw	0
  3994  0B2B  00A3               	movwf	?___fladd+3
  3995  0B2C  3000               	movlw	0
  3996  0B2D  00A2               	movwf	?___fladd+2
  3997  0B2E  3000               	movlw	0
  3998  0B2F  00A1               	movwf	?___fladd+1
  3999  0B30  3000               	movlw	0
  4000  0B31  00A0               	movwf	?___fladd
  4001  0B32  2C9E               	goto	l528
  4002  0B33                     l1748:
  4003  0B33  0824               	movf	___fladd@a,w
  4004  0B34  07A0               	addwf	___fladd@b,f
  4005  0B35  0825               	movf	___fladd@a+1,w
  4006  0B36  1103               	clrz
  4007  0B37  1803               	skipnc
  4008  0B38  3E01               	addlw	1
  4009  0B39  1903               	skipnz
  4010  0B3A  2B3C               	goto	u2031
  4011  0B3B  07A1               	addwf	___fladd@b+1,f
  4012  0B3C                     u2031:
  4013  0B3C  0826               	movf	___fladd@a+2,w
  4014  0B3D  1103               	clrz
  4015  0B3E  1803               	skipnc
  4016  0B3F  3E01               	addlw	1
  4017  0B40  1903               	skipnz
  4018  0B41  2B43               	goto	u2032
  4019  0B42  07A2               	addwf	___fladd@b+2,f
  4020  0B43                     u2032:
  4021  0B43  0827               	movf	___fladd@a+3,w
  4022  0B44  1103               	clrz
  4023  0B45  1803               	skipnc
  4024  0B46  3E01               	addlw	1
  4025  0B47  1903               	skipnz
  4026  0B48  2B4A               	goto	u2033
  4027  0B49  07A3               	addwf	___fladd@b+3,f
  4028  0B4A                     u2033:
  4029  0B4A                     l1750:
  4030  0B4A  1C23               	btfss	___fladd@b+3,0
  4031  0B4B  2B4D               	goto	u2041
  4032  0B4C  2B4E               	goto	u2040
  4033  0B4D                     u2041:
  4034  0B4D  2C24               	goto	l1802
  4035  0B4E                     u2040:
  4036  0B4E                     l1752:
  4037  0B4E  1C33               	btfss	___fladd@grs,0
  4038  0B4F  2B51               	goto	u2051
  4039  0B50  2B52               	goto	u2050
  4040  0B51                     u2051:
  4041  0B51  2B5B               	goto	l1756
  4042  0B52                     u2050:
  4043  0B52                     l1754:
  4044  0B52  0833               	movf	___fladd@grs,w
  4045  0B53  00A8               	movwf	??___fladd
  4046  0B54  1003               	clrc
  4047  0B55  0C28               	rrf	??___fladd,w
  4048  0B56  3801               	iorlw	1
  4049  0B57  00FF               	movwf	btemp+1
  4050  0B58  087F               	movf	btemp+1,w
  4051  0B59  00B3               	movwf	___fladd@grs
  4052  0B5A  2B5D               	goto	l1758
  4053  0B5B                     l1756:
  4054  0B5B  1003               	clrc
  4055  0B5C  0CB3               	rrf	___fladd@grs,f
  4056  0B5D                     l1758:
  4057  0B5D  1C20               	btfss	___fladd@b,0
  4058  0B5E  2B60               	goto	u2061
  4059  0B5F  2B61               	goto	u2060
  4060  0B60                     u2061:
  4061  0B60  2B62               	goto	l1762
  4062  0B61                     u2060:
  4063  0B61                     l1760:
  4064  0B61  17B3               	bsf	___fladd@grs,7
  4065  0B62                     l1762:
  4066  0B62  3001               	movlw	1
  4067  0B63  00A8               	movwf	??___fladd
  4068  0B64                     u2075:
  4069  0B64  0D23               	rlf	___fladd@b+3,w
  4070  0B65  0CA3               	rrf	___fladd@b+3,f
  4071  0B66  0CA2               	rrf	___fladd@b+2,f
  4072  0B67  0CA1               	rrf	___fladd@b+1,f
  4073  0B68  0CA0               	rrf	___fladd@b,f
  4074  0B69  0BA8               	decfsz	??___fladd& (0+127),f
  4075  0B6A  2B64               	goto	u2075
  4076  0B6B                     l1764:
  4077  0B6B  3001               	movlw	1
  4078  0B6C  00FF               	movwf	btemp+1
  4079  0B6D  087F               	movf	btemp+1,w
  4080  0B6E  07B2               	addwf	___fladd@bexp,f
  4081  0B6F  2C24               	goto	l1802
  4082  0B70                     l1766:
  4083  0B70  0823               	movf	___fladd@b+3,w
  4084  0B71  3A80               	xorlw	128
  4085  0B72  00FF               	movwf	btemp+1
  4086  0B73  0827               	movf	___fladd@a+3,w
  4087  0B74  3A80               	xorlw	128
  4088  0B75  027F               	subwf	btemp+1,w
  4089  0B76  1D03               	skipz
  4090  0B77  2B82               	goto	u2083
  4091  0B78  0826               	movf	___fladd@a+2,w
  4092  0B79  0222               	subwf	___fladd@b+2,w
  4093  0B7A  1D03               	skipz
  4094  0B7B  2B82               	goto	u2083
  4095  0B7C  0825               	movf	___fladd@a+1,w
  4096  0B7D  0221               	subwf	___fladd@b+1,w
  4097  0B7E  1D03               	skipz
  4098  0B7F  2B82               	goto	u2083
  4099  0B80  0824               	movf	___fladd@a,w
  4100  0B81  0220               	subwf	___fladd@b,w
  4101  0B82                     u2083:
  4102  0B82  1803               	skipnc
  4103  0B83  2B85               	goto	u2081
  4104  0B84  2B86               	goto	u2080
  4105  0B85                     u2081:
  4106  0B85  2BDE               	goto	l1778
  4107  0B86                     u2080:
  4108  0B86                     l1768:
  4109  0B86  30FF               	movlw	255
  4110  0B87  00A8               	movwf	??___fladd
  4111  0B88  30FF               	movlw	255
  4112  0B89  00A9               	movwf	??___fladd+1
  4113  0B8A  30FF               	movlw	255
  4114  0B8B  00AA               	movwf	??___fladd+2
  4115  0B8C  30FF               	movlw	255
  4116  0B8D  00AB               	movwf	??___fladd+3
  4117  0B8E  0824               	movf	___fladd@a,w
  4118  0B8F  00AC               	movwf	??___fladd+4
  4119  0B90  0825               	movf	___fladd@a+1,w
  4120  0B91  00AD               	movwf	??___fladd+5
  4121  0B92  0826               	movf	___fladd@a+2,w
  4122  0B93  00AE               	movwf	??___fladd+6
  4123  0B94  0827               	movf	___fladd@a+3,w
  4124  0B95  00AF               	movwf	??___fladd+7
  4125  0B96  0820               	movf	___fladd@b,w
  4126  0B97  02AC               	subwf	??___fladd+4,f
  4127  0B98  0821               	movf	___fladd@b+1,w
  4128  0B99  1C03               	skipc
  4129  0B9A  0F21               	incfsz	___fladd@b+1,w
  4130  0B9B  2B9D               	goto	u2091
  4131  0B9C  2B9E               	goto	u2092
  4132  0B9D                     u2091:
  4133  0B9D  02AD               	subwf	??___fladd+5,f
  4134  0B9E                     u2092:
  4135  0B9E  0822               	movf	___fladd@b+2,w
  4136  0B9F  1C03               	skipc
  4137  0BA0  0F22               	incfsz	___fladd@b+2,w
  4138  0BA1  2BA3               	goto	u2093
  4139  0BA2  2BA4               	goto	u2094
  4140  0BA3                     u2093:
  4141  0BA3  02AE               	subwf	??___fladd+6,f
  4142  0BA4                     u2094:
  4143  0BA4  0823               	movf	___fladd@b+3,w
  4144  0BA5  1C03               	skipc
  4145  0BA6  0F23               	incfsz	___fladd@b+3,w
  4146  0BA7  2BA9               	goto	u2095
  4147  0BA8  2BAA               	goto	u2096
  4148  0BA9                     u2095:
  4149  0BA9  02AF               	subwf	??___fladd+7,f
  4150  0BAA                     u2096:
  4151  0BAA  082C               	movf	??___fladd+4,w
  4152  0BAB  07A8               	addwf	??___fladd,f
  4153  0BAC  082D               	movf	??___fladd+5,w
  4154  0BAD  1803               	skipnc
  4155  0BAE  0F2D               	incfsz	??___fladd+5,w
  4156  0BAF  2BB1               	goto	u2100
  4157  0BB0  2BB2               	goto	u2101
  4158  0BB1                     u2100:
  4159  0BB1  07A9               	addwf	??___fladd+1,f
  4160  0BB2                     u2101:
  4161  0BB2  082E               	movf	??___fladd+6,w
  4162  0BB3  1803               	skipnc
  4163  0BB4  0F2E               	incfsz	??___fladd+6,w
  4164  0BB5  2BB7               	goto	u2102
  4165  0BB6  2BB8               	goto	u2103
  4166  0BB7                     u2102:
  4167  0BB7  07AA               	addwf	??___fladd+2,f
  4168  0BB8                     u2103:
  4169  0BB8  082F               	movf	??___fladd+7,w
  4170  0BB9  1803               	skipnc
  4171  0BBA  0A2F               	incf	??___fladd+7,w
  4172  0BBB  07AB               	addwf	??___fladd+3,f
  4173  0BBC  082B               	movf	??___fladd+3,w
  4174  0BBD  00A3               	movwf	___fladd@b+3
  4175  0BBE  082A               	movf	??___fladd+2,w
  4176  0BBF  00A2               	movwf	___fladd@b+2
  4177  0BC0  0829               	movf	??___fladd+1,w
  4178  0BC1  00A1               	movwf	___fladd@b+1
  4179  0BC2  0828               	movf	??___fladd,w
  4180  0BC3  00A0               	movwf	___fladd@b
  4181  0BC4                     l1770:
  4182  0BC4  3080               	movlw	128
  4183  0BC5  00FF               	movwf	btemp+1
  4184  0BC6  087F               	movf	btemp+1,w
  4185  0BC7  06B0               	xorwf	___fladd@signs,f
  4186  0BC8                     l1772:
  4187  0BC8  09B3               	comf	___fladd@grs,f
  4188  0BC9  0AB3               	incf	___fladd@grs,f
  4189  0BCA                     l1774:
  4190  0BCA  0833               	movf	___fladd@grs,w
  4191  0BCB  1D03               	btfss	3,2
  4192  0BCC  2BCE               	goto	u2111
  4193  0BCD  2BCF               	goto	u2110
  4194  0BCE                     u2111:
  4195  0BCE  2BEC               	goto	l536
  4196  0BCF                     u2110:
  4197  0BCF                     l1776:
  4198  0BCF  3001               	movlw	1
  4199  0BD0  07A0               	addwf	___fladd@b,f
  4200  0BD1  3000               	movlw	0
  4201  0BD2  1803               	skipnc
  4202  0BD3  3001               	movlw	1
  4203  0BD4  07A1               	addwf	___fladd@b+1,f
  4204  0BD5  3000               	movlw	0
  4205  0BD6  1803               	skipnc
  4206  0BD7  3001               	movlw	1
  4207  0BD8  07A2               	addwf	___fladd@b+2,f
  4208  0BD9  3000               	movlw	0
  4209  0BDA  1803               	skipnc
  4210  0BDB  3001               	movlw	1
  4211  0BDC  07A3               	addwf	___fladd@b+3,f
  4212  0BDD  2BEC               	goto	l536
  4213  0BDE                     l1778:
  4214  0BDE  0824               	movf	___fladd@a,w
  4215  0BDF  02A0               	subwf	___fladd@b,f
  4216  0BE0  0825               	movf	___fladd@a+1,w
  4217  0BE1  1C03               	skipc
  4218  0BE2  0F25               	incfsz	___fladd@a+1,w
  4219  0BE3  02A1               	subwf	___fladd@b+1,f
  4220  0BE4  0826               	movf	___fladd@a+2,w
  4221  0BE5  1C03               	skipc
  4222  0BE6  0F26               	incfsz	___fladd@a+2,w
  4223  0BE7  02A2               	subwf	___fladd@b+2,f
  4224  0BE8  0827               	movf	___fladd@a+3,w
  4225  0BE9  1C03               	skipc
  4226  0BEA  0F27               	incfsz	___fladd@a+3,w
  4227  0BEB  02A3               	subwf	___fladd@b+3,f
  4228  0BEC                     l536:
  4229  0BEC  0823               	movf	___fladd@b+3,w
  4230  0BED  0422               	iorwf	___fladd@b+2,w
  4231  0BEE  0421               	iorwf	___fladd@b+1,w
  4232  0BEF  0420               	iorwf	___fladd@b,w
  4233  0BF0  1D03               	skipz
  4234  0BF1  2BF3               	goto	u2121
  4235  0BF2  2BF4               	goto	u2120
  4236  0BF3                     u2121:
  4237  0BF3  2C20               	goto	l1800
  4238  0BF4                     u2120:
  4239  0BF4                     l1780:
  4240  0BF4  0833               	movf	___fladd@grs,w
  4241  0BF5  1D03               	btfss	3,2
  4242  0BF6  2BF8               	goto	u2131
  4243  0BF7  2BF9               	goto	u2130
  4244  0BF8                     u2131:
  4245  0BF8  2C20               	goto	l1800
  4246  0BF9                     u2130:
  4247  0BF9                     l1782:
  4248  0BF9  3000               	movlw	0
  4249  0BFA  00A3               	movwf	?___fladd+3
  4250  0BFB  3000               	movlw	0
  4251  0BFC  00A2               	movwf	?___fladd+2
  4252  0BFD  3000               	movlw	0
  4253  0BFE  00A1               	movwf	?___fladd+1
  4254  0BFF  3000               	movlw	0
  4255  0C00  00A0               	movwf	?___fladd
  4256  0C01  2C9E               	goto	l528
  4257  0C02                     l1786:
  4258  0C02  3001               	movlw	1
  4259  0C03  00A8               	movwf	??___fladd
  4260  0C04                     u2145:
  4261  0C04  1003               	clrc
  4262  0C05  0DA0               	rlf	___fladd@b,f
  4263  0C06  0DA1               	rlf	___fladd@b+1,f
  4264  0C07  0DA2               	rlf	___fladd@b+2,f
  4265  0C08  0DA3               	rlf	___fladd@b+3,f
  4266  0C09  0BA8               	decfsz	??___fladd,f
  4267  0C0A  2C04               	goto	u2145
  4268  0C0B                     l1788:
  4269  0C0B  1FB3               	btfss	___fladd@grs,7
  4270  0C0C  2C0E               	goto	u2151
  4271  0C0D  2C0F               	goto	u2150
  4272  0C0E                     u2151:
  4273  0C0E  2C10               	goto	l540
  4274  0C0F                     u2150:
  4275  0C0F                     l1790:
  4276  0C0F  1420               	bsf	___fladd@b,0
  4277  0C10                     l540:
  4278  0C10  1C33               	btfss	___fladd@grs,0
  4279  0C11  2C13               	goto	u2161
  4280  0C12  2C14               	goto	u2160
  4281  0C13                     u2161:
  4282  0C13  2C17               	goto	l1794
  4283  0C14                     u2160:
  4284  0C14                     l1792:
  4285  0C14  1403               	setc
  4286  0C15  0DB3               	rlf	___fladd@grs,f
  4287  0C16  2C19               	goto	l1796
  4288  0C17                     l1794:
  4289  0C17  1003               	clrc
  4290  0C18  0DB3               	rlf	___fladd@grs,f
  4291  0C19                     l1796:
  4292  0C19  0832               	movf	___fladd@bexp,w
  4293  0C1A  1903               	btfsc	3,2
  4294  0C1B  2C1D               	goto	u2171
  4295  0C1C  2C1E               	goto	u2170
  4296  0C1D                     u2171:
  4297  0C1D  2C20               	goto	l1800
  4298  0C1E                     u2170:
  4299  0C1E                     l1798:
  4300  0C1E  3001               	movlw	1
  4301  0C1F  02B2               	subwf	___fladd@bexp,f
  4302  0C20                     l1800:
  4303  0C20  1FA2               	btfss	___fladd@b+2,7
  4304  0C21  2C23               	goto	u2181
  4305  0C22  2C24               	goto	u2180
  4306  0C23                     u2181:
  4307  0C23  2C02               	goto	l1786
  4308  0C24                     u2180:
  4309  0C24                     l1802:
  4310  0C24  01B1               	clrf	___fladd@aexp
  4311  0C25                     l1804:
  4312  0C25  1FB3               	btfss	___fladd@grs,7
  4313  0C26  2C28               	goto	u2191
  4314  0C27  2C29               	goto	u2190
  4315  0C28                     u2191:
  4316  0C28  2C37               	goto	l1812
  4317  0C29                     u2190:
  4318  0C29                     l1806:
  4319  0C29  0833               	movf	___fladd@grs,w
  4320  0C2A  397F               	andlw	127
  4321  0C2B  1903               	btfsc	3,2
  4322  0C2C  2C2E               	goto	u2201
  4323  0C2D  2C2F               	goto	u2200
  4324  0C2E                     u2201:
  4325  0C2E  2C32               	goto	l546
  4326  0C2F                     u2200:
  4327  0C2F                     l1808:
  4328  0C2F  01B1               	clrf	___fladd@aexp
  4329  0C30  0AB1               	incf	___fladd@aexp,f
  4330  0C31  2C37               	goto	l1812
  4331  0C32                     l546:
  4332  0C32  1C20               	btfss	___fladd@b,0
  4333  0C33  2C35               	goto	u2211
  4334  0C34  2C36               	goto	u2210
  4335  0C35                     u2211:
  4336  0C35  2C37               	goto	l1812
  4337  0C36                     u2210:
  4338  0C36  2C2F               	goto	l1808
  4339  0C37                     l1812:
  4340  0C37  0831               	movf	___fladd@aexp,w
  4341  0C38  1903               	btfsc	3,2
  4342  0C39  2C3B               	goto	u2221
  4343  0C3A  2C3C               	goto	u2220
  4344  0C3B                     u2221:
  4345  0C3B  2C70               	goto	l1822
  4346  0C3C                     u2220:
  4347  0C3C                     l1814:
  4348  0C3C  3001               	movlw	1
  4349  0C3D  07A0               	addwf	___fladd@b,f
  4350  0C3E  3000               	movlw	0
  4351  0C3F  1803               	skipnc
  4352  0C40  3001               	movlw	1
  4353  0C41  07A1               	addwf	___fladd@b+1,f
  4354  0C42  3000               	movlw	0
  4355  0C43  1803               	skipnc
  4356  0C44  3001               	movlw	1
  4357  0C45  07A2               	addwf	___fladd@b+2,f
  4358  0C46  3000               	movlw	0
  4359  0C47  1803               	skipnc
  4360  0C48  3001               	movlw	1
  4361  0C49  07A3               	addwf	___fladd@b+3,f
  4362  0C4A                     l1816:
  4363  0C4A  1C23               	btfss	___fladd@b+3,0
  4364  0C4B  2C4D               	goto	u2231
  4365  0C4C  2C4E               	goto	u2230
  4366  0C4D                     u2231:
  4367  0C4D  2C70               	goto	l1822
  4368  0C4E                     u2230:
  4369  0C4E                     l1818:
  4370  0C4E  0820               	movf	___fladd@b,w
  4371  0C4F  00A8               	movwf	??___fladd
  4372  0C50  0821               	movf	___fladd@b+1,w
  4373  0C51  00A9               	movwf	??___fladd+1
  4374  0C52  0822               	movf	___fladd@b+2,w
  4375  0C53  00AA               	movwf	??___fladd+2
  4376  0C54  0823               	movf	___fladd@b+3,w
  4377  0C55  00AB               	movwf	??___fladd+3
  4378  0C56  3001               	movlw	1
  4379  0C57  00AC               	movwf	??___fladd+4
  4380  0C58                     u2245:
  4381  0C58  0D2B               	rlf	??___fladd+3,w
  4382  0C59  0CAB               	rrf	??___fladd+3,f
  4383  0C5A  0CAA               	rrf	??___fladd+2,f
  4384  0C5B  0CA9               	rrf	??___fladd+1,f
  4385  0C5C  0CA8               	rrf	??___fladd,f
  4386  0C5D                     u2240:
  4387  0C5D  0BAC               	decfsz	??___fladd+4,f
  4388  0C5E  2C58               	goto	u2245
  4389  0C5F  082B               	movf	??___fladd+3,w
  4390  0C60  00A3               	movwf	___fladd@b+3
  4391  0C61  082A               	movf	??___fladd+2,w
  4392  0C62  00A2               	movwf	___fladd@b+2
  4393  0C63  0829               	movf	??___fladd+1,w
  4394  0C64  00A1               	movwf	___fladd@b+1
  4395  0C65  0828               	movf	??___fladd,w
  4396  0C66  00A0               	movwf	___fladd@b
  4397  0C67  0A32               	incf	___fladd@bexp,w
  4398  0C68  1903               	btfsc	3,2
  4399  0C69  2C6B               	goto	u2251
  4400  0C6A  2C6C               	goto	u2250
  4401  0C6B                     u2251:
  4402  0C6B  2C70               	goto	l1822
  4403  0C6C                     u2250:
  4404  0C6C                     l1820:
  4405  0C6C  3001               	movlw	1
  4406  0C6D  00FF               	movwf	btemp+1
  4407  0C6E  087F               	movf	btemp+1,w
  4408  0C6F  07B2               	addwf	___fladd@bexp,f
  4409  0C70                     l1822:
  4410  0C70  0A32               	incf	___fladd@bexp,w
  4411  0C71  1903               	btfsc	3,2
  4412  0C72  2C74               	goto	u2261
  4413  0C73  2C75               	goto	u2260
  4414  0C74                     u2261:
  4415  0C74  2C7A               	goto	l1826
  4416  0C75                     u2260:
  4417  0C75                     l1824:
  4418  0C75  0832               	movf	___fladd@bexp,w
  4419  0C76  1D03               	btfss	3,2
  4420  0C77  2C79               	goto	u2271
  4421  0C78  2C7A               	goto	u2270
  4422  0C79                     u2271:
  4423  0C79  2C88               	goto	l1832
  4424  0C7A                     u2270:
  4425  0C7A                     l1826:
  4426  0C7A  3000               	movlw	0
  4427  0C7B  00A3               	movwf	___fladd@b+3
  4428  0C7C  3000               	movlw	0
  4429  0C7D  00A2               	movwf	___fladd@b+2
  4430  0C7E  3000               	movlw	0
  4431  0C7F  00A1               	movwf	___fladd@b+1
  4432  0C80  3000               	movlw	0
  4433  0C81  00A0               	movwf	___fladd@b
  4434  0C82                     l1828:
  4435  0C82  0832               	movf	___fladd@bexp,w
  4436  0C83  1D03               	btfss	3,2
  4437  0C84  2C86               	goto	u2281
  4438  0C85  2C87               	goto	u2280
  4439  0C86                     u2281:
  4440  0C86  2C88               	goto	l1832
  4441  0C87                     u2280:
  4442  0C87                     l1830:
  4443  0C87  01B0               	clrf	___fladd@signs
  4444  0C88                     l1832:
  4445  0C88  1C32               	btfss	___fladd@bexp,0
  4446  0C89  2C8B               	goto	u2291
  4447  0C8A  2C8C               	goto	u2290
  4448  0C8B                     u2291:
  4449  0C8B  2C8E               	goto	l1836
  4450  0C8C                     u2290:
  4451  0C8C                     l1834:
  4452  0C8C  17A2               	bsf	___fladd@b+2,7
  4453  0C8D  2C92               	goto	l557
  4454  0C8E                     l1836:
  4455  0C8E  307F               	movlw	127
  4456  0C8F  00FF               	movwf	btemp+1
  4457  0C90  087F               	movf	btemp+1,w
  4458  0C91  05A2               	andwf	___fladd@b+2,f
  4459  0C92                     l557:
  4460  0C92  0832               	movf	___fladd@bexp,w
  4461  0C93  00A8               	movwf	??___fladd
  4462  0C94  1003               	clrc
  4463  0C95  0C28               	rrf	??___fladd,w
  4464  0C96  00FF               	movwf	btemp+1
  4465  0C97  087F               	movf	btemp+1,w
  4466  0C98  00A3               	movwf	___fladd@b+3
  4467  0C99                     l1838:
  4468  0C99  1FB0               	btfss	___fladd@signs,7
  4469  0C9A  2C9C               	goto	u2301
  4470  0C9B  2C9D               	goto	u2300
  4471  0C9C                     u2301:
  4472  0C9C  2C9E               	goto	l558
  4473  0C9D                     u2300:
  4474  0C9D                     l1840:
  4475  0C9D  17A3               	bsf	___fladd@b+3,7
  4476  0C9E                     l558:
  4477  0C9E                     l528:
  4478  0C9E  0008               	return
  4479  0C9F                     __end_of___fladd:
  4480                           
  4481                           	psect	text10
  4482  0C9F                     __ptext10:	
  4483 ;; *************** function ___flmul *****************
  4484 ;; Defined at:
  4485 ;;		line 8 in file "C:\Program Files\Microchip\xc8\v2.20\pic\sources\c90\common\sprcmul.c"
  4486 ;; Parameters:    Size  Location     Type
  4487 ;;  b               4   54[BANK0 ] unsigned char 
  4488 ;;  a               4   58[BANK0 ] unsigned char 
  4489 ;; Auto vars:     Size  Location     Type
  4490 ;;  prod            4   74[BANK0 ] struct .
  4491 ;;  grs             4   68[BANK0 ] unsigned long 
  4492 ;;  temp            2   78[BANK0 ] struct .
  4493 ;;  bexp            1   73[BANK0 ] unsigned char 
  4494 ;;  aexp            1   72[BANK0 ] unsigned char 
  4495 ;;  sign            1   67[BANK0 ] unsigned char 
  4496 ;; Return value:  Size  Location     Type
  4497 ;;                  4   54[BANK0 ] unsigned char 
  4498 ;; Registers used:
  4499 ;;		wreg, status,2, status,0, btemp+1, pclath, cstack
  4500 ;; Tracked objects:
  4501 ;;		On entry : 0/0
  4502 ;;		On exit  : 0/0
  4503 ;;		Unchanged: 0/0
  4504 ;; Data sizes:     COMMON   BANK0   BANK1   BANK3   BANK2
  4505 ;;      Params:         0       8       0       0       0
  4506 ;;      Locals:         0      13       0       0       0
  4507 ;;      Temps:          0       5       0       0       0
  4508 ;;      Totals:         0      26       0       0       0
  4509 ;;Total ram usage:       26 bytes
  4510 ;; Hardware stack levels used:    1
  4511 ;; Hardware stack levels required when called:    2
  4512 ;; This function calls:
  4513 ;;		__Umul8_16
  4514 ;; This function is called by:
  4515 ;;		_Voltage_Value
  4516 ;;		_Resistance_Value
  4517 ;;		_conversion_newton
  4518 ;;		_puts_float
  4519 ;; This function uses a non-reentrant model
  4520 ;;
  4521                           
  4522                           
  4523                           ;psect for function ___flmul
  4524  0C9F                     ___flmul:
  4525  0C9F                     l2072:	
  4526                           ;incstack = 0
  4527                           ; Regs used in ___flmul: [wreg+status,2+status,0+btemp+1+pclath+cstack]
  4528                           
  4529  0C9F  1283               	bcf	3,5	;RP0=0, select bank0
  4530  0CA0  1303               	bcf	3,6	;RP1=0, select bank0
  4531  0CA1  0859               	movf	___flmul@b+3,w
  4532  0CA2  3980               	andlw	128
  4533  0CA3  00FF               	movwf	btemp+1
  4534  0CA4  087F               	movf	btemp+1,w
  4535  0CA5  00E3               	movwf	___flmul@sign
  4536  0CA6                     l2074:
  4537  0CA6  0859               	movf	___flmul@b+3,w
  4538  0CA7  00DE               	movwf	??___flmul
  4539  0CA8  075E               	addwf	??___flmul,w
  4540  0CA9  00FF               	movwf	btemp+1
  4541  0CAA  087F               	movf	btemp+1,w
  4542  0CAB  00E9               	movwf	___flmul@bexp
  4543  0CAC                     l2076:
  4544  0CAC  1FD8               	btfss	___flmul@b+2,7
  4545  0CAD  2CAF               	goto	u2761
  4546  0CAE  2CB0               	goto	u2760
  4547  0CAF                     u2761:
  4548  0CAF  2CB1               	goto	l2080
  4549  0CB0                     u2760:
  4550  0CB0                     l2078:
  4551  0CB0  1469               	bsf	___flmul@bexp,0
  4552  0CB1                     l2080:
  4553  0CB1  0869               	movf	___flmul@bexp,w
  4554  0CB2  1903               	btfsc	3,2
  4555  0CB3  2CB5               	goto	u2771
  4556  0CB4  2CB6               	goto	u2770
  4557  0CB5                     u2771:
  4558  0CB5  2CC5               	goto	l2088
  4559  0CB6                     u2770:
  4560  0CB6                     l2082:
  4561  0CB6  0A69               	incf	___flmul@bexp,w
  4562  0CB7  1D03               	btfss	3,2
  4563  0CB8  2CBA               	goto	u2781
  4564  0CB9  2CBB               	goto	u2780
  4565  0CBA                     u2781:
  4566  0CBA  2CC3               	goto	l2086
  4567  0CBB                     u2780:
  4568  0CBB                     l2084:
  4569  0CBB  3000               	movlw	0
  4570  0CBC  00D9               	movwf	___flmul@b+3
  4571  0CBD  3000               	movlw	0
  4572  0CBE  00D8               	movwf	___flmul@b+2
  4573  0CBF  3000               	movlw	0
  4574  0CC0  00D7               	movwf	___flmul@b+1
  4575  0CC1  3000               	movlw	0
  4576  0CC2  00D6               	movwf	___flmul@b
  4577  0CC3                     l2086:
  4578  0CC3  17D8               	bsf	___flmul@b+2,7
  4579  0CC4  2CCD               	goto	l2090
  4580  0CC5                     l2088:
  4581  0CC5  3000               	movlw	0
  4582  0CC6  00D9               	movwf	___flmul@b+3
  4583  0CC7  3000               	movlw	0
  4584  0CC8  00D8               	movwf	___flmul@b+2
  4585  0CC9  3000               	movlw	0
  4586  0CCA  00D7               	movwf	___flmul@b+1
  4587  0CCB  3000               	movlw	0
  4588  0CCC  00D6               	movwf	___flmul@b
  4589  0CCD                     l2090:
  4590  0CCD  085D               	movf	___flmul@a+3,w
  4591  0CCE  3980               	andlw	128
  4592  0CCF  00FF               	movwf	btemp+1
  4593  0CD0  087F               	movf	btemp+1,w
  4594  0CD1  06E3               	xorwf	___flmul@sign,f
  4595  0CD2                     l2092:
  4596  0CD2  085D               	movf	___flmul@a+3,w
  4597  0CD3  00DE               	movwf	??___flmul
  4598  0CD4  075E               	addwf	??___flmul,w
  4599  0CD5  00FF               	movwf	btemp+1
  4600  0CD6  087F               	movf	btemp+1,w
  4601  0CD7  00E8               	movwf	___flmul@aexp
  4602  0CD8                     l2094:
  4603  0CD8  1FDC               	btfss	___flmul@a+2,7
  4604  0CD9  2CDB               	goto	u2791
  4605  0CDA  2CDC               	goto	u2790
  4606  0CDB                     u2791:
  4607  0CDB  2CDD               	goto	l2098
  4608  0CDC                     u2790:
  4609  0CDC                     l2096:
  4610  0CDC  1468               	bsf	___flmul@aexp,0
  4611  0CDD                     l2098:
  4612  0CDD  0868               	movf	___flmul@aexp,w
  4613  0CDE  1903               	btfsc	3,2
  4614  0CDF  2CE1               	goto	u2801
  4615  0CE0  2CE2               	goto	u2800
  4616  0CE1                     u2801:
  4617  0CE1  2CF1               	goto	l2106
  4618  0CE2                     u2800:
  4619  0CE2                     l2100:
  4620  0CE2  0A68               	incf	___flmul@aexp,w
  4621  0CE3  1D03               	btfss	3,2
  4622  0CE4  2CE6               	goto	u2811
  4623  0CE5  2CE7               	goto	u2810
  4624  0CE6                     u2811:
  4625  0CE6  2CEF               	goto	l2104
  4626  0CE7                     u2810:
  4627  0CE7                     l2102:
  4628  0CE7  3000               	movlw	0
  4629  0CE8  00DD               	movwf	___flmul@a+3
  4630  0CE9  3000               	movlw	0
  4631  0CEA  00DC               	movwf	___flmul@a+2
  4632  0CEB  3000               	movlw	0
  4633  0CEC  00DB               	movwf	___flmul@a+1
  4634  0CED  3000               	movlw	0
  4635  0CEE  00DA               	movwf	___flmul@a
  4636  0CEF                     l2104:
  4637  0CEF  17DC               	bsf	___flmul@a+2,7
  4638  0CF0  2CF9               	goto	l2108
  4639  0CF1                     l2106:
  4640  0CF1  3000               	movlw	0
  4641  0CF2  00DD               	movwf	___flmul@a+3
  4642  0CF3  3000               	movlw	0
  4643  0CF4  00DC               	movwf	___flmul@a+2
  4644  0CF5  3000               	movlw	0
  4645  0CF6  00DB               	movwf	___flmul@a+1
  4646  0CF7  3000               	movlw	0
  4647  0CF8  00DA               	movwf	___flmul@a
  4648  0CF9                     l2108:
  4649  0CF9  0868               	movf	___flmul@aexp,w
  4650  0CFA  1903               	btfsc	3,2
  4651  0CFB  2CFD               	goto	u2821
  4652  0CFC  2CFE               	goto	u2820
  4653  0CFD                     u2821:
  4654  0CFD  2D03               	goto	l2112
  4655  0CFE                     u2820:
  4656  0CFE                     l2110:
  4657  0CFE  0869               	movf	___flmul@bexp,w
  4658  0CFF  1D03               	btfss	3,2
  4659  0D00  2D02               	goto	u2831
  4660  0D01  2D03               	goto	u2830
  4661  0D02                     u2831:
  4662  0D02  2D0C               	goto	l2116
  4663  0D03                     u2830:
  4664  0D03                     l2112:
  4665  0D03  3000               	movlw	0
  4666  0D04  00D9               	movwf	?___flmul+3
  4667  0D05  3000               	movlw	0
  4668  0D06  00D8               	movwf	?___flmul+2
  4669  0D07  3000               	movlw	0
  4670  0D08  00D7               	movwf	?___flmul+1
  4671  0D09  3000               	movlw	0
  4672  0D0A  00D6               	movwf	?___flmul
  4673  0D0B  2FFF               	goto	l611
  4674  0D0C                     l2116:
  4675  0D0C  0856               	movf	___flmul@b,w
  4676  0D0D  00FF               	movwf	btemp+1
  4677  0D0E  087F               	movf	btemp+1,w
  4678  0D0F  00F2               	movwf	__Umul8_16@multiplicand
  4679  0D10  085C               	movf	___flmul@a+2,w
  4680  0D11  160A  118A  259D  120A  158A  	fcall	__Umul8_16
  4681  0D16  0873               	movf	?__Umul8_16+1,w
  4682  0D17  1283               	bcf	3,5	;RP0=0, select bank0
  4683  0D18  1303               	bcf	3,6	;RP1=0, select bank0
  4684  0D19  00EF               	movwf	___flmul@temp+1
  4685  0D1A  0872               	movf	?__Umul8_16,w
  4686  0D1B  00EE               	movwf	___flmul@temp
  4687  0D1C                     l2118:
  4688  0D1C  086E               	movf	___flmul@temp,w
  4689  0D1D  00DE               	movwf	??___flmul
  4690  0D1E  01DF               	clrf	??___flmul+1
  4691  0D1F  01E0               	clrf	??___flmul+2
  4692  0D20  01E1               	clrf	??___flmul+3
  4693  0D21  0861               	movf	??___flmul+3,w
  4694  0D22  00E7               	movwf	___flmul@grs+3
  4695  0D23  0860               	movf	??___flmul+2,w
  4696  0D24  00E6               	movwf	___flmul@grs+2
  4697  0D25  085F               	movf	??___flmul+1,w
  4698  0D26  00E5               	movwf	___flmul@grs+1
  4699  0D27  085E               	movf	??___flmul,w
  4700  0D28  00E4               	movwf	___flmul@grs
  4701  0D29                     l2120:
  4702  0D29  086F               	movf	___flmul@temp+1,w
  4703  0D2A  00DE               	movwf	??___flmul
  4704  0D2B  01DF               	clrf	??___flmul+1
  4705  0D2C  01E0               	clrf	??___flmul+2
  4706  0D2D  01E1               	clrf	??___flmul+3
  4707  0D2E  0861               	movf	??___flmul+3,w
  4708  0D2F  00ED               	movwf	___flmul@prod+3
  4709  0D30  0860               	movf	??___flmul+2,w
  4710  0D31  00EC               	movwf	___flmul@prod+2
  4711  0D32  085F               	movf	??___flmul+1,w
  4712  0D33  00EB               	movwf	___flmul@prod+1
  4713  0D34  085E               	movf	??___flmul,w
  4714  0D35  00EA               	movwf	___flmul@prod
  4715  0D36  0857               	movf	___flmul@b+1,w
  4716  0D37  00FF               	movwf	btemp+1
  4717  0D38  087F               	movf	btemp+1,w
  4718  0D39  00F2               	movwf	__Umul8_16@multiplicand
  4719  0D3A  085B               	movf	___flmul@a+1,w
  4720  0D3B  160A  118A  259D  120A  158A  	fcall	__Umul8_16
  4721  0D40  0873               	movf	?__Umul8_16+1,w
  4722  0D41  1283               	bcf	3,5	;RP0=0, select bank0
  4723  0D42  1303               	bcf	3,6	;RP1=0, select bank0
  4724  0D43  00EF               	movwf	___flmul@temp+1
  4725  0D44  0872               	movf	?__Umul8_16,w
  4726  0D45  00EE               	movwf	___flmul@temp
  4727  0D46                     l2122:
  4728  0D46  086E               	movf	___flmul@temp,w
  4729  0D47  00DE               	movwf	??___flmul
  4730  0D48  01DF               	clrf	??___flmul+1
  4731  0D49  01E0               	clrf	??___flmul+2
  4732  0D4A  01E1               	clrf	??___flmul+3
  4733  0D4B  085E               	movf	??___flmul,w
  4734  0D4C  07E4               	addwf	___flmul@grs,f
  4735  0D4D  085F               	movf	??___flmul+1,w
  4736  0D4E  1103               	clrz
  4737  0D4F  1803               	skipnc
  4738  0D50  3E01               	addlw	1
  4739  0D51  1903               	skipnz
  4740  0D52  2D54               	goto	u2841
  4741  0D53  07E5               	addwf	___flmul@grs+1,f
  4742  0D54                     u2841:
  4743  0D54  0860               	movf	??___flmul+2,w
  4744  0D55  1103               	clrz
  4745  0D56  1803               	skipnc
  4746  0D57  3E01               	addlw	1
  4747  0D58  1903               	skipnz
  4748  0D59  2D5B               	goto	u2842
  4749  0D5A  07E6               	addwf	___flmul@grs+2,f
  4750  0D5B                     u2842:
  4751  0D5B  0861               	movf	??___flmul+3,w
  4752  0D5C  1103               	clrz
  4753  0D5D  1803               	skipnc
  4754  0D5E  3E01               	addlw	1
  4755  0D5F  1903               	skipnz
  4756  0D60  2D62               	goto	u2843
  4757  0D61  07E7               	addwf	___flmul@grs+3,f
  4758  0D62                     u2843:
  4759  0D62                     l2124:
  4760  0D62  086F               	movf	___flmul@temp+1,w
  4761  0D63  00DE               	movwf	??___flmul
  4762  0D64  01DF               	clrf	??___flmul+1
  4763  0D65  01E0               	clrf	??___flmul+2
  4764  0D66  01E1               	clrf	??___flmul+3
  4765  0D67  085E               	movf	??___flmul,w
  4766  0D68  07EA               	addwf	___flmul@prod,f
  4767  0D69  085F               	movf	??___flmul+1,w
  4768  0D6A  1103               	clrz
  4769  0D6B  1803               	skipnc
  4770  0D6C  3E01               	addlw	1
  4771  0D6D  1903               	skipnz
  4772  0D6E  2D70               	goto	u2851
  4773  0D6F  07EB               	addwf	___flmul@prod+1,f
  4774  0D70                     u2851:
  4775  0D70  0860               	movf	??___flmul+2,w
  4776  0D71  1103               	clrz
  4777  0D72  1803               	skipnc
  4778  0D73  3E01               	addlw	1
  4779  0D74  1903               	skipnz
  4780  0D75  2D77               	goto	u2852
  4781  0D76  07EC               	addwf	___flmul@prod+2,f
  4782  0D77                     u2852:
  4783  0D77  0861               	movf	??___flmul+3,w
  4784  0D78  1103               	clrz
  4785  0D79  1803               	skipnc
  4786  0D7A  3E01               	addlw	1
  4787  0D7B  1903               	skipnz
  4788  0D7C  2D7E               	goto	u2853
  4789  0D7D  07ED               	addwf	___flmul@prod+3,f
  4790  0D7E                     u2853:
  4791  0D7E  0858               	movf	___flmul@b+2,w
  4792  0D7F  00FF               	movwf	btemp+1
  4793  0D80  087F               	movf	btemp+1,w
  4794  0D81  00F2               	movwf	__Umul8_16@multiplicand
  4795  0D82  085A               	movf	___flmul@a,w
  4796  0D83  160A  118A  259D  120A  158A  	fcall	__Umul8_16
  4797  0D88  0873               	movf	?__Umul8_16+1,w
  4798  0D89  1283               	bcf	3,5	;RP0=0, select bank0
  4799  0D8A  1303               	bcf	3,6	;RP1=0, select bank0
  4800  0D8B  00EF               	movwf	___flmul@temp+1
  4801  0D8C  0872               	movf	?__Umul8_16,w
  4802  0D8D  00EE               	movwf	___flmul@temp
  4803  0D8E                     l2126:
  4804  0D8E  086E               	movf	___flmul@temp,w
  4805  0D8F  00DE               	movwf	??___flmul
  4806  0D90  01DF               	clrf	??___flmul+1
  4807  0D91  01E0               	clrf	??___flmul+2
  4808  0D92  01E1               	clrf	??___flmul+3
  4809  0D93  085E               	movf	??___flmul,w
  4810  0D94  07E4               	addwf	___flmul@grs,f
  4811  0D95  085F               	movf	??___flmul+1,w
  4812  0D96  1103               	clrz
  4813  0D97  1803               	skipnc
  4814  0D98  3E01               	addlw	1
  4815  0D99  1903               	skipnz
  4816  0D9A  2D9C               	goto	u2861
  4817  0D9B  07E5               	addwf	___flmul@grs+1,f
  4818  0D9C                     u2861:
  4819  0D9C  0860               	movf	??___flmul+2,w
  4820  0D9D  1103               	clrz
  4821  0D9E  1803               	skipnc
  4822  0D9F  3E01               	addlw	1
  4823  0DA0  1903               	skipnz
  4824  0DA1  2DA3               	goto	u2862
  4825  0DA2  07E6               	addwf	___flmul@grs+2,f
  4826  0DA3                     u2862:
  4827  0DA3  0861               	movf	??___flmul+3,w
  4828  0DA4  1103               	clrz
  4829  0DA5  1803               	skipnc
  4830  0DA6  3E01               	addlw	1
  4831  0DA7  1903               	skipnz
  4832  0DA8  2DAA               	goto	u2863
  4833  0DA9  07E7               	addwf	___flmul@grs+3,f
  4834  0DAA                     u2863:
  4835  0DAA                     l2128:
  4836  0DAA  086F               	movf	___flmul@temp+1,w
  4837  0DAB  00DE               	movwf	??___flmul
  4838  0DAC  01DF               	clrf	??___flmul+1
  4839  0DAD  01E0               	clrf	??___flmul+2
  4840  0DAE  01E1               	clrf	??___flmul+3
  4841  0DAF  085E               	movf	??___flmul,w
  4842  0DB0  07EA               	addwf	___flmul@prod,f
  4843  0DB1  085F               	movf	??___flmul+1,w
  4844  0DB2  1103               	clrz
  4845  0DB3  1803               	skipnc
  4846  0DB4  3E01               	addlw	1
  4847  0DB5  1903               	skipnz
  4848  0DB6  2DB8               	goto	u2871
  4849  0DB7  07EB               	addwf	___flmul@prod+1,f
  4850  0DB8                     u2871:
  4851  0DB8  0860               	movf	??___flmul+2,w
  4852  0DB9  1103               	clrz
  4853  0DBA  1803               	skipnc
  4854  0DBB  3E01               	addlw	1
  4855  0DBC  1903               	skipnz
  4856  0DBD  2DBF               	goto	u2872
  4857  0DBE  07EC               	addwf	___flmul@prod+2,f
  4858  0DBF                     u2872:
  4859  0DBF  0861               	movf	??___flmul+3,w
  4860  0DC0  1103               	clrz
  4861  0DC1  1803               	skipnc
  4862  0DC2  3E01               	addlw	1
  4863  0DC3  1903               	skipnz
  4864  0DC4  2DC6               	goto	u2873
  4865  0DC5  07ED               	addwf	___flmul@prod+3,f
  4866  0DC6                     u2873:
  4867  0DC6                     l2130:
  4868  0DC6  3008               	movlw	8
  4869  0DC7  00DE               	movwf	??___flmul
  4870  0DC8                     u2885:
  4871  0DC8  1003               	clrc
  4872  0DC9  0DE4               	rlf	___flmul@grs,f
  4873  0DCA  0DE5               	rlf	___flmul@grs+1,f
  4874  0DCB  0DE6               	rlf	___flmul@grs+2,f
  4875  0DCC  0DE7               	rlf	___flmul@grs+3,f
  4876  0DCD  0BDE               	decfsz	??___flmul,f
  4877  0DCE  2DC8               	goto	u2885
  4878  0DCF                     l2132:
  4879  0DCF  0857               	movf	___flmul@b+1,w
  4880  0DD0  00FF               	movwf	btemp+1
  4881  0DD1  087F               	movf	btemp+1,w
  4882  0DD2  00F2               	movwf	__Umul8_16@multiplicand
  4883  0DD3  085A               	movf	___flmul@a,w
  4884  0DD4  160A  118A  259D  120A  158A  	fcall	__Umul8_16
  4885  0DD9  0873               	movf	?__Umul8_16+1,w
  4886  0DDA  1283               	bcf	3,5	;RP0=0, select bank0
  4887  0DDB  1303               	bcf	3,6	;RP1=0, select bank0
  4888  0DDC  00EF               	movwf	___flmul@temp+1
  4889  0DDD  0872               	movf	?__Umul8_16,w
  4890  0DDE  00EE               	movwf	___flmul@temp
  4891  0DDF                     l2134:
  4892  0DDF  086E               	movf	___flmul@temp,w
  4893  0DE0  00DE               	movwf	??___flmul
  4894  0DE1  086F               	movf	___flmul@temp+1,w
  4895  0DE2  00DF               	movwf	??___flmul+1
  4896  0DE3  01E0               	clrf	??___flmul+2
  4897  0DE4  01E1               	clrf	??___flmul+3
  4898  0DE5  085E               	movf	??___flmul,w
  4899  0DE6  07E4               	addwf	___flmul@grs,f
  4900  0DE7  085F               	movf	??___flmul+1,w
  4901  0DE8  1103               	clrz
  4902  0DE9  1803               	skipnc
  4903  0DEA  3E01               	addlw	1
  4904  0DEB  1903               	skipnz
  4905  0DEC  2DEE               	goto	u2891
  4906  0DED  07E5               	addwf	___flmul@grs+1,f
  4907  0DEE                     u2891:
  4908  0DEE  0860               	movf	??___flmul+2,w
  4909  0DEF  1103               	clrz
  4910  0DF0  1803               	skipnc
  4911  0DF1  3E01               	addlw	1
  4912  0DF2  1903               	skipnz
  4913  0DF3  2DF5               	goto	u2892
  4914  0DF4  07E6               	addwf	___flmul@grs+2,f
  4915  0DF5                     u2892:
  4916  0DF5  0861               	movf	??___flmul+3,w
  4917  0DF6  1103               	clrz
  4918  0DF7  1803               	skipnc
  4919  0DF8  3E01               	addlw	1
  4920  0DF9  1903               	skipnz
  4921  0DFA  2DFC               	goto	u2893
  4922  0DFB  07E7               	addwf	___flmul@grs+3,f
  4923  0DFC                     u2893:
  4924  0DFC                     l2136:
  4925  0DFC  0856               	movf	___flmul@b,w
  4926  0DFD  00FF               	movwf	btemp+1
  4927  0DFE  087F               	movf	btemp+1,w
  4928  0DFF  00F2               	movwf	__Umul8_16@multiplicand
  4929  0E00  085B               	movf	___flmul@a+1,w
  4930  0E01  160A  118A  259D  120A  158A  	fcall	__Umul8_16
  4931  0E06  0873               	movf	?__Umul8_16+1,w
  4932  0E07  1283               	bcf	3,5	;RP0=0, select bank0
  4933  0E08  1303               	bcf	3,6	;RP1=0, select bank0
  4934  0E09  00EF               	movwf	___flmul@temp+1
  4935  0E0A  0872               	movf	?__Umul8_16,w
  4936  0E0B  00EE               	movwf	___flmul@temp
  4937  0E0C                     l2138:
  4938  0E0C  086E               	movf	___flmul@temp,w
  4939  0E0D  00DE               	movwf	??___flmul
  4940  0E0E  086F               	movf	___flmul@temp+1,w
  4941  0E0F  00DF               	movwf	??___flmul+1
  4942  0E10  01E0               	clrf	??___flmul+2
  4943  0E11  01E1               	clrf	??___flmul+3
  4944  0E12  085E               	movf	??___flmul,w
  4945  0E13  07E4               	addwf	___flmul@grs,f
  4946  0E14  085F               	movf	??___flmul+1,w
  4947  0E15  1103               	clrz
  4948  0E16  1803               	skipnc
  4949  0E17  3E01               	addlw	1
  4950  0E18  1903               	skipnz
  4951  0E19  2E1B               	goto	u2901
  4952  0E1A  07E5               	addwf	___flmul@grs+1,f
  4953  0E1B                     u2901:
  4954  0E1B  0860               	movf	??___flmul+2,w
  4955  0E1C  1103               	clrz
  4956  0E1D  1803               	skipnc
  4957  0E1E  3E01               	addlw	1
  4958  0E1F  1903               	skipnz
  4959  0E20  2E22               	goto	u2902
  4960  0E21  07E6               	addwf	___flmul@grs+2,f
  4961  0E22                     u2902:
  4962  0E22  0861               	movf	??___flmul+3,w
  4963  0E23  1103               	clrz
  4964  0E24  1803               	skipnc
  4965  0E25  3E01               	addlw	1
  4966  0E26  1903               	skipnz
  4967  0E27  2E29               	goto	u2903
  4968  0E28  07E7               	addwf	___flmul@grs+3,f
  4969  0E29                     u2903:
  4970  0E29                     l2140:
  4971  0E29  3008               	movlw	8
  4972  0E2A  00DE               	movwf	??___flmul
  4973  0E2B                     u2915:
  4974  0E2B  1003               	clrc
  4975  0E2C  0DE4               	rlf	___flmul@grs,f
  4976  0E2D  0DE5               	rlf	___flmul@grs+1,f
  4977  0E2E  0DE6               	rlf	___flmul@grs+2,f
  4978  0E2F  0DE7               	rlf	___flmul@grs+3,f
  4979  0E30  0BDE               	decfsz	??___flmul,f
  4980  0E31  2E2B               	goto	u2915
  4981  0E32  0856               	movf	___flmul@b,w
  4982  0E33  00FF               	movwf	btemp+1
  4983  0E34  087F               	movf	btemp+1,w
  4984  0E35  00F2               	movwf	__Umul8_16@multiplicand
  4985  0E36  085A               	movf	___flmul@a,w
  4986  0E37  160A  118A  259D  120A  158A  	fcall	__Umul8_16
  4987  0E3C  0873               	movf	?__Umul8_16+1,w
  4988  0E3D  1283               	bcf	3,5	;RP0=0, select bank0
  4989  0E3E  1303               	bcf	3,6	;RP1=0, select bank0
  4990  0E3F  00EF               	movwf	___flmul@temp+1
  4991  0E40  0872               	movf	?__Umul8_16,w
  4992  0E41  00EE               	movwf	___flmul@temp
  4993  0E42                     l2142:
  4994  0E42  086E               	movf	___flmul@temp,w
  4995  0E43  00DE               	movwf	??___flmul
  4996  0E44  086F               	movf	___flmul@temp+1,w
  4997  0E45  00DF               	movwf	??___flmul+1
  4998  0E46  01E0               	clrf	??___flmul+2
  4999  0E47  01E1               	clrf	??___flmul+3
  5000  0E48  085E               	movf	??___flmul,w
  5001  0E49  07E4               	addwf	___flmul@grs,f
  5002  0E4A  085F               	movf	??___flmul+1,w
  5003  0E4B  1103               	clrz
  5004  0E4C  1803               	skipnc
  5005  0E4D  3E01               	addlw	1
  5006  0E4E  1903               	skipnz
  5007  0E4F  2E51               	goto	u2921
  5008  0E50  07E5               	addwf	___flmul@grs+1,f
  5009  0E51                     u2921:
  5010  0E51  0860               	movf	??___flmul+2,w
  5011  0E52  1103               	clrz
  5012  0E53  1803               	skipnc
  5013  0E54  3E01               	addlw	1
  5014  0E55  1903               	skipnz
  5015  0E56  2E58               	goto	u2922
  5016  0E57  07E6               	addwf	___flmul@grs+2,f
  5017  0E58                     u2922:
  5018  0E58  0861               	movf	??___flmul+3,w
  5019  0E59  1103               	clrz
  5020  0E5A  1803               	skipnc
  5021  0E5B  3E01               	addlw	1
  5022  0E5C  1903               	skipnz
  5023  0E5D  2E5F               	goto	u2923
  5024  0E5E  07E7               	addwf	___flmul@grs+3,f
  5025  0E5F                     u2923:
  5026  0E5F                     l2144:
  5027  0E5F  0857               	movf	___flmul@b+1,w
  5028  0E60  00FF               	movwf	btemp+1
  5029  0E61  087F               	movf	btemp+1,w
  5030  0E62  00F2               	movwf	__Umul8_16@multiplicand
  5031  0E63  085C               	movf	___flmul@a+2,w
  5032  0E64  160A  118A  259D  120A  158A  	fcall	__Umul8_16
  5033  0E69  0873               	movf	?__Umul8_16+1,w
  5034  0E6A  1283               	bcf	3,5	;RP0=0, select bank0
  5035  0E6B  1303               	bcf	3,6	;RP1=0, select bank0
  5036  0E6C  00EF               	movwf	___flmul@temp+1
  5037  0E6D  0872               	movf	?__Umul8_16,w
  5038  0E6E  00EE               	movwf	___flmul@temp
  5039  0E6F  086E               	movf	___flmul@temp,w
  5040  0E70  00DE               	movwf	??___flmul
  5041  0E71  086F               	movf	___flmul@temp+1,w
  5042  0E72  00DF               	movwf	??___flmul+1
  5043  0E73  01E0               	clrf	??___flmul+2
  5044  0E74  01E1               	clrf	??___flmul+3
  5045  0E75  085E               	movf	??___flmul,w
  5046  0E76  07EA               	addwf	___flmul@prod,f
  5047  0E77  085F               	movf	??___flmul+1,w
  5048  0E78  1103               	clrz
  5049  0E79  1803               	skipnc
  5050  0E7A  3E01               	addlw	1
  5051  0E7B  1903               	skipnz
  5052  0E7C  2E7E               	goto	u2931
  5053  0E7D  07EB               	addwf	___flmul@prod+1,f
  5054  0E7E                     u2931:
  5055  0E7E  0860               	movf	??___flmul+2,w
  5056  0E7F  1103               	clrz
  5057  0E80  1803               	skipnc
  5058  0E81  3E01               	addlw	1
  5059  0E82  1903               	skipnz
  5060  0E83  2E85               	goto	u2932
  5061  0E84  07EC               	addwf	___flmul@prod+2,f
  5062  0E85                     u2932:
  5063  0E85  0861               	movf	??___flmul+3,w
  5064  0E86  1103               	clrz
  5065  0E87  1803               	skipnc
  5066  0E88  3E01               	addlw	1
  5067  0E89  1903               	skipnz
  5068  0E8A  2E8C               	goto	u2933
  5069  0E8B  07ED               	addwf	___flmul@prod+3,f
  5070  0E8C                     u2933:
  5071  0E8C                     l2146:
  5072  0E8C  0858               	movf	___flmul@b+2,w
  5073  0E8D  00FF               	movwf	btemp+1
  5074  0E8E  087F               	movf	btemp+1,w
  5075  0E8F  00F2               	movwf	__Umul8_16@multiplicand
  5076  0E90  085B               	movf	___flmul@a+1,w
  5077  0E91  160A  118A  259D  120A  158A  	fcall	__Umul8_16
  5078  0E96  0873               	movf	?__Umul8_16+1,w
  5079  0E97  1283               	bcf	3,5	;RP0=0, select bank0
  5080  0E98  1303               	bcf	3,6	;RP1=0, select bank0
  5081  0E99  00EF               	movwf	___flmul@temp+1
  5082  0E9A  0872               	movf	?__Umul8_16,w
  5083  0E9B  00EE               	movwf	___flmul@temp
  5084  0E9C                     l2148:
  5085  0E9C  086E               	movf	___flmul@temp,w
  5086  0E9D  00DE               	movwf	??___flmul
  5087  0E9E  086F               	movf	___flmul@temp+1,w
  5088  0E9F  00DF               	movwf	??___flmul+1
  5089  0EA0  01E0               	clrf	??___flmul+2
  5090  0EA1  01E1               	clrf	??___flmul+3
  5091  0EA2  085E               	movf	??___flmul,w
  5092  0EA3  07EA               	addwf	___flmul@prod,f
  5093  0EA4  085F               	movf	??___flmul+1,w
  5094  0EA5  1103               	clrz
  5095  0EA6  1803               	skipnc
  5096  0EA7  3E01               	addlw	1
  5097  0EA8  1903               	skipnz
  5098  0EA9  2EAB               	goto	u2941
  5099  0EAA  07EB               	addwf	___flmul@prod+1,f
  5100  0EAB                     u2941:
  5101  0EAB  0860               	movf	??___flmul+2,w
  5102  0EAC  1103               	clrz
  5103  0EAD  1803               	skipnc
  5104  0EAE  3E01               	addlw	1
  5105  0EAF  1903               	skipnz
  5106  0EB0  2EB2               	goto	u2942
  5107  0EB1  07EC               	addwf	___flmul@prod+2,f
  5108  0EB2                     u2942:
  5109  0EB2  0861               	movf	??___flmul+3,w
  5110  0EB3  1103               	clrz
  5111  0EB4  1803               	skipnc
  5112  0EB5  3E01               	addlw	1
  5113  0EB6  1903               	skipnz
  5114  0EB7  2EB9               	goto	u2943
  5115  0EB8  07ED               	addwf	___flmul@prod+3,f
  5116  0EB9                     u2943:
  5117  0EB9  0858               	movf	___flmul@b+2,w
  5118  0EBA  00FF               	movwf	btemp+1
  5119  0EBB  087F               	movf	btemp+1,w
  5120  0EBC  00F2               	movwf	__Umul8_16@multiplicand
  5121  0EBD  085C               	movf	___flmul@a+2,w
  5122  0EBE  160A  118A  259D  120A  158A  	fcall	__Umul8_16
  5123  0EC3  0873               	movf	?__Umul8_16+1,w
  5124  0EC4  1283               	bcf	3,5	;RP0=0, select bank0
  5125  0EC5  1303               	bcf	3,6	;RP1=0, select bank0
  5126  0EC6  00EF               	movwf	___flmul@temp+1
  5127  0EC7  0872               	movf	?__Umul8_16,w
  5128  0EC8  00EE               	movwf	___flmul@temp
  5129  0EC9                     l2150:
  5130  0EC9  086E               	movf	___flmul@temp,w
  5131  0ECA  00DE               	movwf	??___flmul
  5132  0ECB  086F               	movf	___flmul@temp+1,w
  5133  0ECC  00DF               	movwf	??___flmul+1
  5134  0ECD  01E0               	clrf	??___flmul+2
  5135  0ECE  01E1               	clrf	??___flmul+3
  5136  0ECF  3008               	movlw	8
  5137  0ED0                     u2955:
  5138  0ED0  1003               	clrc
  5139  0ED1  0DDE               	rlf	??___flmul,f
  5140  0ED2  0DDF               	rlf	??___flmul+1,f
  5141  0ED3  0DE0               	rlf	??___flmul+2,f
  5142  0ED4  0DE1               	rlf	??___flmul+3,f
  5143  0ED5                     u2950:
  5144  0ED5  3EFF               	addlw	-1
  5145  0ED6  1D03               	skipz
  5146  0ED7  2ED0               	goto	u2955
  5147  0ED8  085E               	movf	??___flmul,w
  5148  0ED9  07EA               	addwf	___flmul@prod,f
  5149  0EDA  085F               	movf	??___flmul+1,w
  5150  0EDB  1103               	clrz
  5151  0EDC  1803               	skipnc
  5152  0EDD  3E01               	addlw	1
  5153  0EDE  1903               	skipnz
  5154  0EDF  2EE1               	goto	u2961
  5155  0EE0  07EB               	addwf	___flmul@prod+1,f
  5156  0EE1                     u2961:
  5157  0EE1  0860               	movf	??___flmul+2,w
  5158  0EE2  1103               	clrz
  5159  0EE3  1803               	skipnc
  5160  0EE4  3E01               	addlw	1
  5161  0EE5  1903               	skipnz
  5162  0EE6  2EE8               	goto	u2962
  5163  0EE7  07EC               	addwf	___flmul@prod+2,f
  5164  0EE8                     u2962:
  5165  0EE8  0861               	movf	??___flmul+3,w
  5166  0EE9  1103               	clrz
  5167  0EEA  1803               	skipnc
  5168  0EEB  3E01               	addlw	1
  5169  0EEC  1903               	skipnz
  5170  0EED  2EEF               	goto	u2963
  5171  0EEE  07ED               	addwf	___flmul@prod+3,f
  5172  0EEF                     u2963:
  5173  0EEF                     l2152:
  5174  0EEF  0864               	movf	___flmul@grs,w
  5175  0EF0  00DE               	movwf	??___flmul
  5176  0EF1  0865               	movf	___flmul@grs+1,w
  5177  0EF2  00DF               	movwf	??___flmul+1
  5178  0EF3  0866               	movf	___flmul@grs+2,w
  5179  0EF4  00E0               	movwf	??___flmul+2
  5180  0EF5  0867               	movf	___flmul@grs+3,w
  5181  0EF6  00E1               	movwf	??___flmul+3
  5182  0EF7  3018               	movlw	24
  5183  0EF8                     u2975:
  5184  0EF8  1003               	clrc
  5185  0EF9  0CE1               	rrf	??___flmul+3,f
  5186  0EFA  0CE0               	rrf	??___flmul+2,f
  5187  0EFB  0CDF               	rrf	??___flmul+1,f
  5188  0EFC  0CDE               	rrf	??___flmul,f
  5189  0EFD                     u2970:
  5190  0EFD  3EFF               	addlw	-1
  5191  0EFE  1D03               	skipz
  5192  0EFF  2EF8               	goto	u2975
  5193  0F00  085E               	movf	??___flmul,w
  5194  0F01  07EA               	addwf	___flmul@prod,f
  5195  0F02  085F               	movf	??___flmul+1,w
  5196  0F03  1103               	clrz
  5197  0F04  1803               	skipnc
  5198  0F05  3E01               	addlw	1
  5199  0F06  1903               	skipnz
  5200  0F07  2F09               	goto	u2981
  5201  0F08  07EB               	addwf	___flmul@prod+1,f
  5202  0F09                     u2981:
  5203  0F09  0860               	movf	??___flmul+2,w
  5204  0F0A  1103               	clrz
  5205  0F0B  1803               	skipnc
  5206  0F0C  3E01               	addlw	1
  5207  0F0D  1903               	skipnz
  5208  0F0E  2F10               	goto	u2982
  5209  0F0F  07EC               	addwf	___flmul@prod+2,f
  5210  0F10                     u2982:
  5211  0F10  0861               	movf	??___flmul+3,w
  5212  0F11  1103               	clrz
  5213  0F12  1803               	skipnc
  5214  0F13  3E01               	addlw	1
  5215  0F14  1903               	skipnz
  5216  0F15  2F17               	goto	u2983
  5217  0F16  07ED               	addwf	___flmul@prod+3,f
  5218  0F17                     u2983:
  5219  0F17                     l2154:
  5220  0F17  3008               	movlw	8
  5221  0F18  00DE               	movwf	??___flmul
  5222  0F19                     u2995:
  5223  0F19  1003               	clrc
  5224  0F1A  0DE4               	rlf	___flmul@grs,f
  5225  0F1B  0DE5               	rlf	___flmul@grs+1,f
  5226  0F1C  0DE6               	rlf	___flmul@grs+2,f
  5227  0F1D  0DE7               	rlf	___flmul@grs+3,f
  5228  0F1E  0BDE               	decfsz	??___flmul,f
  5229  0F1F  2F19               	goto	u2995
  5230  0F20                     l2156:
  5231  0F20  0869               	movf	___flmul@bexp,w
  5232  0F21  0768               	addwf	___flmul@aexp,w
  5233  0F22  00DE               	movwf	??___flmul
  5234  0F23  01DF               	clrf	??___flmul+1
  5235  0F24  0DDF               	rlf	??___flmul+1,f
  5236  0F25  085E               	movf	??___flmul,w
  5237  0F26  3E82               	addlw	130
  5238  0F27  00EE               	movwf	___flmul@temp
  5239  0F28  085F               	movf	??___flmul+1,w
  5240  0F29  1803               	skipnc
  5241  0F2A  3E01               	addlw	1
  5242  0F2B  3EFF               	addlw	255
  5243  0F2C  00EF               	movwf	___flmul@temp+1
  5244  0F2D  2F4B               	goto	l2168
  5245  0F2E                     l2158:
  5246  0F2E  3001               	movlw	1
  5247  0F2F  00DE               	movwf	??___flmul
  5248  0F30                     u3005:
  5249  0F30  1003               	clrc
  5250  0F31  0DEA               	rlf	___flmul@prod,f
  5251  0F32  0DEB               	rlf	___flmul@prod+1,f
  5252  0F33  0DEC               	rlf	___flmul@prod+2,f
  5253  0F34  0DED               	rlf	___flmul@prod+3,f
  5254  0F35  0BDE               	decfsz	??___flmul,f
  5255  0F36  2F30               	goto	u3005
  5256  0F37                     l2160:
  5257  0F37  1FE7               	btfss	___flmul@grs+3,7
  5258  0F38  2F3A               	goto	u3011
  5259  0F39  2F3B               	goto	u3010
  5260  0F3A                     u3011:
  5261  0F3A  2F3C               	goto	l2164
  5262  0F3B                     u3010:
  5263  0F3B                     l2162:
  5264  0F3B  146A               	bsf	___flmul@prod,0
  5265  0F3C                     l2164:
  5266  0F3C  3001               	movlw	1
  5267  0F3D  00DE               	movwf	??___flmul
  5268  0F3E                     u3025:
  5269  0F3E  1003               	clrc
  5270  0F3F  0DE4               	rlf	___flmul@grs,f
  5271  0F40  0DE5               	rlf	___flmul@grs+1,f
  5272  0F41  0DE6               	rlf	___flmul@grs+2,f
  5273  0F42  0DE7               	rlf	___flmul@grs+3,f
  5274  0F43  0BDE               	decfsz	??___flmul,f
  5275  0F44  2F3E               	goto	u3025
  5276  0F45                     l2166:
  5277  0F45  30FF               	movlw	255
  5278  0F46  07EE               	addwf	___flmul@temp,f
  5279  0F47  1803               	skipnc
  5280  0F48  0AEF               	incf	___flmul@temp+1,f
  5281  0F49  30FF               	movlw	255
  5282  0F4A  07EF               	addwf	___flmul@temp+1,f
  5283  0F4B                     l2168:
  5284  0F4B  1FEC               	btfss	___flmul@prod+2,7
  5285  0F4C  2F4E               	goto	u3031
  5286  0F4D  2F4F               	goto	u3030
  5287  0F4E                     u3031:
  5288  0F4E  2F2E               	goto	l2158
  5289  0F4F                     u3030:
  5290  0F4F                     l2170:
  5291  0F4F  01E8               	clrf	___flmul@aexp
  5292  0F50                     l2172:
  5293  0F50  1FE7               	btfss	___flmul@grs+3,7
  5294  0F51  2F53               	goto	u3041
  5295  0F52  2F54               	goto	u3040
  5296  0F53                     u3041:
  5297  0F53  2F70               	goto	l2180
  5298  0F54                     u3040:
  5299  0F54                     l2174:
  5300  0F54  30FF               	movlw	255
  5301  0F55  0564               	andwf	___flmul@grs,w
  5302  0F56  00DE               	movwf	??___flmul
  5303  0F57  30FF               	movlw	255
  5304  0F58  0565               	andwf	___flmul@grs+1,w
  5305  0F59  00DF               	movwf	??___flmul+1
  5306  0F5A  30FF               	movlw	255
  5307  0F5B  0566               	andwf	___flmul@grs+2,w
  5308  0F5C  00E0               	movwf	??___flmul+2
  5309  0F5D  307F               	movlw	127
  5310  0F5E  0567               	andwf	___flmul@grs+3,w
  5311  0F5F  00E1               	movwf	??___flmul+3
  5312  0F60  0861               	movf	??___flmul+3,w
  5313  0F61  0460               	iorwf	??___flmul+2,w
  5314  0F62  045F               	iorwf	??___flmul+1,w
  5315  0F63  045E               	iorwf	??___flmul,w
  5316  0F64  1903               	skipnz
  5317  0F65  2F67               	goto	u3051
  5318  0F66  2F68               	goto	u3050
  5319  0F67                     u3051:
  5320  0F67  2F6B               	goto	l617
  5321  0F68                     u3050:
  5322  0F68                     l2176:
  5323  0F68  01E8               	clrf	___flmul@aexp
  5324  0F69  0AE8               	incf	___flmul@aexp,f
  5325  0F6A  2F70               	goto	l2180
  5326  0F6B                     l617:
  5327  0F6B  1C6A               	btfss	___flmul@prod,0
  5328  0F6C  2F6E               	goto	u3061
  5329  0F6D  2F6F               	goto	u3060
  5330  0F6E                     u3061:
  5331  0F6E  2F70               	goto	l2180
  5332  0F6F                     u3060:
  5333  0F6F  2F68               	goto	l2176
  5334  0F70                     l2180:
  5335  0F70  0868               	movf	___flmul@aexp,w
  5336  0F71  1903               	btfsc	3,2
  5337  0F72  2F74               	goto	u3071
  5338  0F73  2F75               	goto	u3070
  5339  0F74                     u3071:
  5340  0F74  2FA6               	goto	l2190
  5341  0F75                     u3070:
  5342  0F75                     l2182:
  5343  0F75  3001               	movlw	1
  5344  0F76  07EA               	addwf	___flmul@prod,f
  5345  0F77  3000               	movlw	0
  5346  0F78  1803               	skipnc
  5347  0F79  3001               	movlw	1
  5348  0F7A  07EB               	addwf	___flmul@prod+1,f
  5349  0F7B  3000               	movlw	0
  5350  0F7C  1803               	skipnc
  5351  0F7D  3001               	movlw	1
  5352  0F7E  07EC               	addwf	___flmul@prod+2,f
  5353  0F7F  3000               	movlw	0
  5354  0F80  1803               	skipnc
  5355  0F81  3001               	movlw	1
  5356  0F82  07ED               	addwf	___flmul@prod+3,f
  5357  0F83                     l2184:
  5358  0F83  1C6D               	btfss	___flmul@prod+3,0
  5359  0F84  2F86               	goto	u3081
  5360  0F85  2F87               	goto	u3080
  5361  0F86                     u3081:
  5362  0F86  2FA6               	goto	l2190
  5363  0F87                     u3080:
  5364  0F87                     l2186:
  5365  0F87  086A               	movf	___flmul@prod,w
  5366  0F88  00DE               	movwf	??___flmul
  5367  0F89  086B               	movf	___flmul@prod+1,w
  5368  0F8A  00DF               	movwf	??___flmul+1
  5369  0F8B  086C               	movf	___flmul@prod+2,w
  5370  0F8C  00E0               	movwf	??___flmul+2
  5371  0F8D  086D               	movf	___flmul@prod+3,w
  5372  0F8E  00E1               	movwf	??___flmul+3
  5373  0F8F  3001               	movlw	1
  5374  0F90  00E2               	movwf	??___flmul+4
  5375  0F91                     u3095:
  5376  0F91  0D61               	rlf	??___flmul+3,w
  5377  0F92  0CE1               	rrf	??___flmul+3,f
  5378  0F93  0CE0               	rrf	??___flmul+2,f
  5379  0F94  0CDF               	rrf	??___flmul+1,f
  5380  0F95  0CDE               	rrf	??___flmul,f
  5381  0F96                     u3090:
  5382  0F96  0BE2               	decfsz	??___flmul+4,f
  5383  0F97  2F91               	goto	u3095
  5384  0F98  0861               	movf	??___flmul+3,w
  5385  0F99  00ED               	movwf	___flmul@prod+3
  5386  0F9A  0860               	movf	??___flmul+2,w
  5387  0F9B  00EC               	movwf	___flmul@prod+2
  5388  0F9C  085F               	movf	??___flmul+1,w
  5389  0F9D  00EB               	movwf	___flmul@prod+1
  5390  0F9E  085E               	movf	??___flmul,w
  5391  0F9F  00EA               	movwf	___flmul@prod
  5392  0FA0                     l2188:
  5393  0FA0  3001               	movlw	1
  5394  0FA1  07EE               	addwf	___flmul@temp,f
  5395  0FA2  1803               	skipnc
  5396  0FA3  0AEF               	incf	___flmul@temp+1,f
  5397  0FA4  3000               	movlw	0
  5398  0FA5  07EF               	addwf	___flmul@temp+1,f
  5399  0FA6                     l2190:
  5400  0FA6  086F               	movf	___flmul@temp+1,w
  5401  0FA7  3A80               	xorlw	128
  5402  0FA8  00FF               	movwf	btemp+1
  5403  0FA9  3080               	movlw	128
  5404  0FAA  027F               	subwf	btemp+1,w
  5405  0FAB  1D03               	skipz
  5406  0FAC  2FAF               	goto	u3105
  5407  0FAD  30FF               	movlw	255
  5408  0FAE  026E               	subwf	___flmul@temp,w
  5409  0FAF                     u3105:
  5410  0FAF  1C03               	skipc
  5411  0FB0  2FB2               	goto	u3101
  5412  0FB1  2FB3               	goto	u3100
  5413  0FB2                     u3101:
  5414  0FB2  2FBE               	goto	l2194
  5415  0FB3                     u3100:
  5416  0FB3                     l2192:
  5417  0FB3  307F               	movlw	127
  5418  0FB4  1283               	bcf	3,5	;RP0=0, select bank0
  5419  0FB5  1303               	bcf	3,6	;RP1=0, select bank0
  5420  0FB6  00ED               	movwf	___flmul@prod+3
  5421  0FB7  3080               	movlw	128
  5422  0FB8  00EC               	movwf	___flmul@prod+2
  5423  0FB9  3000               	movlw	0
  5424  0FBA  00EB               	movwf	___flmul@prod+1
  5425  0FBB  3000               	movlw	0
  5426  0FBC  00EA               	movwf	___flmul@prod
  5427  0FBD  2FF3               	goto	l623
  5428  0FBE                     l2194:
  5429  0FBE  1283               	bcf	3,5	;RP0=0, select bank0
  5430  0FBF  1303               	bcf	3,6	;RP1=0, select bank0
  5431  0FC0  086F               	movf	___flmul@temp+1,w
  5432  0FC1  3A80               	xorlw	128
  5433  0FC2  00FF               	movwf	btemp+1
  5434  0FC3  3080               	movlw	128
  5435  0FC4  027F               	subwf	btemp+1,w
  5436  0FC5  1D03               	skipz
  5437  0FC6  2FC9               	goto	u3115
  5438  0FC7  3001               	movlw	1
  5439  0FC8  026E               	subwf	___flmul@temp,w
  5440  0FC9                     u3115:
  5441  0FC9  1803               	skipnc
  5442  0FCA  2FCC               	goto	u3111
  5443  0FCB  2FCD               	goto	u3110
  5444  0FCC                     u3111:
  5445  0FCC  2FD9               	goto	l2200
  5446  0FCD                     u3110:
  5447  0FCD                     l2196:
  5448  0FCD  3000               	movlw	0
  5449  0FCE  1283               	bcf	3,5	;RP0=0, select bank0
  5450  0FCF  1303               	bcf	3,6	;RP1=0, select bank0
  5451  0FD0  00ED               	movwf	___flmul@prod+3
  5452  0FD1  3000               	movlw	0
  5453  0FD2  00EC               	movwf	___flmul@prod+2
  5454  0FD3  3000               	movlw	0
  5455  0FD4  00EB               	movwf	___flmul@prod+1
  5456  0FD5  3000               	movlw	0
  5457  0FD6  00EA               	movwf	___flmul@prod
  5458  0FD7                     l2198:
  5459  0FD7  01E3               	clrf	___flmul@sign
  5460  0FD8  2FF3               	goto	l623
  5461  0FD9                     l2200:
  5462  0FD9  1283               	bcf	3,5	;RP0=0, select bank0
  5463  0FDA  1303               	bcf	3,6	;RP1=0, select bank0
  5464  0FDB  086E               	movf	___flmul@temp,w
  5465  0FDC  00FF               	movwf	btemp+1
  5466  0FDD  087F               	movf	btemp+1,w
  5467  0FDE  00E9               	movwf	___flmul@bexp
  5468  0FDF                     l2202:
  5469  0FDF  30FF               	movlw	255
  5470  0FE0  05EA               	andwf	___flmul@prod,f
  5471  0FE1  30FF               	movlw	255
  5472  0FE2  05EB               	andwf	___flmul@prod+1,f
  5473  0FE3  307F               	movlw	127
  5474  0FE4  05EC               	andwf	___flmul@prod+2,f
  5475  0FE5  3000               	movlw	0
  5476  0FE6  05ED               	andwf	___flmul@prod+3,f
  5477  0FE7                     l2204:
  5478  0FE7  1C69               	btfss	___flmul@bexp,0
  5479  0FE8  2FEA               	goto	u3121
  5480  0FE9  2FEB               	goto	u3120
  5481  0FEA                     u3121:
  5482  0FEA  2FEC               	goto	l2208
  5483  0FEB                     u3120:
  5484  0FEB                     l2206:
  5485  0FEB  17EC               	bsf	___flmul@prod+2,7
  5486  0FEC                     l2208:
  5487  0FEC  0869               	movf	___flmul@bexp,w
  5488  0FED  00DE               	movwf	??___flmul
  5489  0FEE  1003               	clrc
  5490  0FEF  0C5E               	rrf	??___flmul,w
  5491  0FF0  00FF               	movwf	btemp+1
  5492  0FF1  087F               	movf	btemp+1,w
  5493  0FF2  00ED               	movwf	___flmul@prod+3
  5494  0FF3                     l623:
  5495  0FF3  0863               	movf	___flmul@sign,w
  5496  0FF4  00FF               	movwf	btemp+1
  5497  0FF5  087F               	movf	btemp+1,w
  5498  0FF6  04ED               	iorwf	___flmul@prod+3,f
  5499  0FF7                     l2210:
  5500  0FF7  086D               	movf	___flmul@prod+3,w
  5501  0FF8  00D9               	movwf	?___flmul+3
  5502  0FF9  086C               	movf	___flmul@prod+2,w
  5503  0FFA  00D8               	movwf	?___flmul+2
  5504  0FFB  086B               	movf	___flmul@prod+1,w
  5505  0FFC  00D7               	movwf	?___flmul+1
  5506  0FFD  086A               	movf	___flmul@prod,w
  5507  0FFE  00D6               	movwf	?___flmul
  5508  0FFF                     l611:
  5509  0FFF  0008               	return
  5510  1000                     __end_of___flmul:
  5511                           
  5512                           	psect	text11
  5513  159D                     __ptext11:	
  5514 ;; *************** function __Umul8_16 *****************
  5515 ;; Defined at:
  5516 ;;		line 4 in file "C:\Program Files\Microchip\xc8\v2.20\pic\sources\c90\common\Umul8_16.c"
  5517 ;; Parameters:    Size  Location     Type
  5518 ;;  multiplier      1    wreg     unsigned char 
  5519 ;;  multiplicand    1    2[COMMON] unsigned char 
  5520 ;; Auto vars:     Size  Location     Type
  5521 ;;  multiplier      1   10[COMMON] unsigned char 
  5522 ;;  word_mpld       2    8[COMMON] unsigned int 
  5523 ;;  product         2    6[COMMON] unsigned int 
  5524 ;; Return value:  Size  Location     Type
  5525 ;;                  2    2[COMMON] unsigned int 
  5526 ;; Registers used:
  5527 ;;		wreg, status,2, status,0
  5528 ;; Tracked objects:
  5529 ;;		On entry : 0/0
  5530 ;;		On exit  : 0/0
  5531 ;;		Unchanged: 0/0
  5532 ;; Data sizes:     COMMON   BANK0   BANK1   BANK3   BANK2
  5533 ;;      Params:         2       0       0       0       0
  5534 ;;      Locals:         5       0       0       0       0
  5535 ;;      Temps:          2       0       0       0       0
  5536 ;;      Totals:         9       0       0       0       0
  5537 ;;Total ram usage:        9 bytes
  5538 ;; Hardware stack levels used:    1
  5539 ;; Hardware stack levels required when called:    1
  5540 ;; This function calls:
  5541 ;;		Nothing
  5542 ;; This function is called by:
  5543 ;;		___flmul
  5544 ;; This function uses a non-reentrant model
  5545 ;;
  5546                           
  5547                           
  5548                           ;psect for function __Umul8_16
  5549  159D                     __Umul8_16:
  5550                           
  5551                           ;incstack = 0
  5552                           ; Regs used in __Umul8_16: [wreg+status,2+status,0]
  5553                           ;__Umul8_16@multiplier stored from wreg
  5554  159D  00FA               	movwf	__Umul8_16@multiplier
  5555  159E                     l1842:
  5556  159E  01F6               	clrf	__Umul8_16@product
  5557  159F  01F7               	clrf	__Umul8_16@product+1
  5558  15A0                     l1844:
  5559  15A0  0872               	movf	__Umul8_16@multiplicand,w
  5560  15A1  00F4               	movwf	??__Umul8_16
  5561  15A2  01F5               	clrf	??__Umul8_16+1
  5562  15A3  0874               	movf	??__Umul8_16,w
  5563  15A4  00F8               	movwf	__Umul8_16@word_mpld
  5564  15A5  0875               	movf	??__Umul8_16+1,w
  5565  15A6  00F9               	movwf	__Umul8_16@word_mpld+1
  5566  15A7                     l1846:
  5567  15A7  1C7A               	btfss	__Umul8_16@multiplier,0
  5568  15A8  2DAA               	goto	u2311
  5569  15A9  2DAB               	goto	u2310
  5570  15AA                     u2311:
  5571  15AA  2DB1               	goto	l630
  5572  15AB                     u2310:
  5573  15AB                     l1848:
  5574  15AB  0878               	movf	__Umul8_16@word_mpld,w
  5575  15AC  07F6               	addwf	__Umul8_16@product,f
  5576  15AD  1803               	skipnc
  5577  15AE  0AF7               	incf	__Umul8_16@product+1,f
  5578  15AF  0879               	movf	__Umul8_16@word_mpld+1,w
  5579  15B0  07F7               	addwf	__Umul8_16@product+1,f
  5580  15B1                     l630:
  5581  15B1  3001               	movlw	1
  5582  15B2                     u2325:
  5583  15B2  1003               	clrc
  5584  15B3  0DF8               	rlf	__Umul8_16@word_mpld,f
  5585  15B4  0DF9               	rlf	__Umul8_16@word_mpld+1,f
  5586  15B5  3EFF               	addlw	-1
  5587  15B6  1D03               	skipz
  5588  15B7  2DB2               	goto	u2325
  5589  15B8  1003               	clrc
  5590  15B9  0CFA               	rrf	__Umul8_16@multiplier,f
  5591  15BA                     l1850:
  5592  15BA  087A               	movf	__Umul8_16@multiplier,w
  5593  15BB  1D03               	btfss	3,2
  5594  15BC  2DBE               	goto	u2331
  5595  15BD  2DBF               	goto	u2330
  5596  15BE                     u2331:
  5597  15BE  2DA7               	goto	l1846
  5598  15BF                     u2330:
  5599  15BF                     l1852:
  5600  15BF  0877               	movf	__Umul8_16@product+1,w
  5601  15C0  00F3               	movwf	?__Umul8_16+1
  5602  15C1  0876               	movf	__Umul8_16@product,w
  5603  15C2  00F2               	movwf	?__Umul8_16
  5604  15C3                     l632:
  5605  15C3  0008               	return
  5606  15C4                     __end_of__Umul8_16:
  5607                           
  5608                           	psect	text12
  5609  083A                     __ptext12:	
  5610 ;; *************** function ___fldiv *****************
  5611 ;; Defined at:
  5612 ;;		line 8 in file "C:\Program Files\Microchip\xc8\v2.20\pic\sources\c90\common\sprcdiv.c"
  5613 ;; Parameters:    Size  Location     Type
  5614 ;;  a               4   28[BANK0 ] unsigned int 
  5615 ;;  b               4   32[BANK0 ] unsigned int 
  5616 ;; Auto vars:     Size  Location     Type
  5617 ;;  grs             4   48[BANK0 ] unsigned long 
  5618 ;;  rem             4   41[BANK0 ] unsigned long 
  5619 ;;  new_exp         2   46[BANK0 ] int 
  5620 ;;  aexp            1   53[BANK0 ] unsigned char 
  5621 ;;  bexp            1   52[BANK0 ] unsigned char 
  5622 ;;  sign            1   45[BANK0 ] unsigned char 
  5623 ;; Return value:  Size  Location     Type
  5624 ;;                  4   28[BANK0 ] unsigned char 
  5625 ;; Registers used:
  5626 ;;		wreg, status,2, status,0, btemp+1
  5627 ;; Tracked objects:
  5628 ;;		On entry : 0/0
  5629 ;;		On exit  : 0/0
  5630 ;;		Unchanged: 0/0
  5631 ;; Data sizes:     COMMON   BANK0   BANK1   BANK3   BANK2
  5632 ;;      Params:         0       8       0       0       0
  5633 ;;      Locals:         0      13       0       0       0
  5634 ;;      Temps:          0       5       0       0       0
  5635 ;;      Totals:         0      26       0       0       0
  5636 ;;Total ram usage:       26 bytes
  5637 ;; Hardware stack levels used:    1
  5638 ;; Hardware stack levels required when called:    1
  5639 ;; This function calls:
  5640 ;;		Nothing
  5641 ;; This function is called by:
  5642 ;;		_Voltage_Value
  5643 ;;		_Resistance_Value
  5644 ;;		_conversion_newton
  5645 ;; This function uses a non-reentrant model
  5646 ;;
  5647                           
  5648                           
  5649                           ;psect for function ___fldiv
  5650  083A                     ___fldiv:
  5651  083A                     l1928:	
  5652                           ;incstack = 0
  5653                           ; Regs used in ___fldiv: [wreg+status,2+status,0+btemp+1]
  5654                           
  5655  083A  1283               	bcf	3,5	;RP0=0, select bank0
  5656  083B  1303               	bcf	3,6	;RP1=0, select bank0
  5657  083C  0843               	movf	___fldiv@b+3,w
  5658  083D  3980               	andlw	128
  5659  083E  00FF               	movwf	btemp+1
  5660  083F  087F               	movf	btemp+1,w
  5661  0840  00CD               	movwf	___fldiv@sign
  5662  0841                     l1930:
  5663  0841  0843               	movf	___fldiv@b+3,w
  5664  0842  00C4               	movwf	??___fldiv
  5665  0843  0744               	addwf	??___fldiv,w
  5666  0844  00FF               	movwf	btemp+1
  5667  0845  087F               	movf	btemp+1,w
  5668  0846  00D4               	movwf	___fldiv@bexp
  5669  0847                     l1932:
  5670  0847  1FC2               	btfss	___fldiv@b+2,7
  5671  0848  284A               	goto	u2471
  5672  0849  284B               	goto	u2470
  5673  084A                     u2471:
  5674  084A  284C               	goto	l1936
  5675  084B                     u2470:
  5676  084B                     l1934:
  5677  084B  1454               	bsf	___fldiv@bexp,0
  5678  084C                     l1936:
  5679  084C  0854               	movf	___fldiv@bexp,w
  5680  084D  1903               	btfsc	3,2
  5681  084E  2850               	goto	u2481
  5682  084F  2851               	goto	u2480
  5683  0850                     u2481:
  5684  0850  2861               	goto	l1946
  5685  0851                     u2480:
  5686  0851                     l1938:
  5687  0851  0A54               	incf	___fldiv@bexp,w
  5688  0852  1D03               	btfss	3,2
  5689  0853  2855               	goto	u2491
  5690  0854  2856               	goto	u2490
  5691  0855                     u2491:
  5692  0855  285E               	goto	l1942
  5693  0856                     u2490:
  5694  0856                     l1940:
  5695  0856  3000               	movlw	0
  5696  0857  00C3               	movwf	___fldiv@b+3
  5697  0858  3000               	movlw	0
  5698  0859  00C2               	movwf	___fldiv@b+2
  5699  085A  3000               	movlw	0
  5700  085B  00C1               	movwf	___fldiv@b+1
  5701  085C  3000               	movlw	0
  5702  085D  00C0               	movwf	___fldiv@b
  5703  085E                     l1942:
  5704  085E  17C2               	bsf	___fldiv@b+2,7
  5705  085F                     l1944:
  5706  085F  01C3               	clrf	___fldiv@b+3
  5707  0860  2869               	goto	l1948
  5708  0861                     l1946:
  5709  0861  3000               	movlw	0
  5710  0862  00C3               	movwf	___fldiv@b+3
  5711  0863  3000               	movlw	0
  5712  0864  00C2               	movwf	___fldiv@b+2
  5713  0865  3000               	movlw	0
  5714  0866  00C1               	movwf	___fldiv@b+1
  5715  0867  3000               	movlw	0
  5716  0868  00C0               	movwf	___fldiv@b
  5717  0869                     l1948:
  5718  0869  083F               	movf	___fldiv@a+3,w
  5719  086A  3980               	andlw	128
  5720  086B  00FF               	movwf	btemp+1
  5721  086C  087F               	movf	btemp+1,w
  5722  086D  06CD               	xorwf	___fldiv@sign,f
  5723  086E                     l1950:
  5724  086E  083F               	movf	___fldiv@a+3,w
  5725  086F  00C4               	movwf	??___fldiv
  5726  0870  0744               	addwf	??___fldiv,w
  5727  0871  00FF               	movwf	btemp+1
  5728  0872  087F               	movf	btemp+1,w
  5729  0873  00D5               	movwf	___fldiv@aexp
  5730  0874                     l1952:
  5731  0874  1FBE               	btfss	___fldiv@a+2,7
  5732  0875  2877               	goto	u2501
  5733  0876  2878               	goto	u2500
  5734  0877                     u2501:
  5735  0877  2879               	goto	l1956
  5736  0878                     u2500:
  5737  0878                     l1954:
  5738  0878  1455               	bsf	___fldiv@aexp,0
  5739  0879                     l1956:
  5740  0879  0855               	movf	___fldiv@aexp,w
  5741  087A  1903               	btfsc	3,2
  5742  087B  287D               	goto	u2511
  5743  087C  287E               	goto	u2510
  5744  087D                     u2511:
  5745  087D  288E               	goto	l1966
  5746  087E                     u2510:
  5747  087E                     l1958:
  5748  087E  0A55               	incf	___fldiv@aexp,w
  5749  087F  1D03               	btfss	3,2
  5750  0880  2882               	goto	u2521
  5751  0881  2883               	goto	u2520
  5752  0882                     u2521:
  5753  0882  288B               	goto	l1962
  5754  0883                     u2520:
  5755  0883                     l1960:
  5756  0883  3000               	movlw	0
  5757  0884  00BF               	movwf	___fldiv@a+3
  5758  0885  3000               	movlw	0
  5759  0886  00BE               	movwf	___fldiv@a+2
  5760  0887  3000               	movlw	0
  5761  0888  00BD               	movwf	___fldiv@a+1
  5762  0889  3000               	movlw	0
  5763  088A  00BC               	movwf	___fldiv@a
  5764  088B                     l1962:
  5765  088B  17BE               	bsf	___fldiv@a+2,7
  5766  088C                     l1964:
  5767  088C  01BF               	clrf	___fldiv@a+3
  5768  088D  2896               	goto	l571
  5769  088E                     l1966:
  5770  088E  3000               	movlw	0
  5771  088F  00BF               	movwf	___fldiv@a+3
  5772  0890  3000               	movlw	0
  5773  0891  00BE               	movwf	___fldiv@a+2
  5774  0892  3000               	movlw	0
  5775  0893  00BD               	movwf	___fldiv@a+1
  5776  0894  3000               	movlw	0
  5777  0895  00BC               	movwf	___fldiv@a
  5778  0896                     l571:
  5779  0896  083F               	movf	___fldiv@a+3,w
  5780  0897  043E               	iorwf	___fldiv@a+2,w
  5781  0898  043D               	iorwf	___fldiv@a+1,w
  5782  0899  043C               	iorwf	___fldiv@a,w
  5783  089A  1D03               	skipz
  5784  089B  289D               	goto	u2531
  5785  089C  289E               	goto	u2530
  5786  089D                     u2531:
  5787  089D  28B7               	goto	l1976
  5788  089E                     u2530:
  5789  089E                     l1968:
  5790  089E  3000               	movlw	0
  5791  089F  00C3               	movwf	___fldiv@b+3
  5792  08A0  3000               	movlw	0
  5793  08A1  00C2               	movwf	___fldiv@b+2
  5794  08A2  3000               	movlw	0
  5795  08A3  00C1               	movwf	___fldiv@b+1
  5796  08A4  3000               	movlw	0
  5797  08A5  00C0               	movwf	___fldiv@b
  5798  08A6  3080               	movlw	128
  5799  08A7  04C2               	iorwf	___fldiv@b+2,f
  5800  08A8  307F               	movlw	127
  5801  08A9  04C3               	iorwf	___fldiv@b+3,f
  5802  08AA                     l1970:
  5803  08AA  084D               	movf	___fldiv@sign,w
  5804  08AB  00FF               	movwf	btemp+1
  5805  08AC  087F               	movf	btemp+1,w
  5806  08AD  04C3               	iorwf	___fldiv@b+3,f
  5807  08AE                     l1972:
  5808  08AE  0843               	movf	___fldiv@b+3,w
  5809  08AF  00BF               	movwf	?___fldiv+3
  5810  08B0  0842               	movf	___fldiv@b+2,w
  5811  08B1  00BE               	movwf	?___fldiv+2
  5812  08B2  0841               	movf	___fldiv@b+1,w
  5813  08B3  00BD               	movwf	?___fldiv+1
  5814  08B4  0840               	movf	___fldiv@b,w
  5815  08B5  00BC               	movwf	?___fldiv
  5816  08B6  2A16               	goto	l573
  5817  08B7                     l1976:
  5818  08B7  0854               	movf	___fldiv@bexp,w
  5819  08B8  1D03               	btfss	3,2
  5820  08B9  28BB               	goto	u2541
  5821  08BA  28BC               	goto	u2540
  5822  08BB                     u2541:
  5823  08BB  28C5               	goto	l1982
  5824  08BC                     u2540:
  5825  08BC                     l1978:
  5826  08BC  3000               	movlw	0
  5827  08BD  00BF               	movwf	?___fldiv+3
  5828  08BE  3000               	movlw	0
  5829  08BF  00BE               	movwf	?___fldiv+2
  5830  08C0  3000               	movlw	0
  5831  08C1  00BD               	movwf	?___fldiv+1
  5832  08C2  3000               	movlw	0
  5833  08C3  00BC               	movwf	?___fldiv
  5834  08C4  2A16               	goto	l573
  5835  08C5                     l1982:
  5836  08C5  0854               	movf	___fldiv@bexp,w
  5837  08C6  00C4               	movwf	??___fldiv
  5838  08C7  01C5               	clrf	??___fldiv+1
  5839  08C8  0845               	movf	??___fldiv+1,w
  5840  08C9  00C7               	movwf	??___fldiv+3
  5841  08CA  0855               	movf	___fldiv@aexp,w
  5842  08CB  0244               	subwf	??___fldiv,w
  5843  08CC  00C6               	movwf	??___fldiv+2
  5844  08CD  1C03               	skipc
  5845  08CE  03C7               	decf	??___fldiv+3,f
  5846  08CF  0846               	movf	??___fldiv+2,w
  5847  08D0  3E7F               	addlw	127
  5848  08D1  00CE               	movwf	___fldiv@new_exp
  5849  08D2  0847               	movf	??___fldiv+3,w
  5850  08D3  1803               	skipnc
  5851  08D4  3E01               	addlw	1
  5852  08D5  3E00               	addlw	0
  5853  08D6  00CF               	movwf	___fldiv@new_exp+1
  5854  08D7                     l1984:
  5855  08D7  0843               	movf	___fldiv@b+3,w
  5856  08D8  00CC               	movwf	___fldiv@rem+3
  5857  08D9  0842               	movf	___fldiv@b+2,w
  5858  08DA  00CB               	movwf	___fldiv@rem+2
  5859  08DB  0841               	movf	___fldiv@b+1,w
  5860  08DC  00CA               	movwf	___fldiv@rem+1
  5861  08DD  0840               	movf	___fldiv@b,w
  5862  08DE  00C9               	movwf	___fldiv@rem
  5863  08DF                     l1986:
  5864  08DF  3000               	movlw	0
  5865  08E0  00C3               	movwf	___fldiv@b+3
  5866  08E1  3000               	movlw	0
  5867  08E2  00C2               	movwf	___fldiv@b+2
  5868  08E3  3000               	movlw	0
  5869  08E4  00C1               	movwf	___fldiv@b+1
  5870  08E5  3000               	movlw	0
  5871  08E6  00C0               	movwf	___fldiv@b
  5872  08E7                     l1988:
  5873  08E7  3000               	movlw	0
  5874  08E8  00D3               	movwf	___fldiv@grs+3
  5875  08E9  3000               	movlw	0
  5876  08EA  00D2               	movwf	___fldiv@grs+2
  5877  08EB  3000               	movlw	0
  5878  08EC  00D1               	movwf	___fldiv@grs+1
  5879  08ED  3000               	movlw	0
  5880  08EE  00D0               	movwf	___fldiv@grs
  5881  08EF                     l1990:
  5882  08EF  01D5               	clrf	___fldiv@aexp
  5883  08F0  293B               	goto	l2010
  5884  08F1                     l1992:
  5885  08F1  0855               	movf	___fldiv@aexp,w
  5886  08F2  1903               	btfsc	3,2
  5887  08F3  28F5               	goto	u2551
  5888  08F4  28F6               	goto	u2550
  5889  08F5                     u2551:
  5890  08F5  2916               	goto	l2002
  5891  08F6                     u2550:
  5892  08F6                     l1994:
  5893  08F6  3001               	movlw	1
  5894  08F7  00C4               	movwf	??___fldiv
  5895  08F8                     u2565:
  5896  08F8  1003               	clrc
  5897  08F9  0DC9               	rlf	___fldiv@rem,f
  5898  08FA  0DCA               	rlf	___fldiv@rem+1,f
  5899  08FB  0DCB               	rlf	___fldiv@rem+2,f
  5900  08FC  0DCC               	rlf	___fldiv@rem+3,f
  5901  08FD  0BC4               	decfsz	??___fldiv,f
  5902  08FE  28F8               	goto	u2565
  5903  08FF  3001               	movlw	1
  5904  0900  00C4               	movwf	??___fldiv
  5905  0901                     u2575:
  5906  0901  1003               	clrc
  5907  0902  0DC0               	rlf	___fldiv@b,f
  5908  0903  0DC1               	rlf	___fldiv@b+1,f
  5909  0904  0DC2               	rlf	___fldiv@b+2,f
  5910  0905  0DC3               	rlf	___fldiv@b+3,f
  5911  0906  0BC4               	decfsz	??___fldiv,f
  5912  0907  2901               	goto	u2575
  5913  0908                     l1996:
  5914  0908  1FD3               	btfss	___fldiv@grs+3,7
  5915  0909  290B               	goto	u2581
  5916  090A  290C               	goto	u2580
  5917  090B                     u2581:
  5918  090B  290D               	goto	l2000
  5919  090C                     u2580:
  5920  090C                     l1998:
  5921  090C  1440               	bsf	___fldiv@b,0
  5922  090D                     l2000:
  5923  090D  3001               	movlw	1
  5924  090E  00C4               	movwf	??___fldiv
  5925  090F                     u2595:
  5926  090F  1003               	clrc
  5927  0910  0DD0               	rlf	___fldiv@grs,f
  5928  0911  0DD1               	rlf	___fldiv@grs+1,f
  5929  0912  0DD2               	rlf	___fldiv@grs+2,f
  5930  0913  0DD3               	rlf	___fldiv@grs+3,f
  5931  0914  0BC4               	decfsz	??___fldiv,f
  5932  0915  290F               	goto	u2595
  5933  0916                     l2002:
  5934  0916  083F               	movf	___fldiv@a+3,w
  5935  0917  024C               	subwf	___fldiv@rem+3,w
  5936  0918  1D03               	skipz
  5937  0919  2924               	goto	u2605
  5938  091A  083E               	movf	___fldiv@a+2,w
  5939  091B  024B               	subwf	___fldiv@rem+2,w
  5940  091C  1D03               	skipz
  5941  091D  2924               	goto	u2605
  5942  091E  083D               	movf	___fldiv@a+1,w
  5943  091F  024A               	subwf	___fldiv@rem+1,w
  5944  0920  1D03               	skipz
  5945  0921  2924               	goto	u2605
  5946  0922  083C               	movf	___fldiv@a,w
  5947  0923  0249               	subwf	___fldiv@rem,w
  5948  0924                     u2605:
  5949  0924  1C03               	skipc
  5950  0925  2927               	goto	u2601
  5951  0926  2928               	goto	u2600
  5952  0927                     u2601:
  5953  0927  2937               	goto	l2008
  5954  0928                     u2600:
  5955  0928                     l2004:
  5956  0928  1753               	bsf	___fldiv@grs+3,6
  5957  0929                     l2006:
  5958  0929  083C               	movf	___fldiv@a,w
  5959  092A  02C9               	subwf	___fldiv@rem,f
  5960  092B  083D               	movf	___fldiv@a+1,w
  5961  092C  1C03               	skipc
  5962  092D  0F3D               	incfsz	___fldiv@a+1,w
  5963  092E  02CA               	subwf	___fldiv@rem+1,f
  5964  092F  083E               	movf	___fldiv@a+2,w
  5965  0930  1C03               	skipc
  5966  0931  0F3E               	incfsz	___fldiv@a+2,w
  5967  0932  02CB               	subwf	___fldiv@rem+2,f
  5968  0933  083F               	movf	___fldiv@a+3,w
  5969  0934  1C03               	skipc
  5970  0935  0F3F               	incfsz	___fldiv@a+3,w
  5971  0936  02CC               	subwf	___fldiv@rem+3,f
  5972  0937                     l2008:
  5973  0937  3001               	movlw	1
  5974  0938  00FF               	movwf	btemp+1
  5975  0939  087F               	movf	btemp+1,w
  5976  093A  07D5               	addwf	___fldiv@aexp,f
  5977  093B                     l2010:
  5978  093B  301A               	movlw	26
  5979  093C  0255               	subwf	___fldiv@aexp,w
  5980  093D  1C03               	skipc
  5981  093E  2940               	goto	u2611
  5982  093F  2941               	goto	u2610
  5983  0940                     u2611:
  5984  0940  28F1               	goto	l1992
  5985  0941                     u2610:
  5986  0941                     l2012:
  5987  0941  084C               	movf	___fldiv@rem+3,w
  5988  0942  044B               	iorwf	___fldiv@rem+2,w
  5989  0943  044A               	iorwf	___fldiv@rem+1,w
  5990  0944  0449               	iorwf	___fldiv@rem,w
  5991  0945  1903               	skipnz
  5992  0946  2948               	goto	u2621
  5993  0947  2949               	goto	u2620
  5994  0948                     u2621:
  5995  0948  2968               	goto	l2026
  5996  0949                     u2620:
  5997  0949                     l2014:
  5998  0949  1450               	bsf	___fldiv@grs,0
  5999  094A  2968               	goto	l2026
  6000  094B                     l2016:
  6001  094B  3001               	movlw	1
  6002  094C  00C4               	movwf	??___fldiv
  6003  094D                     u2635:
  6004  094D  1003               	clrc
  6005  094E  0DC0               	rlf	___fldiv@b,f
  6006  094F  0DC1               	rlf	___fldiv@b+1,f
  6007  0950  0DC2               	rlf	___fldiv@b+2,f
  6008  0951  0DC3               	rlf	___fldiv@b+3,f
  6009  0952  0BC4               	decfsz	??___fldiv,f
  6010  0953  294D               	goto	u2635
  6011  0954                     l2018:
  6012  0954  1FD3               	btfss	___fldiv@grs+3,7
  6013  0955  2957               	goto	u2641
  6014  0956  2958               	goto	u2640
  6015  0957                     u2641:
  6016  0957  2959               	goto	l2022
  6017  0958                     u2640:
  6018  0958                     l2020:
  6019  0958  1440               	bsf	___fldiv@b,0
  6020  0959                     l2022:
  6021  0959  3001               	movlw	1
  6022  095A  00C4               	movwf	??___fldiv
  6023  095B                     u2655:
  6024  095B  1003               	clrc
  6025  095C  0DD0               	rlf	___fldiv@grs,f
  6026  095D  0DD1               	rlf	___fldiv@grs+1,f
  6027  095E  0DD2               	rlf	___fldiv@grs+2,f
  6028  095F  0DD3               	rlf	___fldiv@grs+3,f
  6029  0960  0BC4               	decfsz	??___fldiv,f
  6030  0961  295B               	goto	u2655
  6031  0962                     l2024:
  6032  0962  30FF               	movlw	255
  6033  0963  07CE               	addwf	___fldiv@new_exp,f
  6034  0964  1803               	skipnc
  6035  0965  0ACF               	incf	___fldiv@new_exp+1,f
  6036  0966  30FF               	movlw	255
  6037  0967  07CF               	addwf	___fldiv@new_exp+1,f
  6038  0968                     l2026:
  6039  0968  1FC2               	btfss	___fldiv@b+2,7
  6040  0969  296B               	goto	u2661
  6041  096A  296C               	goto	u2660
  6042  096B                     u2661:
  6043  096B  294B               	goto	l2016
  6044  096C                     u2660:
  6045  096C                     l2028:
  6046  096C  01D5               	clrf	___fldiv@aexp
  6047  096D                     l2030:
  6048  096D  1FD3               	btfss	___fldiv@grs+3,7
  6049  096E  2970               	goto	u2671
  6050  096F  2971               	goto	u2670
  6051  0970                     u2671:
  6052  0970  298D               	goto	l2038
  6053  0971                     u2670:
  6054  0971                     l2032:
  6055  0971  30FF               	movlw	255
  6056  0972  0550               	andwf	___fldiv@grs,w
  6057  0973  00C4               	movwf	??___fldiv
  6058  0974  30FF               	movlw	255
  6059  0975  0551               	andwf	___fldiv@grs+1,w
  6060  0976  00C5               	movwf	??___fldiv+1
  6061  0977  30FF               	movlw	255
  6062  0978  0552               	andwf	___fldiv@grs+2,w
  6063  0979  00C6               	movwf	??___fldiv+2
  6064  097A  307F               	movlw	127
  6065  097B  0553               	andwf	___fldiv@grs+3,w
  6066  097C  00C7               	movwf	??___fldiv+3
  6067  097D  0847               	movf	??___fldiv+3,w
  6068  097E  0446               	iorwf	??___fldiv+2,w
  6069  097F  0445               	iorwf	??___fldiv+1,w
  6070  0980  0444               	iorwf	??___fldiv,w
  6071  0981  1903               	skipnz
  6072  0982  2984               	goto	u2681
  6073  0983  2985               	goto	u2680
  6074  0984                     u2681:
  6075  0984  2988               	goto	l587
  6076  0985                     u2680:
  6077  0985                     l2034:
  6078  0985  01D5               	clrf	___fldiv@aexp
  6079  0986  0AD5               	incf	___fldiv@aexp,f
  6080  0987  298D               	goto	l2038
  6081  0988                     l587:
  6082  0988  1C40               	btfss	___fldiv@b,0
  6083  0989  298B               	goto	u2691
  6084  098A  298C               	goto	u2690
  6085  098B                     u2691:
  6086  098B  298D               	goto	l2038
  6087  098C                     u2690:
  6088  098C  2985               	goto	l2034
  6089  098D                     l2038:
  6090  098D  0855               	movf	___fldiv@aexp,w
  6091  098E  1903               	btfsc	3,2
  6092  098F  2991               	goto	u2701
  6093  0990  2992               	goto	u2700
  6094  0991                     u2701:
  6095  0991  29C3               	goto	l2048
  6096  0992                     u2700:
  6097  0992                     l2040:
  6098  0992  3001               	movlw	1
  6099  0993  07C0               	addwf	___fldiv@b,f
  6100  0994  3000               	movlw	0
  6101  0995  1803               	skipnc
  6102  0996  3001               	movlw	1
  6103  0997  07C1               	addwf	___fldiv@b+1,f
  6104  0998  3000               	movlw	0
  6105  0999  1803               	skipnc
  6106  099A  3001               	movlw	1
  6107  099B  07C2               	addwf	___fldiv@b+2,f
  6108  099C  3000               	movlw	0
  6109  099D  1803               	skipnc
  6110  099E  3001               	movlw	1
  6111  099F  07C3               	addwf	___fldiv@b+3,f
  6112  09A0                     l2042:
  6113  09A0  1C43               	btfss	___fldiv@b+3,0
  6114  09A1  29A3               	goto	u2711
  6115  09A2  29A4               	goto	u2710
  6116  09A3                     u2711:
  6117  09A3  29C3               	goto	l2048
  6118  09A4                     u2710:
  6119  09A4                     l2044:
  6120  09A4  0840               	movf	___fldiv@b,w
  6121  09A5  00C4               	movwf	??___fldiv
  6122  09A6  0841               	movf	___fldiv@b+1,w
  6123  09A7  00C5               	movwf	??___fldiv+1
  6124  09A8  0842               	movf	___fldiv@b+2,w
  6125  09A9  00C6               	movwf	??___fldiv+2
  6126  09AA  0843               	movf	___fldiv@b+3,w
  6127  09AB  00C7               	movwf	??___fldiv+3
  6128  09AC  3001               	movlw	1
  6129  09AD  00C8               	movwf	??___fldiv+4
  6130  09AE                     u2725:
  6131  09AE  0D47               	rlf	??___fldiv+3,w
  6132  09AF  0CC7               	rrf	??___fldiv+3,f
  6133  09B0  0CC6               	rrf	??___fldiv+2,f
  6134  09B1  0CC5               	rrf	??___fldiv+1,f
  6135  09B2  0CC4               	rrf	??___fldiv,f
  6136  09B3                     u2720:
  6137  09B3  0BC8               	decfsz	??___fldiv+4,f
  6138  09B4  29AE               	goto	u2725
  6139  09B5  0847               	movf	??___fldiv+3,w
  6140  09B6  00C3               	movwf	___fldiv@b+3
  6141  09B7  0846               	movf	??___fldiv+2,w
  6142  09B8  00C2               	movwf	___fldiv@b+2
  6143  09B9  0845               	movf	??___fldiv+1,w
  6144  09BA  00C1               	movwf	___fldiv@b+1
  6145  09BB  0844               	movf	??___fldiv,w
  6146  09BC  00C0               	movwf	___fldiv@b
  6147  09BD                     l2046:
  6148  09BD  3001               	movlw	1
  6149  09BE  07CE               	addwf	___fldiv@new_exp,f
  6150  09BF  1803               	skipnc
  6151  09C0  0ACF               	incf	___fldiv@new_exp+1,f
  6152  09C1  3000               	movlw	0
  6153  09C2  07CF               	addwf	___fldiv@new_exp+1,f
  6154  09C3                     l2048:
  6155  09C3  084F               	movf	___fldiv@new_exp+1,w
  6156  09C4  3A80               	xorlw	128
  6157  09C5  00FF               	movwf	btemp+1
  6158  09C6  3080               	movlw	128
  6159  09C7  027F               	subwf	btemp+1,w
  6160  09C8  1D03               	skipz
  6161  09C9  29CC               	goto	u2735
  6162  09CA  30FF               	movlw	255
  6163  09CB  024E               	subwf	___fldiv@new_exp,w
  6164  09CC                     u2735:
  6165  09CC  1C03               	skipc
  6166  09CD  29CF               	goto	u2731
  6167  09CE  29D0               	goto	u2730
  6168  09CF                     u2731:
  6169  09CF  29DE               	goto	l2052
  6170  09D0                     u2730:
  6171  09D0                     l2050:
  6172  09D0  30FF               	movlw	255
  6173  09D1  1283               	bcf	3,5	;RP0=0, select bank0
  6174  09D2  1303               	bcf	3,6	;RP1=0, select bank0
  6175  09D3  00CE               	movwf	___fldiv@new_exp
  6176  09D4  3000               	movlw	0
  6177  09D5  00CF               	movwf	___fldiv@new_exp+1
  6178  09D6  3000               	movlw	0
  6179  09D7  00C3               	movwf	___fldiv@b+3
  6180  09D8  3000               	movlw	0
  6181  09D9  00C2               	movwf	___fldiv@b+2
  6182  09DA  3000               	movlw	0
  6183  09DB  00C1               	movwf	___fldiv@b+1
  6184  09DC  3000               	movlw	0
  6185  09DD  00C0               	movwf	___fldiv@b
  6186  09DE                     l2052:
  6187  09DE  1283               	bcf	3,5	;RP0=0, select bank0
  6188  09DF  1303               	bcf	3,6	;RP1=0, select bank0
  6189  09E0  084F               	movf	___fldiv@new_exp+1,w
  6190  09E1  3A80               	xorlw	128
  6191  09E2  00FF               	movwf	btemp+1
  6192  09E3  3080               	movlw	128
  6193  09E4  027F               	subwf	btemp+1,w
  6194  09E5  1D03               	skipz
  6195  09E6  29E9               	goto	u2745
  6196  09E7  3001               	movlw	1
  6197  09E8  024E               	subwf	___fldiv@new_exp,w
  6198  09E9                     u2745:
  6199  09E9  1803               	skipnc
  6200  09EA  29EC               	goto	u2741
  6201  09EB  29ED               	goto	u2740
  6202  09EC                     u2741:
  6203  09EC  29FA               	goto	l2060
  6204  09ED                     u2740:
  6205  09ED                     l2054:
  6206  09ED  1283               	bcf	3,5	;RP0=0, select bank0
  6207  09EE  1303               	bcf	3,6	;RP1=0, select bank0
  6208  09EF  01CE               	clrf	___fldiv@new_exp
  6209  09F0  01CF               	clrf	___fldiv@new_exp+1
  6210  09F1                     l2056:
  6211  09F1  3000               	movlw	0
  6212  09F2  00C3               	movwf	___fldiv@b+3
  6213  09F3  3000               	movlw	0
  6214  09F4  00C2               	movwf	___fldiv@b+2
  6215  09F5  3000               	movlw	0
  6216  09F6  00C1               	movwf	___fldiv@b+1
  6217  09F7  3000               	movlw	0
  6218  09F8  00C0               	movwf	___fldiv@b
  6219  09F9                     l2058:
  6220  09F9  01CD               	clrf	___fldiv@sign
  6221  09FA                     l2060:
  6222  09FA  1283               	bcf	3,5	;RP0=0, select bank0
  6223  09FB  1303               	bcf	3,6	;RP1=0, select bank0
  6224  09FC  084E               	movf	___fldiv@new_exp,w
  6225  09FD  00FF               	movwf	btemp+1
  6226  09FE  087F               	movf	btemp+1,w
  6227  09FF  00D4               	movwf	___fldiv@bexp
  6228  0A00                     l2062:
  6229  0A00  1C54               	btfss	___fldiv@bexp,0
  6230  0A01  2A03               	goto	u2751
  6231  0A02  2A04               	goto	u2750
  6232  0A03                     u2751:
  6233  0A03  2A06               	goto	l2066
  6234  0A04                     u2750:
  6235  0A04                     l2064:
  6236  0A04  17C2               	bsf	___fldiv@b+2,7
  6237  0A05  2A0A               	goto	l595
  6238  0A06                     l2066:
  6239  0A06  307F               	movlw	127
  6240  0A07  00FF               	movwf	btemp+1
  6241  0A08  087F               	movf	btemp+1,w
  6242  0A09  05C2               	andwf	___fldiv@b+2,f
  6243  0A0A                     l595:
  6244  0A0A  0854               	movf	___fldiv@bexp,w
  6245  0A0B  00C4               	movwf	??___fldiv
  6246  0A0C  1003               	clrc
  6247  0A0D  0C44               	rrf	??___fldiv,w
  6248  0A0E  00FF               	movwf	btemp+1
  6249  0A0F  087F               	movf	btemp+1,w
  6250  0A10  00C3               	movwf	___fldiv@b+3
  6251  0A11  084D               	movf	___fldiv@sign,w
  6252  0A12  00FF               	movwf	btemp+1
  6253  0A13  087F               	movf	btemp+1,w
  6254  0A14  04C3               	iorwf	___fldiv@b+3,f
  6255  0A15  28AE               	goto	l1972
  6256  0A16                     l573:
  6257  0A16  0008               	return
  6258  0A17                     __end_of___fldiv:
  6259                           
  6260                           	psect	text13
  6261  14ED                     __ptext13:	
  6262 ;; *************** function _PORT_Select_Mux1 *****************
  6263 ;; Defined at:
  6264 ;;		line 158 in file "port.c"
  6265 ;; Parameters:    Size  Location     Type
  6266 ;;		None
  6267 ;; Auto vars:     Size  Location     Type
  6268 ;;		None
  6269 ;; Return value:  Size  Location     Type
  6270 ;;                  1    wreg      void 
  6271 ;; Registers used:
  6272 ;;		wreg, status,2, status,0, btemp+1
  6273 ;; Tracked objects:
  6274 ;;		On entry : 0/0
  6275 ;;		On exit  : 0/0
  6276 ;;		Unchanged: 0/0
  6277 ;; Data sizes:     COMMON   BANK0   BANK1   BANK3   BANK2
  6278 ;;      Params:         0       0       0       0       0
  6279 ;;      Locals:         0       0       0       0       0
  6280 ;;      Temps:          0       0       0       0       0
  6281 ;;      Totals:         0       0       0       0       0
  6282 ;;Total ram usage:        0 bytes
  6283 ;; Hardware stack levels used:    1
  6284 ;; Hardware stack levels required when called:    1
  6285 ;; This function calls:
  6286 ;;		Nothing
  6287 ;; This function is called by:
  6288 ;;		_main
  6289 ;; This function uses a non-reentrant model
  6290 ;;
  6291                           
  6292                           
  6293                           ;psect for function _PORT_Select_Mux1
  6294  14ED                     _PORT_Select_Mux1:
  6295  14ED                     l2314:	
  6296                           ;incstack = 0
  6297                           ; Regs used in _PORT_Select_Mux1: [wreg+status,2+status,0+btemp+1]
  6298                           
  6299                           
  6300                           ;port.c: 159:     PORTD |= 0x10;
  6301  14ED  1283               	bcf	3,5	;RP0=0, select bank0
  6302  14EE  1303               	bcf	3,6	;RP1=0, select bank0
  6303  14EF  1608               	bsf	8,4	;volatile
  6304  14F0                     l2316:
  6305                           
  6306                           ;port.c: 160:     PORTD &= 0xDF;
  6307  14F0  30DF               	movlw	223
  6308  14F1  00FF               	movwf	btemp+1
  6309  14F2  087F               	movf	btemp+1,w
  6310  14F3  0588               	andwf	8,f	;volatile
  6311  14F4                     l174:
  6312  14F4  0008               	return
  6313  14F5                     __end_of_PORT_Select_Mux1:
  6314                           
  6315                           	psect	text14
  6316  15C4                     __ptext14:	
  6317 ;; *************** function _PORT_Init *****************
  6318 ;; Defined at:
  6319 ;;		line 44 in file "port.c"
  6320 ;; Parameters:    Size  Location     Type
  6321 ;;		None
  6322 ;; Auto vars:     Size  Location     Type
  6323 ;;		None
  6324 ;; Return value:  Size  Location     Type
  6325 ;;                  1    wreg      void 
  6326 ;; Registers used:
  6327 ;;		wreg, status,2, status,0, pclath, cstack
  6328 ;; Tracked objects:
  6329 ;;		On entry : 0/0
  6330 ;;		On exit  : 0/0
  6331 ;;		Unchanged: 0/0
  6332 ;; Data sizes:     COMMON   BANK0   BANK1   BANK3   BANK2
  6333 ;;      Params:         0       0       0       0       0
  6334 ;;      Locals:         0       0       0       0       0
  6335 ;;      Temps:          1       0       0       0       0
  6336 ;;      Totals:         1       0       0       0       0
  6337 ;;Total ram usage:        1 bytes
  6338 ;; Hardware stack levels used:    1
  6339 ;; Hardware stack levels required when called:    2
  6340 ;; This function calls:
  6341 ;;		_PORT_Init_Serial
  6342 ;; This function is called by:
  6343 ;;		_main
  6344 ;; This function uses a non-reentrant model
  6345 ;;
  6346                           
  6347                           
  6348                           ;psect for function _PORT_Init
  6349  15C4                     _PORT_Init:
  6350  15C4                     l2262:	
  6351                           ;incstack = 0
  6352                           ; Regs used in _PORT_Init: [wreg+status,2+status,0+pclath+cstack]
  6353                           
  6354                           
  6355                           ;port.c: 47:     WPUB=0;
  6356  15C4  1683               	bsf	3,5	;RP0=1, select bank1
  6357  15C5  1303               	bcf	3,6	;RP1=0, select bank1
  6358  15C6  0195               	clrf	21	;volatile
  6359                           
  6360                           ;port.c: 48:     ANSELB = 0;
  6361  15C7  1683               	bsf	3,5	;RP0=1, select bank3
  6362  15C8  1703               	bsf	3,6	;RP1=1, select bank3
  6363  15C9  0186               	clrf	6	;volatile
  6364  15CA                     l2264:
  6365                           
  6366                           ;port.c: 51:     TRISB = 0xFE;
  6367  15CA  30FE               	movlw	254
  6368  15CB  1683               	bsf	3,5	;RP0=1, select bank1
  6369  15CC  1303               	bcf	3,6	;RP1=0, select bank1
  6370  15CD  0086               	movwf	6	;volatile
  6371  15CE                     l2266:
  6372                           
  6373                           ;port.c: 54:     OSCCON = 0x30;
  6374  15CE  3030               	movlw	48
  6375  15CF  0090               	movwf	16	;volatile
  6376  15D0                     l2268:	
  6377                           ;port.c: 55:     for( ; (OSCCON & 0xC) != 0xC ; );
  6378                           
  6379  15D0  300C               	movlw	12
  6380  15D1  0510               	andwf	16,w	;volatile
  6381  15D2  00F2               	movwf	??_PORT_Init
  6382  15D3  300C               	movlw	12
  6383  15D4  0672               	xorwf	??_PORT_Init,w
  6384  15D5  1D03               	btfss	3,2
  6385  15D6  2DD8               	goto	u3271
  6386  15D7  2DD9               	goto	u3270
  6387  15D8                     u3271:
  6388  15D8  2DD0               	goto	l2268
  6389  15D9                     u3270:
  6390  15D9                     l2270:
  6391                           
  6392                           ;port.c: 59:     ANSELD = 0x00;
  6393  15D9  1683               	bsf	3,5	;RP0=1, select bank3
  6394  15DA  1703               	bsf	3,6	;RP1=1, select bank3
  6395  15DB  0188               	clrf	8	;volatile
  6396  15DC                     l2272:
  6397                           
  6398                           ;port.c: 62:     TRISA = 0xFF;
  6399  15DC  30FF               	movlw	255
  6400  15DD  1683               	bsf	3,5	;RP0=1, select bank1
  6401  15DE  1303               	bcf	3,6	;RP1=0, select bank1
  6402  15DF  0085               	movwf	5	;volatile
  6403  15E0                     l2274:
  6404                           
  6405                           ;port.c: 64:     TRISD = 0xC0;
  6406  15E0  30C0               	movlw	192
  6407  15E1  0088               	movwf	8	;volatile
  6408  15E2                     l2276:
  6409                           
  6410                           ;port.c: 66:     PORT_Init_Serial();
  6411  15E2  120A  118A  27D3  160A  118A  	fcall	_PORT_Init_Serial
  6412  15E7                     l2278:
  6413                           
  6414                           ;port.c: 68:     ANSELA = 0x01;
  6415  15E7  3001               	movlw	1
  6416  15E8  1683               	bsf	3,5	;RP0=1, select bank3
  6417  15E9  1703               	bsf	3,6	;RP1=1, select bank3
  6418  15EA  0085               	movwf	5	;volatile
  6419  15EB                     l2280:
  6420                           
  6421                           ;port.c: 70:     ADCON0=0x01;
  6422  15EB  3001               	movlw	1
  6423  15EC  1283               	bcf	3,5	;RP0=0, select bank0
  6424  15ED  1303               	bcf	3,6	;RP1=0, select bank0
  6425  15EE  009F               	movwf	31	;volatile
  6426  15EF                     l2282:
  6427                           
  6428                           ;port.c: 71:     ADCON1=0x60;
  6429  15EF  3060               	movlw	96
  6430  15F0  1683               	bsf	3,5	;RP0=1, select bank1
  6431  15F1  1303               	bcf	3,6	;RP1=0, select bank1
  6432  15F2  009F               	movwf	31	;volatile
  6433  15F3                     l2284:
  6434                           
  6435                           ;port.c: 73:     FVRCON=0;
  6436  15F3  019D               	clrf	29	;volatile
  6437  15F4                     l2286:
  6438                           
  6439                           ;port.c: 74:     DACCON0=0x0;
  6440  15F4  1283               	bcf	3,5	;RP0=0, select bank2
  6441  15F5  1703               	bsf	3,6	;RP1=1, select bank2
  6442  15F6  0193               	clrf	19	;volatile
  6443  15F7                     l2288:
  6444                           
  6445                           ;port.c: 75:     DACCON0=0x60;
  6446  15F7  3060               	movlw	96
  6447  15F8  0093               	movwf	19	;volatile
  6448  15F9                     l2290:
  6449                           
  6450                           ;port.c: 76:     DACCON0|=0x80;
  6451  15F9  1793               	bsf	19,7	;volatile
  6452  15FA                     l2292:
  6453                           
  6454                           ;port.c: 78:     DACCON1=0x18;
  6455  15FA  3018               	movlw	24
  6456  15FB  0094               	movwf	20	;volatile
  6457  15FC                     l140:
  6458  15FC  0008               	return
  6459  15FD                     __end_of_PORT_Init:
  6460                           
  6461                           	psect	text15
  6462  07D3                     __ptext15:	
  6463 ;; *************** function _PORT_Init_Serial *****************
  6464 ;; Defined at:
  6465 ;;		line 15 in file "port.c"
  6466 ;; Parameters:    Size  Location     Type
  6467 ;;		None
  6468 ;; Auto vars:     Size  Location     Type
  6469 ;;		None
  6470 ;; Return value:  Size  Location     Type
  6471 ;;                  1    wreg      void 
  6472 ;; Registers used:
  6473 ;;		wreg, status,2
  6474 ;; Tracked objects:
  6475 ;;		On entry : 0/0
  6476 ;;		On exit  : 0/0
  6477 ;;		Unchanged: 0/0
  6478 ;; Data sizes:     COMMON   BANK0   BANK1   BANK3   BANK2
  6479 ;;      Params:         0       0       0       0       0
  6480 ;;      Locals:         0       0       0       0       0
  6481 ;;      Temps:          0       0       0       0       0
  6482 ;;      Totals:         0       0       0       0       0
  6483 ;;Total ram usage:        0 bytes
  6484 ;; Hardware stack levels used:    1
  6485 ;; Hardware stack levels required when called:    1
  6486 ;; This function calls:
  6487 ;;		Nothing
  6488 ;; This function is called by:
  6489 ;;		_PORT_Init
  6490 ;; This function uses a non-reentrant model
  6491 ;;
  6492                           
  6493                           
  6494                           ;psect for function _PORT_Init_Serial
  6495  07D3                     _PORT_Init_Serial:
  6496  07D3                     l1866:	
  6497                           ;incstack = 0
  6498                           ; Regs used in _PORT_Init_Serial: [wreg+status,2]
  6499                           
  6500                           
  6501                           ;port.c: 18:     TRISC = 0xFC;
  6502  07D3  30FC               	movlw	252
  6503  07D4  1683               	bsf	3,5	;RP0=1, select bank1
  6504  07D5  1303               	bcf	3,6	;RP1=0, select bank1
  6505  07D6  0087               	movwf	7	;volatile
  6506                           
  6507                           ;port.c: 21:     SPBRG = 25;
  6508  07D7  3019               	movlw	25
  6509  07D8  0099               	movwf	25	;volatile
  6510  07D9                     l1868:
  6511                           
  6512                           ;port.c: 25:     TXSTA = TXSTA & 0xDF;
  6513  07D9  0818               	movf	24,w	;volatile
  6514  07DA  39DF               	andlw	223
  6515  07DB  0098               	movwf	24	;volatile
  6516  07DC                     l1870:
  6517                           
  6518                           ;port.c: 26:     TXSTA = TXSTA | 1;
  6519  07DC  0818               	movf	24,w	;volatile
  6520  07DD  3801               	iorlw	1
  6521  07DE  0098               	movwf	24	;volatile
  6522  07DF                     l1872:
  6523                           
  6524                           ;port.c: 27:     TXSTA = TXSTA & 0xFB;
  6525  07DF  0818               	movf	24,w	;volatile
  6526  07E0  39FB               	andlw	251
  6527  07E1  0098               	movwf	24	;volatile
  6528  07E2                     l1874:
  6529                           
  6530                           ;port.c: 30:     RCSTA = RCSTA | 0x20;
  6531  07E2  1283               	bcf	3,5	;RP0=0, select bank0
  6532  07E3  1303               	bcf	3,6	;RP1=0, select bank0
  6533  07E4  0818               	movf	24,w	;volatile
  6534  07E5  3820               	iorlw	32
  6535  07E6  0098               	movwf	24	;volatile
  6536  07E7                     l1876:
  6537                           
  6538                           ;port.c: 31:     RCSTA = RCSTA & 0xDF;
  6539  07E7  0818               	movf	24,w	;volatile
  6540  07E8  39DF               	andlw	223
  6541  07E9  0098               	movwf	24	;volatile
  6542  07EA                     l1878:
  6543                           
  6544                           ;port.c: 32:     RCSTA = RCSTA | 0x04;
  6545  07EA  0818               	movf	24,w	;volatile
  6546  07EB  3804               	iorlw	4
  6547  07EC  0098               	movwf	24	;volatile
  6548  07ED                     l1880:
  6549                           
  6550                           ;port.c: 33:     RCSTA = RCSTA | 0x02;
  6551  07ED  0818               	movf	24,w	;volatile
  6552  07EE  3802               	iorlw	2
  6553  07EF  0098               	movwf	24	;volatile
  6554  07F0                     l1882:
  6555                           
  6556                           ;port.c: 35:     TXSTA = TXSTA & 0xEF;
  6557  07F0  1683               	bsf	3,5	;RP0=1, select bank1
  6558  07F1  1303               	bcf	3,6	;RP1=0, select bank1
  6559  07F2  0818               	movf	24,w	;volatile
  6560  07F3  39EF               	andlw	239
  6561  07F4  0098               	movwf	24	;volatile
  6562  07F5                     l1884:
  6563                           
  6564                           ;port.c: 36:     TXSTA = TXSTA | 0x20;
  6565  07F5  0818               	movf	24,w	;volatile
  6566  07F6  3820               	iorlw	32
  6567  07F7  0098               	movwf	24	;volatile
  6568  07F8                     l1886:
  6569                           
  6570                           ;port.c: 37:     RCSTA = RCSTA | 0x80;
  6571  07F8  1283               	bcf	3,5	;RP0=0, select bank0
  6572  07F9  1303               	bcf	3,6	;RP1=0, select bank0
  6573  07FA  0818               	movf	24,w	;volatile
  6574  07FB  3880               	iorlw	128
  6575  07FC  0098               	movwf	24	;volatile
  6576  07FD                     l134:
  6577  07FD  0008               	return
  6578  07FE                     __end_of_PORT_Init_Serial:
  6579                           
  6580                           	psect	text16
  6581  0800                     __ptext16:	
  6582 ;; *************** function _PORT_Change_Gain *****************
  6583 ;; Defined at:
  6584 ;;		line 173 in file "port.c"
  6585 ;; Parameters:    Size  Location     Type
  6586 ;;  INTER0          1    wreg     unsigned char 
  6587 ;;  INTER1          1    2[COMMON] unsigned char 
  6588 ;; Auto vars:     Size  Location     Type
  6589 ;;  INTER0          1    5[COMMON] unsigned char 
  6590 ;; Return value:  Size  Location     Type
  6591 ;;                  2    2[COMMON] int 
  6592 ;; Registers used:
  6593 ;;		wreg, status,2, status,0
  6594 ;; Tracked objects:
  6595 ;;		On entry : 0/0
  6596 ;;		On exit  : 0/0
  6597 ;;		Unchanged: 0/0
  6598 ;; Data sizes:     COMMON   BANK0   BANK1   BANK3   BANK2
  6599 ;;      Params:         3       0       0       0       0
  6600 ;;      Locals:         1       0       0       0       0
  6601 ;;      Temps:          0       0       0       0       0
  6602 ;;      Totals:         4       0       0       0       0
  6603 ;;Total ram usage:        4 bytes
  6604 ;; Hardware stack levels used:    1
  6605 ;; Hardware stack levels required when called:    1
  6606 ;; This function calls:
  6607 ;;		Nothing
  6608 ;; This function is called by:
  6609 ;;		_main
  6610 ;; This function uses a non-reentrant model
  6611 ;;
  6612                           
  6613                           
  6614                           ;psect for function _PORT_Change_Gain
  6615  0800                     _PORT_Change_Gain:
  6616                           
  6617                           ;incstack = 0
  6618                           ; Regs used in _PORT_Change_Gain: [wreg+status,2+status,0]
  6619                           ;PORT_Change_Gain@INTER0 stored from wreg
  6620  0800  00F5               	movwf	PORT_Change_Gain@INTER0
  6621  0801                     l2320:
  6622                           
  6623                           ;port.c: 174:     PORTCbits.RC0 = INTER0;
  6624  0801  0C75               	rrf	PORT_Change_Gain@INTER0,w
  6625  0802  1283               	bcf	3,5	;RP0=0, select bank0
  6626  0803  1303               	bcf	3,6	;RP1=0, select bank0
  6627  0804  1C03               	skipc
  6628  0805  1007               	bcf	7,0	;volatile
  6629  0806  1803               	skipnc
  6630  0807  1407               	bsf	7,0	;volatile
  6631                           
  6632                           ;port.c: 175:     PORTCbits.RC1 = INTER1;
  6633  0808  0C72               	rrf	PORT_Change_Gain@INTER1,w
  6634  0809  1C03               	skipc
  6635  080A  1087               	bcf	7,1	;volatile
  6636  080B  1803               	skipnc
  6637  080C  1487               	bsf	7,1	;volatile
  6638  080D                     l2322:
  6639                           
  6640                           ;port.c: 176:     if (INTER0 == 0 && INTER1 == 0)
  6641  080D  0875               	movf	PORT_Change_Gain@INTER0,w
  6642  080E  1D03               	btfss	3,2
  6643  080F  2811               	goto	u3301
  6644  0810  2812               	goto	u3300
  6645  0811                     u3301:
  6646  0811  281C               	goto	l2332
  6647  0812                     u3300:
  6648  0812                     l2324:
  6649  0812  0872               	movf	PORT_Change_Gain@INTER1,w
  6650  0813  1D03               	btfss	3,2
  6651  0814  2816               	goto	u3311
  6652  0815  2817               	goto	u3310
  6653  0816                     u3311:
  6654  0816  281C               	goto	l2332
  6655  0817                     u3310:
  6656  0817                     l2326:
  6657                           
  6658                           ;port.c: 177:         return 52000;
  6659  0817  3020               	movlw	32
  6660  0818  00F2               	movwf	?_PORT_Change_Gain
  6661  0819  30CB               	movlw	203
  6662  081A  00F3               	movwf	?_PORT_Change_Gain+1
  6663  081B  2839               	goto	l178
  6664  081C                     l2332:
  6665  081C  0875               	movf	PORT_Change_Gain@INTER0,w
  6666  081D  1D03               	btfss	3,2
  6667  081E  2820               	goto	u3321
  6668  081F  2821               	goto	u3320
  6669  0820                     u3321:
  6670  0820  282B               	goto	l2342
  6671  0821                     u3320:
  6672  0821                     l2334:
  6673  0821  0372               	decf	PORT_Change_Gain@INTER1,w
  6674  0822  1D03               	btfss	3,2
  6675  0823  2825               	goto	u3331
  6676  0824  2826               	goto	u3330
  6677  0825                     u3331:
  6678  0825  282B               	goto	l2342
  6679  0826                     u3330:
  6680  0826                     l2336:
  6681                           
  6682                           ;port.c: 179:         return 2800;
  6683  0826  30F0               	movlw	240
  6684  0827  00F2               	movwf	?_PORT_Change_Gain
  6685  0828  300A               	movlw	10
  6686  0829  00F3               	movwf	?_PORT_Change_Gain+1
  6687  082A  2839               	goto	l178
  6688  082B                     l2342:
  6689  082B  0375               	decf	PORT_Change_Gain@INTER0,w
  6690  082C  1D03               	btfss	3,2
  6691  082D  282F               	goto	u3341
  6692  082E  2830               	goto	u3340
  6693  082F                     u3341:
  6694  082F  2839               	goto	l178
  6695  0830                     u3340:
  6696  0830                     l2344:
  6697  0830  0372               	decf	PORT_Change_Gain@INTER1,w
  6698  0831  1D03               	btfss	3,2
  6699  0832  2834               	goto	u3351
  6700  0833  2835               	goto	u3350
  6701  0834                     u3351:
  6702  0834  2839               	goto	l178
  6703  0835                     u3350:
  6704  0835                     l2346:
  6705                           
  6706                           ;port.c: 181:         return 8300;
  6707  0835  306C               	movlw	108
  6708  0836  00F2               	movwf	?_PORT_Change_Gain
  6709  0837  3020               	movlw	32
  6710  0838  00F3               	movwf	?_PORT_Change_Gain+1
  6711  0839                     l178:
  6712  0839  0008               	return
  6713  083A                     __end_of_PORT_Change_Gain:
  6714                           
  6715                           	psect	text17
  6716  14F5                     __ptext17:	
  6717 ;; *************** function _PORT_Blink_LED *****************
  6718 ;; Defined at:
  6719 ;;		line 84 in file "port.c"
  6720 ;; Parameters:    Size  Location     Type
  6721 ;;		None
  6722 ;; Auto vars:     Size  Location     Type
  6723 ;;		None
  6724 ;; Return value:  Size  Location     Type
  6725 ;;                  1    wreg      void 
  6726 ;; Registers used:
  6727 ;;		status,0
  6728 ;; Tracked objects:
  6729 ;;		On entry : 0/0
  6730 ;;		On exit  : 0/0
  6731 ;;		Unchanged: 0/0
  6732 ;; Data sizes:     COMMON   BANK0   BANK1   BANK3   BANK2
  6733 ;;      Params:         0       0       0       0       0
  6734 ;;      Locals:         0       0       0       0       0
  6735 ;;      Temps:          0       0       0       0       0
  6736 ;;      Totals:         0       0       0       0       0
  6737 ;;Total ram usage:        0 bytes
  6738 ;; Hardware stack levels used:    1
  6739 ;; Hardware stack levels required when called:    1
  6740 ;; This function calls:
  6741 ;;		Nothing
  6742 ;; This function is called by:
  6743 ;;		_main
  6744 ;; This function uses a non-reentrant model
  6745 ;;
  6746                           
  6747                           
  6748                           ;psect for function _PORT_Blink_LED
  6749  14F5                     _PORT_Blink_LED:
  6750  14F5                     l2318:	
  6751                           ;incstack = 0
  6752                           ; Regs used in _PORT_Blink_LED: [status,0]
  6753                           
  6754                           
  6755                           ;port.c: 85:     PORTBbits.RB0 = !PORTBbits.RB0;
  6756  14F5  1003               	clrc
  6757  14F6  1283               	bcf	3,5	;RP0=0, select bank0
  6758  14F7  1303               	bcf	3,6	;RP1=0, select bank0
  6759  14F8  1C06               	btfss	6,0	;volatile
  6760  14F9  1403               	setc
  6761  14FA  1803               	btfsc	3,0
  6762  14FB  2CFD               	goto	u3281
  6763  14FC  2D01               	goto	u3280
  6764  14FD                     u3281:
  6765  14FD  1283               	bcf	3,5	;RP0=0, select bank0
  6766  14FE  1303               	bcf	3,6	;RP1=0, select bank0
  6767  14FF  1406               	bsf	6,0	;volatile
  6768  1500  2D04               	goto	u3294
  6769  1501                     u3280:
  6770  1501  1283               	bcf	3,5	;RP0=0, select bank0
  6771  1502  1303               	bcf	3,6	;RP1=0, select bank0
  6772  1503  1006               	bcf	6,0	;volatile
  6773  1504                     u3294:
  6774  1504                     l143:
  6775  1504  0008               	return
  6776  1505                     __end_of_PORT_Blink_LED:
  6777                           
  6778                           	psect	text18
  6779  1517                     __ptext18:	
  6780 ;; *************** function _ADC_GetValue *****************
  6781 ;; Defined at:
  6782 ;;		line 16 in file "adc.c"
  6783 ;; Parameters:    Size  Location     Type
  6784 ;;  channel         1    wreg     unsigned char 
  6785 ;; Auto vars:     Size  Location     Type
  6786 ;;  channel         1    3[COMMON] unsigned char 
  6787 ;; Return value:  Size  Location     Type
  6788 ;;                  1    wreg      unsigned char 
  6789 ;; Registers used:
  6790 ;;		wreg, status,2, status,0, btemp+1, pclath, cstack
  6791 ;; Tracked objects:
  6792 ;;		On entry : 0/0
  6793 ;;		On exit  : 0/0
  6794 ;;		Unchanged: 0/0
  6795 ;; Data sizes:     COMMON   BANK0   BANK1   BANK3   BANK2
  6796 ;;      Params:         0       0       0       0       0
  6797 ;;      Locals:         1       0       0       0       0
  6798 ;;      Temps:          0       0       0       0       0
  6799 ;;      Totals:         1       0       0       0       0
  6800 ;;Total ram usage:        1 bytes
  6801 ;; Hardware stack levels used:    1
  6802 ;; Hardware stack levels required when called:    2
  6803 ;; This function calls:
  6804 ;;		_PORT_Choose_Mux
  6805 ;;		_PORT_Get_Value_Adc
  6806 ;;		_PORT_Start_ADC
  6807 ;; This function is called by:
  6808 ;;		_main
  6809 ;; This function uses a non-reentrant model
  6810 ;;
  6811                           
  6812                           
  6813                           ;psect for function _ADC_GetValue
  6814  1517                     _ADC_GetValue:
  6815                           
  6816                           ;incstack = 0
  6817                           ; Regs used in _ADC_GetValue: [wreg+status,2+status,0+btemp+1+pclath+cstack]
  6818                           ;ADC_GetValue@channel stored from wreg
  6819  1517  00F3               	movwf	ADC_GetValue@channel
  6820  1518                     l2350:
  6821                           
  6822                           ;adc.c: 18:     PORT_Choose_Mux(channel);
  6823  1518  0873               	movf	ADC_GetValue@channel,w
  6824  1519  160A  118A  2505  160A  118A  	fcall	_PORT_Choose_Mux
  6825  151E                     l2352:
  6826                           
  6827                           ;adc.c: 19:     PORT_Start_ADC();
  6828  151E  160A  118A  24E5  160A  118A  	fcall	_PORT_Start_ADC
  6829  1523                     l2354:
  6830                           
  6831                           ;adc.c: 20:     return PORT_Get_Value_Adc();
  6832  1523  160A  118A  24E1  160A  118A  	fcall	_PORT_Get_Value_Adc
  6833  1528                     l83:
  6834  1528  0008               	return
  6835  1529                     __end_of_ADC_GetValue:
  6836                           
  6837                           	psect	text19
  6838  14E5                     __ptext19:	
  6839 ;; *************** function _PORT_Start_ADC *****************
  6840 ;; Defined at:
  6841 ;;		line 104 in file "port.c"
  6842 ;; Parameters:    Size  Location     Type
  6843 ;;		None
  6844 ;; Auto vars:     Size  Location     Type
  6845 ;;		None
  6846 ;; Return value:  Size  Location     Type
  6847 ;;                  1    wreg      void 
  6848 ;; Registers used:
  6849 ;;		None
  6850 ;; Tracked objects:
  6851 ;;		On entry : 0/0
  6852 ;;		On exit  : 0/0
  6853 ;;		Unchanged: 0/0
  6854 ;; Data sizes:     COMMON   BANK0   BANK1   BANK3   BANK2
  6855 ;;      Params:         0       0       0       0       0
  6856 ;;      Locals:         0       0       0       0       0
  6857 ;;      Temps:          0       0       0       0       0
  6858 ;;      Totals:         0       0       0       0       0
  6859 ;;Total ram usage:        0 bytes
  6860 ;; Hardware stack levels used:    1
  6861 ;; Hardware stack levels required when called:    1
  6862 ;; This function calls:
  6863 ;;		Nothing
  6864 ;; This function is called by:
  6865 ;;		_ADC_GetValue
  6866 ;; This function uses a non-reentrant model
  6867 ;;
  6868                           
  6869                           
  6870                           ;psect for function _PORT_Start_ADC
  6871  14E5                     _PORT_Start_ADC:
  6872  14E5                     l1860:	
  6873                           ;incstack = 0
  6874                           ; Regs used in _PORT_Start_ADC: []
  6875                           
  6876                           
  6877                           ;port.c: 105:     GO_nDONE=1;
  6878  14E5  1283               	bcf	3,5	;RP0=0, select bank0
  6879  14E6  1303               	bcf	3,6	;RP1=0, select bank0
  6880  14E7  149F               	bsf	31,1	;volatile
  6881  14E8                     l150:	
  6882                           ;port.c: 106:     while(GO_nDONE);
  6883                           
  6884  14E8  189F               	btfsc	31,1	;volatile
  6885  14E9  2CEB               	goto	u2351
  6886  14EA  2CEC               	goto	u2350
  6887  14EB                     u2351:
  6888  14EB  2CE8               	goto	l150
  6889  14EC                     u2350:
  6890  14EC                     l153:
  6891  14EC  0008               	return
  6892  14ED                     __end_of_PORT_Start_ADC:
  6893                           
  6894                           	psect	text20
  6895  14E1                     __ptext20:	
  6896 ;; *************** function _PORT_Get_Value_Adc *****************
  6897 ;; Defined at:
  6898 ;;		line 118 in file "port.c"
  6899 ;; Parameters:    Size  Location     Type
  6900 ;;		None
  6901 ;; Auto vars:     Size  Location     Type
  6902 ;;		None
  6903 ;; Return value:  Size  Location     Type
  6904 ;;                  1    wreg      unsigned char 
  6905 ;; Registers used:
  6906 ;;		wreg
  6907 ;; Tracked objects:
  6908 ;;		On entry : 0/0
  6909 ;;		On exit  : 0/0
  6910 ;;		Unchanged: 0/0
  6911 ;; Data sizes:     COMMON   BANK0   BANK1   BANK3   BANK2
  6912 ;;      Params:         0       0       0       0       0
  6913 ;;      Locals:         0       0       0       0       0
  6914 ;;      Temps:          0       0       0       0       0
  6915 ;;      Totals:         0       0       0       0       0
  6916 ;;Total ram usage:        0 bytes
  6917 ;; Hardware stack levels used:    1
  6918 ;; Hardware stack levels required when called:    1
  6919 ;; This function calls:
  6920 ;;		Nothing
  6921 ;; This function is called by:
  6922 ;;		_ADC_GetValue
  6923 ;; This function uses a non-reentrant model
  6924 ;;
  6925                           
  6926                           
  6927                           ;psect for function _PORT_Get_Value_Adc
  6928  14E1                     _PORT_Get_Value_Adc:
  6929  14E1                     l1862:	
  6930                           ;incstack = 0
  6931                           ; Regs used in _PORT_Get_Value_Adc: [wreg]
  6932                           
  6933                           
  6934                           ;port.c: 119:     return ADRES;
  6935  14E1  1283               	bcf	3,5	;RP0=0, select bank0
  6936  14E2  1303               	bcf	3,6	;RP1=0, select bank0
  6937  14E3  081E               	movf	30,w	;volatile
  6938  14E4                     l156:
  6939  14E4  0008               	return
  6940  14E5                     __end_of_PORT_Get_Value_Adc:
  6941                           
  6942                           	psect	text21
  6943  1505                     __ptext21:	
  6944 ;; *************** function _PORT_Choose_Mux *****************
  6945 ;; Defined at:
  6946 ;;		line 94 in file "port.c"
  6947 ;; Parameters:    Size  Location     Type
  6948 ;;  _value          1    wreg     unsigned char 
  6949 ;; Auto vars:     Size  Location     Type
  6950 ;;  _value          1    2[COMMON] unsigned char 
  6951 ;; Return value:  Size  Location     Type
  6952 ;;                  1    wreg      void 
  6953 ;; Registers used:
  6954 ;;		wreg, status,2, status,0, btemp+1
  6955 ;; Tracked objects:
  6956 ;;		On entry : 0/0
  6957 ;;		On exit  : 0/0
  6958 ;;		Unchanged: 0/0
  6959 ;; Data sizes:     COMMON   BANK0   BANK1   BANK3   BANK2
  6960 ;;      Params:         0       0       0       0       0
  6961 ;;      Locals:         1       0       0       0       0
  6962 ;;      Temps:          0       0       0       0       0
  6963 ;;      Totals:         1       0       0       0       0
  6964 ;;Total ram usage:        1 bytes
  6965 ;; Hardware stack levels used:    1
  6966 ;; Hardware stack levels required when called:    1
  6967 ;; This function calls:
  6968 ;;		Nothing
  6969 ;; This function is called by:
  6970 ;;		_ADC_GetValue
  6971 ;; This function uses a non-reentrant model
  6972 ;;
  6973                           
  6974                           
  6975                           ;psect for function _PORT_Choose_Mux
  6976  1505                     _PORT_Choose_Mux:
  6977                           
  6978                           ;incstack = 0
  6979                           ; Regs used in _PORT_Choose_Mux: [wreg+status,2+status,0+btemp+1]
  6980                           ;PORT_Choose_Mux@_value stored from wreg
  6981  1505  00F2               	movwf	PORT_Choose_Mux@_value
  6982  1506                     l1856:
  6983                           
  6984                           ;port.c: 95:     if (_value <= 0x0F) {
  6985  1506  3010               	movlw	16
  6986  1507  0272               	subwf	PORT_Choose_Mux@_value,w
  6987  1508  1803               	skipnc
  6988  1509  2D0B               	goto	u2341
  6989  150A  2D0C               	goto	u2340
  6990  150B                     u2341:
  6991  150B  2D16               	goto	l147
  6992  150C                     u2340:
  6993  150C                     l1858:
  6994                           
  6995                           ;port.c: 96:         PORTD &= 0xF0;
  6996  150C  30F0               	movlw	240
  6997  150D  00FF               	movwf	btemp+1
  6998  150E  087F               	movf	btemp+1,w
  6999  150F  1283               	bcf	3,5	;RP0=0, select bank0
  7000  1510  1303               	bcf	3,6	;RP1=0, select bank0
  7001  1511  0588               	andwf	8,f	;volatile
  7002                           
  7003                           ;port.c: 97:         PORTD |= _value;
  7004  1512  0872               	movf	PORT_Choose_Mux@_value,w	;volatile
  7005  1513  00FF               	movwf	btemp+1
  7006  1514  087F               	movf	btemp+1,w
  7007  1515  0488               	iorwf	8,f	;volatile
  7008  1516                     l147:
  7009  1516  0008               	return
  7010  1517                     __end_of_PORT_Choose_Mux:
  7011                           
  7012                           	psect	text22
  7013  153B                     __ptext22:	
  7014 ;; *************** function _isr *****************
  7015 ;; Defined at:
  7016 ;;		line 78 in file "timer.c"
  7017 ;; Parameters:    Size  Location     Type
  7018 ;;		None
  7019 ;; Auto vars:     Size  Location     Type
  7020 ;;		None
  7021 ;; Return value:  Size  Location     Type
  7022 ;;                  1    wreg      void 
  7023 ;; Registers used:
  7024 ;;		None
  7025 ;; Tracked objects:
  7026 ;;		On entry : 0/0
  7027 ;;		On exit  : 0/0
  7028 ;;		Unchanged: 0/0
  7029 ;; Data sizes:     COMMON   BANK0   BANK1   BANK3   BANK2
  7030 ;;      Params:         0       0       0       0       0
  7031 ;;      Locals:         0       0       0       0       0
  7032 ;;      Temps:          2       0       0       0       0
  7033 ;;      Totals:         2       0       0       0       0
  7034 ;;Total ram usage:        2 bytes
  7035 ;; Hardware stack levels used:    1
  7036 ;; This function calls:
  7037 ;;		Nothing
  7038 ;; This function is called by:
  7039 ;;		Interrupt level 1
  7040 ;; This function uses a non-reentrant model
  7041 ;;
  7042                           
  7043                           
  7044                           ;psect for function _isr
  7045  153B                     _isr:
  7046  153B                     i1l2496:
  7047                           
  7048                           ;timer.c: 85: if (TMR1IF)
  7049  153B  1283               	bcf	3,5	;RP0=0, select bank0
  7050  153C  1303               	bcf	3,6	;RP1=0, select bank0
  7051  153D  1C0C               	btfss	12,0	;volatile
  7052  153E  2D40               	goto	u365_21
  7053  153F  2D41               	goto	u365_20
  7054  1540                     u365_21:
  7055  1540  2D48               	goto	i1l216
  7056  1541                     u365_20:
  7057  1541                     i1l2498:
  7058                           
  7059                           ;timer.c: 86:      {;timer.c: 88:      Fincompt1 = 1;
  7060  1541  1683               	bsf	3,5	;RP0=1, select bank1
  7061  1542  1303               	bcf	3,6	;RP1=0, select bank1
  7062  1543  01D6               	clrf	_Fincompt1^(0+128)
  7063  1544  0AD6               	incf	_Fincompt1^(0+128),f
  7064                           
  7065                           ;timer.c: 91:      TMR1IF=0;
  7066  1545  1283               	bcf	3,5	;RP0=0, select bank0
  7067  1546  1303               	bcf	3,6	;RP1=0, select bank0
  7068  1547  100C               	bcf	12,0	;volatile
  7069  1548                     i1l216:	
  7070                           ;timer.c: 92:      }
  7071                           
  7072                           
  7073                           ;timer.c: 94: if (TMRAIF)
  7074  1548  1E0D               	btfss	13,4	;volatile
  7075  1549  2D4B               	goto	u366_21
  7076  154A  2D4C               	goto	u366_20
  7077  154B                     u366_21:
  7078  154B  2D4D               	goto	i1l218
  7079  154C                     u366_20:
  7080  154C                     i1l2500:
  7081                           
  7082                           ;timer.c: 95:      {;timer.c: 100:      TMRAIF=0;
  7083  154C  120D               	bcf	13,4	;volatile
  7084  154D                     i1l218:
  7085  154D  0871               	movf	??_isr+1,w
  7086  154E  008A               	movwf	10
  7087  154F  0E70               	swapf	??_isr^(0+4294967168),w
  7088  1550  0083               	movwf	3
  7089  1551  0EFE               	swapf	btemp,f
  7090  1552  0E7E               	swapf	btemp,w
  7091  1553  0009               	retfie
  7092  1554                     __end_of_isr:
  7093  007E                     btemp	set	126	;btemp
  7094  007E                     wtemp0	set	126
  7095                           
  7096                           	psect	intentry
  7097  0004                     __pintentry:	
  7098                           ;incstack = 0
  7099                           ; Regs used in _isr: []
  7100                           
  7101  0004                     interrupt_function:
  7102  007E                     saved_w	set	btemp
  7103  0004  00FE               	movwf	btemp
  7104  0005  0E03               	swapf	3,w
  7105  0006  00F0               	movwf	??_isr
  7106  0007  080A               	movf	10,w
  7107  0008  00F1               	movwf	??_isr+1
  7108  0009  160A  118A  2D3B   	ljmp	_isr
  7109                           
  7110                           	psect	config
  7111                           
  7112                           ;Config register CONFIG @ 0x2007
  7113                           ;	Oscillator Selection bits
  7114                           ;	FOSC = INTOSC, INTOSC oscillator: CLKOUT function on RA6/OSC2/CLKOUT pin, I/O function
      +                            on RA7/OSC1/CLKIN
  7115                           ;	Watchdog Timer Enable bit
  7116                           ;	WDTE = OFF, WDT disabled and can be enabled by SWDTEN bit of the WDTCON register
  7117                           ;	Power-up Timer Enable bit
  7118                           ;	PWRTE = OFF, PWRT disabled
  7119                           ;	RE3/MCLR Pin Function Select bit
  7120                           ;	MCLRE = ON, RE3/MCLR pin function is MCLR
  7121                           ;	Code Protection bit
  7122                           ;	CP = OFF, Program memory code protection is disabled
  7123                           ;	Brown-out Reset Selection bits
  7124                           ;	BOREN = ON, BOR enabled
  7125                           ;	Brown-out Reset Voltage Selection bit
  7126                           ;	BORV = 19, Brown-out Reset Voltage (VBOR) set to 1.9 V nominal
  7127                           ;	INTOSC PLLEN Enable Bit
  7128                           ;	PLLEN = ON, INTOSC Frequency is 16 MHz (32x)
  7129  2007                     	org	8199
  7130  2007  3FF5               	dw	16373
  7131                           
  7132                           ;Config register CONFIG2 @ 0x2008
  7133                           ;	Voltage Regulator Capacitor Enable bits
  7134                           ;	VCAPEN = OFF, All VCAP pin functions are disabled
  7135  2008                     	org	8200
  7136  2008  FFFF               	dw	65535

Data Sizes:
    Strings     0
    Constant    160
    Data        0
    BSS         1
    Persistent  0
    Stack       0

Auto Spaces:
    Space          Size  Autos    Used
    COMMON           14     12      12
    BANK0            80     80      80
    BANK1            80     54      55
    BANK3            96      0       0
    BANK2            91      0       0

Pointer List with Targets:

    None.

Critical Paths under _main in COMMON

    _Voltage_Value->___xxtofl
    _Resistance_Value->___xxtofl
    ___xxtofl->___wmul
    ___flsub->__Umul8_16
    ___fladd->__Umul8_16
    ___flmul->___xxtofl
    ___fldiv->___xxtofl
    _ADC_GetValue->_PORT_Choose_Mux

Critical Paths under _isr in COMMON

    None.

Critical Paths under _main in BANK0

    _conversion_newton->___flmul
    _Voltage_Value->___flmul
    _Resistance_Value->___flmul
    ___flsub->___fladd
    ___flmul->___fldiv
    ___fldiv->___flsub

Critical Paths under _isr in BANK0

    None.

Critical Paths under _main in BANK1

    _main->_conversion_newton

Critical Paths under _isr in BANK1

    None.

Critical Paths under _main in BANK3

    None.

Critical Paths under _isr in BANK3

    None.

Critical Paths under _main in BANK2

    None.

Critical Paths under _isr in BANK2

    None.

Call Graph Tables:

 ---------------------------------------------------------------------------------
 (Depth) Function   	        Calls       Base Space   Used Autos Params    Refs
 ---------------------------------------------------------------------------------
 (0) _main                                                18    18      0   27640
                                             39 BANK1     15    15      0
                       _ADC_GetValue
                     _PORT_Blink_LED
                   _PORT_Change_Gain
                          _PORT_Init
                   _PORT_Select_Mux1
                   _Resistance_Value
                  _TIMER_init_timer1
                      _Voltage_Value
                  _conversion_newton
 ---------------------------------------------------------------------------------
 (1) _conversion_newton                                   39    35      4   13978
                                              0 BANK1     39    35      4
                            ___fladd
                            ___fldiv
                             ___flge
                            ___flmul
                            ___flsub
 ---------------------------------------------------------------------------------
 (2) ___flge                                              12     4      8    3526
                                              2 COMMON     8     0      8
                                              0 BANK0      4     4      0
 ---------------------------------------------------------------------------------
 (1) _Voltage_Value                                        9     5      4    4946
                                              0 BANK1      9     5      4
                            ___fldiv
                            ___flmul
                           ___xxtofl
 ---------------------------------------------------------------------------------
 (1) _TIMER_init_timer1                                    0     0      0       0
 ---------------------------------------------------------------------------------
 (1) _Resistance_Value                                     6     0      6    8305
                                              0 BANK1      6     0      6
                            ___fldiv
                            ___flmul
                            ___flsub
                             ___wmul
                           ___xxtofl
 ---------------------------------------------------------------------------------
 (2) ___xxtofl                                            14    10      4     474
                                              8 COMMON     4     0      4
                                              0 BANK0     10    10      0
                             ___wmul (ARG)
 ---------------------------------------------------------------------------------
 (2) ___wmul                                               6     2      4     244
                                              2 COMMON     6     2      4
 ---------------------------------------------------------------------------------
 (2) ___flsub                                              8     0      8    2941
                                             20 BANK0      8     0      8
                          __Umul8_16 (ARG)
                            ___fladd
 ---------------------------------------------------------------------------------
 (3) ___fladd                                             20    12      8    2288
                                              0 BANK0     20    12      8
                          __Umul8_16 (ARG)
 ---------------------------------------------------------------------------------
 (2) ___flmul                                             26    18      8    2873
                                             54 BANK0     26    18      8
                          __Umul8_16
                            ___fladd (ARG)
                            ___fldiv (ARG)
                            ___flsub (ARG)
                           ___xxtofl (ARG)
 ---------------------------------------------------------------------------------
 (3) __Umul8_16                                            9     7      2     799
                                              2 COMMON     9     7      2
 ---------------------------------------------------------------------------------
 (2) ___fldiv                                             26    18      8    1577
                                             28 BANK0     26    18      8
                          __Umul8_16 (ARG)
                            ___fladd (ARG)
                            ___flsub (ARG)
                             ___wmul (ARG)
                           ___xxtofl (ARG)
 ---------------------------------------------------------------------------------
 (1) _PORT_Select_Mux1                                     0     0      0       0
 ---------------------------------------------------------------------------------
 (1) _PORT_Init                                            1     1      0       0
                                              2 COMMON     1     1      0
                   _PORT_Init_Serial
 ---------------------------------------------------------------------------------
 (2) _PORT_Init_Serial                                     0     0      0       0
 ---------------------------------------------------------------------------------
 (1) _PORT_Change_Gain                                     4     1      3     252
                                              2 COMMON     4     1      3
 ---------------------------------------------------------------------------------
 (1) _PORT_Blink_LED                                       0     0      0       0
 ---------------------------------------------------------------------------------
 (1) _ADC_GetValue                                         1     1      0      66
                                              3 COMMON     1     1      0
                    _PORT_Choose_Mux
                 _PORT_Get_Value_Adc
                     _PORT_Start_ADC
 ---------------------------------------------------------------------------------
 (2) _PORT_Start_ADC                                       0     0      0       0
 ---------------------------------------------------------------------------------
 (2) _PORT_Get_Value_Adc                                   0     0      0       0
 ---------------------------------------------------------------------------------
 (2) _PORT_Choose_Mux                                      1     1      0      44
                                              2 COMMON     1     1      0
 ---------------------------------------------------------------------------------
 Estimated maximum stack depth 3
 ---------------------------------------------------------------------------------
 (Depth) Function   	        Calls       Base Space   Used Autos Params    Refs
 ---------------------------------------------------------------------------------
 (4) _isr                                                  2     2      0       0
                                              0 COMMON     2     2      0
 ---------------------------------------------------------------------------------
 Estimated maximum stack depth 4
 ---------------------------------------------------------------------------------

 Call Graph Graphs:

 _main (ROOT)
   _ADC_GetValue
     _PORT_Choose_Mux
     _PORT_Get_Value_Adc
     _PORT_Start_ADC
   _PORT_Blink_LED
   _PORT_Change_Gain
   _PORT_Init
     _PORT_Init_Serial
   _PORT_Select_Mux1
   _Resistance_Value
     ___fldiv
       __Umul8_16 (ARG)
       ___fladd (ARG)
         __Umul8_16 (ARG)
       ___flsub (ARG)
         __Umul8_16 (ARG)
         ___fladd (ARG)
           __Umul8_16 (ARG)
       ___wmul (ARG)
       ___xxtofl (ARG)
         ___wmul (ARG)
     ___flmul
       __Umul8_16
       ___fladd (ARG)
         __Umul8_16 (ARG)
       ___fldiv (ARG)
         __Umul8_16 (ARG)
         ___fladd (ARG)
           __Umul8_16 (ARG)
         ___flsub (ARG)
           __Umul8_16 (ARG)
           ___fladd (ARG)
             __Umul8_16 (ARG)
         ___wmul (ARG)
         ___xxtofl (ARG)
           ___wmul (ARG)
       ___flsub (ARG)
         __Umul8_16 (ARG)
         ___fladd (ARG)
           __Umul8_16 (ARG)
       ___xxtofl (ARG)
         ___wmul (ARG)
     ___flsub
       __Umul8_16 (ARG)
       ___fladd (ARG)
         __Umul8_16 (ARG)
     ___wmul
     ___xxtofl
       ___wmul (ARG)
   _TIMER_init_timer1
   _Voltage_Value
     ___fldiv
       __Umul8_16 (ARG)
       ___fladd (ARG)
         __Umul8_16 (ARG)
       ___flsub (ARG)
         __Umul8_16 (ARG)
         ___fladd (ARG)
           __Umul8_16 (ARG)
       ___wmul (ARG)
       ___xxtofl (ARG)
         ___wmul (ARG)
     ___flmul
       __Umul8_16
       ___fladd (ARG)
         __Umul8_16 (ARG)
       ___fldiv (ARG)
         __Umul8_16 (ARG)
         ___fladd (ARG)
           __Umul8_16 (ARG)
         ___flsub (ARG)
           __Umul8_16 (ARG)
           ___fladd (ARG)
             __Umul8_16 (ARG)
         ___wmul (ARG)
         ___xxtofl (ARG)
           ___wmul (ARG)
       ___flsub (ARG)
         __Umul8_16 (ARG)
         ___fladd (ARG)
           __Umul8_16 (ARG)
       ___xxtofl (ARG)
         ___wmul (ARG)
     ___xxtofl
       ___wmul (ARG)
   _conversion_newton
     ___fladd
       __Umul8_16 (ARG)
     ___fldiv
       __Umul8_16 (ARG)
       ___fladd (ARG)
         __Umul8_16 (ARG)
       ___flsub (ARG)
         __Umul8_16 (ARG)
         ___fladd (ARG)
           __Umul8_16 (ARG)
       ___wmul (ARG)
       ___xxtofl (ARG)
         ___wmul (ARG)
     ___flge
     ___flmul
       __Umul8_16
       ___fladd (ARG)
         __Umul8_16 (ARG)
       ___fldiv (ARG)
         __Umul8_16 (ARG)
         ___fladd (ARG)
           __Umul8_16 (ARG)
         ___flsub (ARG)
           __Umul8_16 (ARG)
           ___fladd (ARG)
             __Umul8_16 (ARG)
         ___wmul (ARG)
         ___xxtofl (ARG)
           ___wmul (ARG)
       ___flsub (ARG)
         __Umul8_16 (ARG)
         ___fladd (ARG)
           __Umul8_16 (ARG)
       ___xxtofl (ARG)
         ___wmul (ARG)
     ___flsub
       __Umul8_16 (ARG)
       ___fladd (ARG)
         __Umul8_16 (ARG)

 _isr (ROOT)

 Address spaces:
Name               Size   Autos  Total    Cost      Usage
BITCOMMON            E      0       0       0        0.0%
NULL                 0      0       0       0        0.0%
CODE                 0      0       0       0        0.0%
COMMON               E      C       C       1       85.7%
BITSFR0              0      0       0       1        0.0%
SFR0                 0      0       0       1        0.0%
BITSFR1              0      0       0       2        0.0%
SFR1                 0      0       0       2        0.0%
STACK                0      0       0       2        0.0%
ABS                  0      0      93       3        0.0%
BITBANK0            50      0       0       4        0.0%
BITSFR3              0      0       0       4        0.0%
SFR3                 0      0       0       4        0.0%
BANK0               50     50      50       5      100.0%
BITSFR2              0      0       0       5        0.0%
SFR2                 0      0       0       5        0.0%
DATA                 0      0      93       6        0.0%
BITBANK1            50      0       0       7        0.0%
BANK1               50     36      37       8       68.8%
BITBANK3            60      0       0       9        0.0%
BANK3               60      0       0      10        0.0%
BITBANK2            5B      0       0      11        0.0%
BANK2               5B      0       0      12        0.0%


Microchip Technology PIC Macro Assembler V2.20 build 20200408173844 
Symbol Table                                                                                   Thu Jun 08 14:46:53 2023

                  ___fldiv@aexp 0055                    ___fldiv@bexp 0054                               pc 0002  
                  ___fldiv@sign 004D                              l42 165D                              l45 175B  
                            l73 070C                              l74 0716                              l66 0484  
                            l83 1528                              fsr 0004             ___wmul@multiplicand 0074  
           __Umul8_16@word_mpld 0078                ??_PORT_Blink_LED 0072                             l211 153A  
                           l140 15FC                             l150 14E8                             l134 07FD  
                           l222 1584                             l143 1504                             l224 159C  
                           l400 17FF                             l153 14EC                             l147 1516  
                           l156 14E4                             l174 14F4                             l521 0AF8  
                           l178 0839                             l611 0FFF                             l515 0A7A  
                           l540 0C10                             l630 15B1                             l623 0FF3  
                           l519 0B21                             l632 15C3                             l536 0BEC  
                           l528 0C9E                             l617 0F6B                             l561 1577  
                           l546 0C32                             l571 0896                             l396 177A  
                           l573 0A16                             l557 0C92                             l558 0C9E  
                           l655 073B                             l399 17E6                             l657 07D2  
                           l595 0A0A                             l587 0988                             l668 079C  
                           l669 07A8       __end_of_TIMER_init_timer1 153B                             _isr 153B  
                           fsr0 0004               ?_PORT_Change_Gain 0072                    ___flmul@aexp 0068  
                  ___flmul@bexp 0069                    ___flmul@sign 0063                    ___flmul@temp 006E  
                  ___flmul@prod 006A              ??_PORT_Change_Gain 0075        __end_of_PORT_Select_Mux1 14F5  
                          l2000 090D                            l2002 0916                            l2010 093B  
                          l2020 0958                            l2012 0941                            l2004 0928  
                          l2100 0CE2                            l2030 096D                            l2022 0959  
                          l2014 0949                            l2006 0929                            l2110 0CFE  
                          l2102 0CE7                            l2040 0992                            l2032 0971  
                          l2024 0962                            l2016 094B                            l2008 0937  
                          l2200 0FD9                            l2120 0D29                            l2112 0D03  
                          l2104 0CEF                            l2050 09D0                            l2042 09A0  
                          l2034 0985                            l2018 0954                            l2026 0968  
                          l2210 0FF7                            l2202 0FDF                            l2130 0DC6  
                          l2122 0D46                            l2106 0CF1                            l2060 09FA  
                          l2052 09DE                            l2044 09A4                            l2028 096C  
                          l2204 0FE7                            l2140 0E29                            l2132 0DCF  
                          l2124 0D62                            l2116 0D0C                            l2108 0CF9  
                          l2220 0733                            l2300 1531                            l2062 0A00  
                          l2054 09ED                            l2046 09BD                            l2038 098D  
                          l2206 0FEB                            l2150 0EC9                            l2142 0E42  
                          l2134 0DDF                            l2126 0D8E                            l2118 0D1C  
                          l2230 0755                            l2222 0743                            l2214 071A  
                          l2310 1536                            l2302 1532                            l2320 0801  
                          l2064 0A04                            l2056 09F1                            l2048 09C3  
                          l2208 0FEC                            l2160 0F37                            l2152 0EEF  
                          l2144 0E5F                            l2136 0DFC                            l2128 0DAA  
                          l2080 0CB1                            l2072 0C9F                            l2240 0780  
                          l2232 075E                            l2216 071F                            l2312 1539  
                          l2304 1533                            l2400 0284                            l2322 080D  
                          l2314 14ED                            l2066 0A06                            l2058 09F9  
                          l2170 0F4F                            l2162 0F3B                            l2154 0F17  
                          l2146 0E8C                            l2138 0E0C                            l2090 0CCD  
                          l2082 0CB6                            l2074 0CA6                            l2250 07AA  
                          l2242 0787                            l2234 0765                            l2226 074C  
                          l2218 0723                            l2306 1534                            l2410 035F  
                          l2402 02B9                            l2324 0812                            l2332 081C  
                          l2316 14F0                            l2180 0F70                            l2172 0F50  
                          l2164 0F3C                            l2156 0F20                            l2148 0E9C  
                          l2092 0CD2                            l2084 0CBB                            l2076 0CAC  
                          l1700 0AA0                            l2252 07C0                            l2244 0792  
                          l2236 0769                            l2228 0751                            l2308 1535  
                          l2420 040C                            l2412 0366                            l2404 02EE  
                          l2350 1518                            l2318 14F5                            l2334 0821  
                          l2342 082B                            l2326 0817                            l2270 15D9  
                          l2262 15C4                            l2182 0F75                            l2190 0FA6  
                          l2174 0F54                            l2166 0F45                            l2158 0F2E  
                          l2094 0CD8                            l2086 0CC3                            l2078 0CB0  
                          l1710 0AB4                            l1702 0AA4                            l2254 07C5  
                          l2246 0796                            l2238 0777                            l2430 0621  
                          l2422 0441                            l2414 039B                            l2406 02F5  
                          l2352 151E                            l2344 0830                            l2336 0826  
                          l2280 15EB                            l2272 15DC                            l2264 15CA  
                          l2192 0FB3                            l2184 0F83                            l2176 0F68  
                          l2168 0F4B                            l2096 0CDC                            l2088 0CC5  
                          l1800 0C20                            l1720 0AC5                            l1712 0AB8  
                          l1704 0AA8                            l1640 0A17                            l2256 07C9  
                          l2248 07A0                            l2432 0690                            l2424 0448  
                          l2416 03D0                            l2408 032A                            l2354 1523  
                          l2346 0835                            l2290 15F9                            l2282 15EF  
                          l2274 15E0                            l2266 15CE                            l2194 0FBE  
                          l2186 0F87                            l2098 0CDD                            l1802 0C24  
                          l1730 0B05                            l1722 0ADC                            l1714 0ABC  
                          l1706 0AAC                            l1650 0A2E                            l1642 0A1E  
                          l2258 07CA                            l2362 16CE                            l2434 06C3  
                          l2426 047D                            l2418 03D7                            l2370 004F  
                          l2450 1675                            l2442 165E                            l2292 15FA  
                          l2284 15F3                            l2276 15E2                            l2268 15D0  
                          l2196 0FCD                            l2188 0FA0                            l1820 0C6C  
                          l1812 0C37                            l1804 0C25                            l1732 0B07  
                          l1724 0AEB                            l1740 0B19                            l1716 0AC0  
                          l1708 0AB0                            l1660 0A46                            l1652 0A33  
                          l1644 0A24                            l2436 06CD                            l2380 012A  
                          l2428 0484                            l2372 0084                            l2460 16BD  
                          l2452 167A                            l2444 1668                            l2286 15F4  
                          l2278 15E7                            l2198 0FD7                            l1830 0C87  
                          l1814 0C3C                            l1822 0C70                            l1806 0C29  
                          l1750 0B4A                            l1742 0B25                            l1734 0B0B  
                          l1726 0AF3                            l1718 0AC4                            l1670 0A5C  
                          l1662 0A4B                            l1654 0A3B                            l1646 0A28  
                          l2294 1529                            l2358 1600                            l1910 179A  
                          l1902 175C                            l2438 0702                            l2390 01D7  
                          l2382 0131                            l2374 00B9                            l2366 0016  
                          l2454 1687                            l2446 166D                            l2288 15F7  
                          l1840 0C9D                            l1832 0C88                            l1824 0C75  
                          l1816 0C4A                            l1808 0C2F                            l1760 0B61  
                          l1752 0B4E                            l1744 0B2A                            l1736 0B0C  
                          l1728 0AFC                            l1680 0A70                            l1672 0A5D  
                          l1664 0A51                            l1656 0A3C                            l1648 0A29  
                          l2296 152D                            l1912 17BE                            l1904 1772  
                          l2392 020C                            l2384 0166                            l2376 00C0  
                          l2368 004B                            l2456 1692                            l2448 1674  
                          l1930 0841                            l1850 15BA                            l1842 159E  
                          l1834 0C8C                            l1826 0C7A                            l1818 0C4E  
                          l1770 0BC4                            l1762 0B62                            l1754 0B52  
                          l1738 0B15                            l1690 0A8C                            l1674 0A62  
                          l1682 0A72                            l1666 0A52                            l1658 0A3E  
                          l1922 1554                            l2298 1530                            l1914 17C2  
                          l1906 178E                            l2394 0213                            l2386 019B  
                          l2378 00F5                            l2458 16A2                            l1860 14E5  
                          l1940 0856                            l1932 0847                            l1852 15BF  
                          l1844 15A0                            l1836 0C8E                            l1828 0C82  
                          l1780 0BF4                            l1772 0BC8                            l1764 0B6B  
                          l1756 0B5B                            l1748 0B33                            l1692 0A90  
                          l1684 0A80                            l1676 0A67                            l1668 0A58  
                          l1924 1558                            l1916 17FC                            l1908 1796  
                          l2396 0248                            l2388 01A2                            l1862 14E1  
                          l1870 07DC                            l1950 086E                            l1942 085E  
                          l1934 084B                            l1846 15A7                            l1838 0C99  
                          l1790 0C0F                            l1782 0BF9                            l1774 0BCA  
                          l1758 0B5D                            l1766 0B70                            l1694 0A94  
                          l1686 0A84                            l1678 0A6F                            l1918 17FE  
                          l2398 027D                            l1856 1506                            l1880 07ED  
                          l1872 07DF                            l1960 0883                            l1952 0874  
                          l1944 085F                            l1936 084C                            l1928 083A  
                          l1848 15AB                            l1792 0C14                            l1776 0BCF  
                          l1768 0B86                            l1696 0A98                            l1688 0A88  
                          l1858 150C                            l1882 07F0                            l1874 07E2  
                          l1866 07D3                            l1970 08AA                            l1962 088B  
                          l1954 0878                            l1938 0851                            l1946 0861  
                          l1794 0C17                            l1786 0C02                            l1778 0BDE  
                          l1698 0A9C                            l1890 157A                            l1884 07F5  
                          l1876 07E7                            l1868 07D9                            l1972 08AE  
                          l1964 088C                            l1956 0879                            l1948 0869  
                          l1796 0C19                            l1788 0C0B                            l1892 157E  
                          l1886 07F8                            l1878 07EA                            l1990 08EF  
                          l1982 08C5                            l1958 087E                            l1966 088E  
                          l1798 0C1E                            l1894 158B                            l1992 08F1  
                          l1984 08D7                            l1968 089E                            l1976 08B7  
                          l1896 1592                            l1888 1578                            l1994 08F6  
                          l1986 08DF                            l1978 08BC                            l1898 1598  
                          l1996 0908                            l1988 08E7                            l1998 090C  
                          ?_isr 0070                            u2000 0B21                            u2001 0B20  
                          u2010 0B25                            u2011 0B24                            u2100 0BB1  
                          u2020 0B2A                            u2101 0BB2                            u2021 0B29  
                          u2110 0BCF                            u2102 0BB7                            u2111 0BCE  
                          u2103 0BB8                            u2031 0B3C                            u2200 0C2F  
                          u2120 0BF4                            u2040 0B4E                            u2032 0B43  
                          u2201 0C2E                            u2121 0BF3                            u2041 0B4D  
                          u2033 0B4A                            u3010 0F3B                            u2210 0C36  
                          u2130 0BF9                            u2050 0B52                            u3011 0F3A  
                          u2211 0C35                            u2131 0BF8                            u2051 0B51  
                          u3100 0FB3                            u2300 0C9D                            u2220 0C3C  
                          u2060 0B61                            u3101 0FB2                            u3005 0F30  
                          u2301 0C9C                            u2221 0C3B                            u2061 0B60  
                          u2310 15AB                            u3110 0FCD                            u3030 0F4F  
                          u2230 0C4E                            u2150 0C0F                            u2311 15AA  
                          u3111 0FCC                            u3031 0F4E                            u2231 0C4D  
                          u2151 0C0E                            u3120 0FEB                            u3040 0F54  
                          u2240 0C5D                            u2160 0C14                            u2080 0B86  
                          u2400 1772                            u3121 0FEA                            u3105 0FAF  
                          u3041 0F53                            u3025 0F3E                            u2161 0C13  
                          u2145 0C04                            u2081 0B85                            u2401 1771  
                          u2330 15BF                            u3050 0F68                            u2250 0C6C  
                          u2170 0C1E                            u3210 0796                            u3130 071F  
                          u2410 178E                            u2331 15BE                            u3115 0FC9  
                          u3051 0F67                            u2251 0C6B                            u2171 0C1D  
                          u2091 0B9D                            u2083 0B82                            u2075 0B64  
                          u3211 0795                            u3131 071E                            u2411 178D  
                          u2340 150C                            u3300 0812                            u2500 0878  
                          u3060 0F6F                            u2260 0C75                            u2180 0C24  
                          u2092 0B9E                            u3220 079C                            u3140 0723  
                          u2420 179A                            u2341 150B                            u3301 0811  
                          u2501 0877                            u2325 15B2                            u3061 0F6E  
                          u2261 0C74                            u2245 0C58                            u2181 0C23  
                          u2093 0BA3                            u3221 079B                            u3205 078B  
                          u3141 0722                            u2421 1799                            u2350 14EC  
                          u3310 0817                            u2510 087E                            u3070 0F75  
                          u2270 0C7A                            u2190 0C29                            u2094 0BA4  
                          u3230 07A0                            u3150 0743                            u2351 14EB  
                          u3311 0816                            u2511 087D                            u3071 0F74  
                          u2271 0C79                            u2191 0C28                            u2095 0BA9  
                          u3231 079F                            u3151 0742                            u2431 17A9  
                          u3320 0821                            u2600 0928                            u2520 0883  
                          u3080 0F87                            u2280 0C87                            u2096 0BAA  
                          u2360 157E                            u3240 07B5                            u2440 17C2  
                          u2432 17AA                            u3400 012A                            u3321 0820  
                          u2601 0927                            u2521 0882                            u3081 0F86  
                          u2281 0C86                            u2361 157D                            u2441 17C1  
                          u2433 17AF                            u3401 0129                            u3330 0826  
                          u2610 0941                            u2530 089E                            u3090 0F96  
                          u2290 0C8C                            u3250 07C5                            u3170 0764  
                          u2434 17B0                            u3410 0166                            u3331 0825  
                          u2611 0940                            u2531 089D                            u2291 0C8B  
                          u3251 07C4                            u3171 0763                            u2451 17D1  
                          u2435 17B5                            u3411 0165                            u3340 0830  
                          u2700 0992                            u2620 0949                            u2540 08BC  
                          u1900 0A62                            u3260 07C9                            u2460 17FC  
                          u2452 17D2                            u2436 17B6                            u3500 035F  
                          u3420 019B                            u3341 082F                            u2701 0991  
                          u2621 0948                            u2605 0924                            u2541 08BB  
                          u1901 0A61                            u3261 07C8                            u3245 07B0  
                          u3165 0756                            u2461 17FB                            u2453 17D7  
                          u3501 035E                            u3421 019A                            u3350 0835  
                          u3270 15D9                            u2710 09A4                            u2550 08F6  
                          u2470 084B                            u1910 0A67                            u2390 1598  
                          u3190 0786                            u2454 17D8                            u3510 039B  
                          u3430 01D7                            u3351 0834                            u3271 15D8  
                          u2711 09A3                            u2551 08F5                            u2471 084A  
                          u3095 0F91                            u1911 0A66                            u2391 1597  
                          u2375 1585                            u3191 0785                            u2455 17DD  
                          u3511 039A                            u3431 01D6                            u3280 1501  
                          u2720 09B3                            u2640 0958                            u2480 0851  
                          u2800 0CE2                            u1920 0A80                            u2456 17DE  
                          u3520 03D0                            u3440 020C                            u3360 004B  
                          u3281 14FD                            u2641 0957                            u2481 0850  
                          u2801 0CE1                            u1921 0A7F                            u2385 158C  
                          u3185 0778                            u2465 17F8                            u3521 03CF  
                          u3441 020B                            u3361 004A                            u2730 09D0  
                          u2490 0856                            u2810 0CE7                            u1930 0A84  
                          u1850 0A28                            u3530 040C                            u3450 0248  
                          u3370 0084                            u2731 09CF                            u2635 094D  
                          u2491 0855                            u2811 0CE6                            u1931 0A83  
                          u1851 0A27                            u3531 040B                            u3451 0247  
                          u3371 0083                            u2740 09ED                            u2660 096C  
                          u2580 090C                            u2820 0CFE                            u1940 0ADC  
                          u1860 0A2E                            u3620 06C3                            u3540 0441  
                          u3460 027D                            u3380 00B9                            u2741 09EC  
                          u2725 09AE                            u2661 096B                            u2581 090B  
                          u2565 08F8                            u2901 0E1B                            u2821 0CFD  
                          u1941 0ADB                            u1861 0A2D                            u3621 06C2  
                          u3605 05AF                            u3541 0440                            u3461 027C  
                          u3381 00B8                            u3294 1504                            u2750 0A04  
                          u2670 0971                            u2902 0E22                            u2830 0D03  
                          u1950 0AE7                            u1870 0A33                            u3630 0702  
                          u3550 047D                            u3470 02B9                            u3390 00F5  
                          u2751 0A03                            u2735 09CC                            u2671 0970  
                          u2655 095B                            u2575 0901                            u2903 0E29  
                          u2831 0D02                            u1951 0AE5                            u1871 0A32  
                          u3631 0701                            u3615 0624                            u3551 047C  
                          u3471 02B8                            u3391 00F4                            u2680 0985  
                          u2760 0CB0                            u1960 0AE8                            u1880 0A51  
                          u3480 02EE                            u3640 1674                            u2745 09E9  
                          u2681 0984                            u2921 0E51                            u2841 0D54  
                          u2761 0CAF                            u1945 0AD8                            u1881 0A50  
                          u3481 02ED                            u3641 1673                            u2690 098C  
                          u2922 0E58                            u2842 0D5B                            u2770 0CB6  
                          u1970 0AFC                            u1890 0A5C                            u3490 032A  
                          u2691 098B                            u2595 090F                            u2931 0E7E  
                          u2923 0E5F                            u2915 0E2B                            u2851 0D70  
                          u2843 0D62                            u2771 0CB5                            u1971 0AFB  
                          u1891 0A5B                            u3491 0329                            u2932 0E85  
                          u2852 0D77                            u2780 0CBB                            u1980 0B0B  
                          u2941 0EAB                            u2933 0E8C                            u2861 0D9C  
                          u2853 0D7E                            u2781 0CBA                            u1981 0B0A  
                          u3565 0489                            u2950 0ED5                            u2942 0EB2  
                          u2862 0DA3                            u2790 0CDC                            u2943 0EB9  
                          u2871 0DB8                            u2863 0DAA                            u2791 0CDB  
                          u3575 04EC                            u2872 0DBF                            u2961 0EE1  
                          u2873 0DC6                            u3585 0528                            u2970 0EFD  
                          u2962 0EE8                            u2963 0EEF                            u2955 0ED0  
                          u2891 0DEE                            u1995 0B0E                            u3595 0573  
                          u2892 0DF5                            u2981 0F09                            u2893 0DFC  
                          u2885 0DC8                            u2982 0F10                            u2983 0F17  
                          u2975 0EF8                            u2995 0F19                            _TMRA 0110  
                          _WPUB 0095                            _main 165E                     main@sensor1 00D5  
                          btemp 007E               ??_PORT_Choose_Mux 0072                            start 000C  
               ___fldiv@new_exp 004E               Resistance_Value@R 00A4           __size_of_ADC_GetValue 0012  
                         ??_isr 0070           _conversion_newton$771 00BD                 __end_of___fladd 0C9F  
                         ?_main 0070                 __end_of___fldiv 0A17                           _ADRES 001E  
               __end_of___flmul 1000                 __end_of___flsub 1578                           i1l216 1548  
                         i1l218 154D                   _Voltage_Value 15FD                           _RCSTA 0018  
                         _SPBRG 0099                           _PORTD 0008                           _TRISA 0085  
                         _TRISB 0086                           _TRISC 0087                           _TRISD 0088  
                         _TXREG 0019                           _TXSTA 0098                ??_PORT_Start_ADC 0072  
            __size_of_PORT_Init 0039                           main@R 00D3                           pclath 000A  
                         status 0003                           wtemp0 007E                    _ADC_GetValue 1517  
    __end_of_PORT_Get_Value_Adc 14E5                 __initialization 000F                    __end_of_main 16CE  
                        ??_main 007C                  ?_Voltage_Value 00A0      __size_of_TIMER_init_timer1 0012  
      __end_of_Resistance_Value 175C                          _ADCON0 001F                          _ADCON1 009F  
                        _ANSELA 0185                          _ANSELB 0186                          _ANSELD 0188  
                        i1l2500 154C                          i1l2496 153B                          i1l2498 1541  
                        _T1SYNC 0082                          _FVRCON 009D                          u365_20 1541  
                        u365_21 1540                          u366_20 154C                          u366_21 154B  
                        _OSCCON 0090                          _TMR1GE 047F                          _TMR1IE 0460  
                        _TMR1IF 0060                          _TMR1ON 0080                          _TMRAIF 006C  
                        _TMRCS0 0086                          _TMRCS1 0087                __end_of___xxtofl 07D3  
                        ___flge 175C                       ??___fladd 0028                          ___wmul 1578  
                     ??___fldiv 0044                       ??___flmul 005E                       ??___flsub 007B  
             __end_of_PORT_Init 15FD                          main@Rc 00CB               ?_PORT_Init_Serial 0070  
                        main@Vs 00CF              ??_PORT_Init_Serial 0072              __size_of__Umul8_16 0027  
                        saved_w 007E                      ___flge@ff1 0072                      ___flge@ff2 0076  
                  ___xxtofl@arg 0026                    ___xxtofl@exp 0025                    ___xxtofl@val 0078  
       __end_of__initialization 0012                  __pcstackCOMMON 0070                 ??_Voltage_Value 00A4  
               _PORT_Choose_Mux 1505               ?_PORT_Select_Mux1 0070                      __pbssBANK1 00D6  
            ??_PORT_Select_Mux1 0072       __size_of_PORT_Change_Gain 003A               __end_of__Umul8_16 15C4  
                    __pmaintext 165E                         ?___flge 0072                         ?___wmul 0072  
           ADC_GetValue@channel 0073                      __pintentry 0004                         _DACCON0 0113  
                       _DACCON1 0114                         _T1CKPS0 0084                         _T1CKPS1 0085  
                       _T1OSCEN 0083                       ?___xxtofl 0078                      __stringtab 1000  
               __size_of___flge 00A4                         ___fladd 0A17                         ___fldiv 083A  
                       ___flmul 0C9F                         ___flsub 1554                 __size_of___wmul 0025  
            conversion_newton@F 00C1              conversion_newton@n 00C5         __end_of_PORT_Choose_Mux 1517  
                       __ptext1 0016                         __ptext2 175C                         __ptext3 15FD  
                       __ptext4 1529                         __ptext5 16CE                         __ptext6 0717  
                       __ptext7 1578                         __ptext8 1554                         __ptext9 0A17  
            _PORT_Get_Value_Adc 14E1                    __size_of_isr 0019                      ??___xxtofl 0020  
             ?_Resistance_Value 00A0             ?_PORT_Get_Value_Adc 0070               _conversion_newton 0016  
          end_of_initialization 0012         __size_of_PORT_Blink_LED 0010              ??_Resistance_Value 007C  
            ?_conversion_newton 00A0             ??_conversion_newton 00A4            ??_PORT_Get_Value_Adc 0072  
                     _PORTBbits 0006                       _PORTCbits 0007                       _PORT_Init 15C4  
                   ___fladd@grs 0033                   ___xxtofl@sign 0024       __end_of_conversion_newton 0717  
                   ___fldiv@grs 0050                     ___fldiv@rem 0049       __size_of_PORT_Init_Serial 002B  
                   ___flmul@grs 0064                _PORT_Change_Gain 0800         __size_of_PORT_Start_ADC 0008  
                __end_of___flge 1800                  __end_of___wmul 159D                       _Fincompt1 00D6  
              ?_PORT_Choose_Mux 0070                      ?_PORT_Init 0070             start_initialization 000F  
                   __end_of_isr 1554                        ??___flge 0020       __size_of_PORT_Select_Mux1 0008  
                      ??___wmul 0076                       __Umul8_16 159D           __end_of_Voltage_Value 165E  
                     ___fladd@a 0024                       ___fladd@b 0020                       ___fldiv@a 003C  
                     ___fldiv@b 0040                       ___flmul@a 005A                       ___flmul@b 0056  
                     ___flsub@a 0034                       ___flsub@b 0038                       ___latbits 0002  
                 __pcstackBANK0 0020                   __pcstackBANK1 00A0      __size_of_conversion_newton 0701  
        conversion_newton@F_tab 1056               __size_of___xxtofl 00BC          conversion_newton@R_tab 1006  
                _PORT_Blink_LED 14F5                   ?_ADC_GetValue 0070                        ?___fladd 0020  
                      ?___fldiv 003C                        ?___flmul 0056                        ?___flsub 0034  
                    ?__Umul8_16 0072          PORT_Change_Gain@INTER0 0075          PORT_Change_Gain@INTER1 0072  
                     __pstrings 1000                     ??_PORT_Init 0072          __end_of_PORT_Blink_LED 1505  
              _PORT_Init_Serial 07D3                  ??_ADC_GetValue 0073               interrupt_function 0004  
                ___wmul@product 0076                  _PORT_Start_ADC 14E5           PORT_Choose_Mux@_value 0072  
                      _GO_nDONE 00F9       __size_of_Resistance_Value 008E                     __stringbase 1005  
             ___wmul@multiplier 0072        __end_of_PORT_Change_Gain 083A                 ?_PORT_Blink_LED 0070  
        __end_of_PORT_Start_ADC 14ED                _PORT_Select_Mux1 14ED                     ??__Umul8_16 0074  
   __size_of_PORT_Get_Value_Adc 0004                __size_of___fladd 0288                __size_of___fldiv 01DD  
              __size_of___flmul 0361                __size_of___flsub 0024              __end_of__stringtab 1006  
                      ___xxtofl 0717             conversion_newton@Rc 00A0                        __ptext10 0C9F  
                      __ptext11 159D                        __ptext20 14E1                        __ptext12 083A  
                      __ptext21 1505                        __ptext13 14ED                        __ptext22 153B  
                      __ptext14 15C4                        __ptext15 07D3                        __ptext16 0800  
                      __ptext17 14F5                        __ptext18 1517                        __ptext19 14E5  
               ?_PORT_Start_ADC 0070                   __size_of_main 0070            __end_of_ADC_GetValue 1529  
      __size_of_PORT_Choose_Mux 0012                        intlevel1 0000                       stringcode 1000  
              _Resistance_Value 16CE        __end_of_PORT_Init_Serial 07FE  __end_ofconversion_newton@F_tab 10A6  
        __Umul8_16@multiplicand 0072  __end_ofconversion_newton@R_tab 1056             Voltage_Value@sensor 00A8  
                      stringdir 1000                        stringtab 1000               _TIMER_init_timer1 1529  
       Resistance_Value@Voltage 00A0                   ___fladd@signs 0030              ?_TIMER_init_timer1 0070  
                  ___fladd@aexp 0031                    ___fladd@bexp 0032            __Umul8_16@multiplier 007A  
           ??_TIMER_init_timer1 0072          __size_of_Voltage_Value 0061               __Umul8_16@product 0076  
