

Microchip MPLAB XC8 Assembler V2.20 build 20200408173844 
                                                                                               Thu Jun 01 10:19:33 2023

Microchip MPLAB XC8 C Compiler v2.20 (Free license) build 20200408173844 Og1 
     1                           	processor	16F707
     2                           	pagewidth 120
     3                           	opt	flic
     4                           	psect	strings,global,class=STRING,delta=2,noexec
     5                           	psect	cinit,global,class=CODE,merge=1,delta=2
     6                           	psect	bssBANK0,global,class=BANK0,space=1,delta=1,noexec
     7                           	psect	cstackCOMMON,global,class=COMMON,space=1,delta=1,noexec
     8                           	psect	cstackBANK0,global,class=BANK0,space=1,delta=1,noexec
     9                           	psect	maintext,global,class=CODE,split=1,delta=2
    10                           	psect	text1,local,class=CODE,merge=1,delta=2
    11                           	psect	text2,local,class=CODE,merge=1,delta=2,group=1
    12                           	psect	text3,local,class=CODE,merge=1,delta=2,group=1
    13                           	psect	text4,local,class=CODE,merge=1,delta=2,group=1
    14                           	psect	text5,local,class=CODE,merge=1,delta=2
    15                           	psect	text6,local,class=CODE,merge=1,delta=2,group=1
    16                           	psect	text7,local,class=CODE,merge=1,delta=2,group=1
    17                           	psect	text8,local,class=CODE,merge=1,delta=2,group=1
    18                           	psect	text9,local,class=CODE,merge=1,delta=2,group=1
    19                           	psect	text10,local,class=CODE,merge=1,delta=2
    20                           	psect	text11,local,class=CODE,merge=1,delta=2
    21                           	psect	text12,local,class=CODE,merge=1,delta=2
    22                           	psect	text13,local,class=CODE,merge=1,delta=2
    23                           	psect	text14,local,class=CODE,merge=1,delta=2
    24                           	psect	text15,local,class=CODE,merge=1,delta=2
    25                           	psect	text16,local,class=CODE,merge=1,delta=2
    26                           	psect	text17,local,class=CODE,merge=1,delta=2
    27                           	psect	text18,local,class=CODE,merge=1,delta=2,group=1
    28                           	psect	text19,local,class=CODE,merge=1,delta=2,group=1
    29                           	psect	text20,local,class=CODE,merge=1,delta=2
    30                           	psect	text21,local,class=CODE,merge=1,delta=2
    31                           	psect	text22,local,class=CODE,merge=1,delta=2
    32                           	psect	text23,local,class=CODE,merge=1,delta=2
    33                           	psect	text24,local,class=CODE,merge=1,delta=2
    34                           	psect	text25,local,class=CODE,merge=1,delta=2
    35                           	psect	intentry,global,class=CODE,delta=2
    36                           	psect	config,global,abs,ovrld,class=CONFIG,space=4,delta=2,noexec
    37                           	dabs	1,0x7E,2
    38  0000                     
    39                           ; Version 2.20
    40                           ; Generated 12/02/2020 GMT
    41                           ; 
    42                           ; Copyright © 2020, Microchip Technology Inc. and its subsidiaries ("Microchip")
    43                           ; All rights reserved.
    44                           ; 
    45                           ; This software is developed by Microchip Technology Inc. and its subsidiaries ("Microch
      +                          ip").
    46                           ; 
    47                           ; Redistribution and use in source and binary forms, with or without modification, are
    48                           ; permitted provided that the following conditions are met:
    49                           ; 
    50                           ;     1. Redistributions of source code must retain the above copyright notice, this lis
      +                          t of
    51                           ;        conditions and the following disclaimer.
    52                           ; 
    53                           ;     2. Redistributions in binary form must reproduce the above copyright notice, this 
      +                          list
    54                           ;        of conditions and the following disclaimer in the documentation and/or other
    55                           ;        materials provided with the distribution.
    56                           ; 
    57                           ;     3. Microchip's name may not be used to endorse or promote products derived from th
      +                          is
    58                           ;        software without specific prior written permission.
    59                           ; 
    60                           ; THIS SOFTWARE IS PROVIDED BY MICROCHIP "AS IS" AND ANY EXPRESS OR IMPLIED WARRANTIES,
    61                           ; INCLUDING, BUT NOT LIMITED TO, THE IMPLIED WARRANTIES OF MERCHANTABILITY AND FITNESS F
      +                          OR
    62                           ; PURPOSE ARE DISCLAIMED.  IN NO EVENT SHALL MICROCHIP BE LIABLE FOR ANY DIRECT, INDIREC
      +                          T,
    63                           ; INCIDENTAL, SPECIAL, EXEMPLARY, OR CONSEQUENTIAL DAMAGES (INCLUDING BUT NOT LIMITED TO
    64                           ; PROCUREMENT OF SUBSTITUTE GOODS OR SERVICES; LOSS OF USE, DATA OR PROFITS; OR BUSINESS
    65                           ; INTERRUPTION) HOWSOEVER CAUSED AND ON ANY THEORY OF LIABILITY, WHETHER IN CONTRACT, ST
      +                          RICT
    66                           ; LIABILITY, OR TORT (INCLUDING NEGLIGENCE OR OTHERWISE) ARISING IN ANY WAY OUT OF THE U
      +                          SE OF
    67                           ; THIS SOFTWARE, EVEN IF ADVISED OF THE POSSIBILITY OF SUCH DAMAGE.
    68                           ; 
    69                           ; 
    70                           ; Code-generator required, PIC16F707 Definitions
    71                           ; 
    72                           ; SFR Addresses
    73  0000                     	;# 
    74  0001                     	;# 
    75  0002                     	;# 
    76  0003                     	;# 
    77  0004                     	;# 
    78  0005                     	;# 
    79  0006                     	;# 
    80  0007                     	;# 
    81  0008                     	;# 
    82  0009                     	;# 
    83  000A                     	;# 
    84  000B                     	;# 
    85  000C                     	;# 
    86  000D                     	;# 
    87  000E                     	;# 
    88  000E                     	;# 
    89  000F                     	;# 
    90  0010                     	;# 
    91  0011                     	;# 
    92  0012                     	;# 
    93  0013                     	;# 
    94  0014                     	;# 
    95  0015                     	;# 
    96  0015                     	;# 
    97  0016                     	;# 
    98  0017                     	;# 
    99  0018                     	;# 
   100  0019                     	;# 
   101  001A                     	;# 
   102  001B                     	;# 
   103  001B                     	;# 
   104  001C                     	;# 
   105  001D                     	;# 
   106  001E                     	;# 
   107  001F                     	;# 
   108  0081                     	;# 
   109  0085                     	;# 
   110  0086                     	;# 
   111  0087                     	;# 
   112  0088                     	;# 
   113  0089                     	;# 
   114  008C                     	;# 
   115  008D                     	;# 
   116  008E                     	;# 
   117  008F                     	;# 
   118  0090                     	;# 
   119  0091                     	;# 
   120  0092                     	;# 
   121  0093                     	;# 
   122  0093                     	;# 
   123  0094                     	;# 
   124  0095                     	;# 
   125  0096                     	;# 
   126  0097                     	;# 
   127  0098                     	;# 
   128  0099                     	;# 
   129  009A                     	;# 
   130  009A                     	;# 
   131  009B                     	;# 
   132  009C                     	;# 
   133  009D                     	;# 
   134  009E                     	;# 
   135  009F                     	;# 
   136  0105                     	;# 
   137  0106                     	;# 
   138  0107                     	;# 
   139  0108                     	;# 
   140  0109                     	;# 
   141  010C                     	;# 
   142  010D                     	;# 
   143  010E                     	;# 
   144  010F                     	;# 
   145  0110                     	;# 
   146  0111                     	;# 
   147  0112                     	;# 
   148  0113                     	;# 
   149  0114                     	;# 
   150  0185                     	;# 
   151  0186                     	;# 
   152  0187                     	;# 
   153  0188                     	;# 
   154  0189                     	;# 
   155  018C                     	;# 
   156  0000                     	;# 
   157  0001                     	;# 
   158  0002                     	;# 
   159  0003                     	;# 
   160  0004                     	;# 
   161  0005                     	;# 
   162  0006                     	;# 
   163  0007                     	;# 
   164  0008                     	;# 
   165  0009                     	;# 
   166  000A                     	;# 
   167  000B                     	;# 
   168  000C                     	;# 
   169  000D                     	;# 
   170  000E                     	;# 
   171  000E                     	;# 
   172  000F                     	;# 
   173  0010                     	;# 
   174  0011                     	;# 
   175  0012                     	;# 
   176  0013                     	;# 
   177  0014                     	;# 
   178  0015                     	;# 
   179  0015                     	;# 
   180  0016                     	;# 
   181  0017                     	;# 
   182  0018                     	;# 
   183  0019                     	;# 
   184  001A                     	;# 
   185  001B                     	;# 
   186  001B                     	;# 
   187  001C                     	;# 
   188  001D                     	;# 
   189  001E                     	;# 
   190  001F                     	;# 
   191  0081                     	;# 
   192  0085                     	;# 
   193  0086                     	;# 
   194  0087                     	;# 
   195  0088                     	;# 
   196  0089                     	;# 
   197  008C                     	;# 
   198  008D                     	;# 
   199  008E                     	;# 
   200  008F                     	;# 
   201  0090                     	;# 
   202  0091                     	;# 
   203  0092                     	;# 
   204  0093                     	;# 
   205  0093                     	;# 
   206  0094                     	;# 
   207  0095                     	;# 
   208  0096                     	;# 
   209  0097                     	;# 
   210  0098                     	;# 
   211  0099                     	;# 
   212  009A                     	;# 
   213  009A                     	;# 
   214  009B                     	;# 
   215  009C                     	;# 
   216  009D                     	;# 
   217  009E                     	;# 
   218  009F                     	;# 
   219  0105                     	;# 
   220  0106                     	;# 
   221  0107                     	;# 
   222  0108                     	;# 
   223  0109                     	;# 
   224  010C                     	;# 
   225  010D                     	;# 
   226  010E                     	;# 
   227  010F                     	;# 
   228  0110                     	;# 
   229  0111                     	;# 
   230  0112                     	;# 
   231  0113                     	;# 
   232  0114                     	;# 
   233  0185                     	;# 
   234  0186                     	;# 
   235  0187                     	;# 
   236  0188                     	;# 
   237  0189                     	;# 
   238  018C                     	;# 
   239  0000                     	;# 
   240  0001                     	;# 
   241  0002                     	;# 
   242  0003                     	;# 
   243  0004                     	;# 
   244  0005                     	;# 
   245  0006                     	;# 
   246  0007                     	;# 
   247  0008                     	;# 
   248  0009                     	;# 
   249  000A                     	;# 
   250  000B                     	;# 
   251  000C                     	;# 
   252  000D                     	;# 
   253  000E                     	;# 
   254  000E                     	;# 
   255  000F                     	;# 
   256  0010                     	;# 
   257  0011                     	;# 
   258  0012                     	;# 
   259  0013                     	;# 
   260  0014                     	;# 
   261  0015                     	;# 
   262  0015                     	;# 
   263  0016                     	;# 
   264  0017                     	;# 
   265  0018                     	;# 
   266  0019                     	;# 
   267  001A                     	;# 
   268  001B                     	;# 
   269  001B                     	;# 
   270  001C                     	;# 
   271  001D                     	;# 
   272  001E                     	;# 
   273  001F                     	;# 
   274  0081                     	;# 
   275  0085                     	;# 
   276  0086                     	;# 
   277  0087                     	;# 
   278  0088                     	;# 
   279  0089                     	;# 
   280  008C                     	;# 
   281  008D                     	;# 
   282  008E                     	;# 
   283  008F                     	;# 
   284  0090                     	;# 
   285  0091                     	;# 
   286  0092                     	;# 
   287  0093                     	;# 
   288  0093                     	;# 
   289  0094                     	;# 
   290  0095                     	;# 
   291  0096                     	;# 
   292  0097                     	;# 
   293  0098                     	;# 
   294  0099                     	;# 
   295  009A                     	;# 
   296  009A                     	;# 
   297  009B                     	;# 
   298  009C                     	;# 
   299  009D                     	;# 
   300  009E                     	;# 
   301  009F                     	;# 
   302  0105                     	;# 
   303  0106                     	;# 
   304  0107                     	;# 
   305  0108                     	;# 
   306  0109                     	;# 
   307  010C                     	;# 
   308  010D                     	;# 
   309  010E                     	;# 
   310  010F                     	;# 
   311  0110                     	;# 
   312  0111                     	;# 
   313  0112                     	;# 
   314  0113                     	;# 
   315  0114                     	;# 
   316  0185                     	;# 
   317  0186                     	;# 
   318  0187                     	;# 
   319  0188                     	;# 
   320  0189                     	;# 
   321  018C                     	;# 
   322  0007                     _PORTCbits	set	7
   323  0019                     _TXREG	set	25
   324  001E                     _ADRES	set	30
   325  0008                     _PORTD	set	8
   326  0006                     _PORTBbits	set	6
   327  001F                     _ADCON0	set	31
   328  0018                     _RCSTA	set	24
   329  006C                     _TMRAIF	set	108
   330  0060                     _TMR1IF	set	96
   331  0080                     _TMR1ON	set	128
   332  0082                     _T1SYNC	set	130
   333  0085                     _T1CKPS1	set	133
   334  0084                     _T1CKPS0	set	132
   335  0086                     _TMRCS0	set	134
   336  0087                     _TMRCS1	set	135
   337  0083                     _T1OSCEN	set	131
   338  00F9                     _GO_nDONE	set	249
   339  009D                     _FVRCON	set	157
   340  009F                     _ADCON1	set	159
   341  0088                     _TRISD	set	136
   342  0085                     _TRISA	set	133
   343  0090                     _OSCCON	set	144
   344  0086                     _TRISB	set	134
   345  0095                     _WPUB	set	149
   346  0098                     _TXSTA	set	152
   347  0099                     _SPBRG	set	153
   348  0087                     _TRISC	set	135
   349  0460                     _TMR1IE	set	1120
   350  047F                     _TMR1GE	set	1151
   351  0110                     _TMRA	set	272
   352  0114                     _DACCON1	set	276
   353  0113                     _DACCON0	set	275
   354  0185                     _ANSELA	set	389
   355  0188                     _ANSELD	set	392
   356  0186                     _ANSELB	set	390
   357                           
   358                           	psect	strings
   359  0800                     __pstrings:
   360  0800                     stringtab:
   361  0800                     __stringtab:
   362  0800                     stringcode:	
   363                           ;	String table - string pointers are 1 byte each
   364                           
   365  0800                     stringdir:
   366  0800  3008               	movlw	high stringdir
   367  0801  008A               	movwf	10
   368  0802  0804               	movf	4,w
   369  0803  0A84               	incf	4,f
   370  0804  0782               	addwf	2,f
   371  0805                     __stringbase:
   372  0805  3400               	retlw	0
   373  0806                     __end_of__stringtab:
   374  0806                     STR_3:
   375  0806  3476               	retlw	118	;'v'
   376  0807  3461               	retlw	97	;'a'
   377  0808  346C               	retlw	108	;'l'
   378  0809  3465               	retlw	101	;'e'
   379  080A  3475               	retlw	117	;'u'
   380  080B  3472               	retlw	114	;'r'
   381  080C  3420               	retlw	32	;' '
   382  080D  3454               	retlw	84	;'T'
   383  080E  3465               	retlw	101	;'e'
   384  080F  346E               	retlw	110	;'n'
   385  0810  3473               	retlw	115	;'s'
   386  0811  3469               	retlw	105	;'i'
   387  0812  346F               	retlw	111	;'o'
   388  0813  346E               	retlw	110	;'n'
   389  0814  3420               	retlw	32	;' '
   390  0815  3400               	retlw	0
   391  0816                     STR_1:
   392  0816  3476               	retlw	118	;'v'
   393  0817  3461               	retlw	97	;'a'
   394  0818  346C               	retlw	108	;'l'
   395  0819  3465               	retlw	101	;'e'
   396  081A  3475               	retlw	117	;'u'
   397  081B  3472               	retlw	114	;'r'
   398  081C  3420               	retlw	32	;' '
   399  081D  3443               	retlw	67	;'C'
   400  081E  3461               	retlw	97	;'a'
   401  081F  3470               	retlw	112	;'p'
   402  0820  3474               	retlw	116	;'t'
   403  0821  3465               	retlw	101	;'e'
   404  0822  3475               	retlw	117	;'u'
   405  0823  3472               	retlw	114	;'r'
   406  0824  3420               	retlw	32	;' '
   407  0825  3400               	retlw	0
   408  0826                     STR_2:
   409  0826  340A               	retlw	10
   410  0827  3400               	retlw	0
   411  0826                     
   412                           	psect	cinit
   413  000F                     start_initialization:	
   414                           ; #config settings
   415                           
   416  000F                     __initialization:
   417                           
   418                           ; Clear objects allocated to BANK0
   419  000F  1283               	bcf	3,5	;RP0=0, select bank0
   420  0010  1303               	bcf	3,6	;RP1=0, select bank0
   421  0011  01EC               	clrf	__pbssBANK0& (0+127)
   422  0012                     end_of_initialization:	
   423                           ;End of C runtime variable initialization code
   424                           
   425  0012                     __end_of__initialization:
   426  0012  0183               	clrf	3
   427  0013  120A  118A  2F14   	ljmp	_main	;jump to C main() function
   428                           
   429                           	psect	bssBANK0
   430  006C                     __pbssBANK0:
   431  006C                     _Fincompt1:
   432  006C                     	ds	1
   433                           
   434                           	psect	cstackCOMMON
   435  0070                     __pcstackCOMMON:
   436  0070                     ?_PORT_Init:
   437  0070                     ?_TIMER_init_timer1:	
   438                           ; 1 bytes @ 0x0
   439                           
   440  0070                     ?_PORT_Select_Mux1:	
   441                           ; 1 bytes @ 0x0
   442                           
   443  0070                     ?_PORT_Init_Gain:	
   444                           ; 1 bytes @ 0x0
   445                           
   446  0070                     ?_PORT_Blink_LED:	
   447                           ; 1 bytes @ 0x0
   448                           
   449  0070                     ?_ADC_GetValue:	
   450                           ; 1 bytes @ 0x0
   451                           
   452  0070                     ?_PORT_putString:	
   453                           ; 1 bytes @ 0x0
   454                           
   455  0070                     ?_PORT_putchar:	
   456                           ; 1 bytes @ 0x0
   457                           
   458  0070                     ?_PORT_Choose_Mux:	
   459                           ; 1 bytes @ 0x0
   460                           
   461  0070                     ?_PORT_Start_ADC:	
   462                           ; 1 bytes @ 0x0
   463                           
   464  0070                     ?_PORT_Get_Value_Adc:	
   465                           ; 1 bytes @ 0x0
   466                           
   467  0070                     ?_main:	
   468                           ; 1 bytes @ 0x0
   469                           
   470  0070                     ?_PORT_Init_Serial:	
   471                           ; 1 bytes @ 0x0
   472                           
   473  0070                     ?_isr:	
   474                           ; 1 bytes @ 0x0
   475                           
   476  0070                     ??_isr:	
   477                           ; 1 bytes @ 0x0
   478                           
   479                           
   480                           ; 1 bytes @ 0x0
   481  0070                     	ds	2
   482  0072                     ??_PORT_Init:
   483  0072                     ??_TIMER_init_timer1:	
   484                           ; 1 bytes @ 0x2
   485                           
   486  0072                     ??_PORT_Select_Mux1:	
   487                           ; 1 bytes @ 0x2
   488                           
   489  0072                     ??_PORT_Init_Gain:	
   490                           ; 1 bytes @ 0x2
   491                           
   492  0072                     ??_PORT_Blink_LED:	
   493                           ; 1 bytes @ 0x2
   494                           
   495  0072                     ??_PORT_putchar:	
   496                           ; 1 bytes @ 0x2
   497                           
   498  0072                     ??_PORT_Choose_Mux:	
   499                           ; 1 bytes @ 0x2
   500                           
   501  0072                     ??_PORT_Start_ADC:	
   502                           ; 1 bytes @ 0x2
   503                           
   504  0072                     ??_PORT_Get_Value_Adc:	
   505                           ; 1 bytes @ 0x2
   506                           
   507  0072                     ??_PORT_Init_Serial:	
   508                           ; 1 bytes @ 0x2
   509                           
   510  0072                     ?__Umul8_16:	
   511                           ; 1 bytes @ 0x2
   512                           
   513  0072                     ?___awdiv:	
   514                           ; 2 bytes @ 0x2
   515                           
   516  0072                     ?___awmod:	
   517                           ; 2 bytes @ 0x2
   518                           
   519  0072                     ?___lwdiv:	
   520                           ; 2 bytes @ 0x2
   521                           
   522  0072                     ?___lwmod:	
   523                           ; 2 bytes @ 0x2
   524                           
   525  0072                     ?___fltol:	
   526                           ; 2 bytes @ 0x2
   527                           
   528  0072                     ?___xxtofl:	
   529                           ; 4 bytes @ 0x2
   530                           
   531  0072                     PORT_Choose_Mux@_value:	
   532                           ; 4 bytes @ 0x2
   533                           
   534  0072                     PORT_putchar@c:	
   535                           ; 1 bytes @ 0x2
   536                           
   537  0072                     __Umul8_16@multiplicand:	
   538                           ; 1 bytes @ 0x2
   539                           
   540  0072                     ___awdiv@divisor:	
   541                           ; 1 bytes @ 0x2
   542                           
   543  0072                     ___awmod@divisor:	
   544                           ; 2 bytes @ 0x2
   545                           
   546  0072                     ___lwdiv@divisor:	
   547                           ; 2 bytes @ 0x2
   548                           
   549  0072                     ___lwmod@divisor:	
   550                           ; 2 bytes @ 0x2
   551                           
   552  0072                     ___fltol@f1:	
   553                           ; 2 bytes @ 0x2
   554                           
   555  0072                     ___xxtofl@val:	
   556                           ; 4 bytes @ 0x2
   557                           
   558                           
   559                           ; 4 bytes @ 0x2
   560  0072                     	ds	1
   561  0073                     ??_ADC_GetValue:
   562  0073                     ??_PORT_putString:	
   563                           ; 1 bytes @ 0x3
   564                           
   565  0073                     ADC_GetValue@channel:	
   566                           ; 1 bytes @ 0x3
   567                           
   568  0073                     PORT_putString@i:	
   569                           ; 1 bytes @ 0x3
   570                           
   571                           
   572                           ; 2 bytes @ 0x3
   573  0073                     	ds	1
   574  0074                     ??__Umul8_16:
   575  0074                     ___awdiv@dividend:	
   576                           ; 1 bytes @ 0x4
   577                           
   578  0074                     ___awmod@dividend:	
   579                           ; 2 bytes @ 0x4
   580                           
   581  0074                     ___lwdiv@dividend:	
   582                           ; 2 bytes @ 0x4
   583                           
   584  0074                     ___lwmod@dividend:	
   585                           ; 2 bytes @ 0x4
   586                           
   587                           
   588                           ; 2 bytes @ 0x4
   589  0074                     	ds	1
   590  0075                     PORT_putString@chaine:
   591                           
   592                           ; 1 bytes @ 0x5
   593  0075                     	ds	1
   594  0076                     ??___awdiv:
   595  0076                     ??___awmod:	
   596                           ; 1 bytes @ 0x6
   597                           
   598  0076                     ??___fltol:	
   599                           ; 1 bytes @ 0x6
   600                           
   601  0076                     ??___lwdiv:	
   602                           ; 1 bytes @ 0x6
   603                           
   604  0076                     ??___lwmod:	
   605                           ; 1 bytes @ 0x6
   606                           
   607  0076                     ??___xxtofl:	
   608                           ; 1 bytes @ 0x6
   609                           
   610  0076                     ___awdiv@counter:	
   611                           ; 1 bytes @ 0x6
   612                           
   613  0076                     ___awmod@counter:	
   614                           ; 1 bytes @ 0x6
   615                           
   616  0076                     ___lwmod@counter:	
   617                           ; 1 bytes @ 0x6
   618                           
   619  0076                     ___lwdiv@quotient:	
   620                           ; 1 bytes @ 0x6
   621                           
   622  0076                     __Umul8_16@product:	
   623                           ; 2 bytes @ 0x6
   624                           
   625                           
   626                           ; 2 bytes @ 0x6
   627  0076                     	ds	1
   628  0077                     ___awdiv@sign:
   629  0077                     ___awmod@sign:	
   630                           ; 1 bytes @ 0x7
   631                           
   632                           
   633                           ; 1 bytes @ 0x7
   634  0077                     	ds	1
   635  0078                     ___lwdiv@counter:
   636  0078                     ___awdiv@quotient:	
   637                           ; 1 bytes @ 0x8
   638                           
   639  0078                     __Umul8_16@word_mpld:	
   640                           ; 2 bytes @ 0x8
   641                           
   642                           
   643                           ; 2 bytes @ 0x8
   644  0078                     	ds	2
   645  007A                     ?_Affichage_brut:
   646  007A                     ___fltol@sign1:	
   647                           ; 1 bytes @ 0xA
   648                           
   649  007A                     __Umul8_16@multiplier:	
   650                           ; 1 bytes @ 0xA
   651                           
   652  007A                     Affichage_brut@valeur_a_afficher:	
   653                           ; 1 bytes @ 0xA
   654                           
   655                           
   656                           ; 2 bytes @ 0xA
   657  007A                     	ds	1
   658  007B                     Voltage_Value@sensor:
   659  007B                     ___fltol@exp1:	
   660                           ; 1 bytes @ 0xB
   661                           
   662                           
   663                           ; 1 bytes @ 0xB
   664  007B                     	ds	1
   665  007C                     ??_puts_float:
   666                           
   667                           	psect	cstackBANK0
   668  0020                     __pcstackBANK0:	
   669                           ; 1 bytes @ 0xC
   670                           
   671  0020                     ??_Affichage_brut:
   672  0020                     ___xxtofl@sign:	
   673                           ; 1 bytes @ 0x0
   674                           
   675                           
   676                           ; 1 bytes @ 0x0
   677  0020                     	ds	1
   678  0021                     ___xxtofl@exp:
   679                           
   680                           ; 1 bytes @ 0x1
   681  0021                     	ds	1
   682  0022                     Affichage_brut@affiche:
   683  0022                     ___xxtofl@arg:	
   684                           ; 1 bytes @ 0x2
   685                           
   686                           
   687                           ; 4 bytes @ 0x2
   688  0022                     	ds	1
   689  0023                     Affichage_brut@valueMetrics:
   690                           
   691                           ; 6 bytes @ 0x3
   692  0023                     	ds	3
   693  0026                     ?___flmul:
   694  0026                     ___flmul@b:	
   695                           ; 4 bytes @ 0x6
   696                           
   697                           
   698                           ; 4 bytes @ 0x6
   699  0026                     	ds	4
   700  002A                     ___flmul@a:
   701                           
   702                           ; 4 bytes @ 0xA
   703  002A                     	ds	4
   704  002E                     ??___flmul:
   705                           
   706                           ; 1 bytes @ 0xE
   707  002E                     	ds	5
   708  0033                     ___flmul@sign:
   709                           
   710                           ; 1 bytes @ 0x13
   711  0033                     	ds	1
   712  0034                     ___flmul@grs:
   713                           
   714                           ; 4 bytes @ 0x14
   715  0034                     	ds	4
   716  0038                     ___flmul@aexp:
   717                           
   718                           ; 1 bytes @ 0x18
   719  0038                     	ds	1
   720  0039                     ___flmul@bexp:
   721                           
   722                           ; 1 bytes @ 0x19
   723  0039                     	ds	1
   724  003A                     ___flmul@prod:
   725                           
   726                           ; 4 bytes @ 0x1A
   727  003A                     	ds	4
   728  003E                     ___flmul@temp:
   729                           
   730                           ; 2 bytes @ 0x1E
   731  003E                     	ds	2
   732  0040                     ?_puts_float:
   733  0040                     ?___fldiv:	
   734                           ; 1 bytes @ 0x20
   735                           
   736  0040                     puts_float@Valeur:	
   737                           ; 4 bytes @ 0x20
   738                           
   739  0040                     ___fldiv@a:	
   740                           ; 4 bytes @ 0x20
   741                           
   742                           
   743                           ; 4 bytes @ 0x20
   744  0040                     	ds	4
   745  0044                     puts_float@affiche:
   746  0044                     ___fldiv@b:	
   747                           ; 2 bytes @ 0x24
   748                           
   749                           
   750                           ; 4 bytes @ 0x24
   751  0044                     	ds	2
   752  0046                     puts_float@valueMetrics:
   753                           
   754                           ; 6 bytes @ 0x26
   755  0046                     	ds	2
   756  0048                     ??___fldiv:
   757                           
   758                           ; 1 bytes @ 0x28
   759  0048                     	ds	5
   760  004D                     ___fldiv@rem:
   761                           
   762                           ; 4 bytes @ 0x2D
   763  004D                     	ds	4
   764  0051                     ___fldiv@sign:
   765                           
   766                           ; 1 bytes @ 0x31
   767  0051                     	ds	1
   768  0052                     ___fldiv@new_exp:
   769                           
   770                           ; 2 bytes @ 0x32
   771  0052                     	ds	2
   772  0054                     ___fldiv@grs:
   773                           
   774                           ; 4 bytes @ 0x34
   775  0054                     	ds	4
   776  0058                     ___fldiv@bexp:
   777                           
   778                           ; 1 bytes @ 0x38
   779  0058                     	ds	1
   780  0059                     ___fldiv@aexp:
   781                           
   782                           ; 1 bytes @ 0x39
   783  0059                     	ds	1
   784  005A                     ?_Voltage_Value:
   785                           
   786                           ; 4 bytes @ 0x3A
   787  005A                     	ds	4
   788  005E                     ??_Voltage_Value:
   789                           
   790                           ; 1 bytes @ 0x3E
   791  005E                     	ds	4
   792  0062                     ??_main:
   793                           
   794                           ; 1 bytes @ 0x42
   795  0062                     	ds	5
   796  0067                     main@Vs:
   797                           
   798                           ; 4 bytes @ 0x47
   799  0067                     	ds	4
   800  006B                     main@sensor1:
   801                           
   802                           ; 1 bytes @ 0x4B
   803  006B                     	ds	1
   804                           
   805                           	psect	maintext
   806  0714                     __pmaintext:	
   807 ;;
   808 ;;Main: autosize = 0, tempsize = 2, incstack = 0, save=0
   809 ;;
   810 ;; *************** function _main *****************
   811 ;; Defined at:
   812 ;;		line 23 in file "main.c"
   813 ;; Parameters:    Size  Location     Type
   814 ;;		None
   815 ;; Auto vars:     Size  Location     Type
   816 ;;  Vs              4   71[BANK0 ] float 
   817 ;;  F               4    0        float 
   818 ;;  Rc              4    0        float 
   819 ;;  sensor1         1   75[BANK0 ] unsigned char 
   820 ;;  sensor4         1    0        unsigned char 
   821 ;;  sensor3         1    0        unsigned char 
   822 ;;  sensor2         1    0        unsigned char 
   823 ;; Return value:  Size  Location     Type
   824 ;;                  1    wreg      void 
   825 ;; Registers used:
   826 ;;		wreg, fsr0l, fsr0h, status,2, status,0, btemp+1, pclath, cstack
   827 ;; Tracked objects:
   828 ;;		On entry : B00/0
   829 ;;		On exit  : 0/0
   830 ;;		Unchanged: 0/0
   831 ;; Data sizes:     COMMON   BANK0   BANK1   BANK3   BANK2
   832 ;;      Params:         0       0       0       0       0
   833 ;;      Locals:         0       8       0       0       0
   834 ;;      Temps:          0       2       0       0       0
   835 ;;      Totals:         0      10       0       0       0
   836 ;;Total ram usage:       10 bytes
   837 ;; Hardware stack levels required when called:    4
   838 ;; This function calls:
   839 ;;		_ADC_GetValue
   840 ;;		_Affichage_brut
   841 ;;		_PORT_Blink_LED
   842 ;;		_PORT_Init
   843 ;;		_PORT_Init_Gain
   844 ;;		_PORT_Select_Mux1
   845 ;;		_PORT_putString
   846 ;;		_TIMER_init_timer1
   847 ;;		_Voltage_Value
   848 ;;		_puts_float
   849 ;; This function is called by:
   850 ;;		Startup code after reset
   851 ;; This function uses a non-reentrant model
   852 ;;
   853                           
   854                           
   855                           ;psect for function _main
   856  0714                     _main:
   857  0714                     l2081:	
   858                           ;incstack = 0
   859                           ; Regs used in _main: [wreg-fsr0h+status,2+status,0+btemp+1+pclath+cstack]
   860                           
   861                           
   862                           ;main.c: 25:     unsigned char sensor1, sensor2, sensor3, sensor4;;main.c: 27:     float
      +                           Rc,Vs,F;;main.c: 29:     PORT_Init();
   863  0714  120A  158A  259D  120A  118A  	fcall	_PORT_Init
   864                           
   865                           ;main.c: 30:     TIMER_init_timer1();
   866  0719  120A  158A  24FF  120A  118A  	fcall	_TIMER_init_timer1
   867  071E                     l2083:
   868                           
   869                           ;main.c: 32:     PORT_Select_Mux1();
   870  071E  120A  118A  27F6  120A  118A  	fcall	_PORT_Select_Mux1
   871  0723                     l2085:
   872                           
   873                           ;main.c: 33:     PORT_Init_Gain();
   874  0723  120A  158A  24B2  120A  118A  	fcall	_PORT_Init_Gain
   875  0728                     l2087:
   876  0728  1283               	bcf	3,5	;RP0=0, select bank0
   877  0729  1303               	bcf	3,6	;RP1=0, select bank0
   878  072A  086C               	movf	_Fincompt1,w
   879  072B  1D03               	btfss	3,2
   880  072C  2F2E               	goto	u2681
   881  072D  2F2F               	goto	u2680
   882  072E                     u2681:
   883  072E  2F28               	goto	l2087
   884  072F                     u2680:
   885  072F                     l2089:
   886                           
   887                           ;main.c: 38:         Fincompt1 = 0;
   888  072F  01EC               	clrf	_Fincompt1
   889  0730                     l2091:
   890                           
   891                           ;main.c: 39:         PORT_Blink_LED();
   892  0730  120A  158A  24CB  120A  118A  	fcall	_PORT_Blink_LED
   893  0735                     l2093:
   894                           
   895                           ;main.c: 41:         sensor1 = ADC_GetValue(0);
   896  0735  3000               	movlw	0
   897  0736  120A  158A  24ED  120A  118A  	fcall	_ADC_GetValue
   898  073B  00FF               	movwf	btemp+1
   899  073C  087F               	movf	btemp+1,w
   900  073D  1283               	bcf	3,5	;RP0=0, select bank0
   901  073E  1303               	bcf	3,6	;RP1=0, select bank0
   902  073F  00EB               	movwf	main@sensor1
   903  0740                     l2095:
   904  0740  3001               	movlw	1
   905  0741  120A  158A  24ED  120A  118A  	fcall	_ADC_GetValue
   906  0746                     l2097:
   907  0746  3002               	movlw	2
   908  0747  120A  158A  24ED  120A  118A  	fcall	_ADC_GetValue
   909  074C                     l2099:
   910  074C  3003               	movlw	3
   911  074D  120A  158A  24ED  120A  118A  	fcall	_ADC_GetValue
   912  0752                     l2101:
   913                           
   914                           ;main.c: 49:         PORT_putString("valeur Capteur ");
   915  0752  3011               	movlw	(low ((STR_1-__stringbase)| (0+32768)))& (0+255)
   916  0753  120A  158A  2526  120A  118A  	fcall	_PORT_putString
   917  0758                     l2103:
   918                           
   919                           ;main.c: 50:         Affichage_brut(sensor1);
   920  0758  1283               	bcf	3,5	;RP0=0, select bank0
   921  0759  1303               	bcf	3,6	;RP1=0, select bank0
   922  075A  086B               	movf	main@sensor1,w
   923  075B  00E2               	movwf	??_main
   924  075C  01E3               	clrf	??_main+1
   925  075D  0862               	movf	??_main,w
   926  075E  00FA               	movwf	Affichage_brut@valeur_a_afficher
   927  075F  0863               	movf	??_main+1,w
   928  0760  00FB               	movwf	Affichage_brut@valeur_a_afficher+1
   929  0761  120A  158A  2784  120A  118A  	fcall	_Affichage_brut
   930  0766                     l2105:
   931                           
   932                           ;main.c: 51:         PORT_putString("\n");
   933  0766  3021               	movlw	(low ((STR_2-__stringbase)| (0+32768)))& (0+255)
   934  0767  120A  158A  2526  120A  118A  	fcall	_PORT_putString
   935  076C                     l2107:
   936                           
   937                           ;main.c: 55:         Vs = Voltage_Value(sensor1);
   938  076C  1283               	bcf	3,5	;RP0=0, select bank0
   939  076D  1303               	bcf	3,6	;RP1=0, select bank0
   940  076E  086B               	movf	main@sensor1,w
   941  076F  120A  158A  2654  120A  118A  	fcall	_Voltage_Value
   942  0774  1283               	bcf	3,5	;RP0=0, select bank0
   943  0775  1303               	bcf	3,6	;RP1=0, select bank0
   944  0776  085D               	movf	?_Voltage_Value+3,w
   945  0777  00EA               	movwf	main@Vs+3
   946  0778  085C               	movf	?_Voltage_Value+2,w
   947  0779  00E9               	movwf	main@Vs+2
   948  077A  085B               	movf	?_Voltage_Value+1,w
   949  077B  00E8               	movwf	main@Vs+1
   950  077C  085A               	movf	?_Voltage_Value,w
   951  077D  00E7               	movwf	main@Vs
   952  077E                     l2109:
   953                           
   954                           ;main.c: 57:         PORT_putString("valeur Tension ");
   955  077E  3001               	movlw	(low ((STR_3-__stringbase)| (0+32768)))& (0+255)
   956  077F  120A  158A  2526  120A  118A  	fcall	_PORT_putString
   957  0784                     l2111:
   958                           
   959                           ;main.c: 58:         puts_float(Vs);
   960  0784  1283               	bcf	3,5	;RP0=0, select bank0
   961  0785  1303               	bcf	3,6	;RP1=0, select bank0
   962  0786  086A               	movf	main@Vs+3,w
   963  0787  00C3               	movwf	puts_float@Valeur+3
   964  0788  0869               	movf	main@Vs+2,w
   965  0789  00C2               	movwf	puts_float@Valeur+2
   966  078A  0868               	movf	main@Vs+1,w
   967  078B  00C1               	movwf	puts_float@Valeur+1
   968  078C  0867               	movf	main@Vs,w
   969  078D  00C0               	movwf	puts_float@Valeur
   970  078E  120A  118A  2554  120A  118A  	fcall	_puts_float
   971  0793                     l2113:
   972                           
   973                           ;main.c: 59:         PORT_putString("\n");
   974  0793  3021               	movlw	(low ((STR_2-__stringbase)| (0+32768)))& (0+255)
   975  0794  120A  158A  2526  120A  118A  	fcall	_PORT_putString
   976  0799  2F28               	goto	l2087
   977  079A  120A  118A  280C   	ljmp	start
   978  079D                     __end_of_main:
   979                           
   980                           	psect	text1
   981  0554                     __ptext1:	
   982 ;; *************** function _puts_float *****************
   983 ;; Defined at:
   984 ;;		line 104 in file "main.c"
   985 ;; Parameters:    Size  Location     Type
   986 ;;  Valeur          4   32[BANK0 ] float 
   987 ;; Auto vars:     Size  Location     Type
   988 ;;  valueMetrics    6   38[BANK0 ] struct .
   989 ;;  affiche         2   36[BANK0 ] unsigned int 
   990 ;; Return value:  Size  Location     Type
   991 ;;                  1    wreg      void 
   992 ;; Registers used:
   993 ;;		wreg, status,2, status,0, btemp+1, pclath, cstack
   994 ;; Tracked objects:
   995 ;;		On entry : 0/0
   996 ;;		On exit  : 0/0
   997 ;;		Unchanged: 0/0
   998 ;; Data sizes:     COMMON   BANK0   BANK1   BANK3   BANK2
   999 ;;      Params:         0       4       0       0       0
  1000 ;;      Locals:         0       8       0       0       0
  1001 ;;      Temps:          0       0       0       0       0
  1002 ;;      Totals:         0      12       0       0       0
  1003 ;;Total ram usage:       12 bytes
  1004 ;; Hardware stack levels used:    1
  1005 ;; Hardware stack levels required when called:    3
  1006 ;; This function calls:
  1007 ;;		_PORT_putchar
  1008 ;;		___flmul
  1009 ;;		___fltol
  1010 ;;		___lwdiv
  1011 ;;		___lwmod
  1012 ;; This function is called by:
  1013 ;;		_main
  1014 ;; This function uses a non-reentrant model
  1015 ;;
  1016                           
  1017                           
  1018                           ;psect for function _puts_float
  1019  0554                     _puts_float:
  1020  0554                     l2059:	
  1021                           ;incstack = 0
  1022                           ; Regs used in _puts_float: [wreg+status,2+status,0+btemp+1+pclath+cstack]
  1023                           
  1024                           
  1025                           ;main.c: 106:     unsigned int affiche;;main.c: 107:     ValueMetrics valueMetrics;;main
      +                          .c: 109:     Valeur = Valeur * 1000;
  1026  0554  3044               	movlw	68
  1027  0555  1283               	bcf	3,5	;RP0=0, select bank0
  1028  0556  1303               	bcf	3,6	;RP1=0, select bank0
  1029  0557  00A9               	movwf	___flmul@b+3
  1030  0558  307A               	movlw	122
  1031  0559  00A8               	movwf	___flmul@b+2
  1032  055A  3000               	movlw	0
  1033  055B  00A7               	movwf	___flmul@b+1
  1034  055C  3000               	movlw	0
  1035  055D  00A6               	movwf	___flmul@b
  1036  055E  0843               	movf	puts_float@Valeur+3,w
  1037  055F  00AD               	movwf	___flmul@a+3
  1038  0560  0842               	movf	puts_float@Valeur+2,w
  1039  0561  00AC               	movwf	___flmul@a+2
  1040  0562  0841               	movf	puts_float@Valeur+1,w
  1041  0563  00AB               	movwf	___flmul@a+1
  1042  0564  0840               	movf	puts_float@Valeur,w
  1043  0565  00AA               	movwf	___flmul@a
  1044  0566  120A  118A  2016  120A  118A  	fcall	___flmul
  1045  056B  1283               	bcf	3,5	;RP0=0, select bank0
  1046  056C  1303               	bcf	3,6	;RP1=0, select bank0
  1047  056D  0829               	movf	?___flmul+3,w
  1048  056E  00C3               	movwf	puts_float@Valeur+3
  1049  056F  0828               	movf	?___flmul+2,w
  1050  0570  00C2               	movwf	puts_float@Valeur+2
  1051  0571  0827               	movf	?___flmul+1,w
  1052  0572  00C1               	movwf	puts_float@Valeur+1
  1053  0573  0826               	movf	?___flmul,w
  1054  0574  00C0               	movwf	puts_float@Valeur
  1055                           
  1056                           ;main.c: 110:     affiche = (int) Valeur ;
  1057  0575  0843               	movf	puts_float@Valeur+3,w
  1058  0576  00F5               	movwf	___fltol@f1+3
  1059  0577  0842               	movf	puts_float@Valeur+2,w
  1060  0578  00F4               	movwf	___fltol@f1+2
  1061  0579  0841               	movf	puts_float@Valeur+1,w
  1062  057A  00F3               	movwf	___fltol@f1+1
  1063  057B  0840               	movf	puts_float@Valeur,w
  1064  057C  00F2               	movwf	___fltol@f1
  1065  057D  120A  158A  270A  120A  118A  	fcall	___fltol
  1066  0582  0873               	movf	?___fltol+1,w
  1067  0583  1283               	bcf	3,5	;RP0=0, select bank0
  1068  0584  1303               	bcf	3,6	;RP1=0, select bank0
  1069  0585  00C5               	movwf	puts_float@affiche+1
  1070  0586  0872               	movf	?___fltol,w
  1071  0587  00C4               	movwf	puts_float@affiche
  1072                           
  1073                           ;main.c: 116:     valueMetrics.cent = ((char)(affiche/10000))+0x30;
  1074  0588  3010               	movlw	16
  1075  0589  00F2               	movwf	___lwdiv@divisor
  1076  058A  3027               	movlw	39
  1077  058B  00F3               	movwf	___lwdiv@divisor+1
  1078  058C  0845               	movf	puts_float@affiche+1,w
  1079  058D  00F5               	movwf	___lwdiv@dividend+1
  1080  058E  0844               	movf	puts_float@affiche,w
  1081  058F  00F4               	movwf	___lwdiv@dividend
  1082  0590  120A  158A  2610  120A  118A  	fcall	___lwdiv
  1083  0595  0872               	movf	?___lwdiv,w
  1084  0596  3E30               	addlw	48
  1085  0597  00FF               	movwf	btemp+1
  1086  0598  087F               	movf	btemp+1,w
  1087  0599  1283               	bcf	3,5	;RP0=0, select bank0
  1088  059A  1303               	bcf	3,6	;RP1=0, select bank0
  1089  059B  00C7               	movwf	puts_float@valueMetrics+1
  1090  059C                     l2061:
  1091                           
  1092                           ;main.c: 117:     PORT_putchar(valueMetrics.cent);
  1093  059C  0847               	movf	puts_float@valueMetrics+1,w
  1094  059D  120A  158A  24BF  120A  118A  	fcall	_PORT_putchar
  1095  05A2                     l2063:
  1096                           
  1097                           ;main.c: 118:     affiche = affiche % 10000 ;
  1098  05A2  3010               	movlw	16
  1099  05A3  00F2               	movwf	___lwmod@divisor
  1100  05A4  3027               	movlw	39
  1101  05A5  00F3               	movwf	___lwmod@divisor+1
  1102  05A6  1283               	bcf	3,5	;RP0=0, select bank0
  1103  05A7  1303               	bcf	3,6	;RP1=0, select bank0
  1104  05A8  0845               	movf	puts_float@affiche+1,w
  1105  05A9  00F5               	movwf	___lwmod@dividend+1
  1106  05AA  0844               	movf	puts_float@affiche,w
  1107  05AB  00F4               	movwf	___lwmod@dividend
  1108  05AC  120A  158A  25D6  120A  118A  	fcall	___lwmod
  1109  05B1  0873               	movf	?___lwmod+1,w
  1110  05B2  1283               	bcf	3,5	;RP0=0, select bank0
  1111  05B3  1303               	bcf	3,6	;RP1=0, select bank0
  1112  05B4  00C5               	movwf	puts_float@affiche+1
  1113  05B5  0872               	movf	?___lwmod,w
  1114  05B6  00C4               	movwf	puts_float@affiche
  1115  05B7                     l2065:
  1116                           
  1117                           ;main.c: 119:     valueMetrics.diz = ((char)(affiche/1000))+0x30;
  1118  05B7  30E8               	movlw	232
  1119  05B8  00F2               	movwf	___lwdiv@divisor
  1120  05B9  3003               	movlw	3
  1121  05BA  00F3               	movwf	___lwdiv@divisor+1
  1122  05BB  0845               	movf	puts_float@affiche+1,w
  1123  05BC  00F5               	movwf	___lwdiv@dividend+1
  1124  05BD  0844               	movf	puts_float@affiche,w
  1125  05BE  00F4               	movwf	___lwdiv@dividend
  1126  05BF  120A  158A  2610  120A  118A  	fcall	___lwdiv
  1127  05C4  0872               	movf	?___lwdiv,w
  1128  05C5  3E30               	addlw	48
  1129  05C6  00FF               	movwf	btemp+1
  1130  05C7  087F               	movf	btemp+1,w
  1131  05C8  1283               	bcf	3,5	;RP0=0, select bank0
  1132  05C9  1303               	bcf	3,6	;RP1=0, select bank0
  1133  05CA  00C8               	movwf	puts_float@valueMetrics+2
  1134  05CB                     l2067:
  1135                           
  1136                           ;main.c: 120:     PORT_putchar(valueMetrics.diz);
  1137  05CB  0848               	movf	puts_float@valueMetrics+2,w
  1138  05CC  120A  158A  24BF  120A  118A  	fcall	_PORT_putchar
  1139                           
  1140                           ;main.c: 121:     affiche = affiche % 1000 ;
  1141  05D1  30E8               	movlw	232
  1142  05D2  00F2               	movwf	___lwmod@divisor
  1143  05D3  3003               	movlw	3
  1144  05D4  00F3               	movwf	___lwmod@divisor+1
  1145  05D5  1283               	bcf	3,5	;RP0=0, select bank0
  1146  05D6  1303               	bcf	3,6	;RP1=0, select bank0
  1147  05D7  0845               	movf	puts_float@affiche+1,w
  1148  05D8  00F5               	movwf	___lwmod@dividend+1
  1149  05D9  0844               	movf	puts_float@affiche,w
  1150  05DA  00F4               	movwf	___lwmod@dividend
  1151  05DB  120A  158A  25D6  120A  118A  	fcall	___lwmod
  1152  05E0  0873               	movf	?___lwmod+1,w
  1153  05E1  1283               	bcf	3,5	;RP0=0, select bank0
  1154  05E2  1303               	bcf	3,6	;RP1=0, select bank0
  1155  05E3  00C5               	movwf	puts_float@affiche+1
  1156  05E4  0872               	movf	?___lwmod,w
  1157  05E5  00C4               	movwf	puts_float@affiche
  1158                           
  1159                           ;main.c: 122:     valueMetrics.unit = ((char)(affiche/100))+0x30;
  1160  05E6  3064               	movlw	100
  1161  05E7  00F2               	movwf	___lwdiv@divisor
  1162  05E8  3000               	movlw	0
  1163  05E9  00F3               	movwf	___lwdiv@divisor+1
  1164  05EA  0845               	movf	puts_float@affiche+1,w
  1165  05EB  00F5               	movwf	___lwdiv@dividend+1
  1166  05EC  0844               	movf	puts_float@affiche,w
  1167  05ED  00F4               	movwf	___lwdiv@dividend
  1168  05EE  120A  158A  2610  120A  118A  	fcall	___lwdiv
  1169  05F3  0872               	movf	?___lwdiv,w
  1170  05F4  3E30               	addlw	48
  1171  05F5  00FF               	movwf	btemp+1
  1172  05F6  087F               	movf	btemp+1,w
  1173  05F7  1283               	bcf	3,5	;RP0=0, select bank0
  1174  05F8  1303               	bcf	3,6	;RP1=0, select bank0
  1175  05F9  00C9               	movwf	puts_float@valueMetrics+3
  1176  05FA                     l2069:
  1177                           
  1178                           ;main.c: 123:     PORT_putchar('.');
  1179  05FA  302E               	movlw	46
  1180  05FB  120A  158A  24BF  120A  118A  	fcall	_PORT_putchar
  1181  0600                     l2071:
  1182                           
  1183                           ;main.c: 124:     PORT_putchar(valueMetrics.unit);
  1184  0600  1283               	bcf	3,5	;RP0=0, select bank0
  1185  0601  1303               	bcf	3,6	;RP1=0, select bank0
  1186  0602  0849               	movf	puts_float@valueMetrics+3,w
  1187  0603  120A  158A  24BF  120A  118A  	fcall	_PORT_putchar
  1188                           
  1189                           ;main.c: 126:     affiche = affiche % 100 ;
  1190  0608  3064               	movlw	100
  1191  0609  00F2               	movwf	___lwmod@divisor
  1192  060A  3000               	movlw	0
  1193  060B  00F3               	movwf	___lwmod@divisor+1
  1194  060C  1283               	bcf	3,5	;RP0=0, select bank0
  1195  060D  1303               	bcf	3,6	;RP1=0, select bank0
  1196  060E  0845               	movf	puts_float@affiche+1,w
  1197  060F  00F5               	movwf	___lwmod@dividend+1
  1198  0610  0844               	movf	puts_float@affiche,w
  1199  0611  00F4               	movwf	___lwmod@dividend
  1200  0612  120A  158A  25D6  120A  118A  	fcall	___lwmod
  1201  0617  0873               	movf	?___lwmod+1,w
  1202  0618  1283               	bcf	3,5	;RP0=0, select bank0
  1203  0619  1303               	bcf	3,6	;RP1=0, select bank0
  1204  061A  00C5               	movwf	puts_float@affiche+1
  1205  061B  0872               	movf	?___lwmod,w
  1206  061C  00C4               	movwf	puts_float@affiche
  1207                           
  1208                           ;main.c: 127:     valueMetrics.dizi = ((char)(affiche/10))+0x30;
  1209  061D  300A               	movlw	10
  1210  061E  00F2               	movwf	___lwdiv@divisor
  1211  061F  3000               	movlw	0
  1212  0620  00F3               	movwf	___lwdiv@divisor+1
  1213  0621  0845               	movf	puts_float@affiche+1,w
  1214  0622  00F5               	movwf	___lwdiv@dividend+1
  1215  0623  0844               	movf	puts_float@affiche,w
  1216  0624  00F4               	movwf	___lwdiv@dividend
  1217  0625  120A  158A  2610  120A  118A  	fcall	___lwdiv
  1218  062A  0872               	movf	?___lwdiv,w
  1219  062B  3E30               	addlw	48
  1220  062C  00FF               	movwf	btemp+1
  1221  062D  087F               	movf	btemp+1,w
  1222  062E  1283               	bcf	3,5	;RP0=0, select bank0
  1223  062F  1303               	bcf	3,6	;RP1=0, select bank0
  1224  0630  00CA               	movwf	puts_float@valueMetrics+4
  1225  0631                     l2073:
  1226                           
  1227                           ;main.c: 128:     PORT_putchar(valueMetrics.dizi);
  1228  0631  084A               	movf	puts_float@valueMetrics+4,w
  1229  0632  120A  158A  24BF  120A  118A  	fcall	_PORT_putchar
  1230  0637                     l2075:
  1231                           
  1232                           ;main.c: 129:     affiche = affiche % 10 ;
  1233  0637  300A               	movlw	10
  1234  0638  00F2               	movwf	___lwmod@divisor
  1235  0639  3000               	movlw	0
  1236  063A  00F3               	movwf	___lwmod@divisor+1
  1237  063B  1283               	bcf	3,5	;RP0=0, select bank0
  1238  063C  1303               	bcf	3,6	;RP1=0, select bank0
  1239  063D  0845               	movf	puts_float@affiche+1,w
  1240  063E  00F5               	movwf	___lwmod@dividend+1
  1241  063F  0844               	movf	puts_float@affiche,w
  1242  0640  00F4               	movwf	___lwmod@dividend
  1243  0641  120A  158A  25D6  120A  118A  	fcall	___lwmod
  1244  0646  0873               	movf	?___lwmod+1,w
  1245  0647  1283               	bcf	3,5	;RP0=0, select bank0
  1246  0648  1303               	bcf	3,6	;RP1=0, select bank0
  1247  0649  00C5               	movwf	puts_float@affiche+1
  1248  064A  0872               	movf	?___lwmod,w
  1249  064B  00C4               	movwf	puts_float@affiche
  1250  064C                     l2077:
  1251                           
  1252                           ;main.c: 130:     valueMetrics.centi = ((char)(affiche))+0x30;
  1253  064C  0844               	movf	puts_float@affiche,w
  1254  064D  3E30               	addlw	48
  1255  064E  00FF               	movwf	btemp+1
  1256  064F  087F               	movf	btemp+1,w
  1257  0650  00CB               	movwf	puts_float@valueMetrics+5
  1258  0651                     l2079:
  1259                           
  1260                           ;main.c: 131:     PORT_putchar(valueMetrics.centi);
  1261  0651  084B               	movf	puts_float@valueMetrics+5,w
  1262  0652  120A  158A  24BF  120A  118A  	fcall	_PORT_putchar
  1263  0657                     l41:
  1264  0657  0008               	return
  1265  0658                     __end_of_puts_float:
  1266                           
  1267                           	psect	text2
  1268  0DD6                     __ptext2:	
  1269 ;; *************** function ___lwmod *****************
  1270 ;; Defined at:
  1271 ;;		line 5 in file "C:\Program Files\Microchip\xc8\v2.20\pic\sources\c90\common\lwmod.c"
  1272 ;; Parameters:    Size  Location     Type
  1273 ;;  divisor         2    2[COMMON] unsigned int 
  1274 ;;  dividend        2    4[COMMON] unsigned int 
  1275 ;; Auto vars:     Size  Location     Type
  1276 ;;  counter         1    6[COMMON] unsigned char 
  1277 ;; Return value:  Size  Location     Type
  1278 ;;                  2    2[COMMON] unsigned int 
  1279 ;; Registers used:
  1280 ;;		wreg, status,2, status,0, btemp+1
  1281 ;; Tracked objects:
  1282 ;;		On entry : 0/0
  1283 ;;		On exit  : 0/0
  1284 ;;		Unchanged: 0/0
  1285 ;; Data sizes:     COMMON   BANK0   BANK1   BANK3   BANK2
  1286 ;;      Params:         4       0       0       0       0
  1287 ;;      Locals:         1       0       0       0       0
  1288 ;;      Temps:          0       0       0       0       0
  1289 ;;      Totals:         5       0       0       0       0
  1290 ;;Total ram usage:        5 bytes
  1291 ;; Hardware stack levels used:    1
  1292 ;; Hardware stack levels required when called:    1
  1293 ;; This function calls:
  1294 ;;		Nothing
  1295 ;; This function is called by:
  1296 ;;		_puts_float
  1297 ;; This function uses a non-reentrant model
  1298 ;;
  1299                           
  1300                           
  1301                           ;psect for function ___lwmod
  1302  0DD6                     ___lwmod:
  1303  0DD6                     l1605:	
  1304                           ;incstack = 0
  1305                           ; Regs used in ___lwmod: [wreg+status,2+status,0+btemp+1]
  1306                           
  1307  0DD6  0872               	movf	___lwmod@divisor,w
  1308  0DD7  0473               	iorwf	___lwmod@divisor+1,w
  1309  0DD8  1903               	btfsc	3,2
  1310  0DD9  2DDB               	goto	u1781
  1311  0DDA  2DDC               	goto	u1780
  1312  0DDB                     u1781:
  1313  0DDB  2E0B               	goto	l1623
  1314  0DDC                     u1780:
  1315  0DDC                     l1607:
  1316  0DDC  01F6               	clrf	___lwmod@counter
  1317  0DDD  0AF6               	incf	___lwmod@counter,f
  1318  0DDE  2DEA               	goto	l1613
  1319  0DDF                     l1609:
  1320  0DDF  3001               	movlw	1
  1321  0DE0                     u1795:
  1322  0DE0  1003               	clrc
  1323  0DE1  0DF2               	rlf	___lwmod@divisor,f
  1324  0DE2  0DF3               	rlf	___lwmod@divisor+1,f
  1325  0DE3  3EFF               	addlw	-1
  1326  0DE4  1D03               	skipz
  1327  0DE5  2DE0               	goto	u1795
  1328  0DE6                     l1611:
  1329  0DE6  3001               	movlw	1
  1330  0DE7  00FF               	movwf	btemp+1
  1331  0DE8  087F               	movf	btemp+1,w
  1332  0DE9  07F6               	addwf	___lwmod@counter,f
  1333  0DEA                     l1613:
  1334  0DEA  1FF3               	btfss	___lwmod@divisor+1,7
  1335  0DEB  2DED               	goto	u1801
  1336  0DEC  2DEE               	goto	u1800
  1337  0DED                     u1801:
  1338  0DED  2DDF               	goto	l1609
  1339  0DEE                     u1800:
  1340  0DEE                     l1615:
  1341  0DEE  0873               	movf	___lwmod@divisor+1,w
  1342  0DEF  0275               	subwf	___lwmod@dividend+1,w
  1343  0DF0  1D03               	skipz
  1344  0DF1  2DF4               	goto	u1815
  1345  0DF2  0872               	movf	___lwmod@divisor,w
  1346  0DF3  0274               	subwf	___lwmod@dividend,w
  1347  0DF4                     u1815:
  1348  0DF4  1C03               	skipc
  1349  0DF5  2DF7               	goto	u1811
  1350  0DF6  2DF8               	goto	u1810
  1351  0DF7                     u1811:
  1352  0DF7  2DFE               	goto	l1619
  1353  0DF8                     u1810:
  1354  0DF8                     l1617:
  1355  0DF8  0872               	movf	___lwmod@divisor,w
  1356  0DF9  02F4               	subwf	___lwmod@dividend,f
  1357  0DFA  0873               	movf	___lwmod@divisor+1,w
  1358  0DFB  1C03               	skipc
  1359  0DFC  03F5               	decf	___lwmod@dividend+1,f
  1360  0DFD  02F5               	subwf	___lwmod@dividend+1,f
  1361  0DFE                     l1619:
  1362  0DFE  3001               	movlw	1
  1363  0DFF                     u1825:
  1364  0DFF  1003               	clrc
  1365  0E00  0CF3               	rrf	___lwmod@divisor+1,f
  1366  0E01  0CF2               	rrf	___lwmod@divisor,f
  1367  0E02  3EFF               	addlw	-1
  1368  0E03  1D03               	skipz
  1369  0E04  2DFF               	goto	u1825
  1370  0E05                     l1621:
  1371  0E05  3001               	movlw	1
  1372  0E06  02F6               	subwf	___lwmod@counter,f
  1373  0E07  1D03               	btfss	3,2
  1374  0E08  2E0A               	goto	u1831
  1375  0E09  2E0B               	goto	u1830
  1376  0E0A                     u1831:
  1377  0E0A  2DEE               	goto	l1615
  1378  0E0B                     u1830:
  1379  0E0B                     l1623:
  1380  0E0B  0875               	movf	___lwmod@dividend+1,w
  1381  0E0C  00F3               	movwf	?___lwmod+1
  1382  0E0D  0874               	movf	___lwmod@dividend,w
  1383  0E0E  00F2               	movwf	?___lwmod
  1384  0E0F                     l469:
  1385  0E0F  0008               	return
  1386  0E10                     __end_of___lwmod:
  1387                           
  1388                           	psect	text3
  1389  0E10                     __ptext3:	
  1390 ;; *************** function ___lwdiv *****************
  1391 ;; Defined at:
  1392 ;;		line 5 in file "C:\Program Files\Microchip\xc8\v2.20\pic\sources\c90\common\lwdiv.c"
  1393 ;; Parameters:    Size  Location     Type
  1394 ;;  divisor         2    2[COMMON] unsigned int 
  1395 ;;  dividend        2    4[COMMON] unsigned int 
  1396 ;; Auto vars:     Size  Location     Type
  1397 ;;  quotient        2    6[COMMON] unsigned int 
  1398 ;;  counter         1    8[COMMON] unsigned char 
  1399 ;; Return value:  Size  Location     Type
  1400 ;;                  2    2[COMMON] unsigned int 
  1401 ;; Registers used:
  1402 ;;		wreg, status,2, status,0, btemp+1
  1403 ;; Tracked objects:
  1404 ;;		On entry : 0/0
  1405 ;;		On exit  : 0/0
  1406 ;;		Unchanged: 0/0
  1407 ;; Data sizes:     COMMON   BANK0   BANK1   BANK3   BANK2
  1408 ;;      Params:         4       0       0       0       0
  1409 ;;      Locals:         3       0       0       0       0
  1410 ;;      Temps:          0       0       0       0       0
  1411 ;;      Totals:         7       0       0       0       0
  1412 ;;Total ram usage:        7 bytes
  1413 ;; Hardware stack levels used:    1
  1414 ;; Hardware stack levels required when called:    1
  1415 ;; This function calls:
  1416 ;;		Nothing
  1417 ;; This function is called by:
  1418 ;;		_puts_float
  1419 ;; This function uses a non-reentrant model
  1420 ;;
  1421                           
  1422                           
  1423                           ;psect for function ___lwdiv
  1424  0E10                     ___lwdiv:
  1425  0E10                     l1579:	
  1426                           ;incstack = 0
  1427                           ; Regs used in ___lwdiv: [wreg+status,2+status,0+btemp+1]
  1428                           
  1429  0E10  01F6               	clrf	___lwdiv@quotient
  1430  0E11  01F7               	clrf	___lwdiv@quotient+1
  1431  0E12                     l1581:
  1432  0E12  0872               	movf	___lwdiv@divisor,w
  1433  0E13  0473               	iorwf	___lwdiv@divisor+1,w
  1434  0E14  1903               	btfsc	3,2
  1435  0E15  2E17               	goto	u1711
  1436  0E16  2E18               	goto	u1710
  1437  0E17                     u1711:
  1438  0E17  2E4F               	goto	l1601
  1439  0E18                     u1710:
  1440  0E18                     l1583:
  1441  0E18  01F8               	clrf	___lwdiv@counter
  1442  0E19  0AF8               	incf	___lwdiv@counter,f
  1443  0E1A  2E26               	goto	l1589
  1444  0E1B                     l1585:
  1445  0E1B  3001               	movlw	1
  1446  0E1C                     u1725:
  1447  0E1C  1003               	clrc
  1448  0E1D  0DF2               	rlf	___lwdiv@divisor,f
  1449  0E1E  0DF3               	rlf	___lwdiv@divisor+1,f
  1450  0E1F  3EFF               	addlw	-1
  1451  0E20  1D03               	skipz
  1452  0E21  2E1C               	goto	u1725
  1453  0E22                     l1587:
  1454  0E22  3001               	movlw	1
  1455  0E23  00FF               	movwf	btemp+1
  1456  0E24  087F               	movf	btemp+1,w
  1457  0E25  07F8               	addwf	___lwdiv@counter,f
  1458  0E26                     l1589:
  1459  0E26  1FF3               	btfss	___lwdiv@divisor+1,7
  1460  0E27  2E29               	goto	u1731
  1461  0E28  2E2A               	goto	u1730
  1462  0E29                     u1731:
  1463  0E29  2E1B               	goto	l1585
  1464  0E2A                     u1730:
  1465  0E2A                     l1591:
  1466  0E2A  3001               	movlw	1
  1467  0E2B                     u1745:
  1468  0E2B  1003               	clrc
  1469  0E2C  0DF6               	rlf	___lwdiv@quotient,f
  1470  0E2D  0DF7               	rlf	___lwdiv@quotient+1,f
  1471  0E2E  3EFF               	addlw	-1
  1472  0E2F  1D03               	skipz
  1473  0E30  2E2B               	goto	u1745
  1474  0E31  0873               	movf	___lwdiv@divisor+1,w
  1475  0E32  0275               	subwf	___lwdiv@dividend+1,w
  1476  0E33  1D03               	skipz
  1477  0E34  2E37               	goto	u1755
  1478  0E35  0872               	movf	___lwdiv@divisor,w
  1479  0E36  0274               	subwf	___lwdiv@dividend,w
  1480  0E37                     u1755:
  1481  0E37  1C03               	skipc
  1482  0E38  2E3A               	goto	u1751
  1483  0E39  2E3B               	goto	u1750
  1484  0E3A                     u1751:
  1485  0E3A  2E42               	goto	l1597
  1486  0E3B                     u1750:
  1487  0E3B                     l1593:
  1488  0E3B  0872               	movf	___lwdiv@divisor,w
  1489  0E3C  02F4               	subwf	___lwdiv@dividend,f
  1490  0E3D  0873               	movf	___lwdiv@divisor+1,w
  1491  0E3E  1C03               	skipc
  1492  0E3F  03F5               	decf	___lwdiv@dividend+1,f
  1493  0E40  02F5               	subwf	___lwdiv@dividend+1,f
  1494  0E41                     l1595:
  1495  0E41  1476               	bsf	___lwdiv@quotient,0
  1496  0E42                     l1597:
  1497  0E42  3001               	movlw	1
  1498  0E43                     u1765:
  1499  0E43  1003               	clrc
  1500  0E44  0CF3               	rrf	___lwdiv@divisor+1,f
  1501  0E45  0CF2               	rrf	___lwdiv@divisor,f
  1502  0E46  3EFF               	addlw	-1
  1503  0E47  1D03               	skipz
  1504  0E48  2E43               	goto	u1765
  1505  0E49                     l1599:
  1506  0E49  3001               	movlw	1
  1507  0E4A  02F8               	subwf	___lwdiv@counter,f
  1508  0E4B  1D03               	btfss	3,2
  1509  0E4C  2E4E               	goto	u1771
  1510  0E4D  2E4F               	goto	u1770
  1511  0E4E                     u1771:
  1512  0E4E  2E2A               	goto	l1591
  1513  0E4F                     u1770:
  1514  0E4F                     l1601:
  1515  0E4F  0877               	movf	___lwdiv@quotient+1,w
  1516  0E50  00F3               	movwf	?___lwdiv+1
  1517  0E51  0876               	movf	___lwdiv@quotient,w
  1518  0E52  00F2               	movwf	?___lwdiv
  1519  0E53                     l459:
  1520  0E53  0008               	return
  1521  0E54                     __end_of___lwdiv:
  1522                           
  1523                           	psect	text4
  1524  0F0A                     __ptext4:	
  1525 ;; *************** function ___fltol *****************
  1526 ;; Defined at:
  1527 ;;		line 43 in file "C:\Program Files\Microchip\xc8\v2.20\pic\sources\c90\common\fltol.c"
  1528 ;; Parameters:    Size  Location     Type
  1529 ;;  f1              4    2[COMMON] unsigned int 
  1530 ;; Auto vars:     Size  Location     Type
  1531 ;;  exp1            1   11[COMMON] unsigned char 
  1532 ;;  sign1           1   10[COMMON] unsigned char 
  1533 ;; Return value:  Size  Location     Type
  1534 ;;                  4    2[COMMON] long 
  1535 ;; Registers used:
  1536 ;;		wreg, status,2, status,0, btemp+1
  1537 ;; Tracked objects:
  1538 ;;		On entry : 0/0
  1539 ;;		On exit  : 0/0
  1540 ;;		Unchanged: 0/0
  1541 ;; Data sizes:     COMMON   BANK0   BANK1   BANK3   BANK2
  1542 ;;      Params:         4       0       0       0       0
  1543 ;;      Locals:         2       0       0       0       0
  1544 ;;      Temps:          4       0       0       0       0
  1545 ;;      Totals:        10       0       0       0       0
  1546 ;;Total ram usage:       10 bytes
  1547 ;; Hardware stack levels used:    1
  1548 ;; Hardware stack levels required when called:    1
  1549 ;; This function calls:
  1550 ;;		Nothing
  1551 ;; This function is called by:
  1552 ;;		_puts_float
  1553 ;; This function uses a non-reentrant model
  1554 ;;
  1555                           
  1556                           
  1557                           ;psect for function ___fltol
  1558  0F0A                     ___fltol:
  1559  0F0A                     l1541:	
  1560                           ;incstack = 0
  1561                           ; Regs used in ___fltol: [wreg+status,2+status,0+btemp+1]
  1562                           
  1563  0F0A  1003               	clrc
  1564  0F0B  0D74               	rlf	___fltol@f1+2,w
  1565  0F0C  0D75               	rlf	___fltol@f1+3,w
  1566  0F0D  00FF               	movwf	btemp+1
  1567  0F0E  087F               	movf	btemp+1,w
  1568  0F0F  00FB               	movwf	___fltol@exp1
  1569  0F10  087B               	movf	___fltol@exp1,w
  1570  0F11  1D03               	btfss	3,2
  1571  0F12  2F14               	goto	u1611
  1572  0F13  2F15               	goto	u1610
  1573  0F14                     u1611:
  1574  0F14  2F1E               	goto	l1547
  1575  0F15                     u1610:
  1576  0F15                     l1543:
  1577  0F15  3000               	movlw	0
  1578  0F16  00F5               	movwf	?___fltol+3
  1579  0F17  3000               	movlw	0
  1580  0F18  00F4               	movwf	?___fltol+2
  1581  0F19  3000               	movlw	0
  1582  0F1A  00F3               	movwf	?___fltol+1
  1583  0F1B  3000               	movlw	0
  1584  0F1C  00F2               	movwf	?___fltol
  1585  0F1D  2F83               	goto	l373
  1586  0F1E                     l1547:
  1587  0F1E  0872               	movf	___fltol@f1,w
  1588  0F1F  00F6               	movwf	??___fltol
  1589  0F20  0873               	movf	___fltol@f1+1,w
  1590  0F21  00F7               	movwf	??___fltol+1
  1591  0F22  0874               	movf	___fltol@f1+2,w
  1592  0F23  00F8               	movwf	??___fltol+2
  1593  0F24  0875               	movf	___fltol@f1+3,w
  1594  0F25  00F9               	movwf	??___fltol+3
  1595  0F26  301F               	movlw	31
  1596  0F27                     u1625:
  1597  0F27  1003               	clrc
  1598  0F28  0CF9               	rrf	??___fltol+3,f
  1599  0F29  0CF8               	rrf	??___fltol+2,f
  1600  0F2A  0CF7               	rrf	??___fltol+1,f
  1601  0F2B  0CF6               	rrf	??___fltol,f
  1602  0F2C                     u1620:
  1603  0F2C  3EFF               	addlw	-1
  1604  0F2D  1D03               	skipz
  1605  0F2E  2F27               	goto	u1625
  1606  0F2F  0876               	movf	??___fltol,w
  1607  0F30  00FF               	movwf	btemp+1
  1608  0F31  087F               	movf	btemp+1,w
  1609  0F32  00FA               	movwf	___fltol@sign1
  1610  0F33                     l1549:
  1611  0F33  17F4               	bsf	___fltol@f1+2,7
  1612  0F34                     l1551:
  1613  0F34  30FF               	movlw	255
  1614  0F35  05F2               	andwf	___fltol@f1,f
  1615  0F36  30FF               	movlw	255
  1616  0F37  05F3               	andwf	___fltol@f1+1,f
  1617  0F38  30FF               	movlw	255
  1618  0F39  05F4               	andwf	___fltol@f1+2,f
  1619  0F3A  3000               	movlw	0
  1620  0F3B  05F5               	andwf	___fltol@f1+3,f
  1621  0F3C                     l1553:
  1622  0F3C  3096               	movlw	150
  1623  0F3D  02FB               	subwf	___fltol@exp1,f
  1624  0F3E                     l1555:
  1625  0F3E  1FFB               	btfss	___fltol@exp1,7
  1626  0F3F  2F41               	goto	u1631
  1627  0F40  2F42               	goto	u1630
  1628  0F41                     u1631:
  1629  0F41  2F5C               	goto	l1567
  1630  0F42                     u1630:
  1631  0F42                     l1557:
  1632  0F42  087B               	movf	___fltol@exp1,w
  1633  0F43  3A80               	xorlw	128
  1634  0F44  3E97               	addlw	151
  1635  0F45  1803               	skipnc
  1636  0F46  2F48               	goto	u1641
  1637  0F47  2F49               	goto	u1640
  1638  0F48                     u1641:
  1639  0F48  2F4A               	goto	l1563
  1640  0F49                     u1640:
  1641  0F49  2F15               	goto	l1543
  1642  0F4A                     l1563:
  1643  0F4A  3001               	movlw	1
  1644  0F4B                     u1655:
  1645  0F4B  1003               	clrc
  1646  0F4C  0CF5               	rrf	___fltol@f1+3,f
  1647  0F4D  0CF4               	rrf	___fltol@f1+2,f
  1648  0F4E  0CF3               	rrf	___fltol@f1+1,f
  1649  0F4F  0CF2               	rrf	___fltol@f1,f
  1650  0F50  3EFF               	addlw	-1
  1651  0F51  1D03               	skipz
  1652  0F52  2F4B               	goto	u1655
  1653  0F53                     l1565:
  1654  0F53  3001               	movlw	1
  1655  0F54  00FF               	movwf	btemp+1
  1656  0F55  087F               	movf	btemp+1,w
  1657  0F56  07FB               	addwf	___fltol@exp1,f
  1658  0F57  1D03               	btfss	3,2
  1659  0F58  2F5A               	goto	u1661
  1660  0F59  2F5B               	goto	u1660
  1661  0F5A                     u1661:
  1662  0F5A  2F4A               	goto	l1563
  1663  0F5B                     u1660:
  1664  0F5B  2F73               	goto	l1575
  1665  0F5C                     l1567:
  1666  0F5C  3020               	movlw	32
  1667  0F5D  027B               	subwf	___fltol@exp1,w
  1668  0F5E  1C03               	skipc
  1669  0F5F  2F61               	goto	u1671
  1670  0F60  2F62               	goto	u1670
  1671  0F61                     u1671:
  1672  0F61  2F6E               	goto	l380
  1673  0F62                     u1670:
  1674  0F62  2F15               	goto	l1543
  1675  0F63                     l1573:
  1676  0F63  3001               	movlw	1
  1677  0F64  00F6               	movwf	??___fltol
  1678  0F65                     u1685:
  1679  0F65  1003               	clrc
  1680  0F66  0DF2               	rlf	___fltol@f1,f
  1681  0F67  0DF3               	rlf	___fltol@f1+1,f
  1682  0F68  0DF4               	rlf	___fltol@f1+2,f
  1683  0F69  0DF5               	rlf	___fltol@f1+3,f
  1684  0F6A  0BF6               	decfsz	??___fltol,f
  1685  0F6B  2F65               	goto	u1685
  1686  0F6C  3001               	movlw	1
  1687  0F6D  02FB               	subwf	___fltol@exp1,f
  1688  0F6E                     l380:
  1689  0F6E  087B               	movf	___fltol@exp1,w
  1690  0F6F  1D03               	btfss	3,2
  1691  0F70  2F72               	goto	u1691
  1692  0F71  2F73               	goto	u1690
  1693  0F72                     u1691:
  1694  0F72  2F63               	goto	l1573
  1695  0F73                     u1690:
  1696  0F73                     l1575:
  1697  0F73  087A               	movf	___fltol@sign1,w
  1698  0F74  1903               	btfsc	3,2
  1699  0F75  2F77               	goto	u1701
  1700  0F76  2F78               	goto	u1700
  1701  0F77                     u1701:
  1702  0F77  2F83               	goto	l383
  1703  0F78                     u1700:
  1704  0F78                     l1577:
  1705  0F78  09F2               	comf	___fltol@f1,f
  1706  0F79  09F3               	comf	___fltol@f1+1,f
  1707  0F7A  09F4               	comf	___fltol@f1+2,f
  1708  0F7B  09F5               	comf	___fltol@f1+3,f
  1709  0F7C  0AF2               	incf	___fltol@f1,f
  1710  0F7D  1903               	skipnz
  1711  0F7E  0AF3               	incf	___fltol@f1+1,f
  1712  0F7F  1903               	skipnz
  1713  0F80  0AF4               	incf	___fltol@f1+2,f
  1714  0F81  1903               	skipnz
  1715  0F82  0AF5               	incf	___fltol@f1+3,f
  1716  0F83                     l383:
  1717  0F83                     l373:
  1718  0F83  0008               	return
  1719  0F84                     __end_of___fltol:
  1720                           
  1721                           	psect	text5
  1722  0E54                     __ptext5:	
  1723 ;; *************** function _Voltage_Value *****************
  1724 ;; Defined at:
  1725 ;;		line 139 in file "main.c"
  1726 ;; Parameters:    Size  Location     Type
  1727 ;;  sensor          1    wreg     unsigned char 
  1728 ;; Auto vars:     Size  Location     Type
  1729 ;;  sensor          1   11[COMMON] unsigned char 
  1730 ;; Return value:  Size  Location     Type
  1731 ;;                  4   58[BANK0 ] float 
  1732 ;; Registers used:
  1733 ;;		wreg, status,2, status,0, btemp+1, pclath, cstack
  1734 ;; Tracked objects:
  1735 ;;		On entry : 0/0
  1736 ;;		On exit  : 0/0
  1737 ;;		Unchanged: 0/0
  1738 ;; Data sizes:     COMMON   BANK0   BANK1   BANK3   BANK2
  1739 ;;      Params:         0       4       0       0       0
  1740 ;;      Locals:         1       0       0       0       0
  1741 ;;      Temps:          0       4       0       0       0
  1742 ;;      Totals:         1       8       0       0       0
  1743 ;;Total ram usage:        9 bytes
  1744 ;; Hardware stack levels used:    1
  1745 ;; Hardware stack levels required when called:    3
  1746 ;; This function calls:
  1747 ;;		___fldiv
  1748 ;;		___flmul
  1749 ;;		___xxtofl
  1750 ;; This function is called by:
  1751 ;;		_main
  1752 ;; This function uses a non-reentrant model
  1753 ;;
  1754                           
  1755                           
  1756                           ;psect for function _Voltage_Value
  1757  0E54                     _Voltage_Value:
  1758                           
  1759                           ;incstack = 0
  1760                           ; Regs used in _Voltage_Value: [wreg+status,2+status,0+btemp+1+pclath+cstack]
  1761                           ;Voltage_Value@sensor stored from wreg
  1762  0E54  00FB               	movwf	Voltage_Value@sensor
  1763  0E55                     l2055:
  1764                           
  1765                           ;main.c: 141:     return (float) sensor * 5/255;
  1766  0E55  3043               	movlw	67
  1767  0E56  1283               	bcf	3,5	;RP0=0, select bank0
  1768  0E57  1303               	bcf	3,6	;RP1=0, select bank0
  1769  0E58  00C3               	movwf	___fldiv@a+3
  1770  0E59  307F               	movlw	127
  1771  0E5A  00C2               	movwf	___fldiv@a+2
  1772  0E5B  3000               	movlw	0
  1773  0E5C  00C1               	movwf	___fldiv@a+1
  1774  0E5D  3000               	movlw	0
  1775  0E5E  00C0               	movwf	___fldiv@a
  1776  0E5F  3040               	movlw	64
  1777  0E60  00A9               	movwf	___flmul@b+3
  1778  0E61  30A0               	movlw	160
  1779  0E62  00A8               	movwf	___flmul@b+2
  1780  0E63  3000               	movlw	0
  1781  0E64  00A7               	movwf	___flmul@b+1
  1782  0E65  3000               	movlw	0
  1783  0E66  00A6               	movwf	___flmul@b
  1784  0E67  087B               	movf	Voltage_Value@sensor,w
  1785  0E68  00DE               	movwf	??_Voltage_Value
  1786  0E69  01DF               	clrf	??_Voltage_Value+1
  1787  0E6A  01E0               	clrf	??_Voltage_Value+2
  1788  0E6B  01E1               	clrf	??_Voltage_Value+3
  1789  0E6C  0861               	movf	??_Voltage_Value+3,w
  1790  0E6D  00F5               	movwf	___xxtofl@val+3
  1791  0E6E  0860               	movf	??_Voltage_Value+2,w
  1792  0E6F  00F4               	movwf	___xxtofl@val+2
  1793  0E70  085F               	movf	??_Voltage_Value+1,w
  1794  0E71  00F3               	movwf	___xxtofl@val+1
  1795  0E72  085E               	movf	??_Voltage_Value,w
  1796  0E73  00F2               	movwf	___xxtofl@val
  1797  0E74  3000               	movlw	0
  1798  0E75  120A  118A  2658  120A  158A  	fcall	___xxtofl
  1799  0E7A  0875               	movf	?___xxtofl+3,w
  1800  0E7B  1283               	bcf	3,5	;RP0=0, select bank0
  1801  0E7C  1303               	bcf	3,6	;RP1=0, select bank0
  1802  0E7D  00AD               	movwf	___flmul@a+3
  1803  0E7E  0874               	movf	?___xxtofl+2,w
  1804  0E7F  00AC               	movwf	___flmul@a+2
  1805  0E80  0873               	movf	?___xxtofl+1,w
  1806  0E81  00AB               	movwf	___flmul@a+1
  1807  0E82  0872               	movf	?___xxtofl,w
  1808  0E83  00AA               	movwf	___flmul@a
  1809  0E84  120A  118A  2016  120A  158A  	fcall	___flmul
  1810  0E89  1283               	bcf	3,5	;RP0=0, select bank0
  1811  0E8A  1303               	bcf	3,6	;RP1=0, select bank0
  1812  0E8B  0829               	movf	?___flmul+3,w
  1813  0E8C  00C7               	movwf	___fldiv@b+3
  1814  0E8D  0828               	movf	?___flmul+2,w
  1815  0E8E  00C6               	movwf	___fldiv@b+2
  1816  0E8F  0827               	movf	?___flmul+1,w
  1817  0E90  00C5               	movwf	___fldiv@b+1
  1818  0E91  0826               	movf	?___flmul,w
  1819  0E92  00C4               	movwf	___fldiv@b
  1820  0E93  120A  118A  2377  120A  158A  	fcall	___fldiv
  1821  0E98  1283               	bcf	3,5	;RP0=0, select bank0
  1822  0E99  1303               	bcf	3,6	;RP1=0, select bank0
  1823  0E9A  0843               	movf	?___fldiv+3,w
  1824  0E9B  00DD               	movwf	?_Voltage_Value+3
  1825  0E9C  0842               	movf	?___fldiv+2,w
  1826  0E9D  00DC               	movwf	?_Voltage_Value+2
  1827  0E9E  0841               	movf	?___fldiv+1,w
  1828  0E9F  00DB               	movwf	?_Voltage_Value+1
  1829  0EA0  0840               	movf	?___fldiv,w
  1830  0EA1  00DA               	movwf	?_Voltage_Value
  1831  0EA2                     l44:
  1832  0EA2  0008               	return
  1833  0EA3                     __end_of_Voltage_Value:
  1834                           
  1835                           	psect	text6
  1836  0658                     __ptext6:	
  1837 ;; *************** function ___xxtofl *****************
  1838 ;; Defined at:
  1839 ;;		line 10 in file "C:\Program Files\Microchip\xc8\v2.20\pic\sources\c90\common\xxtofl.c"
  1840 ;; Parameters:    Size  Location     Type
  1841 ;;  sign            1    wreg     unsigned char 
  1842 ;;  val             4    2[COMMON] long 
  1843 ;; Auto vars:     Size  Location     Type
  1844 ;;  sign            1    0[BANK0 ] unsigned char 
  1845 ;;  arg             4    2[BANK0 ] unsigned long 
  1846 ;;  exp             1    1[BANK0 ] unsigned char 
  1847 ;; Return value:  Size  Location     Type
  1848 ;;                  4    2[COMMON] unsigned char 
  1849 ;; Registers used:
  1850 ;;		wreg, status,2, status,0, btemp+1
  1851 ;; Tracked objects:
  1852 ;;		On entry : 0/0
  1853 ;;		On exit  : 0/0
  1854 ;;		Unchanged: 0/0
  1855 ;; Data sizes:     COMMON   BANK0   BANK1   BANK3   BANK2
  1856 ;;      Params:         4       0       0       0       0
  1857 ;;      Locals:         0       6       0       0       0
  1858 ;;      Temps:          4       0       0       0       0
  1859 ;;      Totals:         8       6       0       0       0
  1860 ;;Total ram usage:       14 bytes
  1861 ;; Hardware stack levels used:    1
  1862 ;; Hardware stack levels required when called:    1
  1863 ;; This function calls:
  1864 ;;		Nothing
  1865 ;; This function is called by:
  1866 ;;		_Voltage_Value
  1867 ;; This function uses a non-reentrant model
  1868 ;;
  1869                           
  1870                           
  1871                           ;psect for function ___xxtofl
  1872  0658                     ___xxtofl:
  1873                           
  1874                           ;incstack = 0
  1875                           ; Regs used in ___xxtofl: [wreg+status,2+status,0+btemp+1]
  1876                           ;___xxtofl@sign stored from wreg
  1877  0658  1283               	bcf	3,5	;RP0=0, select bank0
  1878  0659  1303               	bcf	3,6	;RP1=0, select bank0
  1879  065A  00A0               	movwf	___xxtofl@sign
  1880  065B                     l1913:
  1881  065B  0820               	movf	___xxtofl@sign,w
  1882  065C  1903               	btfsc	3,2
  1883  065D  2E5F               	goto	u2501
  1884  065E  2E60               	goto	u2500
  1885  065F                     u2501:
  1886  065F  2E74               	goto	l1919
  1887  0660                     u2500:
  1888  0660                     l1915:
  1889  0660  1FF5               	btfss	___xxtofl@val+3,7
  1890  0661  2E63               	goto	u2511
  1891  0662  2E64               	goto	u2510
  1892  0663                     u2511:
  1893  0663  2E74               	goto	l1919
  1894  0664                     u2510:
  1895  0664                     l1917:
  1896  0664  0972               	comf	___xxtofl@val,w
  1897  0665  00A2               	movwf	___xxtofl@arg
  1898  0666  0973               	comf	___xxtofl@val+1,w
  1899  0667  00A3               	movwf	___xxtofl@arg+1
  1900  0668  0974               	comf	___xxtofl@val+2,w
  1901  0669  00A4               	movwf	___xxtofl@arg+2
  1902  066A  0975               	comf	___xxtofl@val+3,w
  1903  066B  00A5               	movwf	___xxtofl@arg+3
  1904  066C  0AA2               	incf	___xxtofl@arg,f
  1905  066D  1903               	skipnz
  1906  066E  0AA3               	incf	___xxtofl@arg+1,f
  1907  066F  1903               	skipnz
  1908  0670  0AA4               	incf	___xxtofl@arg+2,f
  1909  0671  1903               	skipnz
  1910  0672  0AA5               	incf	___xxtofl@arg+3,f
  1911  0673  2E7C               	goto	l620
  1912  0674                     l1919:
  1913  0674  0875               	movf	___xxtofl@val+3,w
  1914  0675  00A5               	movwf	___xxtofl@arg+3
  1915  0676  0874               	movf	___xxtofl@val+2,w
  1916  0677  00A4               	movwf	___xxtofl@arg+2
  1917  0678  0873               	movf	___xxtofl@val+1,w
  1918  0679  00A3               	movwf	___xxtofl@arg+1
  1919  067A  0872               	movf	___xxtofl@val,w
  1920  067B  00A2               	movwf	___xxtofl@arg
  1921  067C                     l620:
  1922  067C  0875               	movf	___xxtofl@val+3,w
  1923  067D  0474               	iorwf	___xxtofl@val+2,w
  1924  067E  0473               	iorwf	___xxtofl@val+1,w
  1925  067F  0472               	iorwf	___xxtofl@val,w
  1926  0680  1D03               	skipz
  1927  0681  2E83               	goto	u2521
  1928  0682  2E84               	goto	u2520
  1929  0683                     u2521:
  1930  0683  2E8D               	goto	l1925
  1931  0684                     u2520:
  1932  0684                     l1921:
  1933  0684  3000               	movlw	0
  1934  0685  00F5               	movwf	?___xxtofl+3
  1935  0686  3000               	movlw	0
  1936  0687  00F4               	movwf	?___xxtofl+2
  1937  0688  3000               	movlw	0
  1938  0689  00F3               	movwf	?___xxtofl+1
  1939  068A  3000               	movlw	0
  1940  068B  00F2               	movwf	?___xxtofl
  1941  068C  2F13               	goto	l622
  1942  068D                     l1925:
  1943  068D  3096               	movlw	150
  1944  068E  00FF               	movwf	btemp+1
  1945  068F  087F               	movf	btemp+1,w
  1946  0690  00A1               	movwf	___xxtofl@exp
  1947  0691  2E9F               	goto	l1931
  1948  0692                     l1927:
  1949  0692  3001               	movlw	1
  1950  0693  00FF               	movwf	btemp+1
  1951  0694  087F               	movf	btemp+1,w
  1952  0695  07A1               	addwf	___xxtofl@exp,f
  1953  0696                     l1929:
  1954  0696  3001               	movlw	1
  1955  0697                     u2535:
  1956  0697  1003               	clrc
  1957  0698  0CA5               	rrf	___xxtofl@arg+3,f
  1958  0699  0CA4               	rrf	___xxtofl@arg+2,f
  1959  069A  0CA3               	rrf	___xxtofl@arg+1,f
  1960  069B  0CA2               	rrf	___xxtofl@arg,f
  1961  069C  3EFF               	addlw	-1
  1962  069D  1D03               	skipz
  1963  069E  2E97               	goto	u2535
  1964  069F                     l1931:
  1965  069F  30FE               	movlw	254
  1966  06A0  0525               	andwf	___xxtofl@arg+3,w
  1967  06A1  1D03               	btfss	3,2
  1968  06A2  2EA4               	goto	u2541
  1969  06A3  2EA5               	goto	u2540
  1970  06A4                     u2541:
  1971  06A4  2E92               	goto	l1927
  1972  06A5                     u2540:
  1973  06A5  2EC1               	goto	l1939
  1974  06A6                     l1933:
  1975  06A6  3001               	movlw	1
  1976  06A7  00FF               	movwf	btemp+1
  1977  06A8  087F               	movf	btemp+1,w
  1978  06A9  07A1               	addwf	___xxtofl@exp,f
  1979  06AA                     l1935:
  1980  06AA  3001               	movlw	1
  1981  06AB  07A2               	addwf	___xxtofl@arg,f
  1982  06AC  3000               	movlw	0
  1983  06AD  1803               	skipnc
  1984  06AE  3001               	movlw	1
  1985  06AF  07A3               	addwf	___xxtofl@arg+1,f
  1986  06B0  3000               	movlw	0
  1987  06B1  1803               	skipnc
  1988  06B2  3001               	movlw	1
  1989  06B3  07A4               	addwf	___xxtofl@arg+2,f
  1990  06B4  3000               	movlw	0
  1991  06B5  1803               	skipnc
  1992  06B6  3001               	movlw	1
  1993  06B7  07A5               	addwf	___xxtofl@arg+3,f
  1994  06B8                     l1937:
  1995  06B8  3001               	movlw	1
  1996  06B9                     u2555:
  1997  06B9  1003               	clrc
  1998  06BA  0CA5               	rrf	___xxtofl@arg+3,f
  1999  06BB  0CA4               	rrf	___xxtofl@arg+2,f
  2000  06BC  0CA3               	rrf	___xxtofl@arg+1,f
  2001  06BD  0CA2               	rrf	___xxtofl@arg,f
  2002  06BE  3EFF               	addlw	-1
  2003  06BF  1D03               	skipz
  2004  06C0  2EB9               	goto	u2555
  2005  06C1                     l1939:
  2006  06C1  30FF               	movlw	255
  2007  06C2  0525               	andwf	___xxtofl@arg+3,w
  2008  06C3  1D03               	btfss	3,2
  2009  06C4  2EC6               	goto	u2561
  2010  06C5  2EC7               	goto	u2560
  2011  06C6                     u2561:
  2012  06C6  2EA6               	goto	l1933
  2013  06C7                     u2560:
  2014  06C7  2ED3               	goto	l1943
  2015  06C8                     l1941:
  2016  06C8  3001               	movlw	1
  2017  06C9  02A1               	subwf	___xxtofl@exp,f
  2018  06CA  3001               	movlw	1
  2019  06CB  00F6               	movwf	??___xxtofl
  2020  06CC                     u2575:
  2021  06CC  1003               	clrc
  2022  06CD  0DA2               	rlf	___xxtofl@arg,f
  2023  06CE  0DA3               	rlf	___xxtofl@arg+1,f
  2024  06CF  0DA4               	rlf	___xxtofl@arg+2,f
  2025  06D0  0DA5               	rlf	___xxtofl@arg+3,f
  2026  06D1  0BF6               	decfsz	??___xxtofl,f
  2027  06D2  2ECC               	goto	u2575
  2028  06D3                     l1943:
  2029  06D3  1BA4               	btfsc	___xxtofl@arg+2,7
  2030  06D4  2ED6               	goto	u2581
  2031  06D5  2ED7               	goto	u2580
  2032  06D6                     u2581:
  2033  06D6  2EDD               	goto	l633
  2034  06D7                     u2580:
  2035  06D7                     l1945:
  2036  06D7  3002               	movlw	2
  2037  06D8  0221               	subwf	___xxtofl@exp,w
  2038  06D9  1803               	skipnc
  2039  06DA  2EDC               	goto	u2591
  2040  06DB  2EDD               	goto	u2590
  2041  06DC                     u2591:
  2042  06DC  2EC8               	goto	l1941
  2043  06DD                     u2590:
  2044  06DD                     l633:
  2045  06DD  1821               	btfsc	___xxtofl@exp,0
  2046  06DE  2EE0               	goto	u2601
  2047  06DF  2EE1               	goto	u2600
  2048  06E0                     u2601:
  2049  06E0  2EE9               	goto	l634
  2050  06E1                     u2600:
  2051  06E1                     l1947:
  2052  06E1  30FF               	movlw	255
  2053  06E2  05A2               	andwf	___xxtofl@arg,f
  2054  06E3  30FF               	movlw	255
  2055  06E4  05A3               	andwf	___xxtofl@arg+1,f
  2056  06E5  307F               	movlw	127
  2057  06E6  05A4               	andwf	___xxtofl@arg+2,f
  2058  06E7  30FF               	movlw	255
  2059  06E8  05A5               	andwf	___xxtofl@arg+3,f
  2060  06E9                     l634:
  2061  06E9  1003               	clrc
  2062  06EA  0CA1               	rrf	___xxtofl@exp,f
  2063  06EB                     l1949:
  2064  06EB  0821               	movf	___xxtofl@exp,w
  2065  06EC  00F6               	movwf	??___xxtofl
  2066  06ED  01F7               	clrf	??___xxtofl+1
  2067  06EE  01F8               	clrf	??___xxtofl+2
  2068  06EF  01F9               	clrf	??___xxtofl+3
  2069  06F0  3018               	movlw	24
  2070  06F1                     u2615:
  2071  06F1  1003               	clrc
  2072  06F2  0DF6               	rlf	??___xxtofl,f
  2073  06F3  0DF7               	rlf	??___xxtofl+1,f
  2074  06F4  0DF8               	rlf	??___xxtofl+2,f
  2075  06F5  0DF9               	rlf	??___xxtofl+3,f
  2076  06F6                     u2610:
  2077  06F6  3EFF               	addlw	-1
  2078  06F7  1D03               	skipz
  2079  06F8  2EF1               	goto	u2615
  2080  06F9  0876               	movf	??___xxtofl,w
  2081  06FA  04A2               	iorwf	___xxtofl@arg,f
  2082  06FB  0877               	movf	??___xxtofl+1,w
  2083  06FC  04A3               	iorwf	___xxtofl@arg+1,f
  2084  06FD  0878               	movf	??___xxtofl+2,w
  2085  06FE  04A4               	iorwf	___xxtofl@arg+2,f
  2086  06FF  0879               	movf	??___xxtofl+3,w
  2087  0700  04A5               	iorwf	___xxtofl@arg+3,f
  2088  0701                     l1951:
  2089  0701  0820               	movf	___xxtofl@sign,w
  2090  0702  1903               	btfsc	3,2
  2091  0703  2F05               	goto	u2621
  2092  0704  2F06               	goto	u2620
  2093  0705                     u2621:
  2094  0705  2F0B               	goto	l1957
  2095  0706                     u2620:
  2096  0706                     l1953:
  2097  0706  1FF5               	btfss	___xxtofl@val+3,7
  2098  0707  2F09               	goto	u2631
  2099  0708  2F0A               	goto	u2630
  2100  0709                     u2631:
  2101  0709  2F0B               	goto	l1957
  2102  070A                     u2630:
  2103  070A                     l1955:
  2104  070A  17A5               	bsf	___xxtofl@arg+3,7
  2105  070B                     l1957:
  2106  070B  0825               	movf	___xxtofl@arg+3,w
  2107  070C  00F5               	movwf	?___xxtofl+3
  2108  070D  0824               	movf	___xxtofl@arg+2,w
  2109  070E  00F4               	movwf	?___xxtofl+2
  2110  070F  0823               	movf	___xxtofl@arg+1,w
  2111  0710  00F3               	movwf	?___xxtofl+1
  2112  0711  0822               	movf	___xxtofl@arg,w
  2113  0712  00F2               	movwf	?___xxtofl
  2114  0713                     l622:
  2115  0713  0008               	return
  2116  0714                     __end_of___xxtofl:
  2117                           
  2118                           	psect	text7
  2119  0016                     __ptext7:	
  2120 ;; *************** function ___flmul *****************
  2121 ;; Defined at:
  2122 ;;		line 8 in file "C:\Program Files\Microchip\xc8\v2.20\pic\sources\c90\common\sprcmul.c"
  2123 ;; Parameters:    Size  Location     Type
  2124 ;;  b               4    6[BANK0 ] unsigned char 
  2125 ;;  a               4   10[BANK0 ] unsigned char 
  2126 ;; Auto vars:     Size  Location     Type
  2127 ;;  prod            4   26[BANK0 ] struct .
  2128 ;;  grs             4   20[BANK0 ] unsigned long 
  2129 ;;  temp            2   30[BANK0 ] struct .
  2130 ;;  bexp            1   25[BANK0 ] unsigned char 
  2131 ;;  aexp            1   24[BANK0 ] unsigned char 
  2132 ;;  sign            1   19[BANK0 ] unsigned char 
  2133 ;; Return value:  Size  Location     Type
  2134 ;;                  4    6[BANK0 ] unsigned char 
  2135 ;; Registers used:
  2136 ;;		wreg, status,2, status,0, btemp+1, pclath, cstack
  2137 ;; Tracked objects:
  2138 ;;		On entry : 0/0
  2139 ;;		On exit  : 0/0
  2140 ;;		Unchanged: 0/0
  2141 ;; Data sizes:     COMMON   BANK0   BANK1   BANK3   BANK2
  2142 ;;      Params:         0       8       0       0       0
  2143 ;;      Locals:         0      13       0       0       0
  2144 ;;      Temps:          0       5       0       0       0
  2145 ;;      Totals:         0      26       0       0       0
  2146 ;;Total ram usage:       26 bytes
  2147 ;; Hardware stack levels used:    1
  2148 ;; Hardware stack levels required when called:    2
  2149 ;; This function calls:
  2150 ;;		__Umul8_16
  2151 ;; This function is called by:
  2152 ;;		_puts_float
  2153 ;;		_Voltage_Value
  2154 ;; This function uses a non-reentrant model
  2155 ;;
  2156                           
  2157                           
  2158                           ;psect for function ___flmul
  2159  0016                     ___flmul:
  2160  0016                     l1771:	
  2161                           ;incstack = 0
  2162                           ; Regs used in ___flmul: [wreg+status,2+status,0+btemp+1+pclath+cstack]
  2163                           
  2164  0016  1283               	bcf	3,5	;RP0=0, select bank0
  2165  0017  1303               	bcf	3,6	;RP1=0, select bank0
  2166  0018  0829               	movf	___flmul@b+3,w
  2167  0019  3980               	andlw	128
  2168  001A  00FF               	movwf	btemp+1
  2169  001B  087F               	movf	btemp+1,w
  2170  001C  00B3               	movwf	___flmul@sign
  2171  001D                     l1773:
  2172  001D  0829               	movf	___flmul@b+3,w
  2173  001E  00AE               	movwf	??___flmul
  2174  001F  072E               	addwf	??___flmul,w
  2175  0020  00FF               	movwf	btemp+1
  2176  0021  087F               	movf	btemp+1,w
  2177  0022  00B9               	movwf	___flmul@bexp
  2178  0023                     l1775:
  2179  0023  1FA8               	btfss	___flmul@b+2,7
  2180  0024  2826               	goto	u2131
  2181  0025  2827               	goto	u2130
  2182  0026                     u2131:
  2183  0026  2828               	goto	l1779
  2184  0027                     u2130:
  2185  0027                     l1777:
  2186  0027  1439               	bsf	___flmul@bexp,0
  2187  0028                     l1779:
  2188  0028  0839               	movf	___flmul@bexp,w
  2189  0029  1903               	btfsc	3,2
  2190  002A  282C               	goto	u2141
  2191  002B  282D               	goto	u2140
  2192  002C                     u2141:
  2193  002C  283C               	goto	l1787
  2194  002D                     u2140:
  2195  002D                     l1781:
  2196  002D  0A39               	incf	___flmul@bexp,w
  2197  002E  1D03               	btfss	3,2
  2198  002F  2831               	goto	u2151
  2199  0030  2832               	goto	u2150
  2200  0031                     u2151:
  2201  0031  283A               	goto	l1785
  2202  0032                     u2150:
  2203  0032                     l1783:
  2204  0032  3000               	movlw	0
  2205  0033  00A9               	movwf	___flmul@b+3
  2206  0034  3000               	movlw	0
  2207  0035  00A8               	movwf	___flmul@b+2
  2208  0036  3000               	movlw	0
  2209  0037  00A7               	movwf	___flmul@b+1
  2210  0038  3000               	movlw	0
  2211  0039  00A6               	movwf	___flmul@b
  2212  003A                     l1785:
  2213  003A  17A8               	bsf	___flmul@b+2,7
  2214  003B  2844               	goto	l1789
  2215  003C                     l1787:
  2216  003C  3000               	movlw	0
  2217  003D  00A9               	movwf	___flmul@b+3
  2218  003E  3000               	movlw	0
  2219  003F  00A8               	movwf	___flmul@b+2
  2220  0040  3000               	movlw	0
  2221  0041  00A7               	movwf	___flmul@b+1
  2222  0042  3000               	movlw	0
  2223  0043  00A6               	movwf	___flmul@b
  2224  0044                     l1789:
  2225  0044  082D               	movf	___flmul@a+3,w
  2226  0045  3980               	andlw	128
  2227  0046  00FF               	movwf	btemp+1
  2228  0047  087F               	movf	btemp+1,w
  2229  0048  06B3               	xorwf	___flmul@sign,f
  2230  0049                     l1791:
  2231  0049  082D               	movf	___flmul@a+3,w
  2232  004A  00AE               	movwf	??___flmul
  2233  004B  072E               	addwf	??___flmul,w
  2234  004C  00FF               	movwf	btemp+1
  2235  004D  087F               	movf	btemp+1,w
  2236  004E  00B8               	movwf	___flmul@aexp
  2237  004F                     l1793:
  2238  004F  1FAC               	btfss	___flmul@a+2,7
  2239  0050  2852               	goto	u2161
  2240  0051  2853               	goto	u2160
  2241  0052                     u2161:
  2242  0052  2854               	goto	l1797
  2243  0053                     u2160:
  2244  0053                     l1795:
  2245  0053  1438               	bsf	___flmul@aexp,0
  2246  0054                     l1797:
  2247  0054  0838               	movf	___flmul@aexp,w
  2248  0055  1903               	btfsc	3,2
  2249  0056  2858               	goto	u2171
  2250  0057  2859               	goto	u2170
  2251  0058                     u2171:
  2252  0058  2868               	goto	l1805
  2253  0059                     u2170:
  2254  0059                     l1799:
  2255  0059  0A38               	incf	___flmul@aexp,w
  2256  005A  1D03               	btfss	3,2
  2257  005B  285D               	goto	u2181
  2258  005C  285E               	goto	u2180
  2259  005D                     u2181:
  2260  005D  2866               	goto	l1803
  2261  005E                     u2180:
  2262  005E                     l1801:
  2263  005E  3000               	movlw	0
  2264  005F  00AD               	movwf	___flmul@a+3
  2265  0060  3000               	movlw	0
  2266  0061  00AC               	movwf	___flmul@a+2
  2267  0062  3000               	movlw	0
  2268  0063  00AB               	movwf	___flmul@a+1
  2269  0064  3000               	movlw	0
  2270  0065  00AA               	movwf	___flmul@a
  2271  0066                     l1803:
  2272  0066  17AC               	bsf	___flmul@a+2,7
  2273  0067  2870               	goto	l1807
  2274  0068                     l1805:
  2275  0068  3000               	movlw	0
  2276  0069  00AD               	movwf	___flmul@a+3
  2277  006A  3000               	movlw	0
  2278  006B  00AC               	movwf	___flmul@a+2
  2279  006C  3000               	movlw	0
  2280  006D  00AB               	movwf	___flmul@a+1
  2281  006E  3000               	movlw	0
  2282  006F  00AA               	movwf	___flmul@a
  2283  0070                     l1807:
  2284  0070  0838               	movf	___flmul@aexp,w
  2285  0071  1903               	btfsc	3,2
  2286  0072  2874               	goto	u2191
  2287  0073  2875               	goto	u2190
  2288  0074                     u2191:
  2289  0074  287A               	goto	l1811
  2290  0075                     u2190:
  2291  0075                     l1809:
  2292  0075  0839               	movf	___flmul@bexp,w
  2293  0076  1D03               	btfss	3,2
  2294  0077  2879               	goto	u2201
  2295  0078  287A               	goto	u2200
  2296  0079                     u2201:
  2297  0079  2883               	goto	l1815
  2298  007A                     u2200:
  2299  007A                     l1811:
  2300  007A  3000               	movlw	0
  2301  007B  00A9               	movwf	?___flmul+3
  2302  007C  3000               	movlw	0
  2303  007D  00A8               	movwf	?___flmul+2
  2304  007E  3000               	movlw	0
  2305  007F  00A7               	movwf	?___flmul+1
  2306  0080  3000               	movlw	0
  2307  0081  00A6               	movwf	?___flmul
  2308  0082  2B76               	goto	l576
  2309  0083                     l1815:
  2310  0083  0826               	movf	___flmul@b,w
  2311  0084  00FF               	movwf	btemp+1
  2312  0085  087F               	movf	btemp+1,w
  2313  0086  00F2               	movwf	__Umul8_16@multiplicand
  2314  0087  082C               	movf	___flmul@a+2,w
  2315  0088  120A  158A  254B  120A  118A  	fcall	__Umul8_16
  2316  008D  0873               	movf	?__Umul8_16+1,w
  2317  008E  1283               	bcf	3,5	;RP0=0, select bank0
  2318  008F  1303               	bcf	3,6	;RP1=0, select bank0
  2319  0090  00BF               	movwf	___flmul@temp+1
  2320  0091  0872               	movf	?__Umul8_16,w
  2321  0092  00BE               	movwf	___flmul@temp
  2322  0093                     l1817:
  2323  0093  083E               	movf	___flmul@temp,w
  2324  0094  00AE               	movwf	??___flmul
  2325  0095  01AF               	clrf	??___flmul+1
  2326  0096  01B0               	clrf	??___flmul+2
  2327  0097  01B1               	clrf	??___flmul+3
  2328  0098  0831               	movf	??___flmul+3,w
  2329  0099  00B7               	movwf	___flmul@grs+3
  2330  009A  0830               	movf	??___flmul+2,w
  2331  009B  00B6               	movwf	___flmul@grs+2
  2332  009C  082F               	movf	??___flmul+1,w
  2333  009D  00B5               	movwf	___flmul@grs+1
  2334  009E  082E               	movf	??___flmul,w
  2335  009F  00B4               	movwf	___flmul@grs
  2336  00A0                     l1819:
  2337  00A0  083F               	movf	___flmul@temp+1,w
  2338  00A1  00AE               	movwf	??___flmul
  2339  00A2  01AF               	clrf	??___flmul+1
  2340  00A3  01B0               	clrf	??___flmul+2
  2341  00A4  01B1               	clrf	??___flmul+3
  2342  00A5  0831               	movf	??___flmul+3,w
  2343  00A6  00BD               	movwf	___flmul@prod+3
  2344  00A7  0830               	movf	??___flmul+2,w
  2345  00A8  00BC               	movwf	___flmul@prod+2
  2346  00A9  082F               	movf	??___flmul+1,w
  2347  00AA  00BB               	movwf	___flmul@prod+1
  2348  00AB  082E               	movf	??___flmul,w
  2349  00AC  00BA               	movwf	___flmul@prod
  2350  00AD  0827               	movf	___flmul@b+1,w
  2351  00AE  00FF               	movwf	btemp+1
  2352  00AF  087F               	movf	btemp+1,w
  2353  00B0  00F2               	movwf	__Umul8_16@multiplicand
  2354  00B1  082B               	movf	___flmul@a+1,w
  2355  00B2  120A  158A  254B  120A  118A  	fcall	__Umul8_16
  2356  00B7  0873               	movf	?__Umul8_16+1,w
  2357  00B8  1283               	bcf	3,5	;RP0=0, select bank0
  2358  00B9  1303               	bcf	3,6	;RP1=0, select bank0
  2359  00BA  00BF               	movwf	___flmul@temp+1
  2360  00BB  0872               	movf	?__Umul8_16,w
  2361  00BC  00BE               	movwf	___flmul@temp
  2362  00BD                     l1821:
  2363  00BD  083E               	movf	___flmul@temp,w
  2364  00BE  00AE               	movwf	??___flmul
  2365  00BF  01AF               	clrf	??___flmul+1
  2366  00C0  01B0               	clrf	??___flmul+2
  2367  00C1  01B1               	clrf	??___flmul+3
  2368  00C2  082E               	movf	??___flmul,w
  2369  00C3  07B4               	addwf	___flmul@grs,f
  2370  00C4  082F               	movf	??___flmul+1,w
  2371  00C5  1103               	clrz
  2372  00C6  1803               	skipnc
  2373  00C7  3E01               	addlw	1
  2374  00C8  1903               	skipnz
  2375  00C9  28CB               	goto	u2211
  2376  00CA  07B5               	addwf	___flmul@grs+1,f
  2377  00CB                     u2211:
  2378  00CB  0830               	movf	??___flmul+2,w
  2379  00CC  1103               	clrz
  2380  00CD  1803               	skipnc
  2381  00CE  3E01               	addlw	1
  2382  00CF  1903               	skipnz
  2383  00D0  28D2               	goto	u2212
  2384  00D1  07B6               	addwf	___flmul@grs+2,f
  2385  00D2                     u2212:
  2386  00D2  0831               	movf	??___flmul+3,w
  2387  00D3  1103               	clrz
  2388  00D4  1803               	skipnc
  2389  00D5  3E01               	addlw	1
  2390  00D6  1903               	skipnz
  2391  00D7  28D9               	goto	u2213
  2392  00D8  07B7               	addwf	___flmul@grs+3,f
  2393  00D9                     u2213:
  2394  00D9                     l1823:
  2395  00D9  083F               	movf	___flmul@temp+1,w
  2396  00DA  00AE               	movwf	??___flmul
  2397  00DB  01AF               	clrf	??___flmul+1
  2398  00DC  01B0               	clrf	??___flmul+2
  2399  00DD  01B1               	clrf	??___flmul+3
  2400  00DE  082E               	movf	??___flmul,w
  2401  00DF  07BA               	addwf	___flmul@prod,f
  2402  00E0  082F               	movf	??___flmul+1,w
  2403  00E1  1103               	clrz
  2404  00E2  1803               	skipnc
  2405  00E3  3E01               	addlw	1
  2406  00E4  1903               	skipnz
  2407  00E5  28E7               	goto	u2221
  2408  00E6  07BB               	addwf	___flmul@prod+1,f
  2409  00E7                     u2221:
  2410  00E7  0830               	movf	??___flmul+2,w
  2411  00E8  1103               	clrz
  2412  00E9  1803               	skipnc
  2413  00EA  3E01               	addlw	1
  2414  00EB  1903               	skipnz
  2415  00EC  28EE               	goto	u2222
  2416  00ED  07BC               	addwf	___flmul@prod+2,f
  2417  00EE                     u2222:
  2418  00EE  0831               	movf	??___flmul+3,w
  2419  00EF  1103               	clrz
  2420  00F0  1803               	skipnc
  2421  00F1  3E01               	addlw	1
  2422  00F2  1903               	skipnz
  2423  00F3  28F5               	goto	u2223
  2424  00F4  07BD               	addwf	___flmul@prod+3,f
  2425  00F5                     u2223:
  2426  00F5  0828               	movf	___flmul@b+2,w
  2427  00F6  00FF               	movwf	btemp+1
  2428  00F7  087F               	movf	btemp+1,w
  2429  00F8  00F2               	movwf	__Umul8_16@multiplicand
  2430  00F9  082A               	movf	___flmul@a,w
  2431  00FA  120A  158A  254B  120A  118A  	fcall	__Umul8_16
  2432  00FF  0873               	movf	?__Umul8_16+1,w
  2433  0100  1283               	bcf	3,5	;RP0=0, select bank0
  2434  0101  1303               	bcf	3,6	;RP1=0, select bank0
  2435  0102  00BF               	movwf	___flmul@temp+1
  2436  0103  0872               	movf	?__Umul8_16,w
  2437  0104  00BE               	movwf	___flmul@temp
  2438  0105                     l1825:
  2439  0105  083E               	movf	___flmul@temp,w
  2440  0106  00AE               	movwf	??___flmul
  2441  0107  01AF               	clrf	??___flmul+1
  2442  0108  01B0               	clrf	??___flmul+2
  2443  0109  01B1               	clrf	??___flmul+3
  2444  010A  082E               	movf	??___flmul,w
  2445  010B  07B4               	addwf	___flmul@grs,f
  2446  010C  082F               	movf	??___flmul+1,w
  2447  010D  1103               	clrz
  2448  010E  1803               	skipnc
  2449  010F  3E01               	addlw	1
  2450  0110  1903               	skipnz
  2451  0111  2913               	goto	u2231
  2452  0112  07B5               	addwf	___flmul@grs+1,f
  2453  0113                     u2231:
  2454  0113  0830               	movf	??___flmul+2,w
  2455  0114  1103               	clrz
  2456  0115  1803               	skipnc
  2457  0116  3E01               	addlw	1
  2458  0117  1903               	skipnz
  2459  0118  291A               	goto	u2232
  2460  0119  07B6               	addwf	___flmul@grs+2,f
  2461  011A                     u2232:
  2462  011A  0831               	movf	??___flmul+3,w
  2463  011B  1103               	clrz
  2464  011C  1803               	skipnc
  2465  011D  3E01               	addlw	1
  2466  011E  1903               	skipnz
  2467  011F  2921               	goto	u2233
  2468  0120  07B7               	addwf	___flmul@grs+3,f
  2469  0121                     u2233:
  2470  0121                     l1827:
  2471  0121  083F               	movf	___flmul@temp+1,w
  2472  0122  00AE               	movwf	??___flmul
  2473  0123  01AF               	clrf	??___flmul+1
  2474  0124  01B0               	clrf	??___flmul+2
  2475  0125  01B1               	clrf	??___flmul+3
  2476  0126  082E               	movf	??___flmul,w
  2477  0127  07BA               	addwf	___flmul@prod,f
  2478  0128  082F               	movf	??___flmul+1,w
  2479  0129  1103               	clrz
  2480  012A  1803               	skipnc
  2481  012B  3E01               	addlw	1
  2482  012C  1903               	skipnz
  2483  012D  292F               	goto	u2241
  2484  012E  07BB               	addwf	___flmul@prod+1,f
  2485  012F                     u2241:
  2486  012F  0830               	movf	??___flmul+2,w
  2487  0130  1103               	clrz
  2488  0131  1803               	skipnc
  2489  0132  3E01               	addlw	1
  2490  0133  1903               	skipnz
  2491  0134  2936               	goto	u2242
  2492  0135  07BC               	addwf	___flmul@prod+2,f
  2493  0136                     u2242:
  2494  0136  0831               	movf	??___flmul+3,w
  2495  0137  1103               	clrz
  2496  0138  1803               	skipnc
  2497  0139  3E01               	addlw	1
  2498  013A  1903               	skipnz
  2499  013B  293D               	goto	u2243
  2500  013C  07BD               	addwf	___flmul@prod+3,f
  2501  013D                     u2243:
  2502  013D                     l1829:
  2503  013D  3008               	movlw	8
  2504  013E  00AE               	movwf	??___flmul
  2505  013F                     u2255:
  2506  013F  1003               	clrc
  2507  0140  0DB4               	rlf	___flmul@grs,f
  2508  0141  0DB5               	rlf	___flmul@grs+1,f
  2509  0142  0DB6               	rlf	___flmul@grs+2,f
  2510  0143  0DB7               	rlf	___flmul@grs+3,f
  2511  0144  0BAE               	decfsz	??___flmul,f
  2512  0145  293F               	goto	u2255
  2513  0146                     l1831:
  2514  0146  0827               	movf	___flmul@b+1,w
  2515  0147  00FF               	movwf	btemp+1
  2516  0148  087F               	movf	btemp+1,w
  2517  0149  00F2               	movwf	__Umul8_16@multiplicand
  2518  014A  082A               	movf	___flmul@a,w
  2519  014B  120A  158A  254B  120A  118A  	fcall	__Umul8_16
  2520  0150  0873               	movf	?__Umul8_16+1,w
  2521  0151  1283               	bcf	3,5	;RP0=0, select bank0
  2522  0152  1303               	bcf	3,6	;RP1=0, select bank0
  2523  0153  00BF               	movwf	___flmul@temp+1
  2524  0154  0872               	movf	?__Umul8_16,w
  2525  0155  00BE               	movwf	___flmul@temp
  2526  0156                     l1833:
  2527  0156  083E               	movf	___flmul@temp,w
  2528  0157  00AE               	movwf	??___flmul
  2529  0158  083F               	movf	___flmul@temp+1,w
  2530  0159  00AF               	movwf	??___flmul+1
  2531  015A  01B0               	clrf	??___flmul+2
  2532  015B  01B1               	clrf	??___flmul+3
  2533  015C  082E               	movf	??___flmul,w
  2534  015D  07B4               	addwf	___flmul@grs,f
  2535  015E  082F               	movf	??___flmul+1,w
  2536  015F  1103               	clrz
  2537  0160  1803               	skipnc
  2538  0161  3E01               	addlw	1
  2539  0162  1903               	skipnz
  2540  0163  2965               	goto	u2261
  2541  0164  07B5               	addwf	___flmul@grs+1,f
  2542  0165                     u2261:
  2543  0165  0830               	movf	??___flmul+2,w
  2544  0166  1103               	clrz
  2545  0167  1803               	skipnc
  2546  0168  3E01               	addlw	1
  2547  0169  1903               	skipnz
  2548  016A  296C               	goto	u2262
  2549  016B  07B6               	addwf	___flmul@grs+2,f
  2550  016C                     u2262:
  2551  016C  0831               	movf	??___flmul+3,w
  2552  016D  1103               	clrz
  2553  016E  1803               	skipnc
  2554  016F  3E01               	addlw	1
  2555  0170  1903               	skipnz
  2556  0171  2973               	goto	u2263
  2557  0172  07B7               	addwf	___flmul@grs+3,f
  2558  0173                     u2263:
  2559  0173                     l1835:
  2560  0173  0826               	movf	___flmul@b,w
  2561  0174  00FF               	movwf	btemp+1
  2562  0175  087F               	movf	btemp+1,w
  2563  0176  00F2               	movwf	__Umul8_16@multiplicand
  2564  0177  082B               	movf	___flmul@a+1,w
  2565  0178  120A  158A  254B  120A  118A  	fcall	__Umul8_16
  2566  017D  0873               	movf	?__Umul8_16+1,w
  2567  017E  1283               	bcf	3,5	;RP0=0, select bank0
  2568  017F  1303               	bcf	3,6	;RP1=0, select bank0
  2569  0180  00BF               	movwf	___flmul@temp+1
  2570  0181  0872               	movf	?__Umul8_16,w
  2571  0182  00BE               	movwf	___flmul@temp
  2572  0183                     l1837:
  2573  0183  083E               	movf	___flmul@temp,w
  2574  0184  00AE               	movwf	??___flmul
  2575  0185  083F               	movf	___flmul@temp+1,w
  2576  0186  00AF               	movwf	??___flmul+1
  2577  0187  01B0               	clrf	??___flmul+2
  2578  0188  01B1               	clrf	??___flmul+3
  2579  0189  082E               	movf	??___flmul,w
  2580  018A  07B4               	addwf	___flmul@grs,f
  2581  018B  082F               	movf	??___flmul+1,w
  2582  018C  1103               	clrz
  2583  018D  1803               	skipnc
  2584  018E  3E01               	addlw	1
  2585  018F  1903               	skipnz
  2586  0190  2992               	goto	u2271
  2587  0191  07B5               	addwf	___flmul@grs+1,f
  2588  0192                     u2271:
  2589  0192  0830               	movf	??___flmul+2,w
  2590  0193  1103               	clrz
  2591  0194  1803               	skipnc
  2592  0195  3E01               	addlw	1
  2593  0196  1903               	skipnz
  2594  0197  2999               	goto	u2272
  2595  0198  07B6               	addwf	___flmul@grs+2,f
  2596  0199                     u2272:
  2597  0199  0831               	movf	??___flmul+3,w
  2598  019A  1103               	clrz
  2599  019B  1803               	skipnc
  2600  019C  3E01               	addlw	1
  2601  019D  1903               	skipnz
  2602  019E  29A0               	goto	u2273
  2603  019F  07B7               	addwf	___flmul@grs+3,f
  2604  01A0                     u2273:
  2605  01A0                     l1839:
  2606  01A0  3008               	movlw	8
  2607  01A1  00AE               	movwf	??___flmul
  2608  01A2                     u2285:
  2609  01A2  1003               	clrc
  2610  01A3  0DB4               	rlf	___flmul@grs,f
  2611  01A4  0DB5               	rlf	___flmul@grs+1,f
  2612  01A5  0DB6               	rlf	___flmul@grs+2,f
  2613  01A6  0DB7               	rlf	___flmul@grs+3,f
  2614  01A7  0BAE               	decfsz	??___flmul,f
  2615  01A8  29A2               	goto	u2285
  2616  01A9  0826               	movf	___flmul@b,w
  2617  01AA  00FF               	movwf	btemp+1
  2618  01AB  087F               	movf	btemp+1,w
  2619  01AC  00F2               	movwf	__Umul8_16@multiplicand
  2620  01AD  082A               	movf	___flmul@a,w
  2621  01AE  120A  158A  254B  120A  118A  	fcall	__Umul8_16
  2622  01B3  0873               	movf	?__Umul8_16+1,w
  2623  01B4  1283               	bcf	3,5	;RP0=0, select bank0
  2624  01B5  1303               	bcf	3,6	;RP1=0, select bank0
  2625  01B6  00BF               	movwf	___flmul@temp+1
  2626  01B7  0872               	movf	?__Umul8_16,w
  2627  01B8  00BE               	movwf	___flmul@temp
  2628  01B9                     l1841:
  2629  01B9  083E               	movf	___flmul@temp,w
  2630  01BA  00AE               	movwf	??___flmul
  2631  01BB  083F               	movf	___flmul@temp+1,w
  2632  01BC  00AF               	movwf	??___flmul+1
  2633  01BD  01B0               	clrf	??___flmul+2
  2634  01BE  01B1               	clrf	??___flmul+3
  2635  01BF  082E               	movf	??___flmul,w
  2636  01C0  07B4               	addwf	___flmul@grs,f
  2637  01C1  082F               	movf	??___flmul+1,w
  2638  01C2  1103               	clrz
  2639  01C3  1803               	skipnc
  2640  01C4  3E01               	addlw	1
  2641  01C5  1903               	skipnz
  2642  01C6  29C8               	goto	u2291
  2643  01C7  07B5               	addwf	___flmul@grs+1,f
  2644  01C8                     u2291:
  2645  01C8  0830               	movf	??___flmul+2,w
  2646  01C9  1103               	clrz
  2647  01CA  1803               	skipnc
  2648  01CB  3E01               	addlw	1
  2649  01CC  1903               	skipnz
  2650  01CD  29CF               	goto	u2292
  2651  01CE  07B6               	addwf	___flmul@grs+2,f
  2652  01CF                     u2292:
  2653  01CF  0831               	movf	??___flmul+3,w
  2654  01D0  1103               	clrz
  2655  01D1  1803               	skipnc
  2656  01D2  3E01               	addlw	1
  2657  01D3  1903               	skipnz
  2658  01D4  29D6               	goto	u2293
  2659  01D5  07B7               	addwf	___flmul@grs+3,f
  2660  01D6                     u2293:
  2661  01D6                     l1843:
  2662  01D6  0827               	movf	___flmul@b+1,w
  2663  01D7  00FF               	movwf	btemp+1
  2664  01D8  087F               	movf	btemp+1,w
  2665  01D9  00F2               	movwf	__Umul8_16@multiplicand
  2666  01DA  082C               	movf	___flmul@a+2,w
  2667  01DB  120A  158A  254B  120A  118A  	fcall	__Umul8_16
  2668  01E0  0873               	movf	?__Umul8_16+1,w
  2669  01E1  1283               	bcf	3,5	;RP0=0, select bank0
  2670  01E2  1303               	bcf	3,6	;RP1=0, select bank0
  2671  01E3  00BF               	movwf	___flmul@temp+1
  2672  01E4  0872               	movf	?__Umul8_16,w
  2673  01E5  00BE               	movwf	___flmul@temp
  2674  01E6  083E               	movf	___flmul@temp,w
  2675  01E7  00AE               	movwf	??___flmul
  2676  01E8  083F               	movf	___flmul@temp+1,w
  2677  01E9  00AF               	movwf	??___flmul+1
  2678  01EA  01B0               	clrf	??___flmul+2
  2679  01EB  01B1               	clrf	??___flmul+3
  2680  01EC  082E               	movf	??___flmul,w
  2681  01ED  07BA               	addwf	___flmul@prod,f
  2682  01EE  082F               	movf	??___flmul+1,w
  2683  01EF  1103               	clrz
  2684  01F0  1803               	skipnc
  2685  01F1  3E01               	addlw	1
  2686  01F2  1903               	skipnz
  2687  01F3  29F5               	goto	u2301
  2688  01F4  07BB               	addwf	___flmul@prod+1,f
  2689  01F5                     u2301:
  2690  01F5  0830               	movf	??___flmul+2,w
  2691  01F6  1103               	clrz
  2692  01F7  1803               	skipnc
  2693  01F8  3E01               	addlw	1
  2694  01F9  1903               	skipnz
  2695  01FA  29FC               	goto	u2302
  2696  01FB  07BC               	addwf	___flmul@prod+2,f
  2697  01FC                     u2302:
  2698  01FC  0831               	movf	??___flmul+3,w
  2699  01FD  1103               	clrz
  2700  01FE  1803               	skipnc
  2701  01FF  3E01               	addlw	1
  2702  0200  1903               	skipnz
  2703  0201  2A03               	goto	u2303
  2704  0202  07BD               	addwf	___flmul@prod+3,f
  2705  0203                     u2303:
  2706  0203                     l1845:
  2707  0203  0828               	movf	___flmul@b+2,w
  2708  0204  00FF               	movwf	btemp+1
  2709  0205  087F               	movf	btemp+1,w
  2710  0206  00F2               	movwf	__Umul8_16@multiplicand
  2711  0207  082B               	movf	___flmul@a+1,w
  2712  0208  120A  158A  254B  120A  118A  	fcall	__Umul8_16
  2713  020D  0873               	movf	?__Umul8_16+1,w
  2714  020E  1283               	bcf	3,5	;RP0=0, select bank0
  2715  020F  1303               	bcf	3,6	;RP1=0, select bank0
  2716  0210  00BF               	movwf	___flmul@temp+1
  2717  0211  0872               	movf	?__Umul8_16,w
  2718  0212  00BE               	movwf	___flmul@temp
  2719  0213                     l1847:
  2720  0213  083E               	movf	___flmul@temp,w
  2721  0214  00AE               	movwf	??___flmul
  2722  0215  083F               	movf	___flmul@temp+1,w
  2723  0216  00AF               	movwf	??___flmul+1
  2724  0217  01B0               	clrf	??___flmul+2
  2725  0218  01B1               	clrf	??___flmul+3
  2726  0219  082E               	movf	??___flmul,w
  2727  021A  07BA               	addwf	___flmul@prod,f
  2728  021B  082F               	movf	??___flmul+1,w
  2729  021C  1103               	clrz
  2730  021D  1803               	skipnc
  2731  021E  3E01               	addlw	1
  2732  021F  1903               	skipnz
  2733  0220  2A22               	goto	u2311
  2734  0221  07BB               	addwf	___flmul@prod+1,f
  2735  0222                     u2311:
  2736  0222  0830               	movf	??___flmul+2,w
  2737  0223  1103               	clrz
  2738  0224  1803               	skipnc
  2739  0225  3E01               	addlw	1
  2740  0226  1903               	skipnz
  2741  0227  2A29               	goto	u2312
  2742  0228  07BC               	addwf	___flmul@prod+2,f
  2743  0229                     u2312:
  2744  0229  0831               	movf	??___flmul+3,w
  2745  022A  1103               	clrz
  2746  022B  1803               	skipnc
  2747  022C  3E01               	addlw	1
  2748  022D  1903               	skipnz
  2749  022E  2A30               	goto	u2313
  2750  022F  07BD               	addwf	___flmul@prod+3,f
  2751  0230                     u2313:
  2752  0230  0828               	movf	___flmul@b+2,w
  2753  0231  00FF               	movwf	btemp+1
  2754  0232  087F               	movf	btemp+1,w
  2755  0233  00F2               	movwf	__Umul8_16@multiplicand
  2756  0234  082C               	movf	___flmul@a+2,w
  2757  0235  120A  158A  254B  120A  118A  	fcall	__Umul8_16
  2758  023A  0873               	movf	?__Umul8_16+1,w
  2759  023B  1283               	bcf	3,5	;RP0=0, select bank0
  2760  023C  1303               	bcf	3,6	;RP1=0, select bank0
  2761  023D  00BF               	movwf	___flmul@temp+1
  2762  023E  0872               	movf	?__Umul8_16,w
  2763  023F  00BE               	movwf	___flmul@temp
  2764  0240                     l1849:
  2765  0240  083E               	movf	___flmul@temp,w
  2766  0241  00AE               	movwf	??___flmul
  2767  0242  083F               	movf	___flmul@temp+1,w
  2768  0243  00AF               	movwf	??___flmul+1
  2769  0244  01B0               	clrf	??___flmul+2
  2770  0245  01B1               	clrf	??___flmul+3
  2771  0246  3008               	movlw	8
  2772  0247                     u2325:
  2773  0247  1003               	clrc
  2774  0248  0DAE               	rlf	??___flmul,f
  2775  0249  0DAF               	rlf	??___flmul+1,f
  2776  024A  0DB0               	rlf	??___flmul+2,f
  2777  024B  0DB1               	rlf	??___flmul+3,f
  2778  024C                     u2320:
  2779  024C  3EFF               	addlw	-1
  2780  024D  1D03               	skipz
  2781  024E  2A47               	goto	u2325
  2782  024F  082E               	movf	??___flmul,w
  2783  0250  07BA               	addwf	___flmul@prod,f
  2784  0251  082F               	movf	??___flmul+1,w
  2785  0252  1103               	clrz
  2786  0253  1803               	skipnc
  2787  0254  3E01               	addlw	1
  2788  0255  1903               	skipnz
  2789  0256  2A58               	goto	u2331
  2790  0257  07BB               	addwf	___flmul@prod+1,f
  2791  0258                     u2331:
  2792  0258  0830               	movf	??___flmul+2,w
  2793  0259  1103               	clrz
  2794  025A  1803               	skipnc
  2795  025B  3E01               	addlw	1
  2796  025C  1903               	skipnz
  2797  025D  2A5F               	goto	u2332
  2798  025E  07BC               	addwf	___flmul@prod+2,f
  2799  025F                     u2332:
  2800  025F  0831               	movf	??___flmul+3,w
  2801  0260  1103               	clrz
  2802  0261  1803               	skipnc
  2803  0262  3E01               	addlw	1
  2804  0263  1903               	skipnz
  2805  0264  2A66               	goto	u2333
  2806  0265  07BD               	addwf	___flmul@prod+3,f
  2807  0266                     u2333:
  2808  0266                     l1851:
  2809  0266  0834               	movf	___flmul@grs,w
  2810  0267  00AE               	movwf	??___flmul
  2811  0268  0835               	movf	___flmul@grs+1,w
  2812  0269  00AF               	movwf	??___flmul+1
  2813  026A  0836               	movf	___flmul@grs+2,w
  2814  026B  00B0               	movwf	??___flmul+2
  2815  026C  0837               	movf	___flmul@grs+3,w
  2816  026D  00B1               	movwf	??___flmul+3
  2817  026E  3018               	movlw	24
  2818  026F                     u2345:
  2819  026F  1003               	clrc
  2820  0270  0CB1               	rrf	??___flmul+3,f
  2821  0271  0CB0               	rrf	??___flmul+2,f
  2822  0272  0CAF               	rrf	??___flmul+1,f
  2823  0273  0CAE               	rrf	??___flmul,f
  2824  0274                     u2340:
  2825  0274  3EFF               	addlw	-1
  2826  0275  1D03               	skipz
  2827  0276  2A6F               	goto	u2345
  2828  0277  082E               	movf	??___flmul,w
  2829  0278  07BA               	addwf	___flmul@prod,f
  2830  0279  082F               	movf	??___flmul+1,w
  2831  027A  1103               	clrz
  2832  027B  1803               	skipnc
  2833  027C  3E01               	addlw	1
  2834  027D  1903               	skipnz
  2835  027E  2A80               	goto	u2351
  2836  027F  07BB               	addwf	___flmul@prod+1,f
  2837  0280                     u2351:
  2838  0280  0830               	movf	??___flmul+2,w
  2839  0281  1103               	clrz
  2840  0282  1803               	skipnc
  2841  0283  3E01               	addlw	1
  2842  0284  1903               	skipnz
  2843  0285  2A87               	goto	u2352
  2844  0286  07BC               	addwf	___flmul@prod+2,f
  2845  0287                     u2352:
  2846  0287  0831               	movf	??___flmul+3,w
  2847  0288  1103               	clrz
  2848  0289  1803               	skipnc
  2849  028A  3E01               	addlw	1
  2850  028B  1903               	skipnz
  2851  028C  2A8E               	goto	u2353
  2852  028D  07BD               	addwf	___flmul@prod+3,f
  2853  028E                     u2353:
  2854  028E                     l1853:
  2855  028E  3008               	movlw	8
  2856  028F  00AE               	movwf	??___flmul
  2857  0290                     u2365:
  2858  0290  1003               	clrc
  2859  0291  0DB4               	rlf	___flmul@grs,f
  2860  0292  0DB5               	rlf	___flmul@grs+1,f
  2861  0293  0DB6               	rlf	___flmul@grs+2,f
  2862  0294  0DB7               	rlf	___flmul@grs+3,f
  2863  0295  0BAE               	decfsz	??___flmul,f
  2864  0296  2A90               	goto	u2365
  2865  0297                     l1855:
  2866  0297  0839               	movf	___flmul@bexp,w
  2867  0298  0738               	addwf	___flmul@aexp,w
  2868  0299  00AE               	movwf	??___flmul
  2869  029A  01AF               	clrf	??___flmul+1
  2870  029B  0DAF               	rlf	??___flmul+1,f
  2871  029C  082E               	movf	??___flmul,w
  2872  029D  3E82               	addlw	130
  2873  029E  00BE               	movwf	___flmul@temp
  2874  029F  082F               	movf	??___flmul+1,w
  2875  02A0  1803               	skipnc
  2876  02A1  3E01               	addlw	1
  2877  02A2  3EFF               	addlw	255
  2878  02A3  00BF               	movwf	___flmul@temp+1
  2879  02A4  2AC2               	goto	l1867
  2880  02A5                     l1857:
  2881  02A5  3001               	movlw	1
  2882  02A6  00AE               	movwf	??___flmul
  2883  02A7                     u2375:
  2884  02A7  1003               	clrc
  2885  02A8  0DBA               	rlf	___flmul@prod,f
  2886  02A9  0DBB               	rlf	___flmul@prod+1,f
  2887  02AA  0DBC               	rlf	___flmul@prod+2,f
  2888  02AB  0DBD               	rlf	___flmul@prod+3,f
  2889  02AC  0BAE               	decfsz	??___flmul,f
  2890  02AD  2AA7               	goto	u2375
  2891  02AE                     l1859:
  2892  02AE  1FB7               	btfss	___flmul@grs+3,7
  2893  02AF  2AB1               	goto	u2381
  2894  02B0  2AB2               	goto	u2380
  2895  02B1                     u2381:
  2896  02B1  2AB3               	goto	l1863
  2897  02B2                     u2380:
  2898  02B2                     l1861:
  2899  02B2  143A               	bsf	___flmul@prod,0
  2900  02B3                     l1863:
  2901  02B3  3001               	movlw	1
  2902  02B4  00AE               	movwf	??___flmul
  2903  02B5                     u2395:
  2904  02B5  1003               	clrc
  2905  02B6  0DB4               	rlf	___flmul@grs,f
  2906  02B7  0DB5               	rlf	___flmul@grs+1,f
  2907  02B8  0DB6               	rlf	___flmul@grs+2,f
  2908  02B9  0DB7               	rlf	___flmul@grs+3,f
  2909  02BA  0BAE               	decfsz	??___flmul,f
  2910  02BB  2AB5               	goto	u2395
  2911  02BC                     l1865:
  2912  02BC  30FF               	movlw	255
  2913  02BD  07BE               	addwf	___flmul@temp,f
  2914  02BE  1803               	skipnc
  2915  02BF  0ABF               	incf	___flmul@temp+1,f
  2916  02C0  30FF               	movlw	255
  2917  02C1  07BF               	addwf	___flmul@temp+1,f
  2918  02C2                     l1867:
  2919  02C2  1FBC               	btfss	___flmul@prod+2,7
  2920  02C3  2AC5               	goto	u2401
  2921  02C4  2AC6               	goto	u2400
  2922  02C5                     u2401:
  2923  02C5  2AA5               	goto	l1857
  2924  02C6                     u2400:
  2925  02C6                     l1869:
  2926  02C6  01B8               	clrf	___flmul@aexp
  2927  02C7                     l1871:
  2928  02C7  1FB7               	btfss	___flmul@grs+3,7
  2929  02C8  2ACA               	goto	u2411
  2930  02C9  2ACB               	goto	u2410
  2931  02CA                     u2411:
  2932  02CA  2AE7               	goto	l1879
  2933  02CB                     u2410:
  2934  02CB                     l1873:
  2935  02CB  30FF               	movlw	255
  2936  02CC  0534               	andwf	___flmul@grs,w
  2937  02CD  00AE               	movwf	??___flmul
  2938  02CE  30FF               	movlw	255
  2939  02CF  0535               	andwf	___flmul@grs+1,w
  2940  02D0  00AF               	movwf	??___flmul+1
  2941  02D1  30FF               	movlw	255
  2942  02D2  0536               	andwf	___flmul@grs+2,w
  2943  02D3  00B0               	movwf	??___flmul+2
  2944  02D4  307F               	movlw	127
  2945  02D5  0537               	andwf	___flmul@grs+3,w
  2946  02D6  00B1               	movwf	??___flmul+3
  2947  02D7  0831               	movf	??___flmul+3,w
  2948  02D8  0430               	iorwf	??___flmul+2,w
  2949  02D9  042F               	iorwf	??___flmul+1,w
  2950  02DA  042E               	iorwf	??___flmul,w
  2951  02DB  1903               	skipnz
  2952  02DC  2ADE               	goto	u2421
  2953  02DD  2ADF               	goto	u2420
  2954  02DE                     u2421:
  2955  02DE  2AE2               	goto	l582
  2956  02DF                     u2420:
  2957  02DF                     l1875:
  2958  02DF  01B8               	clrf	___flmul@aexp
  2959  02E0  0AB8               	incf	___flmul@aexp,f
  2960  02E1  2AE7               	goto	l1879
  2961  02E2                     l582:
  2962  02E2  1C3A               	btfss	___flmul@prod,0
  2963  02E3  2AE5               	goto	u2431
  2964  02E4  2AE6               	goto	u2430
  2965  02E5                     u2431:
  2966  02E5  2AE7               	goto	l1879
  2967  02E6                     u2430:
  2968  02E6  2ADF               	goto	l1875
  2969  02E7                     l1879:
  2970  02E7  0838               	movf	___flmul@aexp,w
  2971  02E8  1903               	btfsc	3,2
  2972  02E9  2AEB               	goto	u2441
  2973  02EA  2AEC               	goto	u2440
  2974  02EB                     u2441:
  2975  02EB  2B1D               	goto	l1889
  2976  02EC                     u2440:
  2977  02EC                     l1881:
  2978  02EC  3001               	movlw	1
  2979  02ED  07BA               	addwf	___flmul@prod,f
  2980  02EE  3000               	movlw	0
  2981  02EF  1803               	skipnc
  2982  02F0  3001               	movlw	1
  2983  02F1  07BB               	addwf	___flmul@prod+1,f
  2984  02F2  3000               	movlw	0
  2985  02F3  1803               	skipnc
  2986  02F4  3001               	movlw	1
  2987  02F5  07BC               	addwf	___flmul@prod+2,f
  2988  02F6  3000               	movlw	0
  2989  02F7  1803               	skipnc
  2990  02F8  3001               	movlw	1
  2991  02F9  07BD               	addwf	___flmul@prod+3,f
  2992  02FA                     l1883:
  2993  02FA  1C3D               	btfss	___flmul@prod+3,0
  2994  02FB  2AFD               	goto	u2451
  2995  02FC  2AFE               	goto	u2450
  2996  02FD                     u2451:
  2997  02FD  2B1D               	goto	l1889
  2998  02FE                     u2450:
  2999  02FE                     l1885:
  3000  02FE  083A               	movf	___flmul@prod,w
  3001  02FF  00AE               	movwf	??___flmul
  3002  0300  083B               	movf	___flmul@prod+1,w
  3003  0301  00AF               	movwf	??___flmul+1
  3004  0302  083C               	movf	___flmul@prod+2,w
  3005  0303  00B0               	movwf	??___flmul+2
  3006  0304  083D               	movf	___flmul@prod+3,w
  3007  0305  00B1               	movwf	??___flmul+3
  3008  0306  3001               	movlw	1
  3009  0307  00B2               	movwf	??___flmul+4
  3010  0308                     u2465:
  3011  0308  0D31               	rlf	??___flmul+3,w
  3012  0309  0CB1               	rrf	??___flmul+3,f
  3013  030A  0CB0               	rrf	??___flmul+2,f
  3014  030B  0CAF               	rrf	??___flmul+1,f
  3015  030C  0CAE               	rrf	??___flmul,f
  3016  030D                     u2460:
  3017  030D  0BB2               	decfsz	??___flmul+4,f
  3018  030E  2B08               	goto	u2465
  3019  030F  0831               	movf	??___flmul+3,w
  3020  0310  00BD               	movwf	___flmul@prod+3
  3021  0311  0830               	movf	??___flmul+2,w
  3022  0312  00BC               	movwf	___flmul@prod+2
  3023  0313  082F               	movf	??___flmul+1,w
  3024  0314  00BB               	movwf	___flmul@prod+1
  3025  0315  082E               	movf	??___flmul,w
  3026  0316  00BA               	movwf	___flmul@prod
  3027  0317                     l1887:
  3028  0317  3001               	movlw	1
  3029  0318  07BE               	addwf	___flmul@temp,f
  3030  0319  1803               	skipnc
  3031  031A  0ABF               	incf	___flmul@temp+1,f
  3032  031B  3000               	movlw	0
  3033  031C  07BF               	addwf	___flmul@temp+1,f
  3034  031D                     l1889:
  3035  031D  083F               	movf	___flmul@temp+1,w
  3036  031E  3A80               	xorlw	128
  3037  031F  00FF               	movwf	btemp+1
  3038  0320  3080               	movlw	128
  3039  0321  027F               	subwf	btemp+1,w
  3040  0322  1D03               	skipz
  3041  0323  2B26               	goto	u2475
  3042  0324  30FF               	movlw	255
  3043  0325  023E               	subwf	___flmul@temp,w
  3044  0326                     u2475:
  3045  0326  1C03               	skipc
  3046  0327  2B29               	goto	u2471
  3047  0328  2B2A               	goto	u2470
  3048  0329                     u2471:
  3049  0329  2B35               	goto	l1893
  3050  032A                     u2470:
  3051  032A                     l1891:
  3052  032A  307F               	movlw	127
  3053  032B  1283               	bcf	3,5	;RP0=0, select bank0
  3054  032C  1303               	bcf	3,6	;RP1=0, select bank0
  3055  032D  00BD               	movwf	___flmul@prod+3
  3056  032E  3080               	movlw	128
  3057  032F  00BC               	movwf	___flmul@prod+2
  3058  0330  3000               	movlw	0
  3059  0331  00BB               	movwf	___flmul@prod+1
  3060  0332  3000               	movlw	0
  3061  0333  00BA               	movwf	___flmul@prod
  3062  0334  2B6A               	goto	l588
  3063  0335                     l1893:
  3064  0335  1283               	bcf	3,5	;RP0=0, select bank0
  3065  0336  1303               	bcf	3,6	;RP1=0, select bank0
  3066  0337  083F               	movf	___flmul@temp+1,w
  3067  0338  3A80               	xorlw	128
  3068  0339  00FF               	movwf	btemp+1
  3069  033A  3080               	movlw	128
  3070  033B  027F               	subwf	btemp+1,w
  3071  033C  1D03               	skipz
  3072  033D  2B40               	goto	u2485
  3073  033E  3001               	movlw	1
  3074  033F  023E               	subwf	___flmul@temp,w
  3075  0340                     u2485:
  3076  0340  1803               	skipnc
  3077  0341  2B43               	goto	u2481
  3078  0342  2B44               	goto	u2480
  3079  0343                     u2481:
  3080  0343  2B50               	goto	l1899
  3081  0344                     u2480:
  3082  0344                     l1895:
  3083  0344  3000               	movlw	0
  3084  0345  1283               	bcf	3,5	;RP0=0, select bank0
  3085  0346  1303               	bcf	3,6	;RP1=0, select bank0
  3086  0347  00BD               	movwf	___flmul@prod+3
  3087  0348  3000               	movlw	0
  3088  0349  00BC               	movwf	___flmul@prod+2
  3089  034A  3000               	movlw	0
  3090  034B  00BB               	movwf	___flmul@prod+1
  3091  034C  3000               	movlw	0
  3092  034D  00BA               	movwf	___flmul@prod
  3093  034E                     l1897:
  3094  034E  01B3               	clrf	___flmul@sign
  3095  034F  2B6A               	goto	l588
  3096  0350                     l1899:
  3097  0350  1283               	bcf	3,5	;RP0=0, select bank0
  3098  0351  1303               	bcf	3,6	;RP1=0, select bank0
  3099  0352  083E               	movf	___flmul@temp,w
  3100  0353  00FF               	movwf	btemp+1
  3101  0354  087F               	movf	btemp+1,w
  3102  0355  00B9               	movwf	___flmul@bexp
  3103  0356                     l1901:
  3104  0356  30FF               	movlw	255
  3105  0357  05BA               	andwf	___flmul@prod,f
  3106  0358  30FF               	movlw	255
  3107  0359  05BB               	andwf	___flmul@prod+1,f
  3108  035A  307F               	movlw	127
  3109  035B  05BC               	andwf	___flmul@prod+2,f
  3110  035C  3000               	movlw	0
  3111  035D  05BD               	andwf	___flmul@prod+3,f
  3112  035E                     l1903:
  3113  035E  1C39               	btfss	___flmul@bexp,0
  3114  035F  2B61               	goto	u2491
  3115  0360  2B62               	goto	u2490
  3116  0361                     u2491:
  3117  0361  2B63               	goto	l1907
  3118  0362                     u2490:
  3119  0362                     l1905:
  3120  0362  17BC               	bsf	___flmul@prod+2,7
  3121  0363                     l1907:
  3122  0363  0839               	movf	___flmul@bexp,w
  3123  0364  00AE               	movwf	??___flmul
  3124  0365  1003               	clrc
  3125  0366  0C2E               	rrf	??___flmul,w
  3126  0367  00FF               	movwf	btemp+1
  3127  0368  087F               	movf	btemp+1,w
  3128  0369  00BD               	movwf	___flmul@prod+3
  3129  036A                     l588:
  3130  036A  0833               	movf	___flmul@sign,w
  3131  036B  00FF               	movwf	btemp+1
  3132  036C  087F               	movf	btemp+1,w
  3133  036D  04BD               	iorwf	___flmul@prod+3,f
  3134  036E                     l1909:
  3135  036E  083D               	movf	___flmul@prod+3,w
  3136  036F  00A9               	movwf	?___flmul+3
  3137  0370  083C               	movf	___flmul@prod+2,w
  3138  0371  00A8               	movwf	?___flmul+2
  3139  0372  083B               	movf	___flmul@prod+1,w
  3140  0373  00A7               	movwf	?___flmul+1
  3141  0374  083A               	movf	___flmul@prod,w
  3142  0375  00A6               	movwf	?___flmul
  3143  0376                     l576:
  3144  0376  0008               	return
  3145  0377                     __end_of___flmul:
  3146                           
  3147                           	psect	text8
  3148  0D4B                     __ptext8:	
  3149 ;; *************** function __Umul8_16 *****************
  3150 ;; Defined at:
  3151 ;;		line 4 in file "C:\Program Files\Microchip\xc8\v2.20\pic\sources\c90\common\Umul8_16.c"
  3152 ;; Parameters:    Size  Location     Type
  3153 ;;  multiplier      1    wreg     unsigned char 
  3154 ;;  multiplicand    1    2[COMMON] unsigned char 
  3155 ;; Auto vars:     Size  Location     Type
  3156 ;;  multiplier      1   10[COMMON] unsigned char 
  3157 ;;  word_mpld       2    8[COMMON] unsigned int 
  3158 ;;  product         2    6[COMMON] unsigned int 
  3159 ;; Return value:  Size  Location     Type
  3160 ;;                  2    2[COMMON] unsigned int 
  3161 ;; Registers used:
  3162 ;;		wreg, status,2, status,0
  3163 ;; Tracked objects:
  3164 ;;		On entry : 0/0
  3165 ;;		On exit  : 0/0
  3166 ;;		Unchanged: 0/0
  3167 ;; Data sizes:     COMMON   BANK0   BANK1   BANK3   BANK2
  3168 ;;      Params:         2       0       0       0       0
  3169 ;;      Locals:         5       0       0       0       0
  3170 ;;      Temps:          2       0       0       0       0
  3171 ;;      Totals:         9       0       0       0       0
  3172 ;;Total ram usage:        9 bytes
  3173 ;; Hardware stack levels used:    1
  3174 ;; Hardware stack levels required when called:    1
  3175 ;; This function calls:
  3176 ;;		Nothing
  3177 ;; This function is called by:
  3178 ;;		___flmul
  3179 ;; This function uses a non-reentrant model
  3180 ;;
  3181                           
  3182                           
  3183                           ;psect for function __Umul8_16
  3184  0D4B                     __Umul8_16:
  3185                           
  3186                           ;incstack = 0
  3187                           ; Regs used in __Umul8_16: [wreg+status,2+status,0]
  3188                           ;__Umul8_16@multiplier stored from wreg
  3189  0D4B  00FA               	movwf	__Umul8_16@multiplier
  3190  0D4C                     l1409:
  3191  0D4C  01F6               	clrf	__Umul8_16@product
  3192  0D4D  01F7               	clrf	__Umul8_16@product+1
  3193  0D4E                     l1411:
  3194  0D4E  0872               	movf	__Umul8_16@multiplicand,w
  3195  0D4F  00F4               	movwf	??__Umul8_16
  3196  0D50  01F5               	clrf	??__Umul8_16+1
  3197  0D51  0874               	movf	??__Umul8_16,w
  3198  0D52  00F8               	movwf	__Umul8_16@word_mpld
  3199  0D53  0875               	movf	??__Umul8_16+1,w
  3200  0D54  00F9               	movwf	__Umul8_16@word_mpld+1
  3201  0D55                     l1413:
  3202  0D55  1C7A               	btfss	__Umul8_16@multiplier,0
  3203  0D56  2D58               	goto	u1361
  3204  0D57  2D59               	goto	u1360
  3205  0D58                     u1361:
  3206  0D58  2D5F               	goto	l595
  3207  0D59                     u1360:
  3208  0D59                     l1415:
  3209  0D59  0878               	movf	__Umul8_16@word_mpld,w
  3210  0D5A  07F6               	addwf	__Umul8_16@product,f
  3211  0D5B  1803               	skipnc
  3212  0D5C  0AF7               	incf	__Umul8_16@product+1,f
  3213  0D5D  0879               	movf	__Umul8_16@word_mpld+1,w
  3214  0D5E  07F7               	addwf	__Umul8_16@product+1,f
  3215  0D5F                     l595:
  3216  0D5F  3001               	movlw	1
  3217  0D60                     u1375:
  3218  0D60  1003               	clrc
  3219  0D61  0DF8               	rlf	__Umul8_16@word_mpld,f
  3220  0D62  0DF9               	rlf	__Umul8_16@word_mpld+1,f
  3221  0D63  3EFF               	addlw	-1
  3222  0D64  1D03               	skipz
  3223  0D65  2D60               	goto	u1375
  3224  0D66  1003               	clrc
  3225  0D67  0CFA               	rrf	__Umul8_16@multiplier,f
  3226  0D68                     l1417:
  3227  0D68  087A               	movf	__Umul8_16@multiplier,w
  3228  0D69  1D03               	btfss	3,2
  3229  0D6A  2D6C               	goto	u1381
  3230  0D6B  2D6D               	goto	u1380
  3231  0D6C                     u1381:
  3232  0D6C  2D55               	goto	l1413
  3233  0D6D                     u1380:
  3234  0D6D                     l1419:
  3235  0D6D  0877               	movf	__Umul8_16@product+1,w
  3236  0D6E  00F3               	movwf	?__Umul8_16+1
  3237  0D6F  0876               	movf	__Umul8_16@product,w
  3238  0D70  00F2               	movwf	?__Umul8_16
  3239  0D71                     l597:
  3240  0D71  0008               	return
  3241  0D72                     __end_of__Umul8_16:
  3242                           
  3243                           	psect	text9
  3244  0377                     __ptext9:	
  3245 ;; *************** function ___fldiv *****************
  3246 ;; Defined at:
  3247 ;;		line 8 in file "C:\Program Files\Microchip\xc8\v2.20\pic\sources\c90\common\sprcdiv.c"
  3248 ;; Parameters:    Size  Location     Type
  3249 ;;  a               4   32[BANK0 ] unsigned int 
  3250 ;;  b               4   36[BANK0 ] unsigned int 
  3251 ;; Auto vars:     Size  Location     Type
  3252 ;;  grs             4   52[BANK0 ] unsigned long 
  3253 ;;  rem             4   45[BANK0 ] unsigned long 
  3254 ;;  new_exp         2   50[BANK0 ] int 
  3255 ;;  aexp            1   57[BANK0 ] unsigned char 
  3256 ;;  bexp            1   56[BANK0 ] unsigned char 
  3257 ;;  sign            1   49[BANK0 ] unsigned char 
  3258 ;; Return value:  Size  Location     Type
  3259 ;;                  4   32[BANK0 ] unsigned char 
  3260 ;; Registers used:
  3261 ;;		wreg, status,2, status,0, btemp+1
  3262 ;; Tracked objects:
  3263 ;;		On entry : 0/0
  3264 ;;		On exit  : 0/0
  3265 ;;		Unchanged: 0/0
  3266 ;; Data sizes:     COMMON   BANK0   BANK1   BANK3   BANK2
  3267 ;;      Params:         0       8       0       0       0
  3268 ;;      Locals:         0      13       0       0       0
  3269 ;;      Temps:          0       5       0       0       0
  3270 ;;      Totals:         0      26       0       0       0
  3271 ;;Total ram usage:       26 bytes
  3272 ;; Hardware stack levels used:    1
  3273 ;; Hardware stack levels required when called:    1
  3274 ;; This function calls:
  3275 ;;		Nothing
  3276 ;; This function is called by:
  3277 ;;		_Voltage_Value
  3278 ;; This function uses a non-reentrant model
  3279 ;;
  3280                           
  3281                           
  3282                           ;psect for function ___fldiv
  3283  0377                     ___fldiv:
  3284  0377                     l1627:	
  3285                           ;incstack = 0
  3286                           ; Regs used in ___fldiv: [wreg+status,2+status,0+btemp+1]
  3287                           
  3288  0377  1283               	bcf	3,5	;RP0=0, select bank0
  3289  0378  1303               	bcf	3,6	;RP1=0, select bank0
  3290  0379  0847               	movf	___fldiv@b+3,w
  3291  037A  3980               	andlw	128
  3292  037B  00FF               	movwf	btemp+1
  3293  037C  087F               	movf	btemp+1,w
  3294  037D  00D1               	movwf	___fldiv@sign
  3295  037E                     l1629:
  3296  037E  0847               	movf	___fldiv@b+3,w
  3297  037F  00C8               	movwf	??___fldiv
  3298  0380  0748               	addwf	??___fldiv,w
  3299  0381  00FF               	movwf	btemp+1
  3300  0382  087F               	movf	btemp+1,w
  3301  0383  00D8               	movwf	___fldiv@bexp
  3302  0384                     l1631:
  3303  0384  1FC6               	btfss	___fldiv@b+2,7
  3304  0385  2B87               	goto	u1841
  3305  0386  2B88               	goto	u1840
  3306  0387                     u1841:
  3307  0387  2B89               	goto	l1635
  3308  0388                     u1840:
  3309  0388                     l1633:
  3310  0388  1458               	bsf	___fldiv@bexp,0
  3311  0389                     l1635:
  3312  0389  0858               	movf	___fldiv@bexp,w
  3313  038A  1903               	btfsc	3,2
  3314  038B  2B8D               	goto	u1851
  3315  038C  2B8E               	goto	u1850
  3316  038D                     u1851:
  3317  038D  2B9E               	goto	l1645
  3318  038E                     u1850:
  3319  038E                     l1637:
  3320  038E  0A58               	incf	___fldiv@bexp,w
  3321  038F  1D03               	btfss	3,2
  3322  0390  2B92               	goto	u1861
  3323  0391  2B93               	goto	u1860
  3324  0392                     u1861:
  3325  0392  2B9B               	goto	l1641
  3326  0393                     u1860:
  3327  0393                     l1639:
  3328  0393  3000               	movlw	0
  3329  0394  00C7               	movwf	___fldiv@b+3
  3330  0395  3000               	movlw	0
  3331  0396  00C6               	movwf	___fldiv@b+2
  3332  0397  3000               	movlw	0
  3333  0398  00C5               	movwf	___fldiv@b+1
  3334  0399  3000               	movlw	0
  3335  039A  00C4               	movwf	___fldiv@b
  3336  039B                     l1641:
  3337  039B  17C6               	bsf	___fldiv@b+2,7
  3338  039C                     l1643:
  3339  039C  01C7               	clrf	___fldiv@b+3
  3340  039D  2BA6               	goto	l1647
  3341  039E                     l1645:
  3342  039E  3000               	movlw	0
  3343  039F  00C7               	movwf	___fldiv@b+3
  3344  03A0  3000               	movlw	0
  3345  03A1  00C6               	movwf	___fldiv@b+2
  3346  03A2  3000               	movlw	0
  3347  03A3  00C5               	movwf	___fldiv@b+1
  3348  03A4  3000               	movlw	0
  3349  03A5  00C4               	movwf	___fldiv@b
  3350  03A6                     l1647:
  3351  03A6  0843               	movf	___fldiv@a+3,w
  3352  03A7  3980               	andlw	128
  3353  03A8  00FF               	movwf	btemp+1
  3354  03A9  087F               	movf	btemp+1,w
  3355  03AA  06D1               	xorwf	___fldiv@sign,f
  3356  03AB                     l1649:
  3357  03AB  0843               	movf	___fldiv@a+3,w
  3358  03AC  00C8               	movwf	??___fldiv
  3359  03AD  0748               	addwf	??___fldiv,w
  3360  03AE  00FF               	movwf	btemp+1
  3361  03AF  087F               	movf	btemp+1,w
  3362  03B0  00D9               	movwf	___fldiv@aexp
  3363  03B1                     l1651:
  3364  03B1  1FC2               	btfss	___fldiv@a+2,7
  3365  03B2  2BB4               	goto	u1871
  3366  03B3  2BB5               	goto	u1870
  3367  03B4                     u1871:
  3368  03B4  2BB6               	goto	l1655
  3369  03B5                     u1870:
  3370  03B5                     l1653:
  3371  03B5  1459               	bsf	___fldiv@aexp,0
  3372  03B6                     l1655:
  3373  03B6  0859               	movf	___fldiv@aexp,w
  3374  03B7  1903               	btfsc	3,2
  3375  03B8  2BBA               	goto	u1881
  3376  03B9  2BBB               	goto	u1880
  3377  03BA                     u1881:
  3378  03BA  2BCB               	goto	l1665
  3379  03BB                     u1880:
  3380  03BB                     l1657:
  3381  03BB  0A59               	incf	___fldiv@aexp,w
  3382  03BC  1D03               	btfss	3,2
  3383  03BD  2BBF               	goto	u1891
  3384  03BE  2BC0               	goto	u1890
  3385  03BF                     u1891:
  3386  03BF  2BC8               	goto	l1661
  3387  03C0                     u1890:
  3388  03C0                     l1659:
  3389  03C0  3000               	movlw	0
  3390  03C1  00C3               	movwf	___fldiv@a+3
  3391  03C2  3000               	movlw	0
  3392  03C3  00C2               	movwf	___fldiv@a+2
  3393  03C4  3000               	movlw	0
  3394  03C5  00C1               	movwf	___fldiv@a+1
  3395  03C6  3000               	movlw	0
  3396  03C7  00C0               	movwf	___fldiv@a
  3397  03C8                     l1661:
  3398  03C8  17C2               	bsf	___fldiv@a+2,7
  3399  03C9                     l1663:
  3400  03C9  01C3               	clrf	___fldiv@a+3
  3401  03CA  2BD3               	goto	l536
  3402  03CB                     l1665:
  3403  03CB  3000               	movlw	0
  3404  03CC  00C3               	movwf	___fldiv@a+3
  3405  03CD  3000               	movlw	0
  3406  03CE  00C2               	movwf	___fldiv@a+2
  3407  03CF  3000               	movlw	0
  3408  03D0  00C1               	movwf	___fldiv@a+1
  3409  03D1  3000               	movlw	0
  3410  03D2  00C0               	movwf	___fldiv@a
  3411  03D3                     l536:
  3412  03D3  0843               	movf	___fldiv@a+3,w
  3413  03D4  0442               	iorwf	___fldiv@a+2,w
  3414  03D5  0441               	iorwf	___fldiv@a+1,w
  3415  03D6  0440               	iorwf	___fldiv@a,w
  3416  03D7  1D03               	skipz
  3417  03D8  2BDA               	goto	u1901
  3418  03D9  2BDB               	goto	u1900
  3419  03DA                     u1901:
  3420  03DA  2BF4               	goto	l1675
  3421  03DB                     u1900:
  3422  03DB                     l1667:
  3423  03DB  3000               	movlw	0
  3424  03DC  00C7               	movwf	___fldiv@b+3
  3425  03DD  3000               	movlw	0
  3426  03DE  00C6               	movwf	___fldiv@b+2
  3427  03DF  3000               	movlw	0
  3428  03E0  00C5               	movwf	___fldiv@b+1
  3429  03E1  3000               	movlw	0
  3430  03E2  00C4               	movwf	___fldiv@b
  3431  03E3  3080               	movlw	128
  3432  03E4  04C6               	iorwf	___fldiv@b+2,f
  3433  03E5  307F               	movlw	127
  3434  03E6  04C7               	iorwf	___fldiv@b+3,f
  3435  03E7                     l1669:
  3436  03E7  0851               	movf	___fldiv@sign,w
  3437  03E8  00FF               	movwf	btemp+1
  3438  03E9  087F               	movf	btemp+1,w
  3439  03EA  04C7               	iorwf	___fldiv@b+3,f
  3440  03EB                     l1671:
  3441  03EB  0847               	movf	___fldiv@b+3,w
  3442  03EC  00C3               	movwf	?___fldiv+3
  3443  03ED  0846               	movf	___fldiv@b+2,w
  3444  03EE  00C2               	movwf	?___fldiv+2
  3445  03EF  0845               	movf	___fldiv@b+1,w
  3446  03F0  00C1               	movwf	?___fldiv+1
  3447  03F1  0844               	movf	___fldiv@b,w
  3448  03F2  00C0               	movwf	?___fldiv
  3449  03F3  2D53               	goto	l538
  3450  03F4                     l1675:
  3451  03F4  0858               	movf	___fldiv@bexp,w
  3452  03F5  1D03               	btfss	3,2
  3453  03F6  2BF8               	goto	u1911
  3454  03F7  2BF9               	goto	u1910
  3455  03F8                     u1911:
  3456  03F8  2C02               	goto	l1681
  3457  03F9                     u1910:
  3458  03F9                     l1677:
  3459  03F9  3000               	movlw	0
  3460  03FA  00C3               	movwf	?___fldiv+3
  3461  03FB  3000               	movlw	0
  3462  03FC  00C2               	movwf	?___fldiv+2
  3463  03FD  3000               	movlw	0
  3464  03FE  00C1               	movwf	?___fldiv+1
  3465  03FF  3000               	movlw	0
  3466  0400  00C0               	movwf	?___fldiv
  3467  0401  2D53               	goto	l538
  3468  0402                     l1681:
  3469  0402  0858               	movf	___fldiv@bexp,w
  3470  0403  00C8               	movwf	??___fldiv
  3471  0404  01C9               	clrf	??___fldiv+1
  3472  0405  0849               	movf	??___fldiv+1,w
  3473  0406  00CB               	movwf	??___fldiv+3
  3474  0407  0859               	movf	___fldiv@aexp,w
  3475  0408  0248               	subwf	??___fldiv,w
  3476  0409  00CA               	movwf	??___fldiv+2
  3477  040A  1C03               	skipc
  3478  040B  03CB               	decf	??___fldiv+3,f
  3479  040C  084A               	movf	??___fldiv+2,w
  3480  040D  3E7F               	addlw	127
  3481  040E  00D2               	movwf	___fldiv@new_exp
  3482  040F  084B               	movf	??___fldiv+3,w
  3483  0410  1803               	skipnc
  3484  0411  3E01               	addlw	1
  3485  0412  3E00               	addlw	0
  3486  0413  00D3               	movwf	___fldiv@new_exp+1
  3487  0414                     l1683:
  3488  0414  0847               	movf	___fldiv@b+3,w
  3489  0415  00D0               	movwf	___fldiv@rem+3
  3490  0416  0846               	movf	___fldiv@b+2,w
  3491  0417  00CF               	movwf	___fldiv@rem+2
  3492  0418  0845               	movf	___fldiv@b+1,w
  3493  0419  00CE               	movwf	___fldiv@rem+1
  3494  041A  0844               	movf	___fldiv@b,w
  3495  041B  00CD               	movwf	___fldiv@rem
  3496  041C                     l1685:
  3497  041C  3000               	movlw	0
  3498  041D  00C7               	movwf	___fldiv@b+3
  3499  041E  3000               	movlw	0
  3500  041F  00C6               	movwf	___fldiv@b+2
  3501  0420  3000               	movlw	0
  3502  0421  00C5               	movwf	___fldiv@b+1
  3503  0422  3000               	movlw	0
  3504  0423  00C4               	movwf	___fldiv@b
  3505  0424                     l1687:
  3506  0424  3000               	movlw	0
  3507  0425  00D7               	movwf	___fldiv@grs+3
  3508  0426  3000               	movlw	0
  3509  0427  00D6               	movwf	___fldiv@grs+2
  3510  0428  3000               	movlw	0
  3511  0429  00D5               	movwf	___fldiv@grs+1
  3512  042A  3000               	movlw	0
  3513  042B  00D4               	movwf	___fldiv@grs
  3514  042C                     l1689:
  3515  042C  01D9               	clrf	___fldiv@aexp
  3516  042D  2C78               	goto	l1709
  3517  042E                     l1691:
  3518  042E  0859               	movf	___fldiv@aexp,w
  3519  042F  1903               	btfsc	3,2
  3520  0430  2C32               	goto	u1921
  3521  0431  2C33               	goto	u1920
  3522  0432                     u1921:
  3523  0432  2C53               	goto	l1701
  3524  0433                     u1920:
  3525  0433                     l1693:
  3526  0433  3001               	movlw	1
  3527  0434  00C8               	movwf	??___fldiv
  3528  0435                     u1935:
  3529  0435  1003               	clrc
  3530  0436  0DCD               	rlf	___fldiv@rem,f
  3531  0437  0DCE               	rlf	___fldiv@rem+1,f
  3532  0438  0DCF               	rlf	___fldiv@rem+2,f
  3533  0439  0DD0               	rlf	___fldiv@rem+3,f
  3534  043A  0BC8               	decfsz	??___fldiv,f
  3535  043B  2C35               	goto	u1935
  3536  043C  3001               	movlw	1
  3537  043D  00C8               	movwf	??___fldiv
  3538  043E                     u1945:
  3539  043E  1003               	clrc
  3540  043F  0DC4               	rlf	___fldiv@b,f
  3541  0440  0DC5               	rlf	___fldiv@b+1,f
  3542  0441  0DC6               	rlf	___fldiv@b+2,f
  3543  0442  0DC7               	rlf	___fldiv@b+3,f
  3544  0443  0BC8               	decfsz	??___fldiv,f
  3545  0444  2C3E               	goto	u1945
  3546  0445                     l1695:
  3547  0445  1FD7               	btfss	___fldiv@grs+3,7
  3548  0446  2C48               	goto	u1951
  3549  0447  2C49               	goto	u1950
  3550  0448                     u1951:
  3551  0448  2C4A               	goto	l1699
  3552  0449                     u1950:
  3553  0449                     l1697:
  3554  0449  1444               	bsf	___fldiv@b,0
  3555  044A                     l1699:
  3556  044A  3001               	movlw	1
  3557  044B  00C8               	movwf	??___fldiv
  3558  044C                     u1965:
  3559  044C  1003               	clrc
  3560  044D  0DD4               	rlf	___fldiv@grs,f
  3561  044E  0DD5               	rlf	___fldiv@grs+1,f
  3562  044F  0DD6               	rlf	___fldiv@grs+2,f
  3563  0450  0DD7               	rlf	___fldiv@grs+3,f
  3564  0451  0BC8               	decfsz	??___fldiv,f
  3565  0452  2C4C               	goto	u1965
  3566  0453                     l1701:
  3567  0453  0843               	movf	___fldiv@a+3,w
  3568  0454  0250               	subwf	___fldiv@rem+3,w
  3569  0455  1D03               	skipz
  3570  0456  2C61               	goto	u1975
  3571  0457  0842               	movf	___fldiv@a+2,w
  3572  0458  024F               	subwf	___fldiv@rem+2,w
  3573  0459  1D03               	skipz
  3574  045A  2C61               	goto	u1975
  3575  045B  0841               	movf	___fldiv@a+1,w
  3576  045C  024E               	subwf	___fldiv@rem+1,w
  3577  045D  1D03               	skipz
  3578  045E  2C61               	goto	u1975
  3579  045F  0840               	movf	___fldiv@a,w
  3580  0460  024D               	subwf	___fldiv@rem,w
  3581  0461                     u1975:
  3582  0461  1C03               	skipc
  3583  0462  2C64               	goto	u1971
  3584  0463  2C65               	goto	u1970
  3585  0464                     u1971:
  3586  0464  2C74               	goto	l1707
  3587  0465                     u1970:
  3588  0465                     l1703:
  3589  0465  1757               	bsf	___fldiv@grs+3,6
  3590  0466                     l1705:
  3591  0466  0840               	movf	___fldiv@a,w
  3592  0467  02CD               	subwf	___fldiv@rem,f
  3593  0468  0841               	movf	___fldiv@a+1,w
  3594  0469  1C03               	skipc
  3595  046A  0F41               	incfsz	___fldiv@a+1,w
  3596  046B  02CE               	subwf	___fldiv@rem+1,f
  3597  046C  0842               	movf	___fldiv@a+2,w
  3598  046D  1C03               	skipc
  3599  046E  0F42               	incfsz	___fldiv@a+2,w
  3600  046F  02CF               	subwf	___fldiv@rem+2,f
  3601  0470  0843               	movf	___fldiv@a+3,w
  3602  0471  1C03               	skipc
  3603  0472  0F43               	incfsz	___fldiv@a+3,w
  3604  0473  02D0               	subwf	___fldiv@rem+3,f
  3605  0474                     l1707:
  3606  0474  3001               	movlw	1
  3607  0475  00FF               	movwf	btemp+1
  3608  0476  087F               	movf	btemp+1,w
  3609  0477  07D9               	addwf	___fldiv@aexp,f
  3610  0478                     l1709:
  3611  0478  301A               	movlw	26
  3612  0479  0259               	subwf	___fldiv@aexp,w
  3613  047A  1C03               	skipc
  3614  047B  2C7D               	goto	u1981
  3615  047C  2C7E               	goto	u1980
  3616  047D                     u1981:
  3617  047D  2C2E               	goto	l1691
  3618  047E                     u1980:
  3619  047E                     l1711:
  3620  047E  0850               	movf	___fldiv@rem+3,w
  3621  047F  044F               	iorwf	___fldiv@rem+2,w
  3622  0480  044E               	iorwf	___fldiv@rem+1,w
  3623  0481  044D               	iorwf	___fldiv@rem,w
  3624  0482  1903               	skipnz
  3625  0483  2C85               	goto	u1991
  3626  0484  2C86               	goto	u1990
  3627  0485                     u1991:
  3628  0485  2CA5               	goto	l1725
  3629  0486                     u1990:
  3630  0486                     l1713:
  3631  0486  1454               	bsf	___fldiv@grs,0
  3632  0487  2CA5               	goto	l1725
  3633  0488                     l1715:
  3634  0488  3001               	movlw	1
  3635  0489  00C8               	movwf	??___fldiv
  3636  048A                     u2005:
  3637  048A  1003               	clrc
  3638  048B  0DC4               	rlf	___fldiv@b,f
  3639  048C  0DC5               	rlf	___fldiv@b+1,f
  3640  048D  0DC6               	rlf	___fldiv@b+2,f
  3641  048E  0DC7               	rlf	___fldiv@b+3,f
  3642  048F  0BC8               	decfsz	??___fldiv,f
  3643  0490  2C8A               	goto	u2005
  3644  0491                     l1717:
  3645  0491  1FD7               	btfss	___fldiv@grs+3,7
  3646  0492  2C94               	goto	u2011
  3647  0493  2C95               	goto	u2010
  3648  0494                     u2011:
  3649  0494  2C96               	goto	l1721
  3650  0495                     u2010:
  3651  0495                     l1719:
  3652  0495  1444               	bsf	___fldiv@b,0
  3653  0496                     l1721:
  3654  0496  3001               	movlw	1
  3655  0497  00C8               	movwf	??___fldiv
  3656  0498                     u2025:
  3657  0498  1003               	clrc
  3658  0499  0DD4               	rlf	___fldiv@grs,f
  3659  049A  0DD5               	rlf	___fldiv@grs+1,f
  3660  049B  0DD6               	rlf	___fldiv@grs+2,f
  3661  049C  0DD7               	rlf	___fldiv@grs+3,f
  3662  049D  0BC8               	decfsz	??___fldiv,f
  3663  049E  2C98               	goto	u2025
  3664  049F                     l1723:
  3665  049F  30FF               	movlw	255
  3666  04A0  07D2               	addwf	___fldiv@new_exp,f
  3667  04A1  1803               	skipnc
  3668  04A2  0AD3               	incf	___fldiv@new_exp+1,f
  3669  04A3  30FF               	movlw	255
  3670  04A4  07D3               	addwf	___fldiv@new_exp+1,f
  3671  04A5                     l1725:
  3672  04A5  1FC6               	btfss	___fldiv@b+2,7
  3673  04A6  2CA8               	goto	u2031
  3674  04A7  2CA9               	goto	u2030
  3675  04A8                     u2031:
  3676  04A8  2C88               	goto	l1715
  3677  04A9                     u2030:
  3678  04A9                     l1727:
  3679  04A9  01D9               	clrf	___fldiv@aexp
  3680  04AA                     l1729:
  3681  04AA  1FD7               	btfss	___fldiv@grs+3,7
  3682  04AB  2CAD               	goto	u2041
  3683  04AC  2CAE               	goto	u2040
  3684  04AD                     u2041:
  3685  04AD  2CCA               	goto	l1737
  3686  04AE                     u2040:
  3687  04AE                     l1731:
  3688  04AE  30FF               	movlw	255
  3689  04AF  0554               	andwf	___fldiv@grs,w
  3690  04B0  00C8               	movwf	??___fldiv
  3691  04B1  30FF               	movlw	255
  3692  04B2  0555               	andwf	___fldiv@grs+1,w
  3693  04B3  00C9               	movwf	??___fldiv+1
  3694  04B4  30FF               	movlw	255
  3695  04B5  0556               	andwf	___fldiv@grs+2,w
  3696  04B6  00CA               	movwf	??___fldiv+2
  3697  04B7  307F               	movlw	127
  3698  04B8  0557               	andwf	___fldiv@grs+3,w
  3699  04B9  00CB               	movwf	??___fldiv+3
  3700  04BA  084B               	movf	??___fldiv+3,w
  3701  04BB  044A               	iorwf	??___fldiv+2,w
  3702  04BC  0449               	iorwf	??___fldiv+1,w
  3703  04BD  0448               	iorwf	??___fldiv,w
  3704  04BE  1903               	skipnz
  3705  04BF  2CC1               	goto	u2051
  3706  04C0  2CC2               	goto	u2050
  3707  04C1                     u2051:
  3708  04C1  2CC5               	goto	l552
  3709  04C2                     u2050:
  3710  04C2                     l1733:
  3711  04C2  01D9               	clrf	___fldiv@aexp
  3712  04C3  0AD9               	incf	___fldiv@aexp,f
  3713  04C4  2CCA               	goto	l1737
  3714  04C5                     l552:
  3715  04C5  1C44               	btfss	___fldiv@b,0
  3716  04C6  2CC8               	goto	u2061
  3717  04C7  2CC9               	goto	u2060
  3718  04C8                     u2061:
  3719  04C8  2CCA               	goto	l1737
  3720  04C9                     u2060:
  3721  04C9  2CC2               	goto	l1733
  3722  04CA                     l1737:
  3723  04CA  0859               	movf	___fldiv@aexp,w
  3724  04CB  1903               	btfsc	3,2
  3725  04CC  2CCE               	goto	u2071
  3726  04CD  2CCF               	goto	u2070
  3727  04CE                     u2071:
  3728  04CE  2D00               	goto	l1747
  3729  04CF                     u2070:
  3730  04CF                     l1739:
  3731  04CF  3001               	movlw	1
  3732  04D0  07C4               	addwf	___fldiv@b,f
  3733  04D1  3000               	movlw	0
  3734  04D2  1803               	skipnc
  3735  04D3  3001               	movlw	1
  3736  04D4  07C5               	addwf	___fldiv@b+1,f
  3737  04D5  3000               	movlw	0
  3738  04D6  1803               	skipnc
  3739  04D7  3001               	movlw	1
  3740  04D8  07C6               	addwf	___fldiv@b+2,f
  3741  04D9  3000               	movlw	0
  3742  04DA  1803               	skipnc
  3743  04DB  3001               	movlw	1
  3744  04DC  07C7               	addwf	___fldiv@b+3,f
  3745  04DD                     l1741:
  3746  04DD  1C47               	btfss	___fldiv@b+3,0
  3747  04DE  2CE0               	goto	u2081
  3748  04DF  2CE1               	goto	u2080
  3749  04E0                     u2081:
  3750  04E0  2D00               	goto	l1747
  3751  04E1                     u2080:
  3752  04E1                     l1743:
  3753  04E1  0844               	movf	___fldiv@b,w
  3754  04E2  00C8               	movwf	??___fldiv
  3755  04E3  0845               	movf	___fldiv@b+1,w
  3756  04E4  00C9               	movwf	??___fldiv+1
  3757  04E5  0846               	movf	___fldiv@b+2,w
  3758  04E6  00CA               	movwf	??___fldiv+2
  3759  04E7  0847               	movf	___fldiv@b+3,w
  3760  04E8  00CB               	movwf	??___fldiv+3
  3761  04E9  3001               	movlw	1
  3762  04EA  00CC               	movwf	??___fldiv+4
  3763  04EB                     u2095:
  3764  04EB  0D4B               	rlf	??___fldiv+3,w
  3765  04EC  0CCB               	rrf	??___fldiv+3,f
  3766  04ED  0CCA               	rrf	??___fldiv+2,f
  3767  04EE  0CC9               	rrf	??___fldiv+1,f
  3768  04EF  0CC8               	rrf	??___fldiv,f
  3769  04F0                     u2090:
  3770  04F0  0BCC               	decfsz	??___fldiv+4,f
  3771  04F1  2CEB               	goto	u2095
  3772  04F2  084B               	movf	??___fldiv+3,w
  3773  04F3  00C7               	movwf	___fldiv@b+3
  3774  04F4  084A               	movf	??___fldiv+2,w
  3775  04F5  00C6               	movwf	___fldiv@b+2
  3776  04F6  0849               	movf	??___fldiv+1,w
  3777  04F7  00C5               	movwf	___fldiv@b+1
  3778  04F8  0848               	movf	??___fldiv,w
  3779  04F9  00C4               	movwf	___fldiv@b
  3780  04FA                     l1745:
  3781  04FA  3001               	movlw	1
  3782  04FB  07D2               	addwf	___fldiv@new_exp,f
  3783  04FC  1803               	skipnc
  3784  04FD  0AD3               	incf	___fldiv@new_exp+1,f
  3785  04FE  3000               	movlw	0
  3786  04FF  07D3               	addwf	___fldiv@new_exp+1,f
  3787  0500                     l1747:
  3788  0500  0853               	movf	___fldiv@new_exp+1,w
  3789  0501  3A80               	xorlw	128
  3790  0502  00FF               	movwf	btemp+1
  3791  0503  3080               	movlw	128
  3792  0504  027F               	subwf	btemp+1,w
  3793  0505  1D03               	skipz
  3794  0506  2D09               	goto	u2105
  3795  0507  30FF               	movlw	255
  3796  0508  0252               	subwf	___fldiv@new_exp,w
  3797  0509                     u2105:
  3798  0509  1C03               	skipc
  3799  050A  2D0C               	goto	u2101
  3800  050B  2D0D               	goto	u2100
  3801  050C                     u2101:
  3802  050C  2D1B               	goto	l1751
  3803  050D                     u2100:
  3804  050D                     l1749:
  3805  050D  30FF               	movlw	255
  3806  050E  1283               	bcf	3,5	;RP0=0, select bank0
  3807  050F  1303               	bcf	3,6	;RP1=0, select bank0
  3808  0510  00D2               	movwf	___fldiv@new_exp
  3809  0511  3000               	movlw	0
  3810  0512  00D3               	movwf	___fldiv@new_exp+1
  3811  0513  3000               	movlw	0
  3812  0514  00C7               	movwf	___fldiv@b+3
  3813  0515  3000               	movlw	0
  3814  0516  00C6               	movwf	___fldiv@b+2
  3815  0517  3000               	movlw	0
  3816  0518  00C5               	movwf	___fldiv@b+1
  3817  0519  3000               	movlw	0
  3818  051A  00C4               	movwf	___fldiv@b
  3819  051B                     l1751:
  3820  051B  1283               	bcf	3,5	;RP0=0, select bank0
  3821  051C  1303               	bcf	3,6	;RP1=0, select bank0
  3822  051D  0853               	movf	___fldiv@new_exp+1,w
  3823  051E  3A80               	xorlw	128
  3824  051F  00FF               	movwf	btemp+1
  3825  0520  3080               	movlw	128
  3826  0521  027F               	subwf	btemp+1,w
  3827  0522  1D03               	skipz
  3828  0523  2D26               	goto	u2115
  3829  0524  3001               	movlw	1
  3830  0525  0252               	subwf	___fldiv@new_exp,w
  3831  0526                     u2115:
  3832  0526  1803               	skipnc
  3833  0527  2D29               	goto	u2111
  3834  0528  2D2A               	goto	u2110
  3835  0529                     u2111:
  3836  0529  2D37               	goto	l1759
  3837  052A                     u2110:
  3838  052A                     l1753:
  3839  052A  1283               	bcf	3,5	;RP0=0, select bank0
  3840  052B  1303               	bcf	3,6	;RP1=0, select bank0
  3841  052C  01D2               	clrf	___fldiv@new_exp
  3842  052D  01D3               	clrf	___fldiv@new_exp+1
  3843  052E                     l1755:
  3844  052E  3000               	movlw	0
  3845  052F  00C7               	movwf	___fldiv@b+3
  3846  0530  3000               	movlw	0
  3847  0531  00C6               	movwf	___fldiv@b+2
  3848  0532  3000               	movlw	0
  3849  0533  00C5               	movwf	___fldiv@b+1
  3850  0534  3000               	movlw	0
  3851  0535  00C4               	movwf	___fldiv@b
  3852  0536                     l1757:
  3853  0536  01D1               	clrf	___fldiv@sign
  3854  0537                     l1759:
  3855  0537  1283               	bcf	3,5	;RP0=0, select bank0
  3856  0538  1303               	bcf	3,6	;RP1=0, select bank0
  3857  0539  0852               	movf	___fldiv@new_exp,w
  3858  053A  00FF               	movwf	btemp+1
  3859  053B  087F               	movf	btemp+1,w
  3860  053C  00D8               	movwf	___fldiv@bexp
  3861  053D                     l1761:
  3862  053D  1C58               	btfss	___fldiv@bexp,0
  3863  053E  2D40               	goto	u2121
  3864  053F  2D41               	goto	u2120
  3865  0540                     u2121:
  3866  0540  2D43               	goto	l1765
  3867  0541                     u2120:
  3868  0541                     l1763:
  3869  0541  17C6               	bsf	___fldiv@b+2,7
  3870  0542  2D47               	goto	l560
  3871  0543                     l1765:
  3872  0543  307F               	movlw	127
  3873  0544  00FF               	movwf	btemp+1
  3874  0545  087F               	movf	btemp+1,w
  3875  0546  05C6               	andwf	___fldiv@b+2,f
  3876  0547                     l560:
  3877  0547  0858               	movf	___fldiv@bexp,w
  3878  0548  00C8               	movwf	??___fldiv
  3879  0549  1003               	clrc
  3880  054A  0C48               	rrf	??___fldiv,w
  3881  054B  00FF               	movwf	btemp+1
  3882  054C  087F               	movf	btemp+1,w
  3883  054D  00C7               	movwf	___fldiv@b+3
  3884  054E  0851               	movf	___fldiv@sign,w
  3885  054F  00FF               	movwf	btemp+1
  3886  0550  087F               	movf	btemp+1,w
  3887  0551  04C7               	iorwf	___fldiv@b+3,f
  3888  0552  2BEB               	goto	l1671
  3889  0553                     l538:
  3890  0553  0008               	return
  3891  0554                     __end_of___fldiv:
  3892                           
  3893                           	psect	text10
  3894  0CFF                     __ptext10:	
  3895 ;; *************** function _TIMER_init_timer1 *****************
  3896 ;; Defined at:
  3897 ;;		line 8 in file "timer.c"
  3898 ;; Parameters:    Size  Location     Type
  3899 ;;		None
  3900 ;; Auto vars:     Size  Location     Type
  3901 ;;		None
  3902 ;; Return value:  Size  Location     Type
  3903 ;;                  1    wreg      void 
  3904 ;; Registers used:
  3905 ;;		wreg
  3906 ;; Tracked objects:
  3907 ;;		On entry : 0/0
  3908 ;;		On exit  : 0/0
  3909 ;;		Unchanged: 0/0
  3910 ;; Data sizes:     COMMON   BANK0   BANK1   BANK3   BANK2
  3911 ;;      Params:         0       0       0       0       0
  3912 ;;      Locals:         0       0       0       0       0
  3913 ;;      Temps:          0       0       0       0       0
  3914 ;;      Totals:         0       0       0       0       0
  3915 ;;Total ram usage:        0 bytes
  3916 ;; Hardware stack levels used:    1
  3917 ;; Hardware stack levels required when called:    1
  3918 ;; This function calls:
  3919 ;;		Nothing
  3920 ;; This function is called by:
  3921 ;;		_main
  3922 ;; This function uses a non-reentrant model
  3923 ;;
  3924                           
  3925                           
  3926                           ;psect for function _TIMER_init_timer1
  3927  0CFF                     _TIMER_init_timer1:
  3928  0CFF                     l1993:	
  3929                           ;incstack = 0
  3930                           ; Regs used in _TIMER_init_timer1: [wreg]
  3931                           
  3932                           
  3933                           ;timer.c: 10:     TMRA = 65535-5000;
  3934  0CFF  3077               	movlw	119
  3935  0D00  1283               	bcf	3,5	;RP0=0, select bank2
  3936  0D01  1703               	bsf	3,6	;RP1=1, select bank2
  3937  0D02  0090               	movwf	16	;volatile
  3938  0D03                     l1995:
  3939                           
  3940                           ;timer.c: 24:     T1OSCEN=0;
  3941  0D03  1283               	bcf	3,5	;RP0=0, select bank0
  3942  0D04  1303               	bcf	3,6	;RP1=0, select bank0
  3943  0D05  1190               	bcf	16,3	;volatile
  3944  0D06                     l1997:
  3945                           
  3946                           ;timer.c: 36:     TMRCS1=0;
  3947  0D06  1390               	bcf	16,7	;volatile
  3948  0D07                     l1999:
  3949                           
  3950                           ;timer.c: 37:     TMRCS0=0;
  3951  0D07  1310               	bcf	16,6	;volatile
  3952  0D08                     l2001:
  3953                           
  3954                           ;timer.c: 46:     T1CKPS0=1;
  3955  0D08  1610               	bsf	16,4	;volatile
  3956  0D09                     l2003:
  3957                           
  3958                           ;timer.c: 47:     T1CKPS1=1;
  3959  0D09  1690               	bsf	16,5	;volatile
  3960  0D0A                     l2005:
  3961                           
  3962                           ;timer.c: 56:     T1SYNC=1;
  3963  0D0A  1510               	bsf	16,2	;volatile
  3964  0D0B                     l2007:
  3965                           
  3966                           ;timer.c: 62:     TMR1ON=1;
  3967  0D0B  1410               	bsf	16,0	;volatile
  3968  0D0C                     l2009:
  3969                           
  3970                           ;timer.c: 71:     TMR1GE=0;
  3971  0D0C  1683               	bsf	3,5	;RP0=1, select bank1
  3972  0D0D  1303               	bcf	3,6	;RP1=0, select bank1
  3973  0D0E  138F               	bcf	15,7	;volatile
  3974  0D0F                     l2011:
  3975                           
  3976                           ;timer.c: 75:     TMR1IE=1;
  3977  0D0F  140C               	bsf	12,0	;volatile
  3978  0D10                     l176:
  3979  0D10  0008               	return
  3980  0D11                     __end_of_TIMER_init_timer1:
  3981                           
  3982                           	psect	text11
  3983  0D26                     __ptext11:	
  3984 ;; *************** function _PORT_putString *****************
  3985 ;; Defined at:
  3986 ;;		line 136 in file "port.c"
  3987 ;; Parameters:    Size  Location     Type
  3988 ;;  chaine          1    wreg     PTR unsigned char 
  3989 ;;		 -> STR_4(2), STR_3(16), STR_2(2), STR_1(16), 
  3990 ;; Auto vars:     Size  Location     Type
  3991 ;;  chaine          1    5[COMMON] PTR unsigned char 
  3992 ;;		 -> STR_4(2), STR_3(16), STR_2(2), STR_1(16), 
  3993 ;;  i               2    3[COMMON] int 
  3994 ;; Return value:  Size  Location     Type
  3995 ;;                  1    wreg      void 
  3996 ;; Registers used:
  3997 ;;		wreg, fsr0l, fsr0h, status,2, status,0, pclath, cstack
  3998 ;; Tracked objects:
  3999 ;;		On entry : 0/0
  4000 ;;		On exit  : 0/0
  4001 ;;		Unchanged: 0/0
  4002 ;; Data sizes:     COMMON   BANK0   BANK1   BANK3   BANK2
  4003 ;;      Params:         0       0       0       0       0
  4004 ;;      Locals:         3       0       0       0       0
  4005 ;;      Temps:          0       0       0       0       0
  4006 ;;      Totals:         3       0       0       0       0
  4007 ;;Total ram usage:        3 bytes
  4008 ;; Hardware stack levels used:    1
  4009 ;; Hardware stack levels required when called:    2
  4010 ;; This function calls:
  4011 ;;		_PORT_putchar
  4012 ;; This function is called by:
  4013 ;;		_main
  4014 ;; This function uses a non-reentrant model
  4015 ;;
  4016                           
  4017                           
  4018                           ;psect for function _PORT_putString
  4019  0D26                     _PORT_putString:
  4020                           
  4021                           ;incstack = 0
  4022                           ; Regs used in _PORT_putString: [wreg-fsr0h+status,2+status,0+pclath+cstack]
  4023                           ;PORT_putString@chaine stored from wreg
  4024  0D26  00F5               	movwf	PORT_putString@chaine
  4025  0D27                     l2029:
  4026                           
  4027                           ;port.c: 138:     int i;;port.c: 140:     for(i=0 ; chaine[i]!=0 ; i++)
  4028  0D27  01F3               	clrf	PORT_putString@i
  4029  0D28  01F4               	clrf	PORT_putString@i+1
  4030  0D29  2D3D               	goto	l2035
  4031  0D2A                     l2031:
  4032                           
  4033                           ;port.c: 141:     {;port.c: 142:         PORT_putchar(chaine[i]);
  4034  0D2A  0873               	movf	PORT_putString@i,w
  4035  0D2B  0775               	addwf	PORT_putString@chaine,w
  4036  0D2C  0084               	movwf	4
  4037  0D2D  120A  158A  2000  120A  158A  	fcall	stringdir
  4038  0D32  120A  158A  24BF  120A  158A  	fcall	_PORT_putchar
  4039  0D37                     l2033:
  4040                           
  4041                           ;port.c: 143:     }
  4042  0D37  3001               	movlw	1
  4043  0D38  07F3               	addwf	PORT_putString@i,f
  4044  0D39  1803               	skipnc
  4045  0D3A  0AF4               	incf	PORT_putString@i+1,f
  4046  0D3B  3000               	movlw	0
  4047  0D3C  07F4               	addwf	PORT_putString@i+1,f
  4048  0D3D                     l2035:
  4049  0D3D  0873               	movf	PORT_putString@i,w
  4050  0D3E  0775               	addwf	PORT_putString@chaine,w
  4051  0D3F  0084               	movwf	4
  4052  0D40  120A  158A  2000  120A  158A  	fcall	stringdir
  4053  0D45  3A00               	xorlw	0
  4054  0D46  1D03               	skipz
  4055  0D47  2D49               	goto	u2671
  4056  0D48  2D4A               	goto	u2670
  4057  0D49                     u2671:
  4058  0D49  2D2A               	goto	l2031
  4059  0D4A                     u2670:
  4060  0D4A                     l138:
  4061  0D4A  0008               	return
  4062  0D4B                     __end_of_PORT_putString:
  4063                           
  4064                           	psect	text12
  4065  07F6                     __ptext12:	
  4066 ;; *************** function _PORT_Select_Mux1 *****************
  4067 ;; Defined at:
  4068 ;;		line 158 in file "port.c"
  4069 ;; Parameters:    Size  Location     Type
  4070 ;;		None
  4071 ;; Auto vars:     Size  Location     Type
  4072 ;;		None
  4073 ;; Return value:  Size  Location     Type
  4074 ;;                  1    wreg      void 
  4075 ;; Registers used:
  4076 ;;		wreg, status,2, status,0, btemp+1
  4077 ;; Tracked objects:
  4078 ;;		On entry : 0/0
  4079 ;;		On exit  : 0/0
  4080 ;;		Unchanged: 0/0
  4081 ;; Data sizes:     COMMON   BANK0   BANK1   BANK3   BANK2
  4082 ;;      Params:         0       0       0       0       0
  4083 ;;      Locals:         0       0       0       0       0
  4084 ;;      Temps:          0       0       0       0       0
  4085 ;;      Totals:         0       0       0       0       0
  4086 ;;Total ram usage:        0 bytes
  4087 ;; Hardware stack levels used:    1
  4088 ;; Hardware stack levels required when called:    1
  4089 ;; This function calls:
  4090 ;;		Nothing
  4091 ;; This function is called by:
  4092 ;;		_main
  4093 ;; This function uses a non-reentrant model
  4094 ;;
  4095                           
  4096                           
  4097                           ;psect for function _PORT_Select_Mux1
  4098  07F6                     _PORT_Select_Mux1:
  4099  07F6                     l2013:	
  4100                           ;incstack = 0
  4101                           ; Regs used in _PORT_Select_Mux1: [wreg+status,2+status,0+btemp+1]
  4102                           
  4103                           
  4104                           ;port.c: 159:     PORTD |= 0x10;
  4105  07F6  1283               	bcf	3,5	;RP0=0, select bank0
  4106  07F7  1303               	bcf	3,6	;RP1=0, select bank0
  4107  07F8  1608               	bsf	8,4	;volatile
  4108  07F9                     l2015:
  4109                           
  4110                           ;port.c: 160:     PORTD &= 0xDF;
  4111  07F9  30DF               	movlw	223
  4112  07FA  00FF               	movwf	btemp+1
  4113  07FB  087F               	movf	btemp+1,w
  4114  07FC  0588               	andwf	8,f	;volatile
  4115  07FD                     l144:
  4116  07FD  0008               	return
  4117  07FE                     __end_of_PORT_Select_Mux1:
  4118                           
  4119                           	psect	text13
  4120  0CB2                     __ptext13:	
  4121 ;; *************** function _PORT_Init_Gain *****************
  4122 ;; Defined at:
  4123 ;;		line 166 in file "port.c"
  4124 ;; Parameters:    Size  Location     Type
  4125 ;;		None
  4126 ;; Auto vars:     Size  Location     Type
  4127 ;;		None
  4128 ;; Return value:  Size  Location     Type
  4129 ;;                  1    wreg      void 
  4130 ;; Registers used:
  4131 ;;		None
  4132 ;; Tracked objects:
  4133 ;;		On entry : 0/0
  4134 ;;		On exit  : 0/0
  4135 ;;		Unchanged: 0/0
  4136 ;; Data sizes:     COMMON   BANK0   BANK1   BANK3   BANK2
  4137 ;;      Params:         0       0       0       0       0
  4138 ;;      Locals:         0       0       0       0       0
  4139 ;;      Temps:          0       0       0       0       0
  4140 ;;      Totals:         0       0       0       0       0
  4141 ;;Total ram usage:        0 bytes
  4142 ;; Hardware stack levels used:    1
  4143 ;; Hardware stack levels required when called:    1
  4144 ;; This function calls:
  4145 ;;		Nothing
  4146 ;; This function is called by:
  4147 ;;		_main
  4148 ;; This function uses a non-reentrant model
  4149 ;;
  4150                           
  4151                           
  4152                           ;psect for function _PORT_Init_Gain
  4153  0CB2                     _PORT_Init_Gain:
  4154  0CB2                     l2017:	
  4155                           ;incstack = 0
  4156                           ; Regs used in _PORT_Init_Gain: []
  4157                           
  4158                           
  4159                           ;port.c: 167:     PORTCbits.RC0 = 0;
  4160  0CB2  1283               	bcf	3,5	;RP0=0, select bank0
  4161  0CB3  1303               	bcf	3,6	;RP1=0, select bank0
  4162  0CB4  1007               	bcf	7,0	;volatile
  4163                           
  4164                           ;port.c: 168:     PORTCbits.RC1 = 1;
  4165  0CB5  1487               	bsf	7,1	;volatile
  4166  0CB6                     l147:
  4167  0CB6  0008               	return
  4168  0CB7                     __end_of_PORT_Init_Gain:
  4169                           
  4170                           	psect	text14
  4171  0D9D                     __ptext14:	
  4172 ;; *************** function _PORT_Init *****************
  4173 ;; Defined at:
  4174 ;;		line 44 in file "port.c"
  4175 ;; Parameters:    Size  Location     Type
  4176 ;;		None
  4177 ;; Auto vars:     Size  Location     Type
  4178 ;;		None
  4179 ;; Return value:  Size  Location     Type
  4180 ;;                  1    wreg      void 
  4181 ;; Registers used:
  4182 ;;		wreg, status,2, status,0, pclath, cstack
  4183 ;; Tracked objects:
  4184 ;;		On entry : 0/0
  4185 ;;		On exit  : 0/0
  4186 ;;		Unchanged: 0/0
  4187 ;; Data sizes:     COMMON   BANK0   BANK1   BANK3   BANK2
  4188 ;;      Params:         0       0       0       0       0
  4189 ;;      Locals:         0       0       0       0       0
  4190 ;;      Temps:          1       0       0       0       0
  4191 ;;      Totals:         1       0       0       0       0
  4192 ;;Total ram usage:        1 bytes
  4193 ;; Hardware stack levels used:    1
  4194 ;; Hardware stack levels required when called:    2
  4195 ;; This function calls:
  4196 ;;		_PORT_Init_Serial
  4197 ;; This function is called by:
  4198 ;;		_main
  4199 ;; This function uses a non-reentrant model
  4200 ;;
  4201                           
  4202                           
  4203                           ;psect for function _PORT_Init
  4204  0D9D                     _PORT_Init:
  4205  0D9D                     l1961:	
  4206                           ;incstack = 0
  4207                           ; Regs used in _PORT_Init: [wreg+status,2+status,0+pclath+cstack]
  4208                           
  4209                           
  4210                           ;port.c: 47:     WPUB=0;
  4211  0D9D  1683               	bsf	3,5	;RP0=1, select bank1
  4212  0D9E  1303               	bcf	3,6	;RP1=0, select bank1
  4213  0D9F  0195               	clrf	21	;volatile
  4214                           
  4215                           ;port.c: 48:     ANSELB = 0;
  4216  0DA0  1683               	bsf	3,5	;RP0=1, select bank3
  4217  0DA1  1703               	bsf	3,6	;RP1=1, select bank3
  4218  0DA2  0186               	clrf	6	;volatile
  4219  0DA3                     l1963:
  4220                           
  4221                           ;port.c: 51:     TRISB = 0xFE;
  4222  0DA3  30FE               	movlw	254
  4223  0DA4  1683               	bsf	3,5	;RP0=1, select bank1
  4224  0DA5  1303               	bcf	3,6	;RP1=0, select bank1
  4225  0DA6  0086               	movwf	6	;volatile
  4226  0DA7                     l1965:
  4227                           
  4228                           ;port.c: 54:     OSCCON = 0x30;
  4229  0DA7  3030               	movlw	48
  4230  0DA8  0090               	movwf	16	;volatile
  4231  0DA9                     l1967:	
  4232                           ;port.c: 55:     for( ; (OSCCON & 0xC) != 0xC ; );
  4233                           
  4234  0DA9  300C               	movlw	12
  4235  0DAA  0510               	andwf	16,w	;volatile
  4236  0DAB  00F2               	movwf	??_PORT_Init
  4237  0DAC  300C               	movlw	12
  4238  0DAD  0672               	xorwf	??_PORT_Init,w
  4239  0DAE  1D03               	btfss	3,2
  4240  0DAF  2DB1               	goto	u2641
  4241  0DB0  2DB2               	goto	u2640
  4242  0DB1                     u2641:
  4243  0DB1  2DA9               	goto	l1967
  4244  0DB2                     u2640:
  4245  0DB2                     l1969:
  4246                           
  4247                           ;port.c: 59:     ANSELD = 0x00;
  4248  0DB2  1683               	bsf	3,5	;RP0=1, select bank3
  4249  0DB3  1703               	bsf	3,6	;RP1=1, select bank3
  4250  0DB4  0188               	clrf	8	;volatile
  4251  0DB5                     l1971:
  4252                           
  4253                           ;port.c: 62:     TRISA = 0xFF;
  4254  0DB5  30FF               	movlw	255
  4255  0DB6  1683               	bsf	3,5	;RP0=1, select bank1
  4256  0DB7  1303               	bcf	3,6	;RP1=0, select bank1
  4257  0DB8  0085               	movwf	5	;volatile
  4258  0DB9                     l1973:
  4259                           
  4260                           ;port.c: 64:     TRISD = 0xC0;
  4261  0DB9  30C0               	movlw	192
  4262  0DBA  0088               	movwf	8	;volatile
  4263  0DBB                     l1975:
  4264                           
  4265                           ;port.c: 66:     PORT_Init_Serial();
  4266  0DBB  120A  158A  2572  120A  158A  	fcall	_PORT_Init_Serial
  4267  0DC0                     l1977:
  4268                           
  4269                           ;port.c: 68:     ANSELA = 0x01;
  4270  0DC0  3001               	movlw	1
  4271  0DC1  1683               	bsf	3,5	;RP0=1, select bank3
  4272  0DC2  1703               	bsf	3,6	;RP1=1, select bank3
  4273  0DC3  0085               	movwf	5	;volatile
  4274  0DC4                     l1979:
  4275                           
  4276                           ;port.c: 70:     ADCON0=0x01;
  4277  0DC4  3001               	movlw	1
  4278  0DC5  1283               	bcf	3,5	;RP0=0, select bank0
  4279  0DC6  1303               	bcf	3,6	;RP1=0, select bank0
  4280  0DC7  009F               	movwf	31	;volatile
  4281  0DC8                     l1981:
  4282                           
  4283                           ;port.c: 71:     ADCON1=0x60;
  4284  0DC8  3060               	movlw	96
  4285  0DC9  1683               	bsf	3,5	;RP0=1, select bank1
  4286  0DCA  1303               	bcf	3,6	;RP1=0, select bank1
  4287  0DCB  009F               	movwf	31	;volatile
  4288  0DCC                     l1983:
  4289                           
  4290                           ;port.c: 73:     FVRCON=0;
  4291  0DCC  019D               	clrf	29	;volatile
  4292  0DCD                     l1985:
  4293                           
  4294                           ;port.c: 74:     DACCON0=0x0;
  4295  0DCD  1283               	bcf	3,5	;RP0=0, select bank2
  4296  0DCE  1703               	bsf	3,6	;RP1=1, select bank2
  4297  0DCF  0193               	clrf	19	;volatile
  4298  0DD0                     l1987:
  4299                           
  4300                           ;port.c: 75:     DACCON0=0x60;
  4301  0DD0  3060               	movlw	96
  4302  0DD1  0093               	movwf	19	;volatile
  4303  0DD2                     l1989:
  4304                           
  4305                           ;port.c: 76:     DACCON0|=0x80;
  4306  0DD2  1793               	bsf	19,7	;volatile
  4307  0DD3                     l1991:
  4308                           
  4309                           ;port.c: 78:     DACCON1=0x18;
  4310  0DD3  3018               	movlw	24
  4311  0DD4  0094               	movwf	20	;volatile
  4312  0DD5                     l110:
  4313  0DD5  0008               	return
  4314  0DD6                     __end_of_PORT_Init:
  4315                           
  4316                           	psect	text15
  4317  0D72                     __ptext15:	
  4318 ;; *************** function _PORT_Init_Serial *****************
  4319 ;; Defined at:
  4320 ;;		line 15 in file "port.c"
  4321 ;; Parameters:    Size  Location     Type
  4322 ;;		None
  4323 ;; Auto vars:     Size  Location     Type
  4324 ;;		None
  4325 ;; Return value:  Size  Location     Type
  4326 ;;                  1    wreg      void 
  4327 ;; Registers used:
  4328 ;;		wreg, status,2
  4329 ;; Tracked objects:
  4330 ;;		On entry : 0/0
  4331 ;;		On exit  : 0/0
  4332 ;;		Unchanged: 0/0
  4333 ;; Data sizes:     COMMON   BANK0   BANK1   BANK3   BANK2
  4334 ;;      Params:         0       0       0       0       0
  4335 ;;      Locals:         0       0       0       0       0
  4336 ;;      Temps:          0       0       0       0       0
  4337 ;;      Totals:         0       0       0       0       0
  4338 ;;Total ram usage:        0 bytes
  4339 ;; Hardware stack levels used:    1
  4340 ;; Hardware stack levels required when called:    1
  4341 ;; This function calls:
  4342 ;;		Nothing
  4343 ;; This function is called by:
  4344 ;;		_PORT_Init
  4345 ;; This function uses a non-reentrant model
  4346 ;;
  4347                           
  4348                           
  4349                           ;psect for function _PORT_Init_Serial
  4350  0D72                     _PORT_Init_Serial:
  4351  0D72                     l1437:	
  4352                           ;incstack = 0
  4353                           ; Regs used in _PORT_Init_Serial: [wreg+status,2]
  4354                           
  4355                           
  4356                           ;port.c: 18:     TRISC = 0xFF;
  4357  0D72  30FF               	movlw	255
  4358  0D73  1683               	bsf	3,5	;RP0=1, select bank1
  4359  0D74  1303               	bcf	3,6	;RP1=0, select bank1
  4360  0D75  0087               	movwf	7	;volatile
  4361                           
  4362                           ;port.c: 21:     SPBRG = 25;
  4363  0D76  3019               	movlw	25
  4364  0D77  0099               	movwf	25	;volatile
  4365  0D78                     l1439:
  4366                           
  4367                           ;port.c: 25:     TXSTA = TXSTA & 0xDF;
  4368  0D78  0818               	movf	24,w	;volatile
  4369  0D79  39DF               	andlw	223
  4370  0D7A  0098               	movwf	24	;volatile
  4371  0D7B                     l1441:
  4372                           
  4373                           ;port.c: 26:     TXSTA = TXSTA | 1;
  4374  0D7B  0818               	movf	24,w	;volatile
  4375  0D7C  3801               	iorlw	1
  4376  0D7D  0098               	movwf	24	;volatile
  4377  0D7E                     l1443:
  4378                           
  4379                           ;port.c: 27:     TXSTA = TXSTA & 0xFB;
  4380  0D7E  0818               	movf	24,w	;volatile
  4381  0D7F  39FB               	andlw	251
  4382  0D80  0098               	movwf	24	;volatile
  4383  0D81                     l1445:
  4384                           
  4385                           ;port.c: 30:     RCSTA = RCSTA | 0x20;
  4386  0D81  1283               	bcf	3,5	;RP0=0, select bank0
  4387  0D82  1303               	bcf	3,6	;RP1=0, select bank0
  4388  0D83  0818               	movf	24,w	;volatile
  4389  0D84  3820               	iorlw	32
  4390  0D85  0098               	movwf	24	;volatile
  4391  0D86                     l1447:
  4392                           
  4393                           ;port.c: 31:     RCSTA = RCSTA & 0xDF;
  4394  0D86  0818               	movf	24,w	;volatile
  4395  0D87  39DF               	andlw	223
  4396  0D88  0098               	movwf	24	;volatile
  4397  0D89                     l1449:
  4398                           
  4399                           ;port.c: 32:     RCSTA = RCSTA | 0x04;
  4400  0D89  0818               	movf	24,w	;volatile
  4401  0D8A  3804               	iorlw	4
  4402  0D8B  0098               	movwf	24	;volatile
  4403  0D8C                     l1451:
  4404                           
  4405                           ;port.c: 33:     RCSTA = RCSTA | 0x02;
  4406  0D8C  0818               	movf	24,w	;volatile
  4407  0D8D  3802               	iorlw	2
  4408  0D8E  0098               	movwf	24	;volatile
  4409  0D8F                     l1453:
  4410                           
  4411                           ;port.c: 35:     TXSTA = TXSTA & 0xEF;
  4412  0D8F  1683               	bsf	3,5	;RP0=1, select bank1
  4413  0D90  1303               	bcf	3,6	;RP1=0, select bank1
  4414  0D91  0818               	movf	24,w	;volatile
  4415  0D92  39EF               	andlw	239
  4416  0D93  0098               	movwf	24	;volatile
  4417  0D94                     l1455:
  4418                           
  4419                           ;port.c: 36:     TXSTA = TXSTA | 0x20;
  4420  0D94  0818               	movf	24,w	;volatile
  4421  0D95  3820               	iorlw	32
  4422  0D96  0098               	movwf	24	;volatile
  4423  0D97                     l1457:
  4424                           
  4425                           ;port.c: 37:     RCSTA = RCSTA | 0x80;
  4426  0D97  1283               	bcf	3,5	;RP0=0, select bank0
  4427  0D98  1303               	bcf	3,6	;RP1=0, select bank0
  4428  0D99  0818               	movf	24,w	;volatile
  4429  0D9A  3880               	iorlw	128
  4430  0D9B  0098               	movwf	24	;volatile
  4431  0D9C                     l104:
  4432  0D9C  0008               	return
  4433  0D9D                     __end_of_PORT_Init_Serial:
  4434                           
  4435                           	psect	text16
  4436  0CCB                     __ptext16:	
  4437 ;; *************** function _PORT_Blink_LED *****************
  4438 ;; Defined at:
  4439 ;;		line 84 in file "port.c"
  4440 ;; Parameters:    Size  Location     Type
  4441 ;;		None
  4442 ;; Auto vars:     Size  Location     Type
  4443 ;;		None
  4444 ;; Return value:  Size  Location     Type
  4445 ;;                  1    wreg      void 
  4446 ;; Registers used:
  4447 ;;		status,0
  4448 ;; Tracked objects:
  4449 ;;		On entry : 0/0
  4450 ;;		On exit  : 0/0
  4451 ;;		Unchanged: 0/0
  4452 ;; Data sizes:     COMMON   BANK0   BANK1   BANK3   BANK2
  4453 ;;      Params:         0       0       0       0       0
  4454 ;;      Locals:         0       0       0       0       0
  4455 ;;      Temps:          0       0       0       0       0
  4456 ;;      Totals:         0       0       0       0       0
  4457 ;;Total ram usage:        0 bytes
  4458 ;; Hardware stack levels used:    1
  4459 ;; Hardware stack levels required when called:    1
  4460 ;; This function calls:
  4461 ;;		Nothing
  4462 ;; This function is called by:
  4463 ;;		_main
  4464 ;; This function uses a non-reentrant model
  4465 ;;
  4466                           
  4467                           
  4468                           ;psect for function _PORT_Blink_LED
  4469  0CCB                     _PORT_Blink_LED:
  4470  0CCB                     l2019:	
  4471                           ;incstack = 0
  4472                           ; Regs used in _PORT_Blink_LED: [status,0]
  4473                           
  4474                           
  4475                           ;port.c: 85:     PORTBbits.RB0 = !PORTBbits.RB0;
  4476  0CCB  1003               	clrc
  4477  0CCC  1283               	bcf	3,5	;RP0=0, select bank0
  4478  0CCD  1303               	bcf	3,6	;RP1=0, select bank0
  4479  0CCE  1C06               	btfss	6,0	;volatile
  4480  0CCF  1403               	setc
  4481  0CD0  1803               	btfsc	3,0
  4482  0CD1  2CD3               	goto	u2651
  4483  0CD2  2CD7               	goto	u2650
  4484  0CD3                     u2651:
  4485  0CD3  1283               	bcf	3,5	;RP0=0, select bank0
  4486  0CD4  1303               	bcf	3,6	;RP1=0, select bank0
  4487  0CD5  1406               	bsf	6,0	;volatile
  4488  0CD6  2CDA               	goto	u2664
  4489  0CD7                     u2650:
  4490  0CD7  1283               	bcf	3,5	;RP0=0, select bank0
  4491  0CD8  1303               	bcf	3,6	;RP1=0, select bank0
  4492  0CD9  1006               	bcf	6,0	;volatile
  4493  0CDA                     u2664:
  4494  0CDA                     l113:
  4495  0CDA  0008               	return
  4496  0CDB                     __end_of_PORT_Blink_LED:
  4497                           
  4498                           	psect	text17
  4499  0F84                     __ptext17:	
  4500 ;; *************** function _Affichage_brut *****************
  4501 ;; Defined at:
  4502 ;;		line 83 in file "main.c"
  4503 ;; Parameters:    Size  Location     Type
  4504 ;;  valeur_a_aff    2   10[COMMON] int 
  4505 ;; Auto vars:     Size  Location     Type
  4506 ;;  valueMetrics    6    3[BANK0 ] struct .
  4507 ;;  affiche         1    2[BANK0 ] unsigned char 
  4508 ;; Return value:  Size  Location     Type
  4509 ;;                  1    wreg      void 
  4510 ;; Registers used:
  4511 ;;		wreg, status,2, status,0, btemp+1, pclath, cstack
  4512 ;; Tracked objects:
  4513 ;;		On entry : 0/0
  4514 ;;		On exit  : 0/0
  4515 ;;		Unchanged: 0/0
  4516 ;; Data sizes:     COMMON   BANK0   BANK1   BANK3   BANK2
  4517 ;;      Params:         2       0       0       0       0
  4518 ;;      Locals:         0       7       0       0       0
  4519 ;;      Temps:          0       2       0       0       0
  4520 ;;      Totals:         2       9       0       0       0
  4521 ;;Total ram usage:       11 bytes
  4522 ;; Hardware stack levels used:    1
  4523 ;; Hardware stack levels required when called:    2
  4524 ;; This function calls:
  4525 ;;		_PORT_putchar
  4526 ;;		___awdiv
  4527 ;;		___awmod
  4528 ;; This function is called by:
  4529 ;;		_main
  4530 ;; This function uses a non-reentrant model
  4531 ;;
  4532                           
  4533                           
  4534                           ;psect for function _Affichage_brut
  4535  0F84                     _Affichage_brut:
  4536  0F84                     l2037:	
  4537                           ;incstack = 0
  4538                           ; Regs used in _Affichage_brut: [wreg+status,2+status,0+btemp+1+pclath+cstack]
  4539                           
  4540                           
  4541                           ;main.c: 83: void Affichage_brut(int valeur_a_afficher);main.c: 84: {;main.c: 85:     un
      +                          signed char affiche;;main.c: 87:     ValueMetrics valueMetrics;;main.c: 89:     affiche 
      +                          = valeur_a_afficher ;
  4542  0F84  087A               	movf	Affichage_brut@valeur_a_afficher,w
  4543  0F85  00FF               	movwf	btemp+1
  4544  0F86  087F               	movf	btemp+1,w
  4545  0F87  1283               	bcf	3,5	;RP0=0, select bank0
  4546  0F88  1303               	bcf	3,6	;RP1=0, select bank0
  4547  0F89  00A2               	movwf	Affichage_brut@affiche
  4548  0F8A                     l2039:
  4549                           
  4550                           ;main.c: 90:     valueMetrics.cent = ((char)(affiche/100))+0x30;
  4551  0F8A  3064               	movlw	100
  4552  0F8B  00F2               	movwf	___awdiv@divisor
  4553  0F8C  3000               	movlw	0
  4554  0F8D  00F3               	movwf	___awdiv@divisor+1
  4555  0F8E  0822               	movf	Affichage_brut@affiche,w
  4556  0F8F  00A0               	movwf	??_Affichage_brut
  4557  0F90  01A1               	clrf	??_Affichage_brut+1
  4558  0F91  0820               	movf	??_Affichage_brut,w
  4559  0F92  00F4               	movwf	___awdiv@dividend
  4560  0F93  0821               	movf	??_Affichage_brut+1,w
  4561  0F94  00F5               	movwf	___awdiv@dividend+1
  4562  0F95  120A  158A  26A3  120A  158A  	fcall	___awdiv
  4563  0F9A  0872               	movf	?___awdiv,w
  4564  0F9B  3E30               	addlw	48
  4565  0F9C  00FF               	movwf	btemp+1
  4566  0F9D  087F               	movf	btemp+1,w
  4567  0F9E  1283               	bcf	3,5	;RP0=0, select bank0
  4568  0F9F  1303               	bcf	3,6	;RP1=0, select bank0
  4569  0FA0  00A4               	movwf	Affichage_brut@valueMetrics+1
  4570  0FA1                     l2041:
  4571                           
  4572                           ;main.c: 91:     PORT_putchar(valueMetrics.cent);
  4573  0FA1  0824               	movf	Affichage_brut@valueMetrics+1,w
  4574  0FA2  120A  158A  24BF  120A  158A  	fcall	_PORT_putchar
  4575  0FA7                     l2043:
  4576                           
  4577                           ;main.c: 92:     affiche = affiche % 100 ;
  4578  0FA7  3064               	movlw	100
  4579  0FA8  00F2               	movwf	___awmod@divisor
  4580  0FA9  3000               	movlw	0
  4581  0FAA  00F3               	movwf	___awmod@divisor+1
  4582  0FAB  1283               	bcf	3,5	;RP0=0, select bank0
  4583  0FAC  1303               	bcf	3,6	;RP1=0, select bank0
  4584  0FAD  0822               	movf	Affichage_brut@affiche,w
  4585  0FAE  00A0               	movwf	??_Affichage_brut
  4586  0FAF  01A1               	clrf	??_Affichage_brut+1
  4587  0FB0  0820               	movf	??_Affichage_brut,w
  4588  0FB1  00F4               	movwf	___awmod@dividend
  4589  0FB2  0821               	movf	??_Affichage_brut+1,w
  4590  0FB3  00F5               	movwf	___awmod@dividend+1
  4591  0FB4  120A  118A  279D  120A  158A  	fcall	___awmod
  4592  0FB9  0872               	movf	?___awmod,w
  4593  0FBA  00FF               	movwf	btemp+1
  4594  0FBB  087F               	movf	btemp+1,w
  4595  0FBC  1283               	bcf	3,5	;RP0=0, select bank0
  4596  0FBD  1303               	bcf	3,6	;RP1=0, select bank0
  4597  0FBE  00A2               	movwf	Affichage_brut@affiche
  4598  0FBF                     l2045:
  4599                           
  4600                           ;main.c: 93:     valueMetrics.diz = ((char)(affiche/10))+0x30;
  4601  0FBF  300A               	movlw	10
  4602  0FC0  00F2               	movwf	___awdiv@divisor
  4603  0FC1  3000               	movlw	0
  4604  0FC2  00F3               	movwf	___awdiv@divisor+1
  4605  0FC3  0822               	movf	Affichage_brut@affiche,w
  4606  0FC4  00A0               	movwf	??_Affichage_brut
  4607  0FC5  01A1               	clrf	??_Affichage_brut+1
  4608  0FC6  0820               	movf	??_Affichage_brut,w
  4609  0FC7  00F4               	movwf	___awdiv@dividend
  4610  0FC8  0821               	movf	??_Affichage_brut+1,w
  4611  0FC9  00F5               	movwf	___awdiv@dividend+1
  4612  0FCA  120A  158A  26A3  120A  158A  	fcall	___awdiv
  4613  0FCF  0872               	movf	?___awdiv,w
  4614  0FD0  3E30               	addlw	48
  4615  0FD1  00FF               	movwf	btemp+1
  4616  0FD2  087F               	movf	btemp+1,w
  4617  0FD3  1283               	bcf	3,5	;RP0=0, select bank0
  4618  0FD4  1303               	bcf	3,6	;RP1=0, select bank0
  4619  0FD5  00A5               	movwf	Affichage_brut@valueMetrics+2
  4620  0FD6                     l2047:
  4621                           
  4622                           ;main.c: 94:     PORT_putchar(valueMetrics.diz);
  4623  0FD6  0825               	movf	Affichage_brut@valueMetrics+2,w
  4624  0FD7  120A  158A  24BF  120A  158A  	fcall	_PORT_putchar
  4625  0FDC                     l2049:
  4626                           
  4627                           ;main.c: 95:     affiche = affiche % 10 ;
  4628  0FDC  300A               	movlw	10
  4629  0FDD  00F2               	movwf	___awmod@divisor
  4630  0FDE  3000               	movlw	0
  4631  0FDF  00F3               	movwf	___awmod@divisor+1
  4632  0FE0  1283               	bcf	3,5	;RP0=0, select bank0
  4633  0FE1  1303               	bcf	3,6	;RP1=0, select bank0
  4634  0FE2  0822               	movf	Affichage_brut@affiche,w
  4635  0FE3  00A0               	movwf	??_Affichage_brut
  4636  0FE4  01A1               	clrf	??_Affichage_brut+1
  4637  0FE5  0820               	movf	??_Affichage_brut,w
  4638  0FE6  00F4               	movwf	___awmod@dividend
  4639  0FE7  0821               	movf	??_Affichage_brut+1,w
  4640  0FE8  00F5               	movwf	___awmod@dividend+1
  4641  0FE9  120A  118A  279D  120A  158A  	fcall	___awmod
  4642  0FEE  0872               	movf	?___awmod,w
  4643  0FEF  00FF               	movwf	btemp+1
  4644  0FF0  087F               	movf	btemp+1,w
  4645  0FF1  1283               	bcf	3,5	;RP0=0, select bank0
  4646  0FF2  1303               	bcf	3,6	;RP1=0, select bank0
  4647  0FF3  00A2               	movwf	Affichage_brut@affiche
  4648  0FF4                     l2051:
  4649                           
  4650                           ;main.c: 96:     valueMetrics.unit = ((char)(affiche))+0x30;
  4651  0FF4  0822               	movf	Affichage_brut@affiche,w
  4652  0FF5  3E30               	addlw	48
  4653  0FF6  00FF               	movwf	btemp+1
  4654  0FF7  087F               	movf	btemp+1,w
  4655  0FF8  00A6               	movwf	Affichage_brut@valueMetrics+3
  4656  0FF9                     l2053:
  4657                           
  4658                           ;main.c: 97:     PORT_putchar(valueMetrics.unit);
  4659  0FF9  0826               	movf	Affichage_brut@valueMetrics+3,w
  4660  0FFA  120A  158A  24BF  120A  158A  	fcall	_PORT_putchar
  4661  0FFF                     l38:
  4662  0FFF  0008               	return
  4663  1000                     __end_of_Affichage_brut:
  4664                           
  4665                           	psect	text18
  4666  079D                     __ptext18:	
  4667 ;; *************** function ___awmod *****************
  4668 ;; Defined at:
  4669 ;;		line 5 in file "C:\Program Files\Microchip\xc8\v2.20\pic\sources\c90\common\awmod.c"
  4670 ;; Parameters:    Size  Location     Type
  4671 ;;  divisor         2    2[COMMON] int 
  4672 ;;  dividend        2    4[COMMON] int 
  4673 ;; Auto vars:     Size  Location     Type
  4674 ;;  sign            1    7[COMMON] unsigned char 
  4675 ;;  counter         1    6[COMMON] unsigned char 
  4676 ;; Return value:  Size  Location     Type
  4677 ;;                  2    2[COMMON] int 
  4678 ;; Registers used:
  4679 ;;		wreg, status,2, status,0, btemp+1
  4680 ;; Tracked objects:
  4681 ;;		On entry : 0/0
  4682 ;;		On exit  : 0/0
  4683 ;;		Unchanged: 0/0
  4684 ;; Data sizes:     COMMON   BANK0   BANK1   BANK3   BANK2
  4685 ;;      Params:         4       0       0       0       0
  4686 ;;      Locals:         2       0       0       0       0
  4687 ;;      Temps:          0       0       0       0       0
  4688 ;;      Totals:         6       0       0       0       0
  4689 ;;Total ram usage:        6 bytes
  4690 ;; Hardware stack levels used:    1
  4691 ;; Hardware stack levels required when called:    1
  4692 ;; This function calls:
  4693 ;;		Nothing
  4694 ;; This function is called by:
  4695 ;;		_Affichage_brut
  4696 ;; This function uses a non-reentrant model
  4697 ;;
  4698                           
  4699                           
  4700                           ;psect for function ___awmod
  4701  079D                     ___awmod:
  4702  079D                     l1503:	
  4703                           ;incstack = 0
  4704                           ; Regs used in ___awmod: [wreg+status,2+status,0+btemp+1]
  4705                           
  4706  079D  01F7               	clrf	___awmod@sign
  4707  079E                     l1505:
  4708  079E  1FF5               	btfss	___awmod@dividend+1,7
  4709  079F  2FA1               	goto	u1521
  4710  07A0  2FA2               	goto	u1520
  4711  07A1                     u1521:
  4712  07A1  2FA9               	goto	l1511
  4713  07A2                     u1520:
  4714  07A2                     l1507:
  4715  07A2  09F4               	comf	___awmod@dividend,f
  4716  07A3  09F5               	comf	___awmod@dividend+1,f
  4717  07A4  0AF4               	incf	___awmod@dividend,f
  4718  07A5  1903               	skipnz
  4719  07A6  0AF5               	incf	___awmod@dividend+1,f
  4720  07A7                     l1509:
  4721  07A7  01F7               	clrf	___awmod@sign
  4722  07A8  0AF7               	incf	___awmod@sign,f
  4723  07A9                     l1511:
  4724  07A9  1FF3               	btfss	___awmod@divisor+1,7
  4725  07AA  2FAC               	goto	u1531
  4726  07AB  2FAD               	goto	u1530
  4727  07AC                     u1531:
  4728  07AC  2FB2               	goto	l1515
  4729  07AD                     u1530:
  4730  07AD                     l1513:
  4731  07AD  09F2               	comf	___awmod@divisor,f
  4732  07AE  09F3               	comf	___awmod@divisor+1,f
  4733  07AF  0AF2               	incf	___awmod@divisor,f
  4734  07B0  1903               	skipnz
  4735  07B1  0AF3               	incf	___awmod@divisor+1,f
  4736  07B2                     l1515:
  4737  07B2  0872               	movf	___awmod@divisor,w
  4738  07B3  0473               	iorwf	___awmod@divisor+1,w
  4739  07B4  1903               	btfsc	3,2
  4740  07B5  2FB7               	goto	u1541
  4741  07B6  2FB8               	goto	u1540
  4742  07B7                     u1541:
  4743  07B7  2FE7               	goto	l1533
  4744  07B8                     u1540:
  4745  07B8                     l1517:
  4746  07B8  01F6               	clrf	___awmod@counter
  4747  07B9  0AF6               	incf	___awmod@counter,f
  4748  07BA  2FC6               	goto	l1523
  4749  07BB                     l1519:
  4750  07BB  3001               	movlw	1
  4751  07BC                     u1555:
  4752  07BC  1003               	clrc
  4753  07BD  0DF2               	rlf	___awmod@divisor,f
  4754  07BE  0DF3               	rlf	___awmod@divisor+1,f
  4755  07BF  3EFF               	addlw	-1
  4756  07C0  1D03               	skipz
  4757  07C1  2FBC               	goto	u1555
  4758  07C2                     l1521:
  4759  07C2  3001               	movlw	1
  4760  07C3  00FF               	movwf	btemp+1
  4761  07C4  087F               	movf	btemp+1,w
  4762  07C5  07F6               	addwf	___awmod@counter,f
  4763  07C6                     l1523:
  4764  07C6  1FF3               	btfss	___awmod@divisor+1,7
  4765  07C7  2FC9               	goto	u1561
  4766  07C8  2FCA               	goto	u1560
  4767  07C9                     u1561:
  4768  07C9  2FBB               	goto	l1519
  4769  07CA                     u1560:
  4770  07CA                     l1525:
  4771  07CA  0873               	movf	___awmod@divisor+1,w
  4772  07CB  0275               	subwf	___awmod@dividend+1,w
  4773  07CC  1D03               	skipz
  4774  07CD  2FD0               	goto	u1575
  4775  07CE  0872               	movf	___awmod@divisor,w
  4776  07CF  0274               	subwf	___awmod@dividend,w
  4777  07D0                     u1575:
  4778  07D0  1C03               	skipc
  4779  07D1  2FD3               	goto	u1571
  4780  07D2  2FD4               	goto	u1570
  4781  07D3                     u1571:
  4782  07D3  2FDA               	goto	l1529
  4783  07D4                     u1570:
  4784  07D4                     l1527:
  4785  07D4  0872               	movf	___awmod@divisor,w
  4786  07D5  02F4               	subwf	___awmod@dividend,f
  4787  07D6  0873               	movf	___awmod@divisor+1,w
  4788  07D7  1C03               	skipc
  4789  07D8  03F5               	decf	___awmod@dividend+1,f
  4790  07D9  02F5               	subwf	___awmod@dividend+1,f
  4791  07DA                     l1529:
  4792  07DA  3001               	movlw	1
  4793  07DB                     u1585:
  4794  07DB  1003               	clrc
  4795  07DC  0CF3               	rrf	___awmod@divisor+1,f
  4796  07DD  0CF2               	rrf	___awmod@divisor,f
  4797  07DE  3EFF               	addlw	-1
  4798  07DF  1D03               	skipz
  4799  07E0  2FDB               	goto	u1585
  4800  07E1                     l1531:
  4801  07E1  3001               	movlw	1
  4802  07E2  02F6               	subwf	___awmod@counter,f
  4803  07E3  1D03               	btfss	3,2
  4804  07E4  2FE6               	goto	u1591
  4805  07E5  2FE7               	goto	u1590
  4806  07E6                     u1591:
  4807  07E6  2FCA               	goto	l1525
  4808  07E7                     u1590:
  4809  07E7                     l1533:
  4810  07E7  0877               	movf	___awmod@sign,w
  4811  07E8  1903               	btfsc	3,2
  4812  07E9  2FEB               	goto	u1601
  4813  07EA  2FEC               	goto	u1600
  4814  07EB                     u1601:
  4815  07EB  2FF1               	goto	l1537
  4816  07EC                     u1600:
  4817  07EC                     l1535:
  4818  07EC  09F4               	comf	___awmod@dividend,f
  4819  07ED  09F5               	comf	___awmod@dividend+1,f
  4820  07EE  0AF4               	incf	___awmod@dividend,f
  4821  07EF  1903               	skipnz
  4822  07F0  0AF5               	incf	___awmod@dividend+1,f
  4823  07F1                     l1537:
  4824  07F1  0875               	movf	___awmod@dividend+1,w
  4825  07F2  00F3               	movwf	?___awmod+1
  4826  07F3  0874               	movf	___awmod@dividend,w
  4827  07F4  00F2               	movwf	?___awmod
  4828  07F5                     l353:
  4829  07F5  0008               	return
  4830  07F6                     __end_of___awmod:
  4831                           
  4832                           	psect	text19
  4833  0EA3                     __ptext19:	
  4834 ;; *************** function ___awdiv *****************
  4835 ;; Defined at:
  4836 ;;		line 5 in file "C:\Program Files\Microchip\xc8\v2.20\pic\sources\c90\common\awdiv.c"
  4837 ;; Parameters:    Size  Location     Type
  4838 ;;  divisor         2    2[COMMON] int 
  4839 ;;  dividend        2    4[COMMON] int 
  4840 ;; Auto vars:     Size  Location     Type
  4841 ;;  quotient        2    8[COMMON] int 
  4842 ;;  sign            1    7[COMMON] unsigned char 
  4843 ;;  counter         1    6[COMMON] unsigned char 
  4844 ;; Return value:  Size  Location     Type
  4845 ;;                  2    2[COMMON] int 
  4846 ;; Registers used:
  4847 ;;		wreg, status,2, status,0, btemp+1
  4848 ;; Tracked objects:
  4849 ;;		On entry : 0/0
  4850 ;;		On exit  : 0/0
  4851 ;;		Unchanged: 0/0
  4852 ;; Data sizes:     COMMON   BANK0   BANK1   BANK3   BANK2
  4853 ;;      Params:         4       0       0       0       0
  4854 ;;      Locals:         4       0       0       0       0
  4855 ;;      Temps:          0       0       0       0       0
  4856 ;;      Totals:         8       0       0       0       0
  4857 ;;Total ram usage:        8 bytes
  4858 ;; Hardware stack levels used:    1
  4859 ;; Hardware stack levels required when called:    1
  4860 ;; This function calls:
  4861 ;;		Nothing
  4862 ;; This function is called by:
  4863 ;;		_Affichage_brut
  4864 ;; This function uses a non-reentrant model
  4865 ;;
  4866                           
  4867                           
  4868                           ;psect for function ___awdiv
  4869  0EA3                     ___awdiv:
  4870  0EA3                     l1459:	
  4871                           ;incstack = 0
  4872                           ; Regs used in ___awdiv: [wreg+status,2+status,0+btemp+1]
  4873                           
  4874  0EA3  01F7               	clrf	___awdiv@sign
  4875  0EA4                     l1461:
  4876  0EA4  1FF3               	btfss	___awdiv@divisor+1,7
  4877  0EA5  2EA7               	goto	u1421
  4878  0EA6  2EA8               	goto	u1420
  4879  0EA7                     u1421:
  4880  0EA7  2EAF               	goto	l1467
  4881  0EA8                     u1420:
  4882  0EA8                     l1463:
  4883  0EA8  09F2               	comf	___awdiv@divisor,f
  4884  0EA9  09F3               	comf	___awdiv@divisor+1,f
  4885  0EAA  0AF2               	incf	___awdiv@divisor,f
  4886  0EAB  1903               	skipnz
  4887  0EAC  0AF3               	incf	___awdiv@divisor+1,f
  4888  0EAD                     l1465:
  4889  0EAD  01F7               	clrf	___awdiv@sign
  4890  0EAE  0AF7               	incf	___awdiv@sign,f
  4891  0EAF                     l1467:
  4892  0EAF  1FF5               	btfss	___awdiv@dividend+1,7
  4893  0EB0  2EB2               	goto	u1431
  4894  0EB1  2EB3               	goto	u1430
  4895  0EB2                     u1431:
  4896  0EB2  2EBC               	goto	l1473
  4897  0EB3                     u1430:
  4898  0EB3                     l1469:
  4899  0EB3  09F4               	comf	___awdiv@dividend,f
  4900  0EB4  09F5               	comf	___awdiv@dividend+1,f
  4901  0EB5  0AF4               	incf	___awdiv@dividend,f
  4902  0EB6  1903               	skipnz
  4903  0EB7  0AF5               	incf	___awdiv@dividend+1,f
  4904  0EB8                     l1471:
  4905  0EB8  3001               	movlw	1
  4906  0EB9  00FF               	movwf	btemp+1
  4907  0EBA  087F               	movf	btemp+1,w
  4908  0EBB  06F7               	xorwf	___awdiv@sign,f
  4909  0EBC                     l1473:
  4910  0EBC  01F8               	clrf	___awdiv@quotient
  4911  0EBD  01F9               	clrf	___awdiv@quotient+1
  4912  0EBE                     l1475:
  4913  0EBE  0872               	movf	___awdiv@divisor,w
  4914  0EBF  0473               	iorwf	___awdiv@divisor+1,w
  4915  0EC0  1903               	btfsc	3,2
  4916  0EC1  2EC3               	goto	u1441
  4917  0EC2  2EC4               	goto	u1440
  4918  0EC3                     u1441:
  4919  0EC3  2EFB               	goto	l1495
  4920  0EC4                     u1440:
  4921  0EC4                     l1477:
  4922  0EC4  01F6               	clrf	___awdiv@counter
  4923  0EC5  0AF6               	incf	___awdiv@counter,f
  4924  0EC6  2ED2               	goto	l1483
  4925  0EC7                     l1479:
  4926  0EC7  3001               	movlw	1
  4927  0EC8                     u1455:
  4928  0EC8  1003               	clrc
  4929  0EC9  0DF2               	rlf	___awdiv@divisor,f
  4930  0ECA  0DF3               	rlf	___awdiv@divisor+1,f
  4931  0ECB  3EFF               	addlw	-1
  4932  0ECC  1D03               	skipz
  4933  0ECD  2EC8               	goto	u1455
  4934  0ECE                     l1481:
  4935  0ECE  3001               	movlw	1
  4936  0ECF  00FF               	movwf	btemp+1
  4937  0ED0  087F               	movf	btemp+1,w
  4938  0ED1  07F6               	addwf	___awdiv@counter,f
  4939  0ED2                     l1483:
  4940  0ED2  1FF3               	btfss	___awdiv@divisor+1,7
  4941  0ED3  2ED5               	goto	u1461
  4942  0ED4  2ED6               	goto	u1460
  4943  0ED5                     u1461:
  4944  0ED5  2EC7               	goto	l1479
  4945  0ED6                     u1460:
  4946  0ED6                     l1485:
  4947  0ED6  3001               	movlw	1
  4948  0ED7                     u1475:
  4949  0ED7  1003               	clrc
  4950  0ED8  0DF8               	rlf	___awdiv@quotient,f
  4951  0ED9  0DF9               	rlf	___awdiv@quotient+1,f
  4952  0EDA  3EFF               	addlw	-1
  4953  0EDB  1D03               	skipz
  4954  0EDC  2ED7               	goto	u1475
  4955  0EDD  0873               	movf	___awdiv@divisor+1,w
  4956  0EDE  0275               	subwf	___awdiv@dividend+1,w
  4957  0EDF  1D03               	skipz
  4958  0EE0  2EE3               	goto	u1485
  4959  0EE1  0872               	movf	___awdiv@divisor,w
  4960  0EE2  0274               	subwf	___awdiv@dividend,w
  4961  0EE3                     u1485:
  4962  0EE3  1C03               	skipc
  4963  0EE4  2EE6               	goto	u1481
  4964  0EE5  2EE7               	goto	u1480
  4965  0EE6                     u1481:
  4966  0EE6  2EEE               	goto	l1491
  4967  0EE7                     u1480:
  4968  0EE7                     l1487:
  4969  0EE7  0872               	movf	___awdiv@divisor,w
  4970  0EE8  02F4               	subwf	___awdiv@dividend,f
  4971  0EE9  0873               	movf	___awdiv@divisor+1,w
  4972  0EEA  1C03               	skipc
  4973  0EEB  03F5               	decf	___awdiv@dividend+1,f
  4974  0EEC  02F5               	subwf	___awdiv@dividend+1,f
  4975  0EED                     l1489:
  4976  0EED  1478               	bsf	___awdiv@quotient,0
  4977  0EEE                     l1491:
  4978  0EEE  3001               	movlw	1
  4979  0EEF                     u1495:
  4980  0EEF  1003               	clrc
  4981  0EF0  0CF3               	rrf	___awdiv@divisor+1,f
  4982  0EF1  0CF2               	rrf	___awdiv@divisor,f
  4983  0EF2  3EFF               	addlw	-1
  4984  0EF3  1D03               	skipz
  4985  0EF4  2EEF               	goto	u1495
  4986  0EF5                     l1493:
  4987  0EF5  3001               	movlw	1
  4988  0EF6  02F6               	subwf	___awdiv@counter,f
  4989  0EF7  1D03               	btfss	3,2
  4990  0EF8  2EFA               	goto	u1501
  4991  0EF9  2EFB               	goto	u1500
  4992  0EFA                     u1501:
  4993  0EFA  2ED6               	goto	l1485
  4994  0EFB                     u1500:
  4995  0EFB                     l1495:
  4996  0EFB  0877               	movf	___awdiv@sign,w
  4997  0EFC  1903               	btfsc	3,2
  4998  0EFD  2EFF               	goto	u1511
  4999  0EFE  2F00               	goto	u1510
  5000  0EFF                     u1511:
  5001  0EFF  2F05               	goto	l1499
  5002  0F00                     u1510:
  5003  0F00                     l1497:
  5004  0F00  09F8               	comf	___awdiv@quotient,f
  5005  0F01  09F9               	comf	___awdiv@quotient+1,f
  5006  0F02  0AF8               	incf	___awdiv@quotient,f
  5007  0F03  1903               	skipnz
  5008  0F04  0AF9               	incf	___awdiv@quotient+1,f
  5009  0F05                     l1499:
  5010  0F05  0879               	movf	___awdiv@quotient+1,w
  5011  0F06  00F3               	movwf	?___awdiv+1
  5012  0F07  0878               	movf	___awdiv@quotient,w
  5013  0F08  00F2               	movwf	?___awdiv
  5014  0F09                     l340:
  5015  0F09  0008               	return
  5016  0F0A                     __end_of___awdiv:
  5017                           
  5018                           	psect	text20
  5019  0CBF                     __ptext20:	
  5020 ;; *************** function _PORT_putchar *****************
  5021 ;; Defined at:
  5022 ;;		line 126 in file "port.c"
  5023 ;; Parameters:    Size  Location     Type
  5024 ;;  c               1    wreg     unsigned char 
  5025 ;; Auto vars:     Size  Location     Type
  5026 ;;  c               1    2[COMMON] unsigned char 
  5027 ;; Return value:  Size  Location     Type
  5028 ;;                  1    wreg      void 
  5029 ;; Registers used:
  5030 ;;		wreg
  5031 ;; Tracked objects:
  5032 ;;		On entry : 0/0
  5033 ;;		On exit  : 0/0
  5034 ;;		Unchanged: 0/0
  5035 ;; Data sizes:     COMMON   BANK0   BANK1   BANK3   BANK2
  5036 ;;      Params:         0       0       0       0       0
  5037 ;;      Locals:         1       0       0       0       0
  5038 ;;      Temps:          0       0       0       0       0
  5039 ;;      Totals:         1       0       0       0       0
  5040 ;;Total ram usage:        1 bytes
  5041 ;; Hardware stack levels used:    1
  5042 ;; Hardware stack levels required when called:    1
  5043 ;; This function calls:
  5044 ;;		Nothing
  5045 ;; This function is called by:
  5046 ;;		_Affichage_brut
  5047 ;;		_puts_float
  5048 ;;		_PORT_putString
  5049 ;; This function uses a non-reentrant model
  5050 ;;
  5051                           
  5052                           
  5053                           ;psect for function _PORT_putchar
  5054  0CBF                     _PORT_putchar:
  5055                           
  5056                           ;incstack = 0
  5057                           ; Regs used in _PORT_putchar: [wreg]
  5058                           ;PORT_putchar@c stored from wreg
  5059  0CBF  00F2               	movwf	PORT_putchar@c
  5060  0CC0                     l1423:
  5061  0CC0                     l129:	
  5062                           ;port.c: 128:     for(;(TXSTA&0x02)!=0x02;);
  5063                           
  5064  0CC0  1683               	bsf	3,5	;RP0=1, select bank1
  5065  0CC1  1303               	bcf	3,6	;RP1=0, select bank1
  5066  0CC2  1C98               	btfss	24,1	;volatile
  5067  0CC3  2CC5               	goto	u1391
  5068  0CC4  2CC6               	goto	u1390
  5069  0CC5                     u1391:
  5070  0CC5  2CC0               	goto	l129
  5071  0CC6                     u1390:
  5072  0CC6                     l1425:
  5073                           
  5074                           ;port.c: 129:     TXREG = c;
  5075  0CC6  0872               	movf	PORT_putchar@c,w
  5076  0CC7  1283               	bcf	3,5	;RP0=0, select bank0
  5077  0CC8  1303               	bcf	3,6	;RP1=0, select bank0
  5078  0CC9  0099               	movwf	25	;volatile
  5079  0CCA                     l132:
  5080  0CCA  0008               	return
  5081  0CCB                     __end_of_PORT_putchar:
  5082                           
  5083                           	psect	text21
  5084  0CED                     __ptext21:	
  5085 ;; *************** function _ADC_GetValue *****************
  5086 ;; Defined at:
  5087 ;;		line 16 in file "adc.c"
  5088 ;; Parameters:    Size  Location     Type
  5089 ;;  channel         1    wreg     unsigned char 
  5090 ;; Auto vars:     Size  Location     Type
  5091 ;;  channel         1    3[COMMON] unsigned char 
  5092 ;; Return value:  Size  Location     Type
  5093 ;;                  1    wreg      unsigned char 
  5094 ;; Registers used:
  5095 ;;		wreg, status,2, status,0, btemp+1, pclath, cstack
  5096 ;; Tracked objects:
  5097 ;;		On entry : 0/0
  5098 ;;		On exit  : 0/0
  5099 ;;		Unchanged: 0/0
  5100 ;; Data sizes:     COMMON   BANK0   BANK1   BANK3   BANK2
  5101 ;;      Params:         0       0       0       0       0
  5102 ;;      Locals:         1       0       0       0       0
  5103 ;;      Temps:          0       0       0       0       0
  5104 ;;      Totals:         1       0       0       0       0
  5105 ;;Total ram usage:        1 bytes
  5106 ;; Hardware stack levels used:    1
  5107 ;; Hardware stack levels required when called:    2
  5108 ;; This function calls:
  5109 ;;		_PORT_Choose_Mux
  5110 ;;		_PORT_Get_Value_Adc
  5111 ;;		_PORT_Start_ADC
  5112 ;; This function is called by:
  5113 ;;		_main
  5114 ;; This function uses a non-reentrant model
  5115 ;;
  5116                           
  5117                           
  5118                           ;psect for function _ADC_GetValue
  5119  0CED                     _ADC_GetValue:
  5120                           
  5121                           ;incstack = 0
  5122                           ; Regs used in _ADC_GetValue: [wreg+status,2+status,0+btemp+1+pclath+cstack]
  5123                           ;ADC_GetValue@channel stored from wreg
  5124  0CED  00F3               	movwf	ADC_GetValue@channel
  5125  0CEE                     l2021:
  5126                           
  5127                           ;adc.c: 18:     PORT_Choose_Mux(channel);
  5128  0CEE  0873               	movf	ADC_GetValue@channel,w
  5129  0CEF  120A  158A  24DB  120A  158A  	fcall	_PORT_Choose_Mux
  5130  0CF4                     l2023:
  5131                           
  5132                           ;adc.c: 19:     PORT_Start_ADC();
  5133  0CF4  120A  158A  24B7  120A  158A  	fcall	_PORT_Start_ADC
  5134  0CF9                     l2025:
  5135                           
  5136                           ;adc.c: 20:     return PORT_Get_Value_Adc();
  5137  0CF9  120A  158A  24AE  120A  158A  	fcall	_PORT_Get_Value_Adc
  5138  0CFE                     l53:
  5139  0CFE  0008               	return
  5140  0CFF                     __end_of_ADC_GetValue:
  5141                           
  5142                           	psect	text22
  5143  0CB7                     __ptext22:	
  5144 ;; *************** function _PORT_Start_ADC *****************
  5145 ;; Defined at:
  5146 ;;		line 104 in file "port.c"
  5147 ;; Parameters:    Size  Location     Type
  5148 ;;		None
  5149 ;; Auto vars:     Size  Location     Type
  5150 ;;		None
  5151 ;; Return value:  Size  Location     Type
  5152 ;;                  1    wreg      void 
  5153 ;; Registers used:
  5154 ;;		None
  5155 ;; Tracked objects:
  5156 ;;		On entry : 0/0
  5157 ;;		On exit  : 0/0
  5158 ;;		Unchanged: 0/0
  5159 ;; Data sizes:     COMMON   BANK0   BANK1   BANK3   BANK2
  5160 ;;      Params:         0       0       0       0       0
  5161 ;;      Locals:         0       0       0       0       0
  5162 ;;      Temps:          0       0       0       0       0
  5163 ;;      Totals:         0       0       0       0       0
  5164 ;;Total ram usage:        0 bytes
  5165 ;; Hardware stack levels used:    1
  5166 ;; Hardware stack levels required when called:    1
  5167 ;; This function calls:
  5168 ;;		Nothing
  5169 ;; This function is called by:
  5170 ;;		_ADC_GetValue
  5171 ;; This function uses a non-reentrant model
  5172 ;;
  5173                           
  5174                           
  5175                           ;psect for function _PORT_Start_ADC
  5176  0CB7                     _PORT_Start_ADC:
  5177  0CB7                     l1431:	
  5178                           ;incstack = 0
  5179                           ; Regs used in _PORT_Start_ADC: []
  5180                           
  5181                           
  5182                           ;port.c: 105:     GO_nDONE=1;
  5183  0CB7  1283               	bcf	3,5	;RP0=0, select bank0
  5184  0CB8  1303               	bcf	3,6	;RP1=0, select bank0
  5185  0CB9  149F               	bsf	31,1	;volatile
  5186  0CBA                     l120:	
  5187                           ;port.c: 106:     while(GO_nDONE);
  5188                           
  5189  0CBA  189F               	btfsc	31,1	;volatile
  5190  0CBB  2CBD               	goto	u1411
  5191  0CBC  2CBE               	goto	u1410
  5192  0CBD                     u1411:
  5193  0CBD  2CBA               	goto	l120
  5194  0CBE                     u1410:
  5195  0CBE                     l123:
  5196  0CBE  0008               	return
  5197  0CBF                     __end_of_PORT_Start_ADC:
  5198                           
  5199                           	psect	text23
  5200  0CAE                     __ptext23:	
  5201 ;; *************** function _PORT_Get_Value_Adc *****************
  5202 ;; Defined at:
  5203 ;;		line 118 in file "port.c"
  5204 ;; Parameters:    Size  Location     Type
  5205 ;;		None
  5206 ;; Auto vars:     Size  Location     Type
  5207 ;;		None
  5208 ;; Return value:  Size  Location     Type
  5209 ;;                  1    wreg      unsigned char 
  5210 ;; Registers used:
  5211 ;;		wreg
  5212 ;; Tracked objects:
  5213 ;;		On entry : 0/0
  5214 ;;		On exit  : 0/0
  5215 ;;		Unchanged: 0/0
  5216 ;; Data sizes:     COMMON   BANK0   BANK1   BANK3   BANK2
  5217 ;;      Params:         0       0       0       0       0
  5218 ;;      Locals:         0       0       0       0       0
  5219 ;;      Temps:          0       0       0       0       0
  5220 ;;      Totals:         0       0       0       0       0
  5221 ;;Total ram usage:        0 bytes
  5222 ;; Hardware stack levels used:    1
  5223 ;; Hardware stack levels required when called:    1
  5224 ;; This function calls:
  5225 ;;		Nothing
  5226 ;; This function is called by:
  5227 ;;		_ADC_GetValue
  5228 ;; This function uses a non-reentrant model
  5229 ;;
  5230                           
  5231                           
  5232                           ;psect for function _PORT_Get_Value_Adc
  5233  0CAE                     _PORT_Get_Value_Adc:
  5234  0CAE                     l1433:	
  5235                           ;incstack = 0
  5236                           ; Regs used in _PORT_Get_Value_Adc: [wreg]
  5237                           
  5238                           
  5239                           ;port.c: 119:     return ADRES;
  5240  0CAE  1283               	bcf	3,5	;RP0=0, select bank0
  5241  0CAF  1303               	bcf	3,6	;RP1=0, select bank0
  5242  0CB0  081E               	movf	30,w	;volatile
  5243  0CB1                     l126:
  5244  0CB1  0008               	return
  5245  0CB2                     __end_of_PORT_Get_Value_Adc:
  5246                           
  5247                           	psect	text24
  5248  0CDB                     __ptext24:	
  5249 ;; *************** function _PORT_Choose_Mux *****************
  5250 ;; Defined at:
  5251 ;;		line 94 in file "port.c"
  5252 ;; Parameters:    Size  Location     Type
  5253 ;;  _value          1    wreg     unsigned char 
  5254 ;; Auto vars:     Size  Location     Type
  5255 ;;  _value          1    2[COMMON] unsigned char 
  5256 ;; Return value:  Size  Location     Type
  5257 ;;                  1    wreg      void 
  5258 ;; Registers used:
  5259 ;;		wreg, status,2, status,0, btemp+1
  5260 ;; Tracked objects:
  5261 ;;		On entry : 0/0
  5262 ;;		On exit  : 0/0
  5263 ;;		Unchanged: 0/0
  5264 ;; Data sizes:     COMMON   BANK0   BANK1   BANK3   BANK2
  5265 ;;      Params:         0       0       0       0       0
  5266 ;;      Locals:         1       0       0       0       0
  5267 ;;      Temps:          0       0       0       0       0
  5268 ;;      Totals:         1       0       0       0       0
  5269 ;;Total ram usage:        1 bytes
  5270 ;; Hardware stack levels used:    1
  5271 ;; Hardware stack levels required when called:    1
  5272 ;; This function calls:
  5273 ;;		Nothing
  5274 ;; This function is called by:
  5275 ;;		_ADC_GetValue
  5276 ;; This function uses a non-reentrant model
  5277 ;;
  5278                           
  5279                           
  5280                           ;psect for function _PORT_Choose_Mux
  5281  0CDB                     _PORT_Choose_Mux:
  5282                           
  5283                           ;incstack = 0
  5284                           ; Regs used in _PORT_Choose_Mux: [wreg+status,2+status,0+btemp+1]
  5285                           ;PORT_Choose_Mux@_value stored from wreg
  5286  0CDB  00F2               	movwf	PORT_Choose_Mux@_value
  5287  0CDC                     l1427:
  5288                           
  5289                           ;port.c: 95:     if (_value <= 0x0F) {
  5290  0CDC  3010               	movlw	16
  5291  0CDD  0272               	subwf	PORT_Choose_Mux@_value,w
  5292  0CDE  1803               	skipnc
  5293  0CDF  2CE1               	goto	u1401
  5294  0CE0  2CE2               	goto	u1400
  5295  0CE1                     u1401:
  5296  0CE1  2CEC               	goto	l117
  5297  0CE2                     u1400:
  5298  0CE2                     l1429:
  5299                           
  5300                           ;port.c: 96:         PORTD &= 0xF0;
  5301  0CE2  30F0               	movlw	240
  5302  0CE3  00FF               	movwf	btemp+1
  5303  0CE4  087F               	movf	btemp+1,w
  5304  0CE5  1283               	bcf	3,5	;RP0=0, select bank0
  5305  0CE6  1303               	bcf	3,6	;RP1=0, select bank0
  5306  0CE7  0588               	andwf	8,f	;volatile
  5307                           
  5308                           ;port.c: 97:         PORTD |= _value;
  5309  0CE8  0872               	movf	PORT_Choose_Mux@_value,w	;volatile
  5310  0CE9  00FF               	movwf	btemp+1
  5311  0CEA  087F               	movf	btemp+1,w
  5312  0CEB  0488               	iorwf	8,f	;volatile
  5313  0CEC                     l117:
  5314  0CEC  0008               	return
  5315  0CED                     __end_of_PORT_Choose_Mux:
  5316                           
  5317                           	psect	text25
  5318  0D11                     __ptext25:	
  5319 ;; *************** function _isr *****************
  5320 ;; Defined at:
  5321 ;;		line 78 in file "timer.c"
  5322 ;; Parameters:    Size  Location     Type
  5323 ;;		None
  5324 ;; Auto vars:     Size  Location     Type
  5325 ;;		None
  5326 ;; Return value:  Size  Location     Type
  5327 ;;                  1    wreg      void 
  5328 ;; Registers used:
  5329 ;;		None
  5330 ;; Tracked objects:
  5331 ;;		On entry : 0/0
  5332 ;;		On exit  : 0/0
  5333 ;;		Unchanged: 0/0
  5334 ;; Data sizes:     COMMON   BANK0   BANK1   BANK3   BANK2
  5335 ;;      Params:         0       0       0       0       0
  5336 ;;      Locals:         0       0       0       0       0
  5337 ;;      Temps:          2       0       0       0       0
  5338 ;;      Totals:         2       0       0       0       0
  5339 ;;Total ram usage:        2 bytes
  5340 ;; Hardware stack levels used:    1
  5341 ;; This function calls:
  5342 ;;		Nothing
  5343 ;; This function is called by:
  5344 ;;		Interrupt level 1
  5345 ;; This function uses a non-reentrant model
  5346 ;;
  5347                           
  5348                           
  5349                           ;psect for function _isr
  5350  0D11                     _isr:
  5351  0D11                     i1l2115:
  5352                           
  5353                           ;timer.c: 85: if (TMR1IF)
  5354  0D11  1283               	bcf	3,5	;RP0=0, select bank0
  5355  0D12  1303               	bcf	3,6	;RP1=0, select bank0
  5356  0D13  1C0C               	btfss	12,0	;volatile
  5357  0D14  2D16               	goto	u269_21
  5358  0D15  2D17               	goto	u269_20
  5359  0D16                     u269_21:
  5360  0D16  2D1A               	goto	i1l181
  5361  0D17                     u269_20:
  5362  0D17                     i1l2117:
  5363                           
  5364                           ;timer.c: 86:      {;timer.c: 88:      Fincompt1 = 1;
  5365  0D17  01EC               	clrf	_Fincompt1
  5366  0D18  0AEC               	incf	_Fincompt1,f
  5367                           
  5368                           ;timer.c: 91:      TMR1IF=0;
  5369  0D19  100C               	bcf	12,0	;volatile
  5370  0D1A                     i1l181:	
  5371                           ;timer.c: 92:      }
  5372                           
  5373                           
  5374                           ;timer.c: 94: if (TMRAIF)
  5375  0D1A  1E0D               	btfss	13,4	;volatile
  5376  0D1B  2D1D               	goto	u270_21
  5377  0D1C  2D1E               	goto	u270_20
  5378  0D1D                     u270_21:
  5379  0D1D  2D1F               	goto	i1l183
  5380  0D1E                     u270_20:
  5381  0D1E                     i1l2119:
  5382                           
  5383                           ;timer.c: 95:      {;timer.c: 100:      TMRAIF=0;
  5384  0D1E  120D               	bcf	13,4	;volatile
  5385  0D1F                     i1l183:
  5386  0D1F  0871               	movf	??_isr+1,w
  5387  0D20  008A               	movwf	10
  5388  0D21  0E70               	swapf	??_isr^(0+4294967168),w
  5389  0D22  0083               	movwf	3
  5390  0D23  0EFE               	swapf	btemp,f
  5391  0D24  0E7E               	swapf	btemp,w
  5392  0D25  0009               	retfie
  5393  0D26                     __end_of_isr:
  5394  007E                     btemp	set	126	;btemp
  5395  007E                     wtemp0	set	126
  5396                           
  5397                           	psect	intentry
  5398  0004                     __pintentry:	
  5399                           ;incstack = 0
  5400                           ; Regs used in _isr: []
  5401                           
  5402  0004                     interrupt_function:
  5403  007E                     saved_w	set	btemp
  5404  0004  00FE               	movwf	btemp
  5405  0005  0E03               	swapf	3,w
  5406  0006  00F0               	movwf	??_isr
  5407  0007  080A               	movf	10,w
  5408  0008  00F1               	movwf	??_isr+1
  5409  0009  120A  158A  2D11   	ljmp	_isr
  5410                           
  5411                           	psect	config
  5412                           
  5413                           ;Config register CONFIG @ 0x2007
  5414                           ;	Oscillator Selection bits
  5415                           ;	FOSC = INTOSC, INTOSC oscillator: CLKOUT function on RA6/OSC2/CLKOUT pin, I/O function
      +                            on RA7/OSC1/CLKIN
  5416                           ;	Watchdog Timer Enable bit
  5417                           ;	WDTE = OFF, WDT disabled and can be enabled by SWDTEN bit of the WDTCON register
  5418                           ;	Power-up Timer Enable bit
  5419                           ;	PWRTE = OFF, PWRT disabled
  5420                           ;	RE3/MCLR Pin Function Select bit
  5421                           ;	MCLRE = ON, RE3/MCLR pin function is MCLR
  5422                           ;	Code Protection bit
  5423                           ;	CP = OFF, Program memory code protection is disabled
  5424                           ;	Brown-out Reset Selection bits
  5425                           ;	BOREN = ON, BOR enabled
  5426                           ;	Brown-out Reset Voltage Selection bit
  5427                           ;	BORV = 19, Brown-out Reset Voltage (VBOR) set to 1.9 V nominal
  5428                           ;	INTOSC PLLEN Enable Bit
  5429                           ;	PLLEN = ON, INTOSC Frequency is 16 MHz (32x)
  5430  2007                     	org	8199
  5431  2007  3FF5               	dw	16373
  5432                           
  5433                           ;Config register CONFIG2 @ 0x2008
  5434                           ;	Voltage Regulator Capacitor Enable bits
  5435                           ;	VCAPEN = OFF, All VCAP pin functions are disabled
  5436  2008                     	org	8200
  5437  2008  FFFF               	dw	65535

Data Sizes:
    Strings     34
    Constant    0
    Data        0
    BSS         1
    Persistent  0
    Stack       0

Auto Spaces:
    Space          Size  Autos    Used
    COMMON           14     12      12
    BANK0            80     76      77
    BANK1            80      0       0
    BANK3            96      0       0
    BANK2            91      0       0

Pointer List with Targets:

    PORT_putString@chaine	PTR unsigned char  size(1) Largest target is 16
		 -> STR_4(CODE[2]), STR_3(CODE[16]), STR_2(CODE[2]), STR_1(CODE[16]), 


Critical Paths under _main in COMMON

    _main->_Affichage_brut
    _main->_Voltage_Value
    _puts_float->___fltol
    ___flmul->__Umul8_16
    _PORT_putString->_PORT_putchar
    _Affichage_brut->___awdiv
    _ADC_GetValue->_PORT_Choose_Mux

Critical Paths under _isr in COMMON

    None.

Critical Paths under _main in BANK0

    _main->_Voltage_Value
    _puts_float->___flmul
    _Voltage_Value->___fldiv
    ___flmul->___xxtofl
    ___fldiv->___flmul

Critical Paths under _isr in BANK0

    None.

Critical Paths under _main in BANK1

    None.

Critical Paths under _isr in BANK1

    None.

Critical Paths under _main in BANK3

    None.

Critical Paths under _isr in BANK3

    None.

Critical Paths under _main in BANK2

    None.

Critical Paths under _isr in BANK2

    None.

Call Graph Tables:

 ---------------------------------------------------------------------------------
 (Depth) Function   	        Calls       Base Space   Used Autos Params    Refs
 ---------------------------------------------------------------------------------
 (0) _main                                                18    18      0   11213
                                             66 BANK0     10    10      0
                       _ADC_GetValue
                     _Affichage_brut
                     _PORT_Blink_LED
                          _PORT_Init
                     _PORT_Init_Gain
                   _PORT_Select_Mux1
                     _PORT_putString
                  _TIMER_init_timer1
                      _Voltage_Value
                         _puts_float
 ---------------------------------------------------------------------------------
 (1) _puts_float                                          12     8      4    4992
                                             32 BANK0     12     8      4
                       _PORT_putchar
                            ___flmul
                            ___fltol
                            ___lwdiv
                            ___lwmod
 ---------------------------------------------------------------------------------
 (2) ___lwmod                                              5     1      4     767
                                              2 COMMON     5     1      4
 ---------------------------------------------------------------------------------
 (2) ___lwdiv                                              7     3      4     770
                                              2 COMMON     7     3      4
 ---------------------------------------------------------------------------------
 (2) ___fltol                                             10     6      4     305
                                              2 COMMON    10     6      4
 ---------------------------------------------------------------------------------
 (1) _Voltage_Value                                        9     5      4    4262
                                             11 COMMON     1     1      0
                                             58 BANK0      8     4      4
                            ___fldiv
                            ___flmul
                           ___xxtofl
 ---------------------------------------------------------------------------------
 (2) ___xxtofl                                            14    10      4     398
                                              2 COMMON     8     4      4
                                              0 BANK0      6     6      0
 ---------------------------------------------------------------------------------
 (2) ___flmul                                             26    18      8    2569
                                              6 BANK0     26    18      8
                          __Umul8_16
                           ___xxtofl (ARG)
 ---------------------------------------------------------------------------------
 (3) __Umul8_16                                            9     7      2     799
                                              2 COMMON     9     7      2
 ---------------------------------------------------------------------------------
 (2) ___fldiv                                             26    18      8    1273
                                             32 BANK0     26    18      8
                            ___flmul (ARG)
                           ___xxtofl (ARG)
 ---------------------------------------------------------------------------------
 (1) _TIMER_init_timer1                                    0     0      0       0
 ---------------------------------------------------------------------------------
 (1) _PORT_putString                                       3     3      0     244
                                              3 COMMON     3     3      0
                       _PORT_putchar
 ---------------------------------------------------------------------------------
 (1) _PORT_Select_Mux1                                     0     0      0       0
 ---------------------------------------------------------------------------------
 (1) _PORT_Init_Gain                                       0     0      0       0
 ---------------------------------------------------------------------------------
 (1) _PORT_Init                                            1     1      0       0
                                              2 COMMON     1     1      0
                   _PORT_Init_Serial
 ---------------------------------------------------------------------------------
 (2) _PORT_Init_Serial                                     0     0      0       0
 ---------------------------------------------------------------------------------
 (1) _PORT_Blink_LED                                       0     0      0       0
 ---------------------------------------------------------------------------------
 (1) _Affichage_brut                                      11     9      2    1578
                                             10 COMMON     2     0      2
                                              0 BANK0      9     9      0
                       _PORT_putchar
                            ___awdiv
                            ___awmod
 ---------------------------------------------------------------------------------
 (2) ___awmod                                              6     2      4     600
                                              2 COMMON     6     2      4
 ---------------------------------------------------------------------------------
 (2) ___awdiv                                              8     4      4     604
                                              2 COMMON     8     4      4
 ---------------------------------------------------------------------------------
 (2) _PORT_putchar                                         1     1      0      22
                                              2 COMMON     1     1      0
 ---------------------------------------------------------------------------------
 (1) _ADC_GetValue                                         1     1      0      66
                                              3 COMMON     1     1      0
                    _PORT_Choose_Mux
                 _PORT_Get_Value_Adc
                     _PORT_Start_ADC
 ---------------------------------------------------------------------------------
 (2) _PORT_Start_ADC                                       0     0      0       0
 ---------------------------------------------------------------------------------
 (2) _PORT_Get_Value_Adc                                   0     0      0       0
 ---------------------------------------------------------------------------------
 (2) _PORT_Choose_Mux                                      1     1      0      44
                                              2 COMMON     1     1      0
 ---------------------------------------------------------------------------------
 Estimated maximum stack depth 3
 ---------------------------------------------------------------------------------
 (Depth) Function   	        Calls       Base Space   Used Autos Params    Refs
 ---------------------------------------------------------------------------------
 (4) _isr                                                  2     2      0       0
                                              0 COMMON     2     2      0
 ---------------------------------------------------------------------------------
 Estimated maximum stack depth 4
 ---------------------------------------------------------------------------------

 Call Graph Graphs:

 _main (ROOT)
   _ADC_GetValue
     _PORT_Choose_Mux
     _PORT_Get_Value_Adc
     _PORT_Start_ADC
   _Affichage_brut
     _PORT_putchar
     ___awdiv
     ___awmod
   _PORT_Blink_LED
   _PORT_Init
     _PORT_Init_Serial
   _PORT_Init_Gain
   _PORT_Select_Mux1
   _PORT_putString
     _PORT_putchar
   _TIMER_init_timer1
   _Voltage_Value
     ___fldiv
       ___flmul (ARG)
         __Umul8_16
         ___xxtofl (ARG)
       ___xxtofl (ARG)
     ___flmul
       __Umul8_16
       ___xxtofl (ARG)
     ___xxtofl
   _puts_float
     _PORT_putchar
     ___flmul
       __Umul8_16
       ___xxtofl (ARG)
     ___fltol
     ___lwdiv
     ___lwmod

 _isr (ROOT)

 Address spaces:
Name               Size   Autos  Total    Cost      Usage
BITCOMMON            E      0       0       0        0.0%
NULL                 0      0       0       0        0.0%
CODE                 0      0       0       0        0.0%
COMMON               E      C       C       1       85.7%
BITSFR0              0      0       0       1        0.0%
SFR0                 0      0       0       1        0.0%
BITSFR1              0      0       0       2        0.0%
SFR1                 0      0       0       2        0.0%
STACK                0      0       0       2        0.0%
ABS                  0      0      59       3        0.0%
BITBANK0            50      0       0       4        0.0%
BITSFR3              0      0       0       4        0.0%
SFR3                 0      0       0       4        0.0%
BANK0               50     4C      4D       5       96.2%
BITSFR2              0      0       0       5        0.0%
SFR2                 0      0       0       5        0.0%
DATA                 0      0      59       6        0.0%
BITBANK1            50      0       0       7        0.0%
BANK1               50      0       0       8        0.0%
BITBANK3            60      0       0       9        0.0%
BANK3               60      0       0      10        0.0%
BITBANK2            5B      0       0      11        0.0%
BANK2               5B      0       0      12        0.0%


Microchip Technology PIC Macro Assembler V2.20 build 20200408173844 
Symbol Table                                                                                   Thu Jun 01 10:19:33 2023

                   ___fldiv@aexp 0059                     ___fldiv@bexp 0058                                pc 0002  
                   ___fldiv@sign 0051                               l41 0657                               l44 0EA2  
                             l53 0CFE                               l38 0FFF                     ___awdiv@sign 0077  
                             fsr 0004              __Umul8_16@word_mpld 0078                 ??_PORT_Blink_LED 0072  
                            l110 0DD5                              l120 0CBA                              l104 0D9C  
                            l113 0CDA                              l123 0CBE                              l132 0CCA  
                            l117 0CEC                              l126 0CB1                              l144 07FD  
                            l129 0CC0                              l138 0D4A                              l147 0CB6  
                            l340 0F09                              l176 0D10                              l353 07F5  
                            l620 067C                              l380 0F6E                              l373 0F83  
                            l622 0713                              l383 0F83                              l560 0547  
                            l552 04C5                              l536 03D3                              l633 06DD  
                            l538 0553                              l634 06E9                              l459 0E53  
                            l469 0E0F                              l582 02E2                              l576 0376  
                            l595 0D5F                              l588 036A                              l597 0D71  
      __end_of_TIMER_init_timer1 0D11                              _isr 0D11                              fsr0 0004  
                   ___awmod@sign 0077                     ___flmul@aexp 0038                     ___flmul@bexp 0039  
                   ___flmul@sign 0033                     ___flmul@temp 003E                     ___flmul@prod 003A  
       __end_of_PORT_Select_Mux1 07FE                     ___fltol@exp1 007B                             l2001 0D08  
                           l2011 0D0F                             l2003 0D09                             l2021 0CEE  
                           l2013 07F6                             l2005 0D0A                             l2101 0752  
                           l2023 0CF4                             l2015 07F9                             l2031 0D2A  
                           l2007 0D0B                             l2111 0784                             l2103 0758  
                           l2025 0CF9                             l2041 0FA1                             l2017 0CB2  
                           l2033 0D37                             l2009 0D0C                             l2113 0793  
                           l2105 0766                             l2051 0FF4                             l2043 0FA7  
                           l2019 0CCB                             l2035 0D3D                             l1411 0D4E  
                           l2107 076C                             l2053 0FF9                             l2045 0FBF  
                           l2037 0F84                             l2029 0D27                             l1413 0D55  
                           l2061 059C                             l2109 077E                             l1431 0CB7  
                           l1423 0CC0                             l1511 07A9                             l1503 079D  
                           l2047 0FD6                             l2039 0F8A                             l1415 0D59  
                           l2055 0E55                             l2071 0600                             l2063 05A2  
                           l1433 0CAE                             l1425 0CC6                             l1521 07C2  
                           l1513 07AD                             l1505 079E                             l2049 0FDC  
                           l1441 0D7B                             l1417 0D68                             l1409 0D4C  
                           l1601 0E4F                             l2073 0631                             l2065 05B7  
                           l2081 0714                             l1427 0CDC                             l1531 07E1  
                           l1523 07C6                             l1515 07B2                             l1507 07A2  
                           l1451 0D8C                             l1443 0D7E                             l1419 0D6D  
                           l1611 0DE6                             l2075 0637                             l2067 05CB  
                           l2059 0554                             l2091 0730                             l2083 071E  
                           l1429 0CE2                             l1461 0EA4                             l1525 07CA  
                           l1517 07B8                             l1533 07E7                             l1509 07A7  
                           l1453 0D8F                             l1445 0D81                             l1437 0D72  
                           l1701 0453                             l1541 0F0A                             l1621 0E05  
                           l1613 0DEA                             l1605 0DD6                             l2077 064C  
                           l2069 05FA                             l2093 0735                             l2085 0723  
                           l1471 0EB8                             l1463 0EA8                             l1535 07EC  
                           l1527 07D4                             l1519 07BB                             l1455 0D94  
                           l1447 0D86                             l1439 0D78                             l1711 047E  
                           l1703 0465                             l1631 0384                             l1551 0F34  
                           l1543 0F15                             l1615 0DEE                             l1607 0DDC  
                           l1623 0E0B                             l2079 0651                             l2095 0740  
                           l2087 0728                             l1481 0ECE                             l1473 0EBC  
                           l1465 0EAD                             l1537 07F1                             l1529 07DA  
                           l1457 0D97                             l1449 0D89                             l1721 0496  
                           l1713 0486                             l1705 0466                             l1641 039B  
                           l1633 0388                             l1801 005E                             l1553 0F3C  
                           l1617 0DF8                             l1609 0DDF                             l2097 0746  
                           l2089 072F                             l1491 0EEE                             l1483 0ED2  
                           l1475 0EBE                             l1467 0EAF                             l1459 0EA3  
                           l1731 04AE                             l1723 049F                             l1715 0488  
                           l1707 0474                             l1651 03B1                             l1643 039C  
                           l1635 0389                             l1627 0377                             l1811 007A  
                           l1803 0066                             l1563 0F4A                             l1555 0F3E  
                           l1547 0F1E                             l1619 0DFE                             l2099 074C  
                           l1493 0EF5                             l1485 0ED6                             l1477 0EC4  
                           l1469 0EB3                             l1741 04DD                             l1733 04C2  
                           l1717 0491                             l1725 04A5                             l1709 0478  
                           l1661 03C8                             l1653 03B5                             l1637 038E  
                           l1645 039E                             l1629 037E                             l1901 0356  
                           l1821 00BD                             l1805 0068                             l1573 0F63  
                           l1565 0F53                             l1557 0F42                             l1549 0F33  
                           l1581 0E12                             l1487 0EE7                             l1479 0EC7  
                           l1495 0EFB                             l1751 051B                             l1743 04E1  
                           l1727 04A9                             l1719 0495                             l1671 03EB  
                           l1663 03C9                             l1655 03B6                             l1647 03A6  
                           l1639 0393                             l1903 035E                             l1831 0146  
                           l1823 00D9                             l1815 0083                             l1807 0070  
                           l1575 0F73                             l1567 0F5C                             l1591 0E2A  
                           l1583 0E18                             l1497 0F00                             l1489 0EED  
                           l1761 053D                             l1753 052A                             l1745 04FA  
                           l1737 04CA                             l1729 04AA                             l1681 0402  
                           l1657 03BB                             l1665 03CB                             l1649 03AB  
                           l1905 0362                             l1841 01B9                             l1833 0156  
                           l1825 0105                             l1817 0093                             l1809 0075  
                           l1921 0684                             l1913 065B                             l1577 0F78  
                           l1593 0E3B                             l1585 0E1B                             l1499 0F05  
                           l1763 0541                             l1755 052E                             l1739 04CF  
                           l1747 0500                             l1691 042E                             l1683 0414  
                           l1667 03DB                             l1675 03F4                             l1659 03C0  
                           l1907 0363                             l1851 0266                             l1843 01D6  
                           l1835 0173                             l1827 0121                             l1819 00A0  
                           l1771 0016                             l1931 069F                             l1915 0660  
                           l1595 0E41                             l1587 0E22                             l1579 0E10  
                           l1765 0543                             l1757 0536                             l1749 050D  
                           l1693 0433                             l1685 041C                             l1677 03F9  
                           l1669 03E7                             l1909 036E                             l1861 02B2  
                           l1853 028E                             l1845 0203                             l1837 0183  
                           l1829 013D                             l1781 002D                             l1773 001D  
                           l1941 06C8                             l1933 06A6                             l1925 068D  
                           l1917 0664                             l1597 0E42                             l1589 0E26  
                           l1759 0537                             l1695 0445                             l1687 0424  
                           l1871 02C7                             l1863 02B3                             l1855 0297  
                           l1847 0213                             l1839 01A0                             l1791 0049  
                           l1783 0032                             l1775 0023                             l1951 0701  
                           l1943 06D3                             l1935 06AA                             l1927 0692  
                           l1919 0674                             l1599 0E49                             l1961 0D9D  
                           l1697 0449                             l1689 042C                             l1881 02EC  
                           l1873 02CB                             l1865 02BC                             l1857 02A5  
                           l1849 0240                             l1793 004F                             l1785 003A  
                           l1777 0027                             l1953 0706                             l1945 06D7  
                           l1937 06B8                             l1929 0696                             l1971 0DB5  
                           l1963 0DA3                             l1699 044A                             l1891 032A  
                           l1883 02FA                             l1875 02DF                             l1859 02AE  
                           l1867 02C2                             l1795 0053                             l1787 003C  
                           l1779 0028                             l1955 070A                             l1947 06E1  
                           l1939 06C1                             l1981 0DC8                             l1973 0DB9  
                           l1965 0DA7                             l1893 0335                             l1885 02FE  
                           l1869 02C6                             l1797 0054                             l1789 0044  
                           l1957 070B                             l1949 06EB                             l1991 0DD3  
                           l1983 0DCC                             l1975 0DBB                             l1967 0DA9  
                           l1895 0344                             l1887 0317                             l1879 02E7  
                           l1799 0059                             l1985 0DCD                             l1977 0DC0  
                           l1969 0DB2                             l1993 0CFF                             l1897 034E  
                           l1889 031D                             l1987 0DD0                             l1979 0DC4  
                           l1995 0D03                             l1899 0350                             l1989 0DD2  
                           l1997 0D06                             l1999 0D07                             ?_isr 0070  
                           STR_1 0816                             STR_2 0826                             STR_3 0806  
                           STR_4 0826                             u2010 0495                             u2011 0494  
                           u2100 050D                             u2101 050C                             u2005 048A  
                           u2110 052A                             u2030 04A9                             u2111 0529  
                           u2031 04A8                             u1400 0CE2                             u2120 0541  
                           u2040 04AE                             u2200 007A                             u1401 0CE1  
                           u2121 0540                             u2105 0509                             u2041 04AD  
                           u2025 0498                             u2201 0079                             u1410 0CBE  
                           u2050 04C2                             u2130 0027                             u1411 0CBD  
                           u2115 0526                             u2051 04C1                             u2211 00CB  
                           u2131 0026                             u1500 0EFB                             u1420 0EA8  
                           u2060 04C9                             u2212 00D2                             u2140 002D  
                           u1501 0EFA                             u1421 0EA7                             u2061 04C8  
                           u2301 01F5                             u2221 00E7                             u2213 00D9  
                           u2141 002C                             u1510 0F00                             u1430 0EB3  
                           u2070 04CF                             u2302 01FC                             u2222 00EE  
                           u2150 0032                             u1511 0EFF                             u1431 0EB2  
                           u2071 04CE                             u2311 0222                             u2303 0203  
                           u2231 0113                             u2223 00F5                             u2151 0031  
                           u1440 0EC4                             u1600 07EC                             u1520 07A2  
                           u2080 04E1                             u1360 0D59                             u2400 02C6  
                           u2320 024C                             u2312 0229                             u2232 011A  
                           u2160 0053                             u1441 0EC3                             u1601 07EB  
                           u1521 07A1                             u2081 04E0                             u1361 0D58  
                           u2401 02C5                             u2313 0230                             u2241 012F  
                           u2233 0121                             u2161 0052                             u1530 07AD  
                           u2090 04F0                             u2410 02CB                             u2242 0136  
                           u2170 0059                             u1610 0F15                             u1531 07AC  
                           u2411 02CA                             u2331 0258                             u2243 013D  
                           u2171 0058                             u1611 0F14                             u1460 0ED6  
                           u1540 07B8                             u1380 0D6D                             u2420 02DF  
                           u2340 0274                             u2332 025F                             u2180 005E  
                           u2500 0660                             u1700 0F78                             u1620 0F2C  
                           u1461 0ED5                             u1541 07B7                             u1381 0D6C  
                           u2421 02DE                             u2333 0266                             u2325 0247  
                           u2261 0165                             u2181 005D                             u2501 065F  
                           u1701 0F77                             u1390 0CC6                             u2430 02E6  
                           u2262 016C                             u2190 0075                             u2510 0664  
                           u1630 0F42                             u1710 0E18                             u1391 0CC5  
                           u1455 0EC8                             u2095 04EB                             u1375 0D60  
                           u2431 02E5                             u2351 0280                             u2271 0192  
                           u2263 0173                             u2255 013F                             u2191 0074  
                           u2511 0663                             u1631 0F41                             u1711 0E17  
                           u1480 0EE7                             u1560 07CA                             u2440 02EC  
                           u2352 0287                             u2272 0199                             u2600 06E1  
                           u2520 0684                             u1640 0F49                             u1800 0DEE  
                           u1481 0EE6                             u1561 07C9                             u2441 02EB  
                           u2353 028E                             u2345 026F                             u2273 01A0  
                           u2601 06E0                             u2521 0683                             u1641 0F48  
                           u1625 0F27                             u1801 0DED                             u1570 07D4  
                           u2450 02FE                             u2610 06F6                             u1730 0E2A  
                           u1810 0DF8                             u1475 0ED7                             u1571 07D3  
                           u1555 07BC                             u2451 02FD                             u2291 01C8  
                           u1731 0E29                             u1811 0DF7                             u1900 03DB  
                           u2460 030D                             u2380 02B2                             u2292 01CF  
                           u2620 0706                             u2540 06A5                             u1660 0F5B  
                           u1485 0EE3                             u1901 03DA                             u2381 02B1  
                           u2365 0290                             u2293 01D6                             u2285 01A2  
                           u2621 0705                             u2541 06A4                             u1661 0F5A  
                           u1725 0E1C                             u1590 07E7                             u1910 03F9  
                           u2470 032A                             u2630 070A                             u1670 0F62  
                           u1750 0E3B                             u1830 0E0B                             u1495 0EEF  
                           u1591 07E6                             u1575 07D0                             u1911 03F8  
                           u2471 0329                             u2375 02A7                             u2631 0709  
                           u2615 06F1                             u2535 0697                             u1671 0F61  
                           u1655 0F4B                             u1751 0E3A                             u1831 0E0A  
                           u1815 0DF4                             u2640 0DB2                             u1920 0433  
                           u1840 0388                             u2480 0344                             u2560 06C7  
                           u1585 07DB                             u2641 0DB1                             u1921 0432  
                           u1841 0387                             u2481 0343                             u2465 0308  
                           u2561 06C6                             u1745 0E2B                             u1825 0DFF  
                           u2650 0CD7                             u1850 038E                             u2490 0362  
                           u1690 0F73                             u1770 0E4F                             u2651 0CD3  
                           u1851 038D                             u2491 0361                             u2475 0326  
                           u2395 02B5                             u2555 06B9                             u1691 0F72  
                           u1771 0E4E                             u1755 0E37                             u1860 0393  
                           u2580 06D7                             u1780 0DDC                             u1861 0392  
                           u2485 0340                             u2581 06D6                             u1685 0F65  
                           u1765 0E43                             u1781 0DDB                             u2670 0D4A  
                           u1950 0449                             u1870 03B5                             u2590 06DD  
                           u2671 0D49                             u1951 0448                             u1935 0435  
                           u1871 03B4                             u2591 06DC                             u2575 06CC  
                           u2664 0CDA                             u1880 03BB                             u2680 072F  
                           u1945 043E                             u1881 03BA                             u2681 072E  
                           u1970 0465                             u1890 03C0                             u1971 0464  
                           u1891 03BF                             u1795 0DE0                             u1980 047E  
                           u1981 047D                             u1965 044C                             u1990 0486  
                           u1991 0485                             u1975 0461                             _TMRA 0110  
                           _WPUB 0095                             _main 0714                      main@sensor1 006B  
               ??_PORT_Init_Gain 0072                             btemp 007E                ??_PORT_Choose_Mux 0072  
                           start 000C                  ___fldiv@new_exp 0052            __size_of_ADC_GetValue 0012  
                          ??_isr 0070                    ___fltol@sign1 007A                            ?_main 0070  
                __end_of___fldiv 0554                  __end_of___awdiv 0F0A                            _ADRES 001E  
                __end_of___awmod 07F6                  __end_of___flmul 0377                  __end_of___fltol 0F84  
                ___awdiv@divisor 0072                  __end_of___lwdiv 0E54                            i1l181 0D1A  
                          i1l183 0D1F                  __end_of___lwmod 0E10                  ___awdiv@counter 0076  
                  _Voltage_Value 0E54                            _RCSTA 0018                            _SPBRG 0099  
                          _PORTD 0008                            _TRISA 0085                            _TRISB 0086  
                          _TRISC 0087                            _TRISD 0088                            _TXREG 0019  
                          _TXSTA 0098                 ??_PORT_Start_ADC 0072               __size_of_PORT_Init 0039  
                          pclath 000A                            status 0003                            wtemp0 007E  
                   _ADC_GetValue 0CED       __end_of_PORT_Get_Value_Adc 0CB2                  __initialization 000F  
                  PORT_putchar@c 0072                     __end_of_main 079D                           ??_main 0062  
                 ?_Voltage_Value 005A       __size_of_TIMER_init_timer1 0012          __size_of_Affichage_brut 007C  
                         _ADCON0 001F                           _ADCON1 009F                 ___awdiv@dividend 0074  
                         _ANSELA 0185                           _ANSELB 0186                           _ANSELD 0188  
                         i1l2115 0D11                           i1l2117 0D17                           i1l2119 0D1E  
                         _T1SYNC 0082                           _FVRCON 009D                 puts_float@Valeur 0040  
                         u270_20 0D1E                           u270_21 0D1D                           u269_20 0D17  
                         u269_21 0D16                           _OSCCON 0090                           _TMR1GE 047F  
                         _TMR1IE 0460                           _TMR1IF 0060                           _TMR1ON 0080  
                         _TMRAIF 006C                           _TMRCS0 0086                           _TMRCS1 0087  
               __end_of___xxtofl 0714       Affichage_brut@valueMetrics 0023                        ??___fldiv 0048  
                      ??___awdiv 0076                        ??___awmod 0076                        ??___flmul 002E  
                      ??___fltol 0076                        ??___lwdiv 0076                        ??___lwmod 0076  
              __end_of_PORT_Init 0DD6                 ___awdiv@quotient 0078                  ___awmod@divisor 0072  
                ___awmod@counter 0076                ?_PORT_Init_Serial 0070                           main@Vs 0067  
             ??_PORT_Init_Serial 0072               __size_of__Umul8_16 0027                           saved_w 007E  
               ??_PORT_putString 0073                     ___xxtofl@arg 0022                     ___xxtofl@exp 0021  
                   ___xxtofl@val 0072          __end_of__initialization 0012                       ___fltol@f1 0072  
                 __pcstackCOMMON 0070                  ??_Voltage_Value 005E            Affichage_brut@affiche 0022  
                _PORT_Choose_Mux 0CDB                ?_PORT_Select_Mux1 0070                       __pbssBANK0 006C  
             ??_PORT_Select_Mux1 0072                __end_of__Umul8_16 0D72                       __pmaintext 0714  
            ADC_GetValue@channel 0073                       __pintentry 0004                          _DACCON0 0113  
                        _DACCON1 0114                          _T1CKPS0 0084                          _T1CKPS1 0085  
                        _T1OSCEN 0083                        ?___xxtofl 0072                   _Affichage_brut 0F84  
              puts_float@affiche 0044                       __stringtab 0800                          ___fldiv 0377  
                        ___awdiv 0EA3                          ___awmod 079D                          ___flmul 0016  
                        ___fltol 0F0A                          ___lwdiv 0E10                          ___lwmod 0DD6  
        __end_of_PORT_Choose_Mux 0CED                          __ptext1 0554                          __ptext2 0DD6  
                        __ptext3 0E10                          __ptext4 0F0A                          __ptext5 0E54  
                        __ptext6 0658                          __ptext7 0016                          __ptext8 0D4B  
                        __ptext9 0377               _PORT_Get_Value_Adc 0CAE           __end_of_Affichage_brut 1000  
                   __size_of_isr 0015                       ??___xxtofl 0076                 ___awmod@dividend 0074  
            ?_PORT_Get_Value_Adc 0070             end_of_initialization 0012          __size_of_PORT_Blink_LED 0010  
           ??_PORT_Get_Value_Adc 0072          __size_of_PORT_Init_Gain 0005                        _PORTBbits 0006  
                      _PORTCbits 0007                        _PORT_Init 0D9D                  ?_Affichage_brut 007A  
                  ___xxtofl@sign 0020                    ?_PORT_putchar 0070                      ___fldiv@grs 0054  
                    ___fldiv@rem 004D        __size_of_PORT_Init_Serial 002B                      ___flmul@grs 0034  
                     _puts_float 0554          __size_of_PORT_Start_ADC 0008                  PORT_putString@i 0073  
Affichage_brut@valeur_a_afficher 007A                        _Fincompt1 006C                 ?_PORT_Choose_Mux 0070  
                     ?_PORT_Init 0070                   ??_PORT_putchar 0072              start_initialization 000F  
                    __end_of_isr 0D26        __size_of_PORT_Select_Mux1 0008                        __Umul8_16 0D4B  
          __end_of_Voltage_Value 0EA3                        ___fldiv@a 0040                        ___fldiv@b 0044  
                      ___flmul@a 002A                        ___flmul@b 0026                        ___latbits 0002  
                  __pcstackBANK0 0020                __size_of___xxtofl 00BC                   _PORT_Blink_LED 0CCB  
                  ?_ADC_GetValue 0070                      ?_puts_float 0040                 ___lwdiv@dividend 0074  
        __size_of_PORT_putString 0025                         ?___fldiv 0040                         ?___awdiv 0072  
                       ?___awmod 0072                         ?___flmul 0026                         ?___fltol 0072  
                     ?__Umul8_16 0072                         ?___lwdiv 0072                   _PORT_Init_Gain 0CB2  
                       ?___lwmod 0072           puts_float@valueMetrics 0046                        __pstrings 0800  
                    ??_PORT_Init 0072           __end_of_PORT_Blink_LED 0CDB                 ___lwdiv@quotient 0076  
               _PORT_Init_Serial 0D72                   ??_ADC_GetValue 0073                interrupt_function 0004  
                 _PORT_Start_ADC 0CB7             __end_of_PORT_putchar 0CCB            PORT_Choose_Mux@_value 0072  
                       _GO_nDONE 00F9           __end_of_PORT_Init_Gain 0CB7                 ??_Affichage_brut 0020  
                    __stringbase 0805              __size_of_puts_float 0104                  ?_PORT_Blink_LED 0070  
         __end_of_PORT_Start_ADC 0CBF                  ?_PORT_Init_Gain 0070                 _PORT_Select_Mux1 07F6  
                    ??__Umul8_16 0074      __size_of_PORT_Get_Value_Adc 0004                 __size_of___fldiv 01DD  
               __size_of___awdiv 0067                 __size_of___awmod 0059                 __size_of___flmul 0361  
               __size_of___fltol 007A                 __size_of___lwdiv 0044                 __size_of___lwmod 003A  
             __end_of__stringtab 0806                         ___xxtofl 0658                  ___lwdiv@divisor 0072  
                ___lwdiv@counter 0078                         __ptext10 0CFF                         __ptext11 0D26  
                       __ptext20 0CBF                         __ptext12 07F6                         __ptext21 0CED  
                       __ptext13 0CB2                         __ptext22 0CB7                         __ptext14 0D9D  
                       __ptext23 0CAE                         __ptext15 0D72                         __ptext24 0CDB  
                       __ptext16 0CCB                         __ptext25 0D11                         __ptext17 0F84  
                       __ptext18 079D                         __ptext19 0EA3                  ?_PORT_Start_ADC 0070  
                  __size_of_main 0089                   _PORT_putString 0D26             __end_of_ADC_GetValue 0CFF  
       __size_of_PORT_Choose_Mux 0012                         intlevel1 0000            __size_of_PORT_putchar 000C  
               ___lwmod@dividend 0074           __end_of_PORT_putString 0D4B                     ??_puts_float 007C  
                      stringcode 0800         __end_of_PORT_Init_Serial 0D9D             PORT_putString@chaine 0075  
         __Umul8_16@multiplicand 0072              Voltage_Value@sensor 007B                  ___lwmod@divisor 0072  
                ___lwmod@counter 0076                         stringdir 0800               __end_of_puts_float 0658  
                       stringtab 0800                     _PORT_putchar 0CBF                _TIMER_init_timer1 0CFF  
             ?_TIMER_init_timer1 0070                  ?_PORT_putString 0070             __Umul8_16@multiplier 007A  
            ??_TIMER_init_timer1 0072           __size_of_Voltage_Value 004F                __Umul8_16@product 0076  
