

Microchip MPLAB XC8 Assembler V2.20 build 20200408173844 
                                                                                               Thu Jun 01 11:26:20 2023

Microchip MPLAB XC8 C Compiler v2.20 (Free license) build 20200408173844 Og1 
     1                           	processor	16F707
     2                           	pagewidth 120
     3                           	opt	flic
     4                           	psect	strings,global,class=STRING,delta=2,noexec
     5                           	psect	cinit,global,class=CODE,merge=1,delta=2
     6                           	psect	bssBANK1,global,class=BANK1,space=1,delta=1,noexec
     7                           	psect	cstackBANK1,global,class=BANK1,space=1,delta=1,noexec
     8                           	psect	cstackCOMMON,global,class=COMMON,space=1,delta=1,noexec
     9                           	psect	cstackBANK0,global,class=BANK0,space=1,delta=1,noexec
    10                           	psect	maintext,global,class=CODE,split=1,delta=2
    11                           	psect	text1,local,class=CODE,merge=1,delta=2
    12                           	psect	text2,local,class=CODE,merge=1,delta=2,group=1
    13                           	psect	text3,local,class=CODE,merge=1,delta=2,group=1
    14                           	psect	text4,local,class=CODE,merge=1,delta=2,group=1
    15                           	psect	text5,local,class=CODE,merge=1,delta=2
    16                           	psect	text6,local,class=CODE,merge=1,delta=2,group=1
    17                           	psect	text7,local,class=CODE,merge=1,delta=2
    18                           	psect	text8,local,class=CODE,merge=1,delta=2,group=1
    19                           	psect	text9,local,class=CODE,merge=1,delta=2
    20                           	psect	text10,local,class=CODE,merge=1,delta=2
    21                           	psect	text11,local,class=CODE,merge=1,delta=2,group=1
    22                           	psect	text12,local,class=CODE,merge=1,delta=2,group=1
    23                           	psect	text13,local,class=CODE,merge=1,delta=2,group=1
    24                           	psect	text14,local,class=CODE,merge=1,delta=2,group=1
    25                           	psect	text15,local,class=CODE,merge=1,delta=2,group=1
    26                           	psect	text16,local,class=CODE,merge=1,delta=2
    27                           	psect	text17,local,class=CODE,merge=1,delta=2
    28                           	psect	text18,local,class=CODE,merge=1,delta=2
    29                           	psect	text19,local,class=CODE,merge=1,delta=2
    30                           	psect	text20,local,class=CODE,merge=1,delta=2
    31                           	psect	text21,local,class=CODE,merge=1,delta=2
    32                           	psect	text22,local,class=CODE,merge=1,delta=2
    33                           	psect	text23,local,class=CODE,merge=1,delta=2,group=1
    34                           	psect	text24,local,class=CODE,merge=1,delta=2,group=1
    35                           	psect	text25,local,class=CODE,merge=1,delta=2
    36                           	psect	text26,local,class=CODE,merge=1,delta=2
    37                           	psect	text27,local,class=CODE,merge=1,delta=2
    38                           	psect	text28,local,class=CODE,merge=1,delta=2
    39                           	psect	text29,local,class=CODE,merge=1,delta=2
    40                           	psect	text30,local,class=CODE,merge=1,delta=2
    41                           	psect	intentry,global,class=CODE,delta=2
    42                           	psect	config,global,abs,ovrld,class=CONFIG,space=4,delta=2,noexec
    43                           	dabs	1,0x7E,2
    44  0000                     
    45                           ; Version 2.20
    46                           ; Generated 12/02/2020 GMT
    47                           ; 
    48                           ; Copyright © 2020, Microchip Technology Inc. and its subsidiaries ("Microchip")
    49                           ; All rights reserved.
    50                           ; 
    51                           ; This software is developed by Microchip Technology Inc. and its subsidiaries ("Microch
      +                          ip").
    52                           ; 
    53                           ; Redistribution and use in source and binary forms, with or without modification, are
    54                           ; permitted provided that the following conditions are met:
    55                           ; 
    56                           ;     1. Redistributions of source code must retain the above copyright notice, this lis
      +                          t of
    57                           ;        conditions and the following disclaimer.
    58                           ; 
    59                           ;     2. Redistributions in binary form must reproduce the above copyright notice, this 
      +                          list
    60                           ;        of conditions and the following disclaimer in the documentation and/or other
    61                           ;        materials provided with the distribution.
    62                           ; 
    63                           ;     3. Microchip's name may not be used to endorse or promote products derived from th
      +                          is
    64                           ;        software without specific prior written permission.
    65                           ; 
    66                           ; THIS SOFTWARE IS PROVIDED BY MICROCHIP "AS IS" AND ANY EXPRESS OR IMPLIED WARRANTIES,
    67                           ; INCLUDING, BUT NOT LIMITED TO, THE IMPLIED WARRANTIES OF MERCHANTABILITY AND FITNESS F
      +                          OR
    68                           ; PURPOSE ARE DISCLAIMED.  IN NO EVENT SHALL MICROCHIP BE LIABLE FOR ANY DIRECT, INDIREC
      +                          T,
    69                           ; INCIDENTAL, SPECIAL, EXEMPLARY, OR CONSEQUENTIAL DAMAGES (INCLUDING BUT NOT LIMITED TO
    70                           ; PROCUREMENT OF SUBSTITUTE GOODS OR SERVICES; LOSS OF USE, DATA OR PROFITS; OR BUSINESS
    71                           ; INTERRUPTION) HOWSOEVER CAUSED AND ON ANY THEORY OF LIABILITY, WHETHER IN CONTRACT, ST
      +                          RICT
    72                           ; LIABILITY, OR TORT (INCLUDING NEGLIGENCE OR OTHERWISE) ARISING IN ANY WAY OUT OF THE U
      +                          SE OF
    73                           ; THIS SOFTWARE, EVEN IF ADVISED OF THE POSSIBILITY OF SUCH DAMAGE.
    74                           ; 
    75                           ; 
    76                           ; Code-generator required, PIC16F707 Definitions
    77                           ; 
    78                           ; SFR Addresses
    79  0000                     	;# 
    80  0001                     	;# 
    81  0002                     	;# 
    82  0003                     	;# 
    83  0004                     	;# 
    84  0005                     	;# 
    85  0006                     	;# 
    86  0007                     	;# 
    87  0008                     	;# 
    88  0009                     	;# 
    89  000A                     	;# 
    90  000B                     	;# 
    91  000C                     	;# 
    92  000D                     	;# 
    93  000E                     	;# 
    94  000E                     	;# 
    95  000F                     	;# 
    96  0010                     	;# 
    97  0011                     	;# 
    98  0012                     	;# 
    99  0013                     	;# 
   100  0014                     	;# 
   101  0015                     	;# 
   102  0015                     	;# 
   103  0016                     	;# 
   104  0017                     	;# 
   105  0018                     	;# 
   106  0019                     	;# 
   107  001A                     	;# 
   108  001B                     	;# 
   109  001B                     	;# 
   110  001C                     	;# 
   111  001D                     	;# 
   112  001E                     	;# 
   113  001F                     	;# 
   114  0081                     	;# 
   115  0085                     	;# 
   116  0086                     	;# 
   117  0087                     	;# 
   118  0088                     	;# 
   119  0089                     	;# 
   120  008C                     	;# 
   121  008D                     	;# 
   122  008E                     	;# 
   123  008F                     	;# 
   124  0090                     	;# 
   125  0091                     	;# 
   126  0092                     	;# 
   127  0093                     	;# 
   128  0093                     	;# 
   129  0094                     	;# 
   130  0095                     	;# 
   131  0096                     	;# 
   132  0097                     	;# 
   133  0098                     	;# 
   134  0099                     	;# 
   135  009A                     	;# 
   136  009A                     	;# 
   137  009B                     	;# 
   138  009C                     	;# 
   139  009D                     	;# 
   140  009E                     	;# 
   141  009F                     	;# 
   142  0105                     	;# 
   143  0106                     	;# 
   144  0107                     	;# 
   145  0108                     	;# 
   146  0109                     	;# 
   147  010C                     	;# 
   148  010D                     	;# 
   149  010E                     	;# 
   150  010F                     	;# 
   151  0110                     	;# 
   152  0111                     	;# 
   153  0112                     	;# 
   154  0113                     	;# 
   155  0114                     	;# 
   156  0185                     	;# 
   157  0186                     	;# 
   158  0187                     	;# 
   159  0188                     	;# 
   160  0189                     	;# 
   161  018C                     	;# 
   162  0000                     	;# 
   163  0001                     	;# 
   164  0002                     	;# 
   165  0003                     	;# 
   166  0004                     	;# 
   167  0005                     	;# 
   168  0006                     	;# 
   169  0007                     	;# 
   170  0008                     	;# 
   171  0009                     	;# 
   172  000A                     	;# 
   173  000B                     	;# 
   174  000C                     	;# 
   175  000D                     	;# 
   176  000E                     	;# 
   177  000E                     	;# 
   178  000F                     	;# 
   179  0010                     	;# 
   180  0011                     	;# 
   181  0012                     	;# 
   182  0013                     	;# 
   183  0014                     	;# 
   184  0015                     	;# 
   185  0015                     	;# 
   186  0016                     	;# 
   187  0017                     	;# 
   188  0018                     	;# 
   189  0019                     	;# 
   190  001A                     	;# 
   191  001B                     	;# 
   192  001B                     	;# 
   193  001C                     	;# 
   194  001D                     	;# 
   195  001E                     	;# 
   196  001F                     	;# 
   197  0081                     	;# 
   198  0085                     	;# 
   199  0086                     	;# 
   200  0087                     	;# 
   201  0088                     	;# 
   202  0089                     	;# 
   203  008C                     	;# 
   204  008D                     	;# 
   205  008E                     	;# 
   206  008F                     	;# 
   207  0090                     	;# 
   208  0091                     	;# 
   209  0092                     	;# 
   210  0093                     	;# 
   211  0093                     	;# 
   212  0094                     	;# 
   213  0095                     	;# 
   214  0096                     	;# 
   215  0097                     	;# 
   216  0098                     	;# 
   217  0099                     	;# 
   218  009A                     	;# 
   219  009A                     	;# 
   220  009B                     	;# 
   221  009C                     	;# 
   222  009D                     	;# 
   223  009E                     	;# 
   224  009F                     	;# 
   225  0105                     	;# 
   226  0106                     	;# 
   227  0107                     	;# 
   228  0108                     	;# 
   229  0109                     	;# 
   230  010C                     	;# 
   231  010D                     	;# 
   232  010E                     	;# 
   233  010F                     	;# 
   234  0110                     	;# 
   235  0111                     	;# 
   236  0112                     	;# 
   237  0113                     	;# 
   238  0114                     	;# 
   239  0185                     	;# 
   240  0186                     	;# 
   241  0187                     	;# 
   242  0188                     	;# 
   243  0189                     	;# 
   244  018C                     	;# 
   245  0000                     	;# 
   246  0001                     	;# 
   247  0002                     	;# 
   248  0003                     	;# 
   249  0004                     	;# 
   250  0005                     	;# 
   251  0006                     	;# 
   252  0007                     	;# 
   253  0008                     	;# 
   254  0009                     	;# 
   255  000A                     	;# 
   256  000B                     	;# 
   257  000C                     	;# 
   258  000D                     	;# 
   259  000E                     	;# 
   260  000E                     	;# 
   261  000F                     	;# 
   262  0010                     	;# 
   263  0011                     	;# 
   264  0012                     	;# 
   265  0013                     	;# 
   266  0014                     	;# 
   267  0015                     	;# 
   268  0015                     	;# 
   269  0016                     	;# 
   270  0017                     	;# 
   271  0018                     	;# 
   272  0019                     	;# 
   273  001A                     	;# 
   274  001B                     	;# 
   275  001B                     	;# 
   276  001C                     	;# 
   277  001D                     	;# 
   278  001E                     	;# 
   279  001F                     	;# 
   280  0081                     	;# 
   281  0085                     	;# 
   282  0086                     	;# 
   283  0087                     	;# 
   284  0088                     	;# 
   285  0089                     	;# 
   286  008C                     	;# 
   287  008D                     	;# 
   288  008E                     	;# 
   289  008F                     	;# 
   290  0090                     	;# 
   291  0091                     	;# 
   292  0092                     	;# 
   293  0093                     	;# 
   294  0093                     	;# 
   295  0094                     	;# 
   296  0095                     	;# 
   297  0096                     	;# 
   298  0097                     	;# 
   299  0098                     	;# 
   300  0099                     	;# 
   301  009A                     	;# 
   302  009A                     	;# 
   303  009B                     	;# 
   304  009C                     	;# 
   305  009D                     	;# 
   306  009E                     	;# 
   307  009F                     	;# 
   308  0105                     	;# 
   309  0106                     	;# 
   310  0107                     	;# 
   311  0108                     	;# 
   312  0109                     	;# 
   313  010C                     	;# 
   314  010D                     	;# 
   315  010E                     	;# 
   316  010F                     	;# 
   317  0110                     	;# 
   318  0111                     	;# 
   319  0112                     	;# 
   320  0113                     	;# 
   321  0114                     	;# 
   322  0185                     	;# 
   323  0186                     	;# 
   324  0187                     	;# 
   325  0188                     	;# 
   326  0189                     	;# 
   327  018C                     	;# 
   328                           
   329                           	psect	strings
   330  1000                     __pstrings:
   331  1000                     stringtab:
   332  1000                     __stringtab:
   333  1000                     stringcode:	
   334                           ;	String table - string pointers are 1 byte each
   335                           
   336  1000                     stringdir:
   337  1000  3010               	movlw	high stringdir
   338  1001  008A               	movwf	10
   339  1002  0804               	movf	4,w
   340  1003  0A84               	incf	4,f
   341  1004  0782               	addwf	2,f
   342  1005                     __stringbase:
   343  1005  3400               	retlw	0
   344  1006                     __end_of__stringtab:
   345  1006                     conversion_newton@R_tab:
   346  1006  3400               	retlw	0
   347  1007  3400               	retlw	0
   348  1008  34FA               	retlw	250
   349  1009  3444               	retlw	68
   350  100A  3400               	retlw	0
   351  100B  3440               	retlw	64
   352  100C  341C               	retlw	28
   353  100D  3445               	retlw	69
   354  100E  3400               	retlw	0
   355  100F  3480               	retlw	128
   356  1010  3422               	retlw	34
   357  1011  3445               	retlw	69
   358  1012  3400               	retlw	0
   359  1013  34C0               	retlw	192
   360  1014  3428               	retlw	40
   361  1015  3445               	retlw	69
   362  1016  3400               	retlw	0
   363  1017  3440               	retlw	64
   364  1018  3435               	retlw	53
   365  1019  3445               	retlw	69
   366  101A  3400               	retlw	0
   367  101B  3400               	retlw	0
   368  101C  3448               	retlw	72
   369  101D  3445               	retlw	69
   370  101E  3400               	retlw	0
   371  101F  3480               	retlw	128
   372  1020  3454               	retlw	84
   373  1021  3445               	retlw	69
   374  1022  3400               	retlw	0
   375  1023  34C0               	retlw	192
   376  1024  345A               	retlw	90
   377  1025  3445               	retlw	69
   378  1026  3400               	retlw	0
   379  1027  34C0               	retlw	192
   380  1028  3473               	retlw	115
   381  1029  3445               	retlw	69
   382  102A  3400               	retlw	0
   383  102B  3460               	retlw	96
   384  102C  3486               	retlw	134
   385  102D  3445               	retlw	69
   386  102E  3400               	retlw	0
   387  102F  3400               	retlw	0
   388  1030  3496               	retlw	150
   389  1031  3445               	retlw	69
   390  1032  3400               	retlw	0
   391  1033  34E0               	retlw	224
   392  1034  34AB               	retlw	171
   393  1035  3445               	retlw	69
   394  1036  3400               	retlw	0
   395  1037  3480               	retlw	128
   396  1038  34D4               	retlw	212
   397  1039  3445               	retlw	69
   398  103A  3400               	retlw	0
   399  103B  34D0               	retlw	208
   400  103C  3404               	retlw	4
   401  103D  3446               	retlw	70
   402  103E  3400               	retlw	0
   403  103F  34E0               	retlw	224
   404  1040  342B               	retlw	43
   405  1041  3446               	retlw	70
   406  1042  3400               	retlw	0
   407  1043  3400               	retlw	0
   408  1044  347A               	retlw	122
   409  1045  3446               	retlw	70
   410  1046  3400               	retlw	0
   411  1047  34F0               	retlw	240
   412  1048  34D2               	retlw	210
   413  1049  3446               	retlw	70
   414  104A  3400               	retlw	0
   415  104B  34C8               	retlw	200
   416  104C  342F               	retlw	47
   417  104D  3447               	retlw	71
   418  104E  3400               	retlw	0
   419  104F  34E8               	retlw	232
   420  1050  347D               	retlw	125
   421  1051  3447               	retlw	71
   422  1052  3400               	retlw	0
   423  1053  348C               	retlw	140
   424  1054  34B9               	retlw	185
   425  1055  3447               	retlw	71
   426  1056                     __end_ofconversion_newton@R_tab:
   427  1056                     conversion_newton@F_tab:
   428  1056  3400               	retlw	0
   429  1057  3400               	retlw	0
   430  1058  348C               	retlw	140
   431  1059  3442               	retlw	66
   432  105A  3400               	retlw	0
   433  105B  3400               	retlw	0
   434  105C  340C               	retlw	12
   435  105D  3442               	retlw	66
   436  105E  3400               	retlw	0
   437  105F  3400               	retlw	0
   438  1060  34F0               	retlw	240
   439  1061  3441               	retlw	65
   440  1062  3400               	retlw	0
   441  1063  3400               	retlw	0
   442  1064  34E0               	retlw	224
   443  1065  3441               	retlw	65
   444  1066  3400               	retlw	0
   445  1067  3400               	retlw	0
   446  1068  34C8               	retlw	200
   447  1069  3441               	retlw	65
   448  106A  3400               	retlw	0
   449  106B  3400               	retlw	0
   450  106C  34A0               	retlw	160
   451  106D  3441               	retlw	65
   452  106E  3400               	retlw	0
   453  106F  3400               	retlw	0
   454  1070  3498               	retlw	152
   455  1071  3441               	retlw	65
   456  1072  3400               	retlw	0
   457  1073  3400               	retlw	0
   458  1074  3490               	retlw	144
   459  1075  3441               	retlw	65
   460  1076  3400               	retlw	0
   461  1077  3400               	retlw	0
   462  1078  3470               	retlw	112
   463  1079  3441               	retlw	65
   464  107A  3400               	retlw	0
   465  107B  3400               	retlw	0
   466  107C  3450               	retlw	80
   467  107D  3441               	retlw	65
   468  107E  3400               	retlw	0
   469  107F  3400               	retlw	0
   470  1080  3420               	retlw	32
   471  1081  3441               	retlw	65
   472  1082  3400               	retlw	0
   473  1083  3400               	retlw	0
   474  1084  34E0               	retlw	224
   475  1085  3440               	retlw	64
   476  1086  34CD               	retlw	205
   477  1087  34CC               	retlw	204
   478  1088  34AC               	retlw	172
   479  1089  3440               	retlw	64
   480  108A  3400               	retlw	0
   481  108B  3400               	retlw	0
   482  108C  3480               	retlw	128
   483  108D  3440               	retlw	64
   484  108E  3400               	retlw	0
   485  108F  3400               	retlw	0
   486  1090  3440               	retlw	64
   487  1091  3440               	retlw	64
   488  1092  34CD               	retlw	205
   489  1093  34CC               	retlw	204
   490  1094  340C               	retlw	12
   491  1095  3440               	retlw	64
   492  1096  3400               	retlw	0
   493  1097  3400               	retlw	0
   494  1098  34C0               	retlw	192
   495  1099  343F               	retlw	63
   496  109A  3466               	retlw	102
   497  109B  3466               	retlw	102
   498  109C  3466               	retlw	102
   499  109D  343F               	retlw	63
   500  109E  3466               	retlw	102
   501  109F  3466               	retlw	102
   502  10A0  34E6               	retlw	230
   503  10A1  343E               	retlw	62
   504  10A2  348F               	retlw	143
   505  10A3  34C2               	retlw	194
   506  10A4  34F5               	retlw	245
   507  10A5  343D               	retlw	61
   508  10A6                     __end_ofconversion_newton@F_tab:
   509  0007                     _PORTCbits	set	7
   510  0019                     _TXREG	set	25
   511  001E                     _ADRES	set	30
   512  0008                     _PORTD	set	8
   513  0006                     _PORTBbits	set	6
   514  001F                     _ADCON0	set	31
   515  0018                     _RCSTA	set	24
   516  006C                     _TMRAIF	set	108
   517  0060                     _TMR1IF	set	96
   518  0080                     _TMR1ON	set	128
   519  0082                     _T1SYNC	set	130
   520  0085                     _T1CKPS1	set	133
   521  0084                     _T1CKPS0	set	132
   522  0086                     _TMRCS0	set	134
   523  0087                     _TMRCS1	set	135
   524  0083                     _T1OSCEN	set	131
   525  00F9                     _GO_nDONE	set	249
   526  009D                     _FVRCON	set	157
   527  009F                     _ADCON1	set	159
   528  0088                     _TRISD	set	136
   529  0085                     _TRISA	set	133
   530  0090                     _OSCCON	set	144
   531  0086                     _TRISB	set	134
   532  0095                     _WPUB	set	149
   533  0098                     _TXSTA	set	152
   534  0099                     _SPBRG	set	153
   535  0087                     _TRISC	set	135
   536  0460                     _TMR1IE	set	1120
   537  047F                     _TMR1GE	set	1151
   538  0110                     _TMRA	set	272
   539  0114                     _DACCON1	set	276
   540  0113                     _DACCON0	set	275
   541  0185                     _ANSELA	set	389
   542  0188                     _ANSELD	set	392
   543  0186                     _ANSELB	set	390
   544  10A6                     STR_5:
   545  10A6  3476               	retlw	118	;'v'
   546  10A7  3461               	retlw	97	;'a'
   547  10A8  346C               	retlw	108	;'l'
   548  10A9  3465               	retlw	101	;'e'
   549  10AA  3475               	retlw	117	;'u'
   550  10AB  3472               	retlw	114	;'r'
   551  10AC  3420               	retlw	32	;' '
   552  10AD  3452               	retlw	82	;'R'
   553  10AE  3465               	retlw	101	;'e'
   554  10AF  3473               	retlw	115	;'s'
   555  10B0  3469               	retlw	105	;'i'
   556  10B1  3473               	retlw	115	;'s'
   557  10B2  3474               	retlw	116	;'t'
   558  10B3  3461               	retlw	97	;'a'
   559  10B4  346E               	retlw	110	;'n'
   560  10B5  3463               	retlw	99	;'c'
   561  10B6  3465               	retlw	101	;'e'
   562  10B7  3420               	retlw	32	;' '
   563  10B8  3400               	retlw	0
   564  10B9                     STR_3:
   565  10B9  3476               	retlw	118	;'v'
   566  10BA  3461               	retlw	97	;'a'
   567  10BB  346C               	retlw	108	;'l'
   568  10BC  3465               	retlw	101	;'e'
   569  10BD  3475               	retlw	117	;'u'
   570  10BE  3472               	retlw	114	;'r'
   571  10BF  3420               	retlw	32	;' '
   572  10C0  3454               	retlw	84	;'T'
   573  10C1  3465               	retlw	101	;'e'
   574  10C2  346E               	retlw	110	;'n'
   575  10C3  3473               	retlw	115	;'s'
   576  10C4  3469               	retlw	105	;'i'
   577  10C5  346F               	retlw	111	;'o'
   578  10C6  346E               	retlw	110	;'n'
   579  10C7  3420               	retlw	32	;' '
   580  10C8  3400               	retlw	0
   581  10C9                     STR_1:
   582  10C9  3476               	retlw	118	;'v'
   583  10CA  3461               	retlw	97	;'a'
   584  10CB  346C               	retlw	108	;'l'
   585  10CC  3465               	retlw	101	;'e'
   586  10CD  3475               	retlw	117	;'u'
   587  10CE  3472               	retlw	114	;'r'
   588  10CF  3420               	retlw	32	;' '
   589  10D0  3443               	retlw	67	;'C'
   590  10D1  3461               	retlw	97	;'a'
   591  10D2  3470               	retlw	112	;'p'
   592  10D3  3474               	retlw	116	;'t'
   593  10D4  3465               	retlw	101	;'e'
   594  10D5  3475               	retlw	117	;'u'
   595  10D6  3472               	retlw	114	;'r'
   596  10D7  3420               	retlw	32	;' '
   597  10D8  3400               	retlw	0
   598  10D9                     STR_7:
   599  10D9  3476               	retlw	118	;'v'
   600  10DA  3461               	retlw	97	;'a'
   601  10DB  346C               	retlw	108	;'l'
   602  10DC  3465               	retlw	101	;'e'
   603  10DD  3475               	retlw	117	;'u'
   604  10DE  3472               	retlw	114	;'r'
   605  10DF  3420               	retlw	32	;' '
   606  10E0  344E               	retlw	78	;'N'
   607  10E1  3465               	retlw	101	;'e'
   608  10E2  3477               	retlw	119	;'w'
   609  10E3  3474               	retlw	116	;'t'
   610  10E4  346F               	retlw	111	;'o'
   611  10E5  346E               	retlw	110	;'n'
   612  10E6  3420               	retlw	32	;' '
   613  10E7  3400               	retlw	0
   614  10E8                     STR_2:
   615  10E8  340A               	retlw	10
   616  10E9  3400               	retlw	0
   617  10E8                     
   618                           	psect	cinit
   619  000F                     start_initialization:	
   620                           ; #config settings
   621                           
   622  000F                     __initialization:
   623                           
   624                           ; Clear objects allocated to BANK1
   625  000F  1683               	bsf	3,5	;RP0=1, select bank1
   626  0010  1303               	bcf	3,6	;RP1=0, select bank1
   627  0011  01D9               	clrf	__pbssBANK1& (0+127)
   628  0012                     end_of_initialization:	
   629                           ;End of C runtime variable initialization code
   630                           
   631  0012                     __end_of__initialization:
   632  0012  0183               	clrf	3
   633  0013  160A  118A  2DED   	ljmp	_main	;jump to C main() function
   634                           
   635                           	psect	bssBANK1
   636  00D9                     __pbssBANK1:
   637  00D9                     _Fincompt1:
   638  00D9                     	ds	1
   639                           
   640                           	psect	cstackBANK1
   641  00A0                     __pcstackBANK1:
   642  00A0                     ?_puts_float:
   643  00A0                     ?_Voltage_Value:	
   644                           ; 1 bytes @ 0x0
   645                           
   646  00A0                     ?_Resistance_Value:	
   647                           ; 4 bytes @ 0x0
   648                           
   649  00A0                     ?_conversion_newton:	
   650                           ; 4 bytes @ 0x0
   651                           
   652  00A0                     puts_float@Valeur:	
   653                           ; 4 bytes @ 0x0
   654                           
   655  00A0                     Resistance_Value@Voltage:	
   656                           ; 4 bytes @ 0x0
   657                           
   658  00A0                     conversion_newton@Rc:	
   659                           ; 4 bytes @ 0x0
   660                           
   661                           
   662                           ; 4 bytes @ 0x0
   663  00A0                     	ds	4
   664  00A4                     ??_Voltage_Value:
   665  00A4                     ??_conversion_newton:	
   666                           ; 1 bytes @ 0x4
   667                           
   668  00A4                     puts_float@affiche:	
   669                           ; 1 bytes @ 0x4
   670                           
   671                           
   672                           ; 2 bytes @ 0x4
   673  00A4                     	ds	2
   674  00A6                     puts_float@valueMetrics:
   675                           
   676                           ; 6 bytes @ 0x6
   677  00A6                     	ds	23
   678  00BD                     _conversion_newton$778:
   679                           
   680                           ; 4 bytes @ 0x1D
   681  00BD                     	ds	4
   682  00C1                     conversion_newton@F:
   683                           
   684                           ; 4 bytes @ 0x21
   685  00C1                     	ds	4
   686  00C5                     conversion_newton@n:
   687                           
   688                           ; 2 bytes @ 0x25
   689  00C5                     	ds	2
   690  00C7                     ??_main:
   691                           
   692                           ; 1 bytes @ 0x27
   693  00C7                     	ds	5
   694  00CC                     main@F:
   695                           
   696                           ; 4 bytes @ 0x2C
   697  00CC                     	ds	4
   698  00D0                     main@Rc:
   699                           
   700                           ; 4 bytes @ 0x30
   701  00D0                     	ds	4
   702  00D4                     main@Vs:
   703                           
   704                           ; 4 bytes @ 0x34
   705  00D4                     	ds	4
   706  00D8                     main@sensor1:
   707                           
   708                           ; 1 bytes @ 0x38
   709  00D8                     	ds	1
   710                           
   711                           	psect	cstackCOMMON
   712  0070                     __pcstackCOMMON:
   713  0070                     ?_PORT_Init:
   714  0070                     ?_TIMER_init_timer1:	
   715                           ; 1 bytes @ 0x0
   716                           
   717  0070                     ?_PORT_Select_Mux1:	
   718                           ; 1 bytes @ 0x0
   719                           
   720  0070                     ?_PORT_Init_Gain:	
   721                           ; 1 bytes @ 0x0
   722                           
   723  0070                     ?_PORT_Blink_LED:	
   724                           ; 1 bytes @ 0x0
   725                           
   726  0070                     ?_ADC_GetValue:	
   727                           ; 1 bytes @ 0x0
   728                           
   729  0070                     ?_PORT_putString:	
   730                           ; 1 bytes @ 0x0
   731                           
   732  0070                     ?_PORT_putchar:	
   733                           ; 1 bytes @ 0x0
   734                           
   735  0070                     ?_PORT_Choose_Mux:	
   736                           ; 1 bytes @ 0x0
   737                           
   738  0070                     ?_PORT_Start_ADC:	
   739                           ; 1 bytes @ 0x0
   740                           
   741  0070                     ?_PORT_Get_Value_Adc:	
   742                           ; 1 bytes @ 0x0
   743                           
   744  0070                     ?_main:	
   745                           ; 1 bytes @ 0x0
   746                           
   747  0070                     ?_PORT_Init_Serial:	
   748                           ; 1 bytes @ 0x0
   749                           
   750  0070                     ?_isr:	
   751                           ; 1 bytes @ 0x0
   752                           
   753  0070                     ??_isr:	
   754                           ; 1 bytes @ 0x0
   755                           
   756                           
   757                           ; 1 bytes @ 0x0
   758  0070                     	ds	2
   759  0072                     ?___flge:
   760  0072                     ??_PORT_Init:	
   761                           ; 1 bit 
   762                           
   763  0072                     ??_TIMER_init_timer1:	
   764                           ; 1 bytes @ 0x2
   765                           
   766  0072                     ??_PORT_Select_Mux1:	
   767                           ; 1 bytes @ 0x2
   768                           
   769  0072                     ??_PORT_Init_Gain:	
   770                           ; 1 bytes @ 0x2
   771                           
   772  0072                     ??_PORT_Blink_LED:	
   773                           ; 1 bytes @ 0x2
   774                           
   775  0072                     ??_PORT_putchar:	
   776                           ; 1 bytes @ 0x2
   777                           
   778  0072                     ??_PORT_Choose_Mux:	
   779                           ; 1 bytes @ 0x2
   780                           
   781  0072                     ??_PORT_Start_ADC:	
   782                           ; 1 bytes @ 0x2
   783                           
   784  0072                     ??_PORT_Get_Value_Adc:	
   785                           ; 1 bytes @ 0x2
   786                           
   787  0072                     ??_PORT_Init_Serial:	
   788                           ; 1 bytes @ 0x2
   789                           
   790  0072                     ?__Umul8_16:	
   791                           ; 1 bytes @ 0x2
   792                           
   793  0072                     ?___awdiv:	
   794                           ; 2 bytes @ 0x2
   795                           
   796  0072                     ?___awmod:	
   797                           ; 2 bytes @ 0x2
   798                           
   799  0072                     ?___lwdiv:	
   800                           ; 2 bytes @ 0x2
   801                           
   802  0072                     ?___lwmod:	
   803                           ; 2 bytes @ 0x2
   804                           
   805  0072                     ?___fltol:	
   806                           ; 2 bytes @ 0x2
   807                           
   808  0072                     ?___xxtofl:	
   809                           ; 4 bytes @ 0x2
   810                           
   811  0072                     PORT_Choose_Mux@_value:	
   812                           ; 4 bytes @ 0x2
   813                           
   814  0072                     PORT_putchar@c:	
   815                           ; 1 bytes @ 0x2
   816                           
   817  0072                     __Umul8_16@multiplicand:	
   818                           ; 1 bytes @ 0x2
   819                           
   820  0072                     ___awdiv@divisor:	
   821                           ; 1 bytes @ 0x2
   822                           
   823  0072                     ___awmod@divisor:	
   824                           ; 2 bytes @ 0x2
   825                           
   826  0072                     ___lwdiv@divisor:	
   827                           ; 2 bytes @ 0x2
   828                           
   829  0072                     ___lwmod@divisor:	
   830                           ; 2 bytes @ 0x2
   831                           
   832  0072                     ___flge@ff1:	
   833                           ; 2 bytes @ 0x2
   834                           
   835  0072                     ___fltol@f1:	
   836                           ; 4 bytes @ 0x2
   837                           
   838  0072                     ___xxtofl@val:	
   839                           ; 4 bytes @ 0x2
   840                           
   841                           
   842                           ; 4 bytes @ 0x2
   843  0072                     	ds	1
   844  0073                     ??_ADC_GetValue:
   845  0073                     ??_PORT_putString:	
   846                           ; 1 bytes @ 0x3
   847                           
   848  0073                     ADC_GetValue@channel:	
   849                           ; 1 bytes @ 0x3
   850                           
   851  0073                     PORT_putString@i:	
   852                           ; 1 bytes @ 0x3
   853                           
   854                           
   855                           ; 2 bytes @ 0x3
   856  0073                     	ds	1
   857  0074                     ??__Umul8_16:
   858  0074                     ___awdiv@dividend:	
   859                           ; 1 bytes @ 0x4
   860                           
   861  0074                     ___awmod@dividend:	
   862                           ; 2 bytes @ 0x4
   863                           
   864  0074                     ___lwdiv@dividend:	
   865                           ; 2 bytes @ 0x4
   866                           
   867  0074                     ___lwmod@dividend:	
   868                           ; 2 bytes @ 0x4
   869                           
   870                           
   871                           ; 2 bytes @ 0x4
   872  0074                     	ds	1
   873  0075                     PORT_putString@chaine:
   874                           
   875                           ; 1 bytes @ 0x5
   876  0075                     	ds	1
   877  0076                     ??___awdiv:
   878  0076                     ??___awmod:	
   879                           ; 1 bytes @ 0x6
   880                           
   881  0076                     ??___fltol:	
   882                           ; 1 bytes @ 0x6
   883                           
   884  0076                     ??___lwdiv:	
   885                           ; 1 bytes @ 0x6
   886                           
   887  0076                     ??___lwmod:	
   888                           ; 1 bytes @ 0x6
   889                           
   890  0076                     ??___xxtofl:	
   891                           ; 1 bytes @ 0x6
   892                           
   893  0076                     ___awdiv@counter:	
   894                           ; 1 bytes @ 0x6
   895                           
   896  0076                     ___awmod@counter:	
   897                           ; 1 bytes @ 0x6
   898                           
   899  0076                     ___lwmod@counter:	
   900                           ; 1 bytes @ 0x6
   901                           
   902  0076                     ___lwdiv@quotient:	
   903                           ; 1 bytes @ 0x6
   904                           
   905  0076                     __Umul8_16@product:	
   906                           ; 2 bytes @ 0x6
   907                           
   908  0076                     ___flge@ff2:	
   909                           ; 2 bytes @ 0x6
   910                           
   911                           
   912                           ; 4 bytes @ 0x6
   913  0076                     	ds	1
   914  0077                     ___awdiv@sign:
   915  0077                     ___awmod@sign:	
   916                           ; 1 bytes @ 0x7
   917                           
   918                           
   919                           ; 1 bytes @ 0x7
   920  0077                     	ds	1
   921  0078                     ___lwdiv@counter:
   922  0078                     ___awdiv@quotient:	
   923                           ; 1 bytes @ 0x8
   924                           
   925  0078                     __Umul8_16@word_mpld:	
   926                           ; 2 bytes @ 0x8
   927                           
   928                           
   929                           ; 2 bytes @ 0x8
   930  0078                     	ds	2
   931  007A                     ?_Affichage_brut:
   932  007A                     ___fltol@sign1:	
   933                           ; 1 bytes @ 0xA
   934                           
   935  007A                     __Umul8_16@multiplier:	
   936                           ; 1 bytes @ 0xA
   937                           
   938  007A                     Affichage_brut@valeur_a_afficher:	
   939                           ; 1 bytes @ 0xA
   940                           
   941                           
   942                           ; 2 bytes @ 0xA
   943  007A                     	ds	1
   944  007B                     ??_Resistance_Value:
   945  007B                     ??___flsub:	
   946                           ; 1 bytes @ 0xB
   947                           
   948  007B                     Voltage_Value@sensor:	
   949                           ; 1 bytes @ 0xB
   950                           
   951  007B                     ___fltol@exp1:	
   952                           ; 1 bytes @ 0xB
   953                           
   954                           
   955                           ; 1 bytes @ 0xB
   956  007B                     	ds	1
   957  007C                     ??_puts_float:
   958                           
   959                           	psect	cstackBANK0
   960  0020                     __pcstackBANK0:	
   961                           ; 1 bytes @ 0xC
   962                           
   963  0020                     ??_Affichage_brut:
   964  0020                     ??___flge:	
   965                           ; 1 bytes @ 0x0
   966                           
   967  0020                     ?___fladd:	
   968                           ; 1 bytes @ 0x0
   969                           
   970  0020                     ___xxtofl@sign:	
   971                           ; 4 bytes @ 0x0
   972                           
   973  0020                     ___fladd@b:	
   974                           ; 1 bytes @ 0x0
   975                           
   976                           
   977                           ; 4 bytes @ 0x0
   978  0020                     	ds	1
   979  0021                     ___xxtofl@exp:
   980                           
   981                           ; 1 bytes @ 0x1
   982  0021                     	ds	1
   983  0022                     Affichage_brut@affiche:
   984  0022                     ___xxtofl@arg:	
   985                           ; 1 bytes @ 0x2
   986                           
   987                           
   988                           ; 4 bytes @ 0x2
   989  0022                     	ds	1
   990  0023                     Affichage_brut@valueMetrics:
   991                           
   992                           ; 6 bytes @ 0x3
   993  0023                     	ds	1
   994  0024                     ___fladd@a:
   995                           
   996                           ; 4 bytes @ 0x4
   997  0024                     	ds	4
   998  0028                     ??___fladd:
   999                           
  1000                           ; 1 bytes @ 0x8
  1001  0028                     	ds	8
  1002  0030                     ___fladd@signs:
  1003                           
  1004                           ; 1 bytes @ 0x10
  1005  0030                     	ds	1
  1006  0031                     ___fladd@aexp:
  1007                           
  1008                           ; 1 bytes @ 0x11
  1009  0031                     	ds	1
  1010  0032                     ___fladd@bexp:
  1011                           
  1012                           ; 1 bytes @ 0x12
  1013  0032                     	ds	1
  1014  0033                     ___fladd@grs:
  1015                           
  1016                           ; 1 bytes @ 0x13
  1017  0033                     	ds	1
  1018  0034                     ?___flsub:
  1019  0034                     ___flsub@a:	
  1020                           ; 4 bytes @ 0x14
  1021                           
  1022                           
  1023                           ; 4 bytes @ 0x14
  1024  0034                     	ds	4
  1025  0038                     ___flsub@b:
  1026                           
  1027                           ; 4 bytes @ 0x18
  1028  0038                     	ds	4
  1029  003C                     ?___fldiv:
  1030  003C                     ___fldiv@a:	
  1031                           ; 4 bytes @ 0x1C
  1032                           
  1033                           
  1034                           ; 4 bytes @ 0x1C
  1035  003C                     	ds	4
  1036  0040                     ___fldiv@b:
  1037                           
  1038                           ; 4 bytes @ 0x20
  1039  0040                     	ds	4
  1040  0044                     ??___fldiv:
  1041                           
  1042                           ; 1 bytes @ 0x24
  1043  0044                     	ds	5
  1044  0049                     ___fldiv@rem:
  1045                           
  1046                           ; 4 bytes @ 0x29
  1047  0049                     	ds	4
  1048  004D                     ___fldiv@sign:
  1049                           
  1050                           ; 1 bytes @ 0x2D
  1051  004D                     	ds	1
  1052  004E                     ___fldiv@new_exp:
  1053                           
  1054                           ; 2 bytes @ 0x2E
  1055  004E                     	ds	2
  1056  0050                     ___fldiv@grs:
  1057                           
  1058                           ; 4 bytes @ 0x30
  1059  0050                     	ds	4
  1060  0054                     ___fldiv@bexp:
  1061                           
  1062                           ; 1 bytes @ 0x34
  1063  0054                     	ds	1
  1064  0055                     ___fldiv@aexp:
  1065                           
  1066                           ; 1 bytes @ 0x35
  1067  0055                     	ds	1
  1068  0056                     ?___flmul:
  1069  0056                     ___flmul@b:	
  1070                           ; 4 bytes @ 0x36
  1071                           
  1072                           
  1073                           ; 4 bytes @ 0x36
  1074  0056                     	ds	4
  1075  005A                     ___flmul@a:
  1076                           
  1077                           ; 4 bytes @ 0x3A
  1078  005A                     	ds	4
  1079  005E                     ??___flmul:
  1080                           
  1081                           ; 1 bytes @ 0x3E
  1082  005E                     	ds	5
  1083  0063                     ___flmul@sign:
  1084                           
  1085                           ; 1 bytes @ 0x43
  1086  0063                     	ds	1
  1087  0064                     ___flmul@grs:
  1088                           
  1089                           ; 4 bytes @ 0x44
  1090  0064                     	ds	4
  1091  0068                     ___flmul@aexp:
  1092                           
  1093                           ; 1 bytes @ 0x48
  1094  0068                     	ds	1
  1095  0069                     ___flmul@bexp:
  1096                           
  1097                           ; 1 bytes @ 0x49
  1098  0069                     	ds	1
  1099  006A                     ___flmul@prod:
  1100                           
  1101                           ; 4 bytes @ 0x4A
  1102  006A                     	ds	4
  1103  006E                     ___flmul@temp:
  1104                           
  1105                           ; 2 bytes @ 0x4E
  1106  006E                     	ds	2
  1107                           
  1108                           	psect	maintext
  1109  15ED                     __pmaintext:	
  1110 ;;
  1111 ;;Main: autosize = 0, tempsize = 2, incstack = 0, save=0
  1112 ;;
  1113 ;; *************** function _main *****************
  1114 ;; Defined at:
  1115 ;;		line 23 in file "main.c"
  1116 ;; Parameters:    Size  Location     Type
  1117 ;;		None
  1118 ;; Auto vars:     Size  Location     Type
  1119 ;;  Vs              4   52[BANK1 ] float 
  1120 ;;  Rc              4   48[BANK1 ] float 
  1121 ;;  F               4   44[BANK1 ] float 
  1122 ;;  sensor1         1   56[BANK1 ] unsigned char 
  1123 ;;  sensor4         1    0        unsigned char 
  1124 ;;  sensor3         1    0        unsigned char 
  1125 ;;  sensor2         1    0        unsigned char 
  1126 ;; Return value:  Size  Location     Type
  1127 ;;                  1    wreg      void 
  1128 ;; Registers used:
  1129 ;;		wreg, fsr0l, fsr0h, status,2, status,0, btemp+1, pclath, cstack
  1130 ;; Tracked objects:
  1131 ;;		On entry : B00/0
  1132 ;;		On exit  : 0/0
  1133 ;;		Unchanged: 0/0
  1134 ;; Data sizes:     COMMON   BANK0   BANK1   BANK3   BANK2
  1135 ;;      Params:         0       0       0       0       0
  1136 ;;      Locals:         0       0      16       0       0
  1137 ;;      Temps:          0       0       2       0       0
  1138 ;;      Totals:         0       0      18       0       0
  1139 ;;Total ram usage:       18 bytes
  1140 ;; Hardware stack levels required when called:    4
  1141 ;; This function calls:
  1142 ;;		_ADC_GetValue
  1143 ;;		_Affichage_brut
  1144 ;;		_PORT_Blink_LED
  1145 ;;		_PORT_Init
  1146 ;;		_PORT_Init_Gain
  1147 ;;		_PORT_Select_Mux1
  1148 ;;		_PORT_putString
  1149 ;;		_Resistance_Value
  1150 ;;		_TIMER_init_timer1
  1151 ;;		_Voltage_Value
  1152 ;;		_conversion_newton
  1153 ;;		_puts_float
  1154 ;; This function is called by:
  1155 ;;		Startup code after reset
  1156 ;; This function uses a non-reentrant model
  1157 ;;
  1158                           
  1159                           
  1160                           ;psect for function _main
  1161  15ED                     _main:
  1162  15ED                     l2765:	
  1163                           ;incstack = 0
  1164                           ; Regs used in _main: [wreg-fsr0h+status,2+status,0+btemp+1+pclath+cstack]
  1165                           
  1166                           
  1167                           ;main.c: 25:     unsigned char sensor1, sensor2, sensor3, sensor4;;main.c: 27:     float
      +                           Rc,Vs,F;;main.c: 29:     PORT_Init();
  1168  15ED  160A  118A  2249  160A  118A  	fcall	_PORT_Init
  1169                           
  1170                           ;main.c: 30:     TIMER_init_timer1();
  1171  15F2  160A  118A  21AE  160A  118A  	fcall	_TIMER_init_timer1
  1172  15F7                     l2767:
  1173                           
  1174                           ;main.c: 32:     PORT_Select_Mux1();
  1175  15F7  160A  118A  2166  160A  118A  	fcall	_PORT_Select_Mux1
  1176  15FC                     l2769:
  1177                           
  1178                           ;main.c: 33:     PORT_Init_Gain();
  1179  15FC  160A  118A  2159  160A  118A  	fcall	_PORT_Init_Gain
  1180  1601                     l2771:
  1181  1601  1683               	bsf	3,5	;RP0=1, select bank1
  1182  1602  1303               	bcf	3,6	;RP1=0, select bank1
  1183  1603  0859               	movf	_Fincompt1^(0+128),w
  1184  1604  1D03               	btfss	3,2
  1185  1605  2E07               	goto	u4301
  1186  1606  2E08               	goto	u4300
  1187  1607                     u4301:
  1188  1607  2E01               	goto	l2771
  1189  1608                     u4300:
  1190  1608                     l2773:
  1191                           
  1192                           ;main.c: 38:         Fincompt1 = 0;
  1193  1608  01D9               	clrf	_Fincompt1^(0+128)
  1194  1609                     l2775:
  1195                           
  1196                           ;main.c: 39:         PORT_Blink_LED();
  1197  1609  160A  118A  217A  160A  118A  	fcall	_PORT_Blink_LED
  1198  160E                     l2777:
  1199                           
  1200                           ;main.c: 41:         sensor1 = ADC_GetValue(0);
  1201  160E  3000               	movlw	0
  1202  160F  160A  118A  219C  160A  118A  	fcall	_ADC_GetValue
  1203  1614  00FF               	movwf	btemp+1
  1204  1615  087F               	movf	btemp+1,w
  1205  1616  1683               	bsf	3,5	;RP0=1, select bank1
  1206  1617  1303               	bcf	3,6	;RP1=0, select bank1
  1207  1618  00D8               	movwf	main@sensor1^(0+128)
  1208  1619                     l2779:
  1209  1619  3001               	movlw	1
  1210  161A  160A  118A  219C  160A  118A  	fcall	_ADC_GetValue
  1211  161F                     l2781:
  1212  161F  3002               	movlw	2
  1213  1620  160A  118A  219C  160A  118A  	fcall	_ADC_GetValue
  1214  1625                     l2783:
  1215  1625  3003               	movlw	3
  1216  1626  160A  118A  219C  160A  118A  	fcall	_ADC_GetValue
  1217  162B                     l2785:
  1218                           
  1219                           ;main.c: 48:         PORT_putString("valeur Capteur ");
  1220  162B  30C4               	movlw	(low ((STR_1-__stringbase)| (0+32768)))& (0+255)
  1221  162C  160A  118A  21FD  160A  118A  	fcall	_PORT_putString
  1222  1631                     l2787:
  1223                           
  1224                           ;main.c: 49:         Affichage_brut(sensor1);
  1225  1631  1683               	bsf	3,5	;RP0=1, select bank1
  1226  1632  1303               	bcf	3,6	;RP1=0, select bank1
  1227  1633  0858               	movf	main@sensor1^(0+128),w
  1228  1634  00C7               	movwf	??_main^(0+128)
  1229  1635  01C8               	clrf	(??_main^(0+128)+1)
  1230  1636  0847               	movf	??_main^(0+128),w
  1231  1637  00FA               	movwf	Affichage_brut@valeur_a_afficher
  1232  1638  0848               	movf	(??_main+1)^(0+128),w
  1233  1639  00FB               	movwf	Affichage_brut@valeur_a_afficher+1
  1234  163A  160A  118A  24CD  160A  118A  	fcall	_Affichage_brut
  1235  163F                     l2789:
  1236                           
  1237                           ;main.c: 50:         PORT_putString("\n");
  1238  163F  30E3               	movlw	(low ((STR_2-__stringbase)| (0+32768)))& (0+255)
  1239  1640  160A  118A  21FD  160A  118A  	fcall	_PORT_putString
  1240  1645                     l2791:
  1241                           
  1242                           ;main.c: 53:         Vs = Voltage_Value(sensor1);
  1243  1645  1683               	bsf	3,5	;RP0=1, select bank1
  1244  1646  1303               	bcf	3,6	;RP1=0, select bank1
  1245  1647  0858               	movf	main@sensor1^(0+128),w
  1246  1648  160A  118A  231F  160A  118A  	fcall	_Voltage_Value
  1247  164D  1683               	bsf	3,5	;RP0=1, select bank1
  1248  164E  1303               	bcf	3,6	;RP1=0, select bank1
  1249  164F  0823               	movf	(?_Voltage_Value+3)^(0+128),w
  1250  1650  00D7               	movwf	(main@Vs+3)^(0+128)
  1251  1651  0822               	movf	(?_Voltage_Value+2)^(0+128),w
  1252  1652  00D6               	movwf	(main@Vs+2)^(0+128)
  1253  1653  0821               	movf	(?_Voltage_Value+1)^(0+128),w
  1254  1654  00D5               	movwf	(main@Vs+1)^(0+128)
  1255  1655  0820               	movf	?_Voltage_Value^(0+128),w
  1256  1656  00D4               	movwf	main@Vs^(0+128)
  1257  1657                     l2793:
  1258                           
  1259                           ;main.c: 55:         PORT_putString("valeur Tension ");
  1260  1657  30B4               	movlw	(low ((STR_3-__stringbase)| (0+32768)))& (0+255)
  1261  1658  160A  118A  21FD  160A  118A  	fcall	_PORT_putString
  1262  165D                     l2795:
  1263                           
  1264                           ;main.c: 56:         puts_float(Vs);
  1265  165D  1683               	bsf	3,5	;RP0=1, select bank1
  1266  165E  1303               	bcf	3,6	;RP1=0, select bank1
  1267  165F  0857               	movf	(main@Vs+3)^(0+128),w
  1268  1660  00A3               	movwf	(puts_float@Valeur+3)^(0+128)
  1269  1661  0856               	movf	(main@Vs+2)^(0+128),w
  1270  1662  00A2               	movwf	(puts_float@Valeur+2)^(0+128)
  1271  1663  0855               	movf	(main@Vs+1)^(0+128),w
  1272  1664  00A1               	movwf	(puts_float@Valeur+1)^(0+128)
  1273  1665  0854               	movf	main@Vs^(0+128),w
  1274  1666  00A0               	movwf	puts_float@Valeur^(0+128)
  1275  1667  160A  118A  26DE  160A  118A  	fcall	_puts_float
  1276  166C                     l2797:
  1277                           
  1278                           ;main.c: 57:         PORT_putString("\n");
  1279  166C  30E3               	movlw	(low ((STR_2-__stringbase)| (0+32768)))& (0+255)
  1280  166D  160A  118A  21FD  160A  118A  	fcall	_PORT_putString
  1281  1672                     l2799:
  1282                           
  1283                           ;main.c: 61:         Rc = Resistance_Value(Vs);
  1284  1672  1683               	bsf	3,5	;RP0=1, select bank1
  1285  1673  1303               	bcf	3,6	;RP1=0, select bank1
  1286  1674  0857               	movf	(main@Vs+3)^(0+128),w
  1287  1675  00A3               	movwf	(Resistance_Value@Voltage+3)^(0+128)
  1288  1676  0856               	movf	(main@Vs+2)^(0+128),w
  1289  1677  00A2               	movwf	(Resistance_Value@Voltage+2)^(0+128)
  1290  1678  0855               	movf	(main@Vs+1)^(0+128),w
  1291  1679  00A1               	movwf	(Resistance_Value@Voltage+1)^(0+128)
  1292  167A  0854               	movf	main@Vs^(0+128),w
  1293  167B  00A0               	movwf	Resistance_Value@Voltage^(0+128)
  1294  167C  160A  118A  23E5  160A  118A  	fcall	_Resistance_Value
  1295  1681  1683               	bsf	3,5	;RP0=1, select bank1
  1296  1682  1303               	bcf	3,6	;RP1=0, select bank1
  1297  1683  0823               	movf	(?_Resistance_Value+3)^(0+128),w
  1298  1684  00D3               	movwf	(main@Rc+3)^(0+128)
  1299  1685  0822               	movf	(?_Resistance_Value+2)^(0+128),w
  1300  1686  00D2               	movwf	(main@Rc+2)^(0+128)
  1301  1687  0821               	movf	(?_Resistance_Value+1)^(0+128),w
  1302  1688  00D1               	movwf	(main@Rc+1)^(0+128)
  1303  1689  0820               	movf	?_Resistance_Value^(0+128),w
  1304  168A  00D0               	movwf	main@Rc^(0+128)
  1305  168B                     l2801:
  1306                           
  1307                           ;main.c: 63:         PORT_putString("valeur Resistance ");
  1308  168B  30A1               	movlw	(low ((STR_5-__stringbase)| (0+32768)))& (0+255)
  1309  168C  160A  118A  21FD  160A  118A  	fcall	_PORT_putString
  1310  1691                     l2803:
  1311                           
  1312                           ;main.c: 64:         puts_float(Rc);
  1313  1691  1683               	bsf	3,5	;RP0=1, select bank1
  1314  1692  1303               	bcf	3,6	;RP1=0, select bank1
  1315  1693  0853               	movf	(main@Rc+3)^(0+128),w
  1316  1694  00A3               	movwf	(puts_float@Valeur+3)^(0+128)
  1317  1695  0852               	movf	(main@Rc+2)^(0+128),w
  1318  1696  00A2               	movwf	(puts_float@Valeur+2)^(0+128)
  1319  1697  0851               	movf	(main@Rc+1)^(0+128),w
  1320  1698  00A1               	movwf	(puts_float@Valeur+1)^(0+128)
  1321  1699  0850               	movf	main@Rc^(0+128),w
  1322  169A  00A0               	movwf	puts_float@Valeur^(0+128)
  1323  169B  160A  118A  26DE  160A  118A  	fcall	_puts_float
  1324  16A0                     l2805:
  1325                           
  1326                           ;main.c: 65:         PORT_putString("\n");
  1327  16A0  30E3               	movlw	(low ((STR_2-__stringbase)| (0+32768)))& (0+255)
  1328  16A1  160A  118A  21FD  160A  118A  	fcall	_PORT_putString
  1329  16A6                     l2807:
  1330                           
  1331                           ;main.c: 69:         F = conversion_newton(Rc);
  1332  16A6  1683               	bsf	3,5	;RP0=1, select bank1
  1333  16A7  1303               	bcf	3,6	;RP1=0, select bank1
  1334  16A8  0853               	movf	(main@Rc+3)^(0+128),w
  1335  16A9  00A3               	movwf	(conversion_newton@Rc+3)^(0+128)
  1336  16AA  0852               	movf	(main@Rc+2)^(0+128),w
  1337  16AB  00A2               	movwf	(conversion_newton@Rc+2)^(0+128)
  1338  16AC  0851               	movf	(main@Rc+1)^(0+128),w
  1339  16AD  00A1               	movwf	(conversion_newton@Rc+1)^(0+128)
  1340  16AE  0850               	movf	main@Rc^(0+128),w
  1341  16AF  00A0               	movwf	conversion_newton@Rc^(0+128)
  1342  16B0  120A  118A  2016  160A  118A  	fcall	_conversion_newton
  1343  16B5  1683               	bsf	3,5	;RP0=1, select bank1
  1344  16B6  1303               	bcf	3,6	;RP1=0, select bank1
  1345  16B7  0823               	movf	(?_conversion_newton+3)^(0+128),w
  1346  16B8  00CF               	movwf	(main@F+3)^(0+128)
  1347  16B9  0822               	movf	(?_conversion_newton+2)^(0+128),w
  1348  16BA  00CE               	movwf	(main@F+2)^(0+128)
  1349  16BB  0821               	movf	(?_conversion_newton+1)^(0+128),w
  1350  16BC  00CD               	movwf	(main@F+1)^(0+128)
  1351  16BD  0820               	movf	?_conversion_newton^(0+128),w
  1352  16BE  00CC               	movwf	main@F^(0+128)
  1353  16BF                     l2809:
  1354                           
  1355                           ;main.c: 71:         PORT_putString("valeur Newton ");
  1356  16BF  30D4               	movlw	(low ((STR_7-__stringbase)| (0+32768)))& (0+255)
  1357  16C0  160A  118A  21FD  160A  118A  	fcall	_PORT_putString
  1358  16C5                     l2811:
  1359                           
  1360                           ;main.c: 72:         puts_float(F);
  1361  16C5  1683               	bsf	3,5	;RP0=1, select bank1
  1362  16C6  1303               	bcf	3,6	;RP1=0, select bank1
  1363  16C7  084F               	movf	(main@F+3)^(0+128),w
  1364  16C8  00A3               	movwf	(puts_float@Valeur+3)^(0+128)
  1365  16C9  084E               	movf	(main@F+2)^(0+128),w
  1366  16CA  00A2               	movwf	(puts_float@Valeur+2)^(0+128)
  1367  16CB  084D               	movf	(main@F+1)^(0+128),w
  1368  16CC  00A1               	movwf	(puts_float@Valeur+1)^(0+128)
  1369  16CD  084C               	movf	main@F^(0+128),w
  1370  16CE  00A0               	movwf	puts_float@Valeur^(0+128)
  1371  16CF  160A  118A  26DE  160A  118A  	fcall	_puts_float
  1372  16D4                     l2813:
  1373                           
  1374                           ;main.c: 73:         PORT_putString("\n");
  1375  16D4  30E3               	movlw	(low ((STR_2-__stringbase)| (0+32768)))& (0+255)
  1376  16D5  160A  118A  21FD  160A  118A  	fcall	_PORT_putString
  1377  16DA  2E01               	goto	l2771
  1378  16DB  120A  118A  280C   	ljmp	start
  1379  16DE                     __end_of_main:
  1380                           
  1381                           	psect	text1
  1382  16DE                     __ptext1:	
  1383 ;; *************** function _puts_float *****************
  1384 ;; Defined at:
  1385 ;;		line 108 in file "main.c"
  1386 ;; Parameters:    Size  Location     Type
  1387 ;;  Valeur          4    0[BANK1 ] float 
  1388 ;; Auto vars:     Size  Location     Type
  1389 ;;  valueMetrics    6    6[BANK1 ] struct .
  1390 ;;  affiche         2    4[BANK1 ] unsigned int 
  1391 ;; Return value:  Size  Location     Type
  1392 ;;                  1    wreg      void 
  1393 ;; Registers used:
  1394 ;;		wreg, status,2, status,0, btemp+1, pclath, cstack
  1395 ;; Tracked objects:
  1396 ;;		On entry : 0/0
  1397 ;;		On exit  : 0/0
  1398 ;;		Unchanged: 0/0
  1399 ;; Data sizes:     COMMON   BANK0   BANK1   BANK3   BANK2
  1400 ;;      Params:         0       0       4       0       0
  1401 ;;      Locals:         0       0       8       0       0
  1402 ;;      Temps:          0       0       0       0       0
  1403 ;;      Totals:         0       0      12       0       0
  1404 ;;Total ram usage:       12 bytes
  1405 ;; Hardware stack levels used:    1
  1406 ;; Hardware stack levels required when called:    3
  1407 ;; This function calls:
  1408 ;;		_PORT_putchar
  1409 ;;		___flmul
  1410 ;;		___fltol
  1411 ;;		___lwdiv
  1412 ;;		___lwmod
  1413 ;; This function is called by:
  1414 ;;		_main
  1415 ;; This function uses a non-reentrant model
  1416 ;;
  1417                           
  1418                           
  1419                           ;psect for function _puts_float
  1420  16DE                     _puts_float:
  1421  16DE                     l2663:	
  1422                           ;incstack = 0
  1423                           ; Regs used in _puts_float: [wreg+status,2+status,0+btemp+1+pclath+cstack]
  1424                           
  1425                           
  1426                           ;main.c: 110:     unsigned int affiche;;main.c: 111:     ValueMetrics valueMetrics;;main
      +                          .c: 113:     Valeur = Valeur * 1000;
  1427  16DE  3044               	movlw	68
  1428  16DF  1283               	bcf	3,5	;RP0=0, select bank0
  1429  16E0  1303               	bcf	3,6	;RP1=0, select bank0
  1430  16E1  00D9               	movwf	___flmul@b+3
  1431  16E2  307A               	movlw	122
  1432  16E3  00D8               	movwf	___flmul@b+2
  1433  16E4  3000               	movlw	0
  1434  16E5  00D7               	movwf	___flmul@b+1
  1435  16E6  3000               	movlw	0
  1436  16E7  00D6               	movwf	___flmul@b
  1437  16E8  1683               	bsf	3,5	;RP0=1, select bank1
  1438  16E9  1303               	bcf	3,6	;RP1=0, select bank1
  1439  16EA  0823               	movf	(puts_float@Valeur+3)^(0+128),w
  1440  16EB  1283               	bcf	3,5	;RP0=0, select bank0
  1441  16EC  1303               	bcf	3,6	;RP1=0, select bank0
  1442  16ED  00DD               	movwf	___flmul@a+3
  1443  16EE  1683               	bsf	3,5	;RP0=1, select bank1
  1444  16EF  1303               	bcf	3,6	;RP1=0, select bank1
  1445  16F0  0822               	movf	(puts_float@Valeur+2)^(0+128),w
  1446  16F1  1283               	bcf	3,5	;RP0=0, select bank0
  1447  16F2  1303               	bcf	3,6	;RP1=0, select bank0
  1448  16F3  00DC               	movwf	___flmul@a+2
  1449  16F4  1683               	bsf	3,5	;RP0=1, select bank1
  1450  16F5  1303               	bcf	3,6	;RP1=0, select bank1
  1451  16F6  0821               	movf	(puts_float@Valeur+1)^(0+128),w
  1452  16F7  1283               	bcf	3,5	;RP0=0, select bank0
  1453  16F8  1303               	bcf	3,6	;RP1=0, select bank0
  1454  16F9  00DB               	movwf	___flmul@a+1
  1455  16FA  1683               	bsf	3,5	;RP0=1, select bank1
  1456  16FB  1303               	bcf	3,6	;RP1=0, select bank1
  1457  16FC  0820               	movf	puts_float@Valeur^(0+128),w
  1458  16FD  1283               	bcf	3,5	;RP0=0, select bank0
  1459  16FE  1303               	bcf	3,6	;RP1=0, select bank0
  1460  16FF  00DA               	movwf	___flmul@a
  1461  1700  120A  158A  249F  160A  118A  	fcall	___flmul
  1462  1705  1283               	bcf	3,5	;RP0=0, select bank0
  1463  1706  1303               	bcf	3,6	;RP1=0, select bank0
  1464  1707  0859               	movf	?___flmul+3,w
  1465  1708  1683               	bsf	3,5	;RP0=1, select bank1
  1466  1709  1303               	bcf	3,6	;RP1=0, select bank1
  1467  170A  00A3               	movwf	(puts_float@Valeur+3)^(0+128)
  1468  170B  1283               	bcf	3,5	;RP0=0, select bank0
  1469  170C  1303               	bcf	3,6	;RP1=0, select bank0
  1470  170D  0858               	movf	?___flmul+2,w
  1471  170E  1683               	bsf	3,5	;RP0=1, select bank1
  1472  170F  1303               	bcf	3,6	;RP1=0, select bank1
  1473  1710  00A2               	movwf	(puts_float@Valeur+2)^(0+128)
  1474  1711  1283               	bcf	3,5	;RP0=0, select bank0
  1475  1712  1303               	bcf	3,6	;RP1=0, select bank0
  1476  1713  0857               	movf	?___flmul+1,w
  1477  1714  1683               	bsf	3,5	;RP0=1, select bank1
  1478  1715  1303               	bcf	3,6	;RP1=0, select bank1
  1479  1716  00A1               	movwf	(puts_float@Valeur+1)^(0+128)
  1480  1717  1283               	bcf	3,5	;RP0=0, select bank0
  1481  1718  1303               	bcf	3,6	;RP1=0, select bank0
  1482  1719  0856               	movf	?___flmul,w
  1483  171A  1683               	bsf	3,5	;RP0=1, select bank1
  1484  171B  1303               	bcf	3,6	;RP1=0, select bank1
  1485  171C  00A0               	movwf	puts_float@Valeur^(0+128)
  1486                           
  1487                           ;main.c: 114:     affiche = (int) Valeur ;
  1488  171D  0823               	movf	(puts_float@Valeur+3)^(0+128),w
  1489  171E  00F5               	movwf	___fltol@f1+3
  1490  171F  0822               	movf	(puts_float@Valeur+2)^(0+128),w
  1491  1720  00F4               	movwf	___fltol@f1+2
  1492  1721  0821               	movf	(puts_float@Valeur+1)^(0+128),w
  1493  1722  00F3               	movwf	___fltol@f1+1
  1494  1723  0820               	movf	puts_float@Valeur^(0+128),w
  1495  1724  00F2               	movwf	___fltol@f1
  1496  1725  160A  118A  2453  160A  118A  	fcall	___fltol
  1497  172A  0873               	movf	?___fltol+1,w
  1498  172B  1683               	bsf	3,5	;RP0=1, select bank1
  1499  172C  1303               	bcf	3,6	;RP1=0, select bank1
  1500  172D  00A5               	movwf	(puts_float@affiche+1)^(0+128)
  1501  172E  0872               	movf	?___fltol,w
  1502  172F  00A4               	movwf	puts_float@affiche^(0+128)
  1503                           
  1504                           ;main.c: 120:     valueMetrics.cent = ((char)(affiche/10000))+0x30;
  1505  1730  3010               	movlw	16
  1506  1731  00F2               	movwf	___lwdiv@divisor
  1507  1732  3027               	movlw	39
  1508  1733  00F3               	movwf	___lwdiv@divisor+1
  1509  1734  0825               	movf	(puts_float@affiche+1)^(0+128),w
  1510  1735  00F5               	movwf	___lwdiv@dividend+1
  1511  1736  0824               	movf	puts_float@affiche^(0+128),w
  1512  1737  00F4               	movwf	___lwdiv@dividend
  1513  1738  160A  118A  2282  160A  118A  	fcall	___lwdiv
  1514  173D  0872               	movf	?___lwdiv,w
  1515  173E  3E30               	addlw	48
  1516  173F  00FF               	movwf	btemp+1
  1517  1740  087F               	movf	btemp+1,w
  1518  1741  1683               	bsf	3,5	;RP0=1, select bank1
  1519  1742  1303               	bcf	3,6	;RP1=0, select bank1
  1520  1743  00A7               	movwf	(puts_float@valueMetrics^(0+128)+1)
  1521  1744                     l2665:
  1522                           
  1523                           ;main.c: 121:     PORT_putchar(valueMetrics.cent);
  1524  1744  0827               	movf	(puts_float@valueMetrics^(0+128)+1),w
  1525  1745  160A  118A  216E  160A  118A  	fcall	_PORT_putchar
  1526  174A                     l2667:
  1527                           
  1528                           ;main.c: 122:     affiche = affiche % 10000 ;
  1529  174A  3010               	movlw	16
  1530  174B  00F2               	movwf	___lwmod@divisor
  1531  174C  3027               	movlw	39
  1532  174D  00F3               	movwf	___lwmod@divisor+1
  1533  174E  1683               	bsf	3,5	;RP0=1, select bank1
  1534  174F  1303               	bcf	3,6	;RP1=0, select bank1
  1535  1750  0825               	movf	(puts_float@affiche+1)^(0+128),w
  1536  1751  00F5               	movwf	___lwmod@dividend+1
  1537  1752  0824               	movf	puts_float@affiche^(0+128),w
  1538  1753  00F4               	movwf	___lwmod@dividend
  1539  1754  120A  158A  2000  160A  118A  	fcall	___lwmod
  1540  1759  0873               	movf	?___lwmod+1,w
  1541  175A  1683               	bsf	3,5	;RP0=1, select bank1
  1542  175B  1303               	bcf	3,6	;RP1=0, select bank1
  1543  175C  00A5               	movwf	(puts_float@affiche+1)^(0+128)
  1544  175D  0872               	movf	?___lwmod,w
  1545  175E  00A4               	movwf	puts_float@affiche^(0+128)
  1546  175F                     l2669:
  1547                           
  1548                           ;main.c: 123:     valueMetrics.diz = ((char)(affiche/1000))+0x30;
  1549  175F  30E8               	movlw	232
  1550  1760  00F2               	movwf	___lwdiv@divisor
  1551  1761  3003               	movlw	3
  1552  1762  00F3               	movwf	___lwdiv@divisor+1
  1553  1763  0825               	movf	(puts_float@affiche+1)^(0+128),w
  1554  1764  00F5               	movwf	___lwdiv@dividend+1
  1555  1765  0824               	movf	puts_float@affiche^(0+128),w
  1556  1766  00F4               	movwf	___lwdiv@dividend
  1557  1767  160A  118A  2282  160A  118A  	fcall	___lwdiv
  1558  176C  0872               	movf	?___lwdiv,w
  1559  176D  3E30               	addlw	48
  1560  176E  00FF               	movwf	btemp+1
  1561  176F  087F               	movf	btemp+1,w
  1562  1770  1683               	bsf	3,5	;RP0=1, select bank1
  1563  1771  1303               	bcf	3,6	;RP1=0, select bank1
  1564  1772  00A8               	movwf	(puts_float@valueMetrics^(0+128)+2)
  1565  1773                     l2671:
  1566                           
  1567                           ;main.c: 124:     PORT_putchar(valueMetrics.diz);
  1568  1773  0828               	movf	(puts_float@valueMetrics^(0+128)+2),w
  1569  1774  160A  118A  216E  160A  118A  	fcall	_PORT_putchar
  1570                           
  1571                           ;main.c: 125:     affiche = affiche % 1000 ;
  1572  1779  30E8               	movlw	232
  1573  177A  00F2               	movwf	___lwmod@divisor
  1574  177B  3003               	movlw	3
  1575  177C  00F3               	movwf	___lwmod@divisor+1
  1576  177D  1683               	bsf	3,5	;RP0=1, select bank1
  1577  177E  1303               	bcf	3,6	;RP1=0, select bank1
  1578  177F  0825               	movf	(puts_float@affiche+1)^(0+128),w
  1579  1780  00F5               	movwf	___lwmod@dividend+1
  1580  1781  0824               	movf	puts_float@affiche^(0+128),w
  1581  1782  00F4               	movwf	___lwmod@dividend
  1582  1783  120A  158A  2000  160A  118A  	fcall	___lwmod
  1583  1788  0873               	movf	?___lwmod+1,w
  1584  1789  1683               	bsf	3,5	;RP0=1, select bank1
  1585  178A  1303               	bcf	3,6	;RP1=0, select bank1
  1586  178B  00A5               	movwf	(puts_float@affiche+1)^(0+128)
  1587  178C  0872               	movf	?___lwmod,w
  1588  178D  00A4               	movwf	puts_float@affiche^(0+128)
  1589                           
  1590                           ;main.c: 126:     valueMetrics.unit = ((char)(affiche/100))+0x30;
  1591  178E  3064               	movlw	100
  1592  178F  00F2               	movwf	___lwdiv@divisor
  1593  1790  3000               	movlw	0
  1594  1791  00F3               	movwf	___lwdiv@divisor+1
  1595  1792  0825               	movf	(puts_float@affiche+1)^(0+128),w
  1596  1793  00F5               	movwf	___lwdiv@dividend+1
  1597  1794  0824               	movf	puts_float@affiche^(0+128),w
  1598  1795  00F4               	movwf	___lwdiv@dividend
  1599  1796  160A  118A  2282  160A  118A  	fcall	___lwdiv
  1600  179B  0872               	movf	?___lwdiv,w
  1601  179C  3E30               	addlw	48
  1602  179D  00FF               	movwf	btemp+1
  1603  179E  087F               	movf	btemp+1,w
  1604  179F  1683               	bsf	3,5	;RP0=1, select bank1
  1605  17A0  1303               	bcf	3,6	;RP1=0, select bank1
  1606  17A1  00A9               	movwf	(puts_float@valueMetrics^(0+128)+3)
  1607  17A2                     l2673:
  1608                           
  1609                           ;main.c: 127:     PORT_putchar('.');
  1610  17A2  302E               	movlw	46
  1611  17A3  160A  118A  216E  160A  118A  	fcall	_PORT_putchar
  1612  17A8                     l2675:
  1613                           
  1614                           ;main.c: 128:     PORT_putchar(valueMetrics.unit);
  1615  17A8  1683               	bsf	3,5	;RP0=1, select bank1
  1616  17A9  1303               	bcf	3,6	;RP1=0, select bank1
  1617  17AA  0829               	movf	(puts_float@valueMetrics^(0+128)+3),w
  1618  17AB  160A  118A  216E  160A  118A  	fcall	_PORT_putchar
  1619                           
  1620                           ;main.c: 130:     affiche = affiche % 100 ;
  1621  17B0  3064               	movlw	100
  1622  17B1  00F2               	movwf	___lwmod@divisor
  1623  17B2  3000               	movlw	0
  1624  17B3  00F3               	movwf	___lwmod@divisor+1
  1625  17B4  1683               	bsf	3,5	;RP0=1, select bank1
  1626  17B5  1303               	bcf	3,6	;RP1=0, select bank1
  1627  17B6  0825               	movf	(puts_float@affiche+1)^(0+128),w
  1628  17B7  00F5               	movwf	___lwmod@dividend+1
  1629  17B8  0824               	movf	puts_float@affiche^(0+128),w
  1630  17B9  00F4               	movwf	___lwmod@dividend
  1631  17BA  120A  158A  2000  160A  118A  	fcall	___lwmod
  1632  17BF  0873               	movf	?___lwmod+1,w
  1633  17C0  1683               	bsf	3,5	;RP0=1, select bank1
  1634  17C1  1303               	bcf	3,6	;RP1=0, select bank1
  1635  17C2  00A5               	movwf	(puts_float@affiche+1)^(0+128)
  1636  17C3  0872               	movf	?___lwmod,w
  1637  17C4  00A4               	movwf	puts_float@affiche^(0+128)
  1638                           
  1639                           ;main.c: 131:     valueMetrics.dizi = ((char)(affiche/10))+0x30;
  1640  17C5  300A               	movlw	10
  1641  17C6  00F2               	movwf	___lwdiv@divisor
  1642  17C7  3000               	movlw	0
  1643  17C8  00F3               	movwf	___lwdiv@divisor+1
  1644  17C9  0825               	movf	(puts_float@affiche+1)^(0+128),w
  1645  17CA  00F5               	movwf	___lwdiv@dividend+1
  1646  17CB  0824               	movf	puts_float@affiche^(0+128),w
  1647  17CC  00F4               	movwf	___lwdiv@dividend
  1648  17CD  160A  118A  2282  160A  118A  	fcall	___lwdiv
  1649  17D2  0872               	movf	?___lwdiv,w
  1650  17D3  3E30               	addlw	48
  1651  17D4  00FF               	movwf	btemp+1
  1652  17D5  087F               	movf	btemp+1,w
  1653  17D6  1683               	bsf	3,5	;RP0=1, select bank1
  1654  17D7  1303               	bcf	3,6	;RP1=0, select bank1
  1655  17D8  00AA               	movwf	(puts_float@valueMetrics^(0+128)+4)
  1656  17D9                     l2677:
  1657                           
  1658                           ;main.c: 132:     PORT_putchar(valueMetrics.dizi);
  1659  17D9  082A               	movf	(puts_float@valueMetrics^(0+128)+4),w
  1660  17DA  160A  118A  216E  160A  118A  	fcall	_PORT_putchar
  1661  17DF                     l2679:
  1662                           
  1663                           ;main.c: 133:     affiche = affiche % 10 ;
  1664  17DF  300A               	movlw	10
  1665  17E0  00F2               	movwf	___lwmod@divisor
  1666  17E1  3000               	movlw	0
  1667  17E2  00F3               	movwf	___lwmod@divisor+1
  1668  17E3  1683               	bsf	3,5	;RP0=1, select bank1
  1669  17E4  1303               	bcf	3,6	;RP1=0, select bank1
  1670  17E5  0825               	movf	(puts_float@affiche+1)^(0+128),w
  1671  17E6  00F5               	movwf	___lwmod@dividend+1
  1672  17E7  0824               	movf	puts_float@affiche^(0+128),w
  1673  17E8  00F4               	movwf	___lwmod@dividend
  1674  17E9  120A  158A  2000  160A  118A  	fcall	___lwmod
  1675  17EE  0873               	movf	?___lwmod+1,w
  1676  17EF  1683               	bsf	3,5	;RP0=1, select bank1
  1677  17F0  1303               	bcf	3,6	;RP1=0, select bank1
  1678  17F1  00A5               	movwf	(puts_float@affiche+1)^(0+128)
  1679  17F2  0872               	movf	?___lwmod,w
  1680  17F3  00A4               	movwf	puts_float@affiche^(0+128)
  1681  17F4                     l2681:
  1682                           
  1683                           ;main.c: 134:     valueMetrics.centi = ((char)(affiche))+0x30;
  1684  17F4  0824               	movf	puts_float@affiche^(0+128),w
  1685  17F5  3E30               	addlw	48
  1686  17F6  00FF               	movwf	btemp+1
  1687  17F7  087F               	movf	btemp+1,w
  1688  17F8  00AB               	movwf	(puts_float@valueMetrics^(0+128)+5)
  1689  17F9                     l2683:
  1690                           
  1691                           ;main.c: 135:     PORT_putchar(valueMetrics.centi);
  1692  17F9  082B               	movf	(puts_float@valueMetrics^(0+128)+5),w
  1693  17FA  160A  118A  216E  160A  118A  	fcall	_PORT_putchar
  1694  17FF                     l45:
  1695  17FF  0008               	return
  1696  1800                     __end_of_puts_float:
  1697                           
  1698                           	psect	text2
  1699  0800                     __ptext2:	
  1700 ;; *************** function ___lwmod *****************
  1701 ;; Defined at:
  1702 ;;		line 5 in file "C:\Program Files\Microchip\xc8\v2.20\pic\sources\c90\common\lwmod.c"
  1703 ;; Parameters:    Size  Location     Type
  1704 ;;  divisor         2    2[COMMON] unsigned int 
  1705 ;;  dividend        2    4[COMMON] unsigned int 
  1706 ;; Auto vars:     Size  Location     Type
  1707 ;;  counter         1    6[COMMON] unsigned char 
  1708 ;; Return value:  Size  Location     Type
  1709 ;;                  2    2[COMMON] unsigned int 
  1710 ;; Registers used:
  1711 ;;		wreg, status,2, status,0, btemp+1
  1712 ;; Tracked objects:
  1713 ;;		On entry : 0/0
  1714 ;;		On exit  : 0/0
  1715 ;;		Unchanged: 0/0
  1716 ;; Data sizes:     COMMON   BANK0   BANK1   BANK3   BANK2
  1717 ;;      Params:         4       0       0       0       0
  1718 ;;      Locals:         1       0       0       0       0
  1719 ;;      Temps:          0       0       0       0       0
  1720 ;;      Totals:         5       0       0       0       0
  1721 ;;Total ram usage:        5 bytes
  1722 ;; Hardware stack levels used:    1
  1723 ;; Hardware stack levels required when called:    1
  1724 ;; This function calls:
  1725 ;;		Nothing
  1726 ;; This function is called by:
  1727 ;;		_puts_float
  1728 ;; This function uses a non-reentrant model
  1729 ;;
  1730                           
  1731                           
  1732                           ;psect for function ___lwmod
  1733  0800                     ___lwmod:
  1734  0800                     l2203:	
  1735                           ;incstack = 0
  1736                           ; Regs used in ___lwmod: [wreg+status,2+status,0+btemp+1]
  1737                           
  1738  0800  0872               	movf	___lwmod@divisor,w
  1739  0801  0473               	iorwf	___lwmod@divisor+1,w
  1740  0802  1903               	btfsc	3,2
  1741  0803  2805               	goto	u3121
  1742  0804  2806               	goto	u3120
  1743  0805                     u3121:
  1744  0805  2835               	goto	l2221
  1745  0806                     u3120:
  1746  0806                     l2205:
  1747  0806  01F6               	clrf	___lwmod@counter
  1748  0807  0AF6               	incf	___lwmod@counter,f
  1749  0808  2814               	goto	l2211
  1750  0809                     l2207:
  1751  0809  3001               	movlw	1
  1752  080A                     u3135:
  1753  080A  1003               	clrc
  1754  080B  0DF2               	rlf	___lwmod@divisor,f
  1755  080C  0DF3               	rlf	___lwmod@divisor+1,f
  1756  080D  3EFF               	addlw	-1
  1757  080E  1D03               	skipz
  1758  080F  280A               	goto	u3135
  1759  0810                     l2209:
  1760  0810  3001               	movlw	1
  1761  0811  00FF               	movwf	btemp+1
  1762  0812  087F               	movf	btemp+1,w
  1763  0813  07F6               	addwf	___lwmod@counter,f
  1764  0814                     l2211:
  1765  0814  1FF3               	btfss	___lwmod@divisor+1,7
  1766  0815  2817               	goto	u3141
  1767  0816  2818               	goto	u3140
  1768  0817                     u3141:
  1769  0817  2809               	goto	l2207
  1770  0818                     u3140:
  1771  0818                     l2213:
  1772  0818  0873               	movf	___lwmod@divisor+1,w
  1773  0819  0275               	subwf	___lwmod@dividend+1,w
  1774  081A  1D03               	skipz
  1775  081B  281E               	goto	u3155
  1776  081C  0872               	movf	___lwmod@divisor,w
  1777  081D  0274               	subwf	___lwmod@dividend,w
  1778  081E                     u3155:
  1779  081E  1C03               	skipc
  1780  081F  2821               	goto	u3151
  1781  0820  2822               	goto	u3150
  1782  0821                     u3151:
  1783  0821  2828               	goto	l2217
  1784  0822                     u3150:
  1785  0822                     l2215:
  1786  0822  0872               	movf	___lwmod@divisor,w
  1787  0823  02F4               	subwf	___lwmod@dividend,f
  1788  0824  0873               	movf	___lwmod@divisor+1,w
  1789  0825  1C03               	skipc
  1790  0826  03F5               	decf	___lwmod@dividend+1,f
  1791  0827  02F5               	subwf	___lwmod@dividend+1,f
  1792  0828                     l2217:
  1793  0828  3001               	movlw	1
  1794  0829                     u3165:
  1795  0829  1003               	clrc
  1796  082A  0CF3               	rrf	___lwmod@divisor+1,f
  1797  082B  0CF2               	rrf	___lwmod@divisor,f
  1798  082C  3EFF               	addlw	-1
  1799  082D  1D03               	skipz
  1800  082E  2829               	goto	u3165
  1801  082F                     l2219:
  1802  082F  3001               	movlw	1
  1803  0830  02F6               	subwf	___lwmod@counter,f
  1804  0831  1D03               	btfss	3,2
  1805  0832  2834               	goto	u3171
  1806  0833  2835               	goto	u3170
  1807  0834                     u3171:
  1808  0834  2818               	goto	l2213
  1809  0835                     u3170:
  1810  0835                     l2221:
  1811  0835  0875               	movf	___lwmod@dividend+1,w
  1812  0836  00F3               	movwf	?___lwmod+1
  1813  0837  0874               	movf	___lwmod@dividend,w
  1814  0838  00F2               	movwf	?___lwmod
  1815  0839                     l505:
  1816  0839  0008               	return
  1817  083A                     __end_of___lwmod:
  1818                           
  1819                           	psect	text3
  1820  1282                     __ptext3:	
  1821 ;; *************** function ___lwdiv *****************
  1822 ;; Defined at:
  1823 ;;		line 5 in file "C:\Program Files\Microchip\xc8\v2.20\pic\sources\c90\common\lwdiv.c"
  1824 ;; Parameters:    Size  Location     Type
  1825 ;;  divisor         2    2[COMMON] unsigned int 
  1826 ;;  dividend        2    4[COMMON] unsigned int 
  1827 ;; Auto vars:     Size  Location     Type
  1828 ;;  quotient        2    6[COMMON] unsigned int 
  1829 ;;  counter         1    8[COMMON] unsigned char 
  1830 ;; Return value:  Size  Location     Type
  1831 ;;                  2    2[COMMON] unsigned int 
  1832 ;; Registers used:
  1833 ;;		wreg, status,2, status,0, btemp+1
  1834 ;; Tracked objects:
  1835 ;;		On entry : 0/0
  1836 ;;		On exit  : 0/0
  1837 ;;		Unchanged: 0/0
  1838 ;; Data sizes:     COMMON   BANK0   BANK1   BANK3   BANK2
  1839 ;;      Params:         4       0       0       0       0
  1840 ;;      Locals:         3       0       0       0       0
  1841 ;;      Temps:          0       0       0       0       0
  1842 ;;      Totals:         7       0       0       0       0
  1843 ;;Total ram usage:        7 bytes
  1844 ;; Hardware stack levels used:    1
  1845 ;; Hardware stack levels required when called:    1
  1846 ;; This function calls:
  1847 ;;		Nothing
  1848 ;; This function is called by:
  1849 ;;		_puts_float
  1850 ;; This function uses a non-reentrant model
  1851 ;;
  1852                           
  1853                           
  1854                           ;psect for function ___lwdiv
  1855  1282                     ___lwdiv:
  1856  1282                     l2177:	
  1857                           ;incstack = 0
  1858                           ; Regs used in ___lwdiv: [wreg+status,2+status,0+btemp+1]
  1859                           
  1860  1282  01F6               	clrf	___lwdiv@quotient
  1861  1283  01F7               	clrf	___lwdiv@quotient+1
  1862  1284                     l2179:
  1863  1284  0872               	movf	___lwdiv@divisor,w
  1864  1285  0473               	iorwf	___lwdiv@divisor+1,w
  1865  1286  1903               	btfsc	3,2
  1866  1287  2A89               	goto	u3051
  1867  1288  2A8A               	goto	u3050
  1868  1289                     u3051:
  1869  1289  2AC1               	goto	l2199
  1870  128A                     u3050:
  1871  128A                     l2181:
  1872  128A  01F8               	clrf	___lwdiv@counter
  1873  128B  0AF8               	incf	___lwdiv@counter,f
  1874  128C  2A98               	goto	l2187
  1875  128D                     l2183:
  1876  128D  3001               	movlw	1
  1877  128E                     u3065:
  1878  128E  1003               	clrc
  1879  128F  0DF2               	rlf	___lwdiv@divisor,f
  1880  1290  0DF3               	rlf	___lwdiv@divisor+1,f
  1881  1291  3EFF               	addlw	-1
  1882  1292  1D03               	skipz
  1883  1293  2A8E               	goto	u3065
  1884  1294                     l2185:
  1885  1294  3001               	movlw	1
  1886  1295  00FF               	movwf	btemp+1
  1887  1296  087F               	movf	btemp+1,w
  1888  1297  07F8               	addwf	___lwdiv@counter,f
  1889  1298                     l2187:
  1890  1298  1FF3               	btfss	___lwdiv@divisor+1,7
  1891  1299  2A9B               	goto	u3071
  1892  129A  2A9C               	goto	u3070
  1893  129B                     u3071:
  1894  129B  2A8D               	goto	l2183
  1895  129C                     u3070:
  1896  129C                     l2189:
  1897  129C  3001               	movlw	1
  1898  129D                     u3085:
  1899  129D  1003               	clrc
  1900  129E  0DF6               	rlf	___lwdiv@quotient,f
  1901  129F  0DF7               	rlf	___lwdiv@quotient+1,f
  1902  12A0  3EFF               	addlw	-1
  1903  12A1  1D03               	skipz
  1904  12A2  2A9D               	goto	u3085
  1905  12A3  0873               	movf	___lwdiv@divisor+1,w
  1906  12A4  0275               	subwf	___lwdiv@dividend+1,w
  1907  12A5  1D03               	skipz
  1908  12A6  2AA9               	goto	u3095
  1909  12A7  0872               	movf	___lwdiv@divisor,w
  1910  12A8  0274               	subwf	___lwdiv@dividend,w
  1911  12A9                     u3095:
  1912  12A9  1C03               	skipc
  1913  12AA  2AAC               	goto	u3091
  1914  12AB  2AAD               	goto	u3090
  1915  12AC                     u3091:
  1916  12AC  2AB4               	goto	l2195
  1917  12AD                     u3090:
  1918  12AD                     l2191:
  1919  12AD  0872               	movf	___lwdiv@divisor,w
  1920  12AE  02F4               	subwf	___lwdiv@dividend,f
  1921  12AF  0873               	movf	___lwdiv@divisor+1,w
  1922  12B0  1C03               	skipc
  1923  12B1  03F5               	decf	___lwdiv@dividend+1,f
  1924  12B2  02F5               	subwf	___lwdiv@dividend+1,f
  1925  12B3                     l2193:
  1926  12B3  1476               	bsf	___lwdiv@quotient,0
  1927  12B4                     l2195:
  1928  12B4  3001               	movlw	1
  1929  12B5                     u3105:
  1930  12B5  1003               	clrc
  1931  12B6  0CF3               	rrf	___lwdiv@divisor+1,f
  1932  12B7  0CF2               	rrf	___lwdiv@divisor,f
  1933  12B8  3EFF               	addlw	-1
  1934  12B9  1D03               	skipz
  1935  12BA  2AB5               	goto	u3105
  1936  12BB                     l2197:
  1937  12BB  3001               	movlw	1
  1938  12BC  02F8               	subwf	___lwdiv@counter,f
  1939  12BD  1D03               	btfss	3,2
  1940  12BE  2AC0               	goto	u3111
  1941  12BF  2AC1               	goto	u3110
  1942  12C0                     u3111:
  1943  12C0  2A9C               	goto	l2189
  1944  12C1                     u3110:
  1945  12C1                     l2199:
  1946  12C1  0877               	movf	___lwdiv@quotient+1,w
  1947  12C2  00F3               	movwf	?___lwdiv+1
  1948  12C3  0876               	movf	___lwdiv@quotient,w
  1949  12C4  00F2               	movwf	?___lwdiv
  1950  12C5                     l495:
  1951  12C5  0008               	return
  1952  12C6                     __end_of___lwdiv:
  1953                           
  1954                           	psect	text4
  1955  1453                     __ptext4:	
  1956 ;; *************** function ___fltol *****************
  1957 ;; Defined at:
  1958 ;;		line 43 in file "C:\Program Files\Microchip\xc8\v2.20\pic\sources\c90\common\fltol.c"
  1959 ;; Parameters:    Size  Location     Type
  1960 ;;  f1              4    2[COMMON] unsigned int 
  1961 ;; Auto vars:     Size  Location     Type
  1962 ;;  exp1            1   11[COMMON] unsigned char 
  1963 ;;  sign1           1   10[COMMON] unsigned char 
  1964 ;; Return value:  Size  Location     Type
  1965 ;;                  4    2[COMMON] long 
  1966 ;; Registers used:
  1967 ;;		wreg, status,2, status,0, btemp+1
  1968 ;; Tracked objects:
  1969 ;;		On entry : 0/0
  1970 ;;		On exit  : 0/0
  1971 ;;		Unchanged: 0/0
  1972 ;; Data sizes:     COMMON   BANK0   BANK1   BANK3   BANK2
  1973 ;;      Params:         4       0       0       0       0
  1974 ;;      Locals:         2       0       0       0       0
  1975 ;;      Temps:          4       0       0       0       0
  1976 ;;      Totals:        10       0       0       0       0
  1977 ;;Total ram usage:       10 bytes
  1978 ;; Hardware stack levels used:    1
  1979 ;; Hardware stack levels required when called:    1
  1980 ;; This function calls:
  1981 ;;		Nothing
  1982 ;; This function is called by:
  1983 ;;		_puts_float
  1984 ;; This function uses a non-reentrant model
  1985 ;;
  1986                           
  1987                           
  1988                           ;psect for function ___fltol
  1989  1453                     ___fltol:
  1990  1453                     l2139:	
  1991                           ;incstack = 0
  1992                           ; Regs used in ___fltol: [wreg+status,2+status,0+btemp+1]
  1993                           
  1994  1453  1003               	clrc
  1995  1454  0D74               	rlf	___fltol@f1+2,w
  1996  1455  0D75               	rlf	___fltol@f1+3,w
  1997  1456  00FF               	movwf	btemp+1
  1998  1457  087F               	movf	btemp+1,w
  1999  1458  00FB               	movwf	___fltol@exp1
  2000  1459  087B               	movf	___fltol@exp1,w
  2001  145A  1D03               	btfss	3,2
  2002  145B  2C5D               	goto	u2951
  2003  145C  2C5E               	goto	u2950
  2004  145D                     u2951:
  2005  145D  2C67               	goto	l2145
  2006  145E                     u2950:
  2007  145E                     l2141:
  2008  145E  3000               	movlw	0
  2009  145F  00F5               	movwf	?___fltol+3
  2010  1460  3000               	movlw	0
  2011  1461  00F4               	movwf	?___fltol+2
  2012  1462  3000               	movlw	0
  2013  1463  00F3               	movwf	?___fltol+1
  2014  1464  3000               	movlw	0
  2015  1465  00F2               	movwf	?___fltol
  2016  1466  2CCC               	goto	l409
  2017  1467                     l2145:
  2018  1467  0872               	movf	___fltol@f1,w
  2019  1468  00F6               	movwf	??___fltol
  2020  1469  0873               	movf	___fltol@f1+1,w
  2021  146A  00F7               	movwf	??___fltol+1
  2022  146B  0874               	movf	___fltol@f1+2,w
  2023  146C  00F8               	movwf	??___fltol+2
  2024  146D  0875               	movf	___fltol@f1+3,w
  2025  146E  00F9               	movwf	??___fltol+3
  2026  146F  301F               	movlw	31
  2027  1470                     u2965:
  2028  1470  1003               	clrc
  2029  1471  0CF9               	rrf	??___fltol+3,f
  2030  1472  0CF8               	rrf	??___fltol+2,f
  2031  1473  0CF7               	rrf	??___fltol+1,f
  2032  1474  0CF6               	rrf	??___fltol,f
  2033  1475                     u2960:
  2034  1475  3EFF               	addlw	-1
  2035  1476  1D03               	skipz
  2036  1477  2C70               	goto	u2965
  2037  1478  0876               	movf	??___fltol,w
  2038  1479  00FF               	movwf	btemp+1
  2039  147A  087F               	movf	btemp+1,w
  2040  147B  00FA               	movwf	___fltol@sign1
  2041  147C                     l2147:
  2042  147C  17F4               	bsf	___fltol@f1+2,7
  2043  147D                     l2149:
  2044  147D  30FF               	movlw	255
  2045  147E  05F2               	andwf	___fltol@f1,f
  2046  147F  30FF               	movlw	255
  2047  1480  05F3               	andwf	___fltol@f1+1,f
  2048  1481  30FF               	movlw	255
  2049  1482  05F4               	andwf	___fltol@f1+2,f
  2050  1483  3000               	movlw	0
  2051  1484  05F5               	andwf	___fltol@f1+3,f
  2052  1485                     l2151:
  2053  1485  3096               	movlw	150
  2054  1486  02FB               	subwf	___fltol@exp1,f
  2055  1487                     l2153:
  2056  1487  1FFB               	btfss	___fltol@exp1,7
  2057  1488  2C8A               	goto	u2971
  2058  1489  2C8B               	goto	u2970
  2059  148A                     u2971:
  2060  148A  2CA5               	goto	l2165
  2061  148B                     u2970:
  2062  148B                     l2155:
  2063  148B  087B               	movf	___fltol@exp1,w
  2064  148C  3A80               	xorlw	128
  2065  148D  3E97               	addlw	151
  2066  148E  1803               	skipnc
  2067  148F  2C91               	goto	u2981
  2068  1490  2C92               	goto	u2980
  2069  1491                     u2981:
  2070  1491  2C93               	goto	l2161
  2071  1492                     u2980:
  2072  1492  2C5E               	goto	l2141
  2073  1493                     l2161:
  2074  1493  3001               	movlw	1
  2075  1494                     u2995:
  2076  1494  1003               	clrc
  2077  1495  0CF5               	rrf	___fltol@f1+3,f
  2078  1496  0CF4               	rrf	___fltol@f1+2,f
  2079  1497  0CF3               	rrf	___fltol@f1+1,f
  2080  1498  0CF2               	rrf	___fltol@f1,f
  2081  1499  3EFF               	addlw	-1
  2082  149A  1D03               	skipz
  2083  149B  2C94               	goto	u2995
  2084  149C                     l2163:
  2085  149C  3001               	movlw	1
  2086  149D  00FF               	movwf	btemp+1
  2087  149E  087F               	movf	btemp+1,w
  2088  149F  07FB               	addwf	___fltol@exp1,f
  2089  14A0  1D03               	btfss	3,2
  2090  14A1  2CA3               	goto	u3001
  2091  14A2  2CA4               	goto	u3000
  2092  14A3                     u3001:
  2093  14A3  2C93               	goto	l2161
  2094  14A4                     u3000:
  2095  14A4  2CBC               	goto	l2173
  2096  14A5                     l2165:
  2097  14A5  3020               	movlw	32
  2098  14A6  027B               	subwf	___fltol@exp1,w
  2099  14A7  1C03               	skipc
  2100  14A8  2CAA               	goto	u3011
  2101  14A9  2CAB               	goto	u3010
  2102  14AA                     u3011:
  2103  14AA  2CB7               	goto	l416
  2104  14AB                     u3010:
  2105  14AB  2C5E               	goto	l2141
  2106  14AC                     l2171:
  2107  14AC  3001               	movlw	1
  2108  14AD  00F6               	movwf	??___fltol
  2109  14AE                     u3025:
  2110  14AE  1003               	clrc
  2111  14AF  0DF2               	rlf	___fltol@f1,f
  2112  14B0  0DF3               	rlf	___fltol@f1+1,f
  2113  14B1  0DF4               	rlf	___fltol@f1+2,f
  2114  14B2  0DF5               	rlf	___fltol@f1+3,f
  2115  14B3  0BF6               	decfsz	??___fltol,f
  2116  14B4  2CAE               	goto	u3025
  2117  14B5  3001               	movlw	1
  2118  14B6  02FB               	subwf	___fltol@exp1,f
  2119  14B7                     l416:
  2120  14B7  087B               	movf	___fltol@exp1,w
  2121  14B8  1D03               	btfss	3,2
  2122  14B9  2CBB               	goto	u3031
  2123  14BA  2CBC               	goto	u3030
  2124  14BB                     u3031:
  2125  14BB  2CAC               	goto	l2171
  2126  14BC                     u3030:
  2127  14BC                     l2173:
  2128  14BC  087A               	movf	___fltol@sign1,w
  2129  14BD  1903               	btfsc	3,2
  2130  14BE  2CC0               	goto	u3041
  2131  14BF  2CC1               	goto	u3040
  2132  14C0                     u3041:
  2133  14C0  2CCC               	goto	l419
  2134  14C1                     u3040:
  2135  14C1                     l2175:
  2136  14C1  09F2               	comf	___fltol@f1,f
  2137  14C2  09F3               	comf	___fltol@f1+1,f
  2138  14C3  09F4               	comf	___fltol@f1+2,f
  2139  14C4  09F5               	comf	___fltol@f1+3,f
  2140  14C5  0AF2               	incf	___fltol@f1,f
  2141  14C6  1903               	skipnz
  2142  14C7  0AF3               	incf	___fltol@f1+1,f
  2143  14C8  1903               	skipnz
  2144  14C9  0AF4               	incf	___fltol@f1+2,f
  2145  14CA  1903               	skipnz
  2146  14CB  0AF5               	incf	___fltol@f1+3,f
  2147  14CC                     l419:
  2148  14CC                     l409:
  2149  14CC  0008               	return
  2150  14CD                     __end_of___fltol:
  2151                           
  2152                           	psect	text5
  2153  0016                     __ptext5:	
  2154 ;; *************** function _conversion_newton *****************
  2155 ;; Defined at:
  2156 ;;		line 163 in file "main.c"
  2157 ;; Parameters:    Size  Location     Type
  2158 ;;  Rc              4    0[BANK1 ] float 
  2159 ;; Auto vars:     Size  Location     Type
  2160 ;;  F               4   33[BANK1 ] float 
  2161 ;;  n               2   37[BANK1 ] int 
  2162 ;; Return value:  Size  Location     Type
  2163 ;;                  4    0[BANK1 ] float 
  2164 ;; Registers used:
  2165 ;;		wreg, fsr0l, fsr0h, status,2, status,0, btemp+1, pclath, cstack
  2166 ;; Tracked objects:
  2167 ;;		On entry : 0/0
  2168 ;;		On exit  : 0/0
  2169 ;;		Unchanged: 0/0
  2170 ;; Data sizes:     COMMON   BANK0   BANK1   BANK3   BANK2
  2171 ;;      Params:         0       0       4       0       0
  2172 ;;      Locals:         0       0      10       0       0
  2173 ;;      Temps:          0       0      25       0       0
  2174 ;;      Totals:         0       0      39       0       0
  2175 ;;Total ram usage:       39 bytes
  2176 ;; Hardware stack levels used:    1
  2177 ;; Hardware stack levels required when called:    3
  2178 ;; This function calls:
  2179 ;;		___fladd
  2180 ;;		___fldiv
  2181 ;;		___flge
  2182 ;;		___flmul
  2183 ;;		___flsub
  2184 ;; This function is called by:
  2185 ;;		_main
  2186 ;; This function uses a non-reentrant model
  2187 ;;
  2188                           
  2189                           
  2190                           ;psect for function _conversion_newton
  2191  0016                     _conversion_newton:
  2192  0016                     l2689:	
  2193                           ;incstack = 0
  2194                           ; Regs used in _conversion_newton: [wreg-fsr0h+status,2+status,0+btemp+1+pclath+cstack]
  2195                           
  2196                           
  2197                           ;main.c: 164:      float F;;main.c: 165:      int n;;main.c: 166:      const float F_tab
      +                          [20]={70,35,30,28,25,20,19,18,15,13,10,7, 5.4, 4, 3, 2.2, 1.5, 0.9, 0.45, 0.12};;main.c:
      +                           167:      const float R_tab[20]={2000,2500,2600,2700,2900,3200,3400,3500,3900,4300,4800
      +                          ,5500,6800,8500,11000,16000,27000,45000,65000,95000};;main.c: 170:      if (Rc <= R_tab[
      +                          1])
  2198  0016  3005               	movlw	low (((conversion_newton@R_tab+4)-__stringbase)| (0+32768))
  2199  0017  0084               	movwf	4
  2200  0018  160A  118A  2000  120A  118A  	fcall	stringdir
  2201  001D  1683               	bsf	3,5	;RP0=1, select bank1
  2202  001E  1303               	bcf	3,6	;RP1=0, select bank1
  2203  001F  00A4               	movwf	??_conversion_newton^(0+128)
  2204  0020  160A  118A  2000  120A  118A  	fcall	stringdir
  2205  0025  00A5               	movwf	(??_conversion_newton^(0+128)+1)
  2206  0026  160A  118A  2000  120A  118A  	fcall	stringdir
  2207  002B  00A6               	movwf	(??_conversion_newton^(0+128)+2)
  2208  002C  160A  118A  2000  120A  118A  	fcall	stringdir
  2209  0031  00A7               	movwf	(??_conversion_newton^(0+128)+3)
  2210  0032  0827               	movf	(??_conversion_newton+3)^(0+128),w
  2211  0033  00F5               	movwf	___flge@ff1+3
  2212  0034  0826               	movf	(??_conversion_newton+2)^(0+128),w
  2213  0035  00F4               	movwf	___flge@ff1+2
  2214  0036  0825               	movf	(??_conversion_newton+1)^(0+128),w
  2215  0037  00F3               	movwf	___flge@ff1+1
  2216  0038  0824               	movf	??_conversion_newton^(0+128),w
  2217  0039  00F2               	movwf	___flge@ff1
  2218  003A  0823               	movf	(conversion_newton@Rc+3)^(0+128),w
  2219  003B  00F9               	movwf	___flge@ff2+3
  2220  003C  0822               	movf	(conversion_newton@Rc+2)^(0+128),w
  2221  003D  00F8               	movwf	___flge@ff2+2
  2222  003E  0821               	movf	(conversion_newton@Rc+1)^(0+128),w
  2223  003F  00F7               	movwf	___flge@ff2+1
  2224  0040  0820               	movf	conversion_newton@Rc^(0+128),w
  2225  0041  00F6               	movwf	___flge@ff2
  2226  0042  160A  118A  2549  120A  118A  	fcall	___flge
  2227  0047  1C03               	btfss	3,0
  2228  0048  284A               	goto	u4021
  2229  0049  284B               	goto	u4020
  2230  004A                     u4021:
  2231  004A  284F               	goto	l2693
  2232  004B                     u4020:
  2233  004B                     l2691:
  2234                           
  2235                           ;main.c: 171:          {;main.c: 172:          n = 0;
  2236  004B  1683               	bsf	3,5	;RP0=1, select bank1
  2237  004C  1303               	bcf	3,6	;RP1=0, select bank1
  2238  004D  01C5               	clrf	conversion_newton@n^(0+128)
  2239  004E  01C6               	clrf	(conversion_newton@n+1)^(0+128)
  2240  004F                     l2693:
  2241                           
  2242                           ;main.c: 174:      if ((Rc <= R_tab[2]) && (Rc > R_tab[1]))
  2243  004F  3009               	movlw	low (((conversion_newton@R_tab+8)-__stringbase)| (0+32768))
  2244  0050  0084               	movwf	4
  2245  0051  160A  118A  2000  120A  118A  	fcall	stringdir
  2246  0056  1683               	bsf	3,5	;RP0=1, select bank1
  2247  0057  1303               	bcf	3,6	;RP1=0, select bank1
  2248  0058  00A4               	movwf	??_conversion_newton^(0+128)
  2249  0059  160A  118A  2000  120A  118A  	fcall	stringdir
  2250  005E  00A5               	movwf	(??_conversion_newton^(0+128)+1)
  2251  005F  160A  118A  2000  120A  118A  	fcall	stringdir
  2252  0064  00A6               	movwf	(??_conversion_newton^(0+128)+2)
  2253  0065  160A  118A  2000  120A  118A  	fcall	stringdir
  2254  006A  00A7               	movwf	(??_conversion_newton^(0+128)+3)
  2255  006B  0827               	movf	(??_conversion_newton+3)^(0+128),w
  2256  006C  00F5               	movwf	___flge@ff1+3
  2257  006D  0826               	movf	(??_conversion_newton+2)^(0+128),w
  2258  006E  00F4               	movwf	___flge@ff1+2
  2259  006F  0825               	movf	(??_conversion_newton+1)^(0+128),w
  2260  0070  00F3               	movwf	___flge@ff1+1
  2261  0071  0824               	movf	??_conversion_newton^(0+128),w
  2262  0072  00F2               	movwf	___flge@ff1
  2263  0073  0823               	movf	(conversion_newton@Rc+3)^(0+128),w
  2264  0074  00F9               	movwf	___flge@ff2+3
  2265  0075  0822               	movf	(conversion_newton@Rc+2)^(0+128),w
  2266  0076  00F8               	movwf	___flge@ff2+2
  2267  0077  0821               	movf	(conversion_newton@Rc+1)^(0+128),w
  2268  0078  00F7               	movwf	___flge@ff2+1
  2269  0079  0820               	movf	conversion_newton@Rc^(0+128),w
  2270  007A  00F6               	movwf	___flge@ff2
  2271  007B  160A  118A  2549  120A  118A  	fcall	___flge
  2272  0080  1C03               	btfss	3,0
  2273  0081  2883               	goto	u4031
  2274  0082  2884               	goto	u4030
  2275  0083                     u4031:
  2276  0083  28C0               	goto	l2699
  2277  0084                     u4030:
  2278  0084                     l2695:
  2279  0084  3005               	movlw	low (((conversion_newton@R_tab+4)-__stringbase)| (0+32768))
  2280  0085  0084               	movwf	4
  2281  0086  160A  118A  2000  120A  118A  	fcall	stringdir
  2282  008B  1683               	bsf	3,5	;RP0=1, select bank1
  2283  008C  1303               	bcf	3,6	;RP1=0, select bank1
  2284  008D  00A4               	movwf	??_conversion_newton^(0+128)
  2285  008E  160A  118A  2000  120A  118A  	fcall	stringdir
  2286  0093  00A5               	movwf	(??_conversion_newton^(0+128)+1)
  2287  0094  160A  118A  2000  120A  118A  	fcall	stringdir
  2288  0099  00A6               	movwf	(??_conversion_newton^(0+128)+2)
  2289  009A  160A  118A  2000  120A  118A  	fcall	stringdir
  2290  009F  00A7               	movwf	(??_conversion_newton^(0+128)+3)
  2291  00A0  0827               	movf	(??_conversion_newton+3)^(0+128),w
  2292  00A1  00F5               	movwf	___flge@ff1+3
  2293  00A2  0826               	movf	(??_conversion_newton+2)^(0+128),w
  2294  00A3  00F4               	movwf	___flge@ff1+2
  2295  00A4  0825               	movf	(??_conversion_newton+1)^(0+128),w
  2296  00A5  00F3               	movwf	___flge@ff1+1
  2297  00A6  0824               	movf	??_conversion_newton^(0+128),w
  2298  00A7  00F2               	movwf	___flge@ff1
  2299  00A8  0823               	movf	(conversion_newton@Rc+3)^(0+128),w
  2300  00A9  00F9               	movwf	___flge@ff2+3
  2301  00AA  0822               	movf	(conversion_newton@Rc+2)^(0+128),w
  2302  00AB  00F8               	movwf	___flge@ff2+2
  2303  00AC  0821               	movf	(conversion_newton@Rc+1)^(0+128),w
  2304  00AD  00F7               	movwf	___flge@ff2+1
  2305  00AE  0820               	movf	conversion_newton@Rc^(0+128),w
  2306  00AF  00F6               	movwf	___flge@ff2
  2307  00B0  160A  118A  2549  120A  118A  	fcall	___flge
  2308  00B5  1803               	btfsc	3,0
  2309  00B6  28B8               	goto	u4041
  2310  00B7  28B9               	goto	u4040
  2311  00B8                     u4041:
  2312  00B8  28C0               	goto	l2699
  2313  00B9                     u4040:
  2314  00B9                     l2697:
  2315                           
  2316                           ;main.c: 175:          {;main.c: 176:          n = 1;
  2317  00B9  3001               	movlw	1
  2318  00BA  1683               	bsf	3,5	;RP0=1, select bank1
  2319  00BB  1303               	bcf	3,6	;RP1=0, select bank1
  2320  00BC  00C5               	movwf	conversion_newton@n^(0+128)
  2321  00BD  3000               	movlw	0
  2322  00BE  00C6               	movwf	(conversion_newton@n^(0+128)+1)
  2323                           
  2324                           ;main.c: 177:          }
  2325  00BF  2C84               	goto	l2751
  2326  00C0                     l2699:
  2327  00C0  300D               	movlw	low (((conversion_newton@R_tab+12)-__stringbase)| (0+32768))
  2328  00C1  0084               	movwf	4
  2329  00C2  160A  118A  2000  120A  118A  	fcall	stringdir
  2330  00C7  1683               	bsf	3,5	;RP0=1, select bank1
  2331  00C8  1303               	bcf	3,6	;RP1=0, select bank1
  2332  00C9  00A4               	movwf	??_conversion_newton^(0+128)
  2333  00CA  160A  118A  2000  120A  118A  	fcall	stringdir
  2334  00CF  00A5               	movwf	(??_conversion_newton^(0+128)+1)
  2335  00D0  160A  118A  2000  120A  118A  	fcall	stringdir
  2336  00D5  00A6               	movwf	(??_conversion_newton^(0+128)+2)
  2337  00D6  160A  118A  2000  120A  118A  	fcall	stringdir
  2338  00DB  00A7               	movwf	(??_conversion_newton^(0+128)+3)
  2339  00DC  0827               	movf	(??_conversion_newton+3)^(0+128),w
  2340  00DD  00F5               	movwf	___flge@ff1+3
  2341  00DE  0826               	movf	(??_conversion_newton+2)^(0+128),w
  2342  00DF  00F4               	movwf	___flge@ff1+2
  2343  00E0  0825               	movf	(??_conversion_newton+1)^(0+128),w
  2344  00E1  00F3               	movwf	___flge@ff1+1
  2345  00E2  0824               	movf	??_conversion_newton^(0+128),w
  2346  00E3  00F2               	movwf	___flge@ff1
  2347  00E4  0823               	movf	(conversion_newton@Rc+3)^(0+128),w
  2348  00E5  00F9               	movwf	___flge@ff2+3
  2349  00E6  0822               	movf	(conversion_newton@Rc+2)^(0+128),w
  2350  00E7  00F8               	movwf	___flge@ff2+2
  2351  00E8  0821               	movf	(conversion_newton@Rc+1)^(0+128),w
  2352  00E9  00F7               	movwf	___flge@ff2+1
  2353  00EA  0820               	movf	conversion_newton@Rc^(0+128),w
  2354  00EB  00F6               	movwf	___flge@ff2
  2355  00EC  160A  118A  2549  120A  118A  	fcall	___flge
  2356  00F1  1C03               	btfss	3,0
  2357  00F2  28F4               	goto	u4051
  2358  00F3  28F5               	goto	u4050
  2359  00F4                     u4051:
  2360  00F4  2931               	goto	l2705
  2361  00F5                     u4050:
  2362  00F5                     l2701:
  2363  00F5  3009               	movlw	low (((conversion_newton@R_tab+8)-__stringbase)| (0+32768))
  2364  00F6  0084               	movwf	4
  2365  00F7  160A  118A  2000  120A  118A  	fcall	stringdir
  2366  00FC  1683               	bsf	3,5	;RP0=1, select bank1
  2367  00FD  1303               	bcf	3,6	;RP1=0, select bank1
  2368  00FE  00A4               	movwf	??_conversion_newton^(0+128)
  2369  00FF  160A  118A  2000  120A  118A  	fcall	stringdir
  2370  0104  00A5               	movwf	(??_conversion_newton^(0+128)+1)
  2371  0105  160A  118A  2000  120A  118A  	fcall	stringdir
  2372  010A  00A6               	movwf	(??_conversion_newton^(0+128)+2)
  2373  010B  160A  118A  2000  120A  118A  	fcall	stringdir
  2374  0110  00A7               	movwf	(??_conversion_newton^(0+128)+3)
  2375  0111  0827               	movf	(??_conversion_newton+3)^(0+128),w
  2376  0112  00F5               	movwf	___flge@ff1+3
  2377  0113  0826               	movf	(??_conversion_newton+2)^(0+128),w
  2378  0114  00F4               	movwf	___flge@ff1+2
  2379  0115  0825               	movf	(??_conversion_newton+1)^(0+128),w
  2380  0116  00F3               	movwf	___flge@ff1+1
  2381  0117  0824               	movf	??_conversion_newton^(0+128),w
  2382  0118  00F2               	movwf	___flge@ff1
  2383  0119  0823               	movf	(conversion_newton@Rc+3)^(0+128),w
  2384  011A  00F9               	movwf	___flge@ff2+3
  2385  011B  0822               	movf	(conversion_newton@Rc+2)^(0+128),w
  2386  011C  00F8               	movwf	___flge@ff2+2
  2387  011D  0821               	movf	(conversion_newton@Rc+1)^(0+128),w
  2388  011E  00F7               	movwf	___flge@ff2+1
  2389  011F  0820               	movf	conversion_newton@Rc^(0+128),w
  2390  0120  00F6               	movwf	___flge@ff2
  2391  0121  160A  118A  2549  120A  118A  	fcall	___flge
  2392  0126  1803               	btfsc	3,0
  2393  0127  2929               	goto	u4061
  2394  0128  292A               	goto	u4060
  2395  0129                     u4061:
  2396  0129  2931               	goto	l2705
  2397  012A                     u4060:
  2398  012A                     l2703:
  2399                           
  2400                           ;main.c: 179:          {;main.c: 180:          n = 2;
  2401  012A  3002               	movlw	2
  2402  012B  1683               	bsf	3,5	;RP0=1, select bank1
  2403  012C  1303               	bcf	3,6	;RP1=0, select bank1
  2404  012D  00C5               	movwf	conversion_newton@n^(0+128)
  2405  012E  3000               	movlw	0
  2406  012F  00C6               	movwf	(conversion_newton@n^(0+128)+1)
  2407                           
  2408                           ;main.c: 181:          }
  2409  0130  2C84               	goto	l2751
  2410  0131                     l2705:
  2411  0131  3011               	movlw	low (((conversion_newton@R_tab+16)-__stringbase)| (0+32768))
  2412  0132  0084               	movwf	4
  2413  0133  160A  118A  2000  120A  118A  	fcall	stringdir
  2414  0138  1683               	bsf	3,5	;RP0=1, select bank1
  2415  0139  1303               	bcf	3,6	;RP1=0, select bank1
  2416  013A  00A4               	movwf	??_conversion_newton^(0+128)
  2417  013B  160A  118A  2000  120A  118A  	fcall	stringdir
  2418  0140  00A5               	movwf	(??_conversion_newton^(0+128)+1)
  2419  0141  160A  118A  2000  120A  118A  	fcall	stringdir
  2420  0146  00A6               	movwf	(??_conversion_newton^(0+128)+2)
  2421  0147  160A  118A  2000  120A  118A  	fcall	stringdir
  2422  014C  00A7               	movwf	(??_conversion_newton^(0+128)+3)
  2423  014D  0827               	movf	(??_conversion_newton+3)^(0+128),w
  2424  014E  00F5               	movwf	___flge@ff1+3
  2425  014F  0826               	movf	(??_conversion_newton+2)^(0+128),w
  2426  0150  00F4               	movwf	___flge@ff1+2
  2427  0151  0825               	movf	(??_conversion_newton+1)^(0+128),w
  2428  0152  00F3               	movwf	___flge@ff1+1
  2429  0153  0824               	movf	??_conversion_newton^(0+128),w
  2430  0154  00F2               	movwf	___flge@ff1
  2431  0155  0823               	movf	(conversion_newton@Rc+3)^(0+128),w
  2432  0156  00F9               	movwf	___flge@ff2+3
  2433  0157  0822               	movf	(conversion_newton@Rc+2)^(0+128),w
  2434  0158  00F8               	movwf	___flge@ff2+2
  2435  0159  0821               	movf	(conversion_newton@Rc+1)^(0+128),w
  2436  015A  00F7               	movwf	___flge@ff2+1
  2437  015B  0820               	movf	conversion_newton@Rc^(0+128),w
  2438  015C  00F6               	movwf	___flge@ff2
  2439  015D  160A  118A  2549  120A  118A  	fcall	___flge
  2440  0162  1C03               	btfss	3,0
  2441  0163  2965               	goto	u4071
  2442  0164  2966               	goto	u4070
  2443  0165                     u4071:
  2444  0165  29A2               	goto	l2711
  2445  0166                     u4070:
  2446  0166                     l2707:
  2447  0166  300D               	movlw	low (((conversion_newton@R_tab+12)-__stringbase)| (0+32768))
  2448  0167  0084               	movwf	4
  2449  0168  160A  118A  2000  120A  118A  	fcall	stringdir
  2450  016D  1683               	bsf	3,5	;RP0=1, select bank1
  2451  016E  1303               	bcf	3,6	;RP1=0, select bank1
  2452  016F  00A4               	movwf	??_conversion_newton^(0+128)
  2453  0170  160A  118A  2000  120A  118A  	fcall	stringdir
  2454  0175  00A5               	movwf	(??_conversion_newton^(0+128)+1)
  2455  0176  160A  118A  2000  120A  118A  	fcall	stringdir
  2456  017B  00A6               	movwf	(??_conversion_newton^(0+128)+2)
  2457  017C  160A  118A  2000  120A  118A  	fcall	stringdir
  2458  0181  00A7               	movwf	(??_conversion_newton^(0+128)+3)
  2459  0182  0827               	movf	(??_conversion_newton+3)^(0+128),w
  2460  0183  00F5               	movwf	___flge@ff1+3
  2461  0184  0826               	movf	(??_conversion_newton+2)^(0+128),w
  2462  0185  00F4               	movwf	___flge@ff1+2
  2463  0186  0825               	movf	(??_conversion_newton+1)^(0+128),w
  2464  0187  00F3               	movwf	___flge@ff1+1
  2465  0188  0824               	movf	??_conversion_newton^(0+128),w
  2466  0189  00F2               	movwf	___flge@ff1
  2467  018A  0823               	movf	(conversion_newton@Rc+3)^(0+128),w
  2468  018B  00F9               	movwf	___flge@ff2+3
  2469  018C  0822               	movf	(conversion_newton@Rc+2)^(0+128),w
  2470  018D  00F8               	movwf	___flge@ff2+2
  2471  018E  0821               	movf	(conversion_newton@Rc+1)^(0+128),w
  2472  018F  00F7               	movwf	___flge@ff2+1
  2473  0190  0820               	movf	conversion_newton@Rc^(0+128),w
  2474  0191  00F6               	movwf	___flge@ff2
  2475  0192  160A  118A  2549  120A  118A  	fcall	___flge
  2476  0197  1803               	btfsc	3,0
  2477  0198  299A               	goto	u4081
  2478  0199  299B               	goto	u4080
  2479  019A                     u4081:
  2480  019A  29A2               	goto	l2711
  2481  019B                     u4080:
  2482  019B                     l2709:
  2483                           
  2484                           ;main.c: 183:          {;main.c: 184:          n = 3;
  2485  019B  3003               	movlw	3
  2486  019C  1683               	bsf	3,5	;RP0=1, select bank1
  2487  019D  1303               	bcf	3,6	;RP1=0, select bank1
  2488  019E  00C5               	movwf	conversion_newton@n^(0+128)
  2489  019F  3000               	movlw	0
  2490  01A0  00C6               	movwf	(conversion_newton@n^(0+128)+1)
  2491                           
  2492                           ;main.c: 185:          }
  2493  01A1  2C84               	goto	l2751
  2494  01A2                     l2711:
  2495  01A2  3015               	movlw	low (((conversion_newton@R_tab+20)-__stringbase)| (0+32768))
  2496  01A3  0084               	movwf	4
  2497  01A4  160A  118A  2000  120A  118A  	fcall	stringdir
  2498  01A9  1683               	bsf	3,5	;RP0=1, select bank1
  2499  01AA  1303               	bcf	3,6	;RP1=0, select bank1
  2500  01AB  00A4               	movwf	??_conversion_newton^(0+128)
  2501  01AC  160A  118A  2000  120A  118A  	fcall	stringdir
  2502  01B1  00A5               	movwf	(??_conversion_newton^(0+128)+1)
  2503  01B2  160A  118A  2000  120A  118A  	fcall	stringdir
  2504  01B7  00A6               	movwf	(??_conversion_newton^(0+128)+2)
  2505  01B8  160A  118A  2000  120A  118A  	fcall	stringdir
  2506  01BD  00A7               	movwf	(??_conversion_newton^(0+128)+3)
  2507  01BE  0827               	movf	(??_conversion_newton+3)^(0+128),w
  2508  01BF  00F5               	movwf	___flge@ff1+3
  2509  01C0  0826               	movf	(??_conversion_newton+2)^(0+128),w
  2510  01C1  00F4               	movwf	___flge@ff1+2
  2511  01C2  0825               	movf	(??_conversion_newton+1)^(0+128),w
  2512  01C3  00F3               	movwf	___flge@ff1+1
  2513  01C4  0824               	movf	??_conversion_newton^(0+128),w
  2514  01C5  00F2               	movwf	___flge@ff1
  2515  01C6  0823               	movf	(conversion_newton@Rc+3)^(0+128),w
  2516  01C7  00F9               	movwf	___flge@ff2+3
  2517  01C8  0822               	movf	(conversion_newton@Rc+2)^(0+128),w
  2518  01C9  00F8               	movwf	___flge@ff2+2
  2519  01CA  0821               	movf	(conversion_newton@Rc+1)^(0+128),w
  2520  01CB  00F7               	movwf	___flge@ff2+1
  2521  01CC  0820               	movf	conversion_newton@Rc^(0+128),w
  2522  01CD  00F6               	movwf	___flge@ff2
  2523  01CE  160A  118A  2549  120A  118A  	fcall	___flge
  2524  01D3  1C03               	btfss	3,0
  2525  01D4  29D6               	goto	u4091
  2526  01D5  29D7               	goto	u4090
  2527  01D6                     u4091:
  2528  01D6  2A13               	goto	l2717
  2529  01D7                     u4090:
  2530  01D7                     l2713:
  2531  01D7  3011               	movlw	low (((conversion_newton@R_tab+16)-__stringbase)| (0+32768))
  2532  01D8  0084               	movwf	4
  2533  01D9  160A  118A  2000  120A  118A  	fcall	stringdir
  2534  01DE  1683               	bsf	3,5	;RP0=1, select bank1
  2535  01DF  1303               	bcf	3,6	;RP1=0, select bank1
  2536  01E0  00A4               	movwf	??_conversion_newton^(0+128)
  2537  01E1  160A  118A  2000  120A  118A  	fcall	stringdir
  2538  01E6  00A5               	movwf	(??_conversion_newton^(0+128)+1)
  2539  01E7  160A  118A  2000  120A  118A  	fcall	stringdir
  2540  01EC  00A6               	movwf	(??_conversion_newton^(0+128)+2)
  2541  01ED  160A  118A  2000  120A  118A  	fcall	stringdir
  2542  01F2  00A7               	movwf	(??_conversion_newton^(0+128)+3)
  2543  01F3  0827               	movf	(??_conversion_newton+3)^(0+128),w
  2544  01F4  00F5               	movwf	___flge@ff1+3
  2545  01F5  0826               	movf	(??_conversion_newton+2)^(0+128),w
  2546  01F6  00F4               	movwf	___flge@ff1+2
  2547  01F7  0825               	movf	(??_conversion_newton+1)^(0+128),w
  2548  01F8  00F3               	movwf	___flge@ff1+1
  2549  01F9  0824               	movf	??_conversion_newton^(0+128),w
  2550  01FA  00F2               	movwf	___flge@ff1
  2551  01FB  0823               	movf	(conversion_newton@Rc+3)^(0+128),w
  2552  01FC  00F9               	movwf	___flge@ff2+3
  2553  01FD  0822               	movf	(conversion_newton@Rc+2)^(0+128),w
  2554  01FE  00F8               	movwf	___flge@ff2+2
  2555  01FF  0821               	movf	(conversion_newton@Rc+1)^(0+128),w
  2556  0200  00F7               	movwf	___flge@ff2+1
  2557  0201  0820               	movf	conversion_newton@Rc^(0+128),w
  2558  0202  00F6               	movwf	___flge@ff2
  2559  0203  160A  118A  2549  120A  118A  	fcall	___flge
  2560  0208  1803               	btfsc	3,0
  2561  0209  2A0B               	goto	u4101
  2562  020A  2A0C               	goto	u4100
  2563  020B                     u4101:
  2564  020B  2A13               	goto	l2717
  2565  020C                     u4100:
  2566  020C                     l2715:
  2567                           
  2568                           ;main.c: 187:          {;main.c: 188:          n = 4;
  2569  020C  3004               	movlw	4
  2570  020D  1683               	bsf	3,5	;RP0=1, select bank1
  2571  020E  1303               	bcf	3,6	;RP1=0, select bank1
  2572  020F  00C5               	movwf	conversion_newton@n^(0+128)
  2573  0210  3000               	movlw	0
  2574  0211  00C6               	movwf	(conversion_newton@n^(0+128)+1)
  2575                           
  2576                           ;main.c: 189:          }
  2577  0212  2C84               	goto	l2751
  2578  0213                     l2717:
  2579  0213  3019               	movlw	low (((conversion_newton@R_tab+24)-__stringbase)| (0+32768))
  2580  0214  0084               	movwf	4
  2581  0215  160A  118A  2000  120A  118A  	fcall	stringdir
  2582  021A  1683               	bsf	3,5	;RP0=1, select bank1
  2583  021B  1303               	bcf	3,6	;RP1=0, select bank1
  2584  021C  00A4               	movwf	??_conversion_newton^(0+128)
  2585  021D  160A  118A  2000  120A  118A  	fcall	stringdir
  2586  0222  00A5               	movwf	(??_conversion_newton^(0+128)+1)
  2587  0223  160A  118A  2000  120A  118A  	fcall	stringdir
  2588  0228  00A6               	movwf	(??_conversion_newton^(0+128)+2)
  2589  0229  160A  118A  2000  120A  118A  	fcall	stringdir
  2590  022E  00A7               	movwf	(??_conversion_newton^(0+128)+3)
  2591  022F  0827               	movf	(??_conversion_newton+3)^(0+128),w
  2592  0230  00F5               	movwf	___flge@ff1+3
  2593  0231  0826               	movf	(??_conversion_newton+2)^(0+128),w
  2594  0232  00F4               	movwf	___flge@ff1+2
  2595  0233  0825               	movf	(??_conversion_newton+1)^(0+128),w
  2596  0234  00F3               	movwf	___flge@ff1+1
  2597  0235  0824               	movf	??_conversion_newton^(0+128),w
  2598  0236  00F2               	movwf	___flge@ff1
  2599  0237  0823               	movf	(conversion_newton@Rc+3)^(0+128),w
  2600  0238  00F9               	movwf	___flge@ff2+3
  2601  0239  0822               	movf	(conversion_newton@Rc+2)^(0+128),w
  2602  023A  00F8               	movwf	___flge@ff2+2
  2603  023B  0821               	movf	(conversion_newton@Rc+1)^(0+128),w
  2604  023C  00F7               	movwf	___flge@ff2+1
  2605  023D  0820               	movf	conversion_newton@Rc^(0+128),w
  2606  023E  00F6               	movwf	___flge@ff2
  2607  023F  160A  118A  2549  120A  118A  	fcall	___flge
  2608  0244  1C03               	btfss	3,0
  2609  0245  2A47               	goto	u4111
  2610  0246  2A48               	goto	u4110
  2611  0247                     u4111:
  2612  0247  2A84               	goto	l2723
  2613  0248                     u4110:
  2614  0248                     l2719:
  2615  0248  3015               	movlw	low (((conversion_newton@R_tab+20)-__stringbase)| (0+32768))
  2616  0249  0084               	movwf	4
  2617  024A  160A  118A  2000  120A  118A  	fcall	stringdir
  2618  024F  1683               	bsf	3,5	;RP0=1, select bank1
  2619  0250  1303               	bcf	3,6	;RP1=0, select bank1
  2620  0251  00A4               	movwf	??_conversion_newton^(0+128)
  2621  0252  160A  118A  2000  120A  118A  	fcall	stringdir
  2622  0257  00A5               	movwf	(??_conversion_newton^(0+128)+1)
  2623  0258  160A  118A  2000  120A  118A  	fcall	stringdir
  2624  025D  00A6               	movwf	(??_conversion_newton^(0+128)+2)
  2625  025E  160A  118A  2000  120A  118A  	fcall	stringdir
  2626  0263  00A7               	movwf	(??_conversion_newton^(0+128)+3)
  2627  0264  0827               	movf	(??_conversion_newton+3)^(0+128),w
  2628  0265  00F5               	movwf	___flge@ff1+3
  2629  0266  0826               	movf	(??_conversion_newton+2)^(0+128),w
  2630  0267  00F4               	movwf	___flge@ff1+2
  2631  0268  0825               	movf	(??_conversion_newton+1)^(0+128),w
  2632  0269  00F3               	movwf	___flge@ff1+1
  2633  026A  0824               	movf	??_conversion_newton^(0+128),w
  2634  026B  00F2               	movwf	___flge@ff1
  2635  026C  0823               	movf	(conversion_newton@Rc+3)^(0+128),w
  2636  026D  00F9               	movwf	___flge@ff2+3
  2637  026E  0822               	movf	(conversion_newton@Rc+2)^(0+128),w
  2638  026F  00F8               	movwf	___flge@ff2+2
  2639  0270  0821               	movf	(conversion_newton@Rc+1)^(0+128),w
  2640  0271  00F7               	movwf	___flge@ff2+1
  2641  0272  0820               	movf	conversion_newton@Rc^(0+128),w
  2642  0273  00F6               	movwf	___flge@ff2
  2643  0274  160A  118A  2549  120A  118A  	fcall	___flge
  2644  0279  1803               	btfsc	3,0
  2645  027A  2A7C               	goto	u4121
  2646  027B  2A7D               	goto	u4120
  2647  027C                     u4121:
  2648  027C  2A84               	goto	l2723
  2649  027D                     u4120:
  2650  027D                     l2721:
  2651                           
  2652                           ;main.c: 191:          {;main.c: 192:          n = 5;
  2653  027D  3005               	movlw	5
  2654  027E  1683               	bsf	3,5	;RP0=1, select bank1
  2655  027F  1303               	bcf	3,6	;RP1=0, select bank1
  2656  0280  00C5               	movwf	conversion_newton@n^(0+128)
  2657  0281  3000               	movlw	0
  2658  0282  00C6               	movwf	(conversion_newton@n^(0+128)+1)
  2659                           
  2660                           ;main.c: 193:          }
  2661  0283  2C84               	goto	l2751
  2662  0284                     l2723:
  2663  0284  301D               	movlw	low (((conversion_newton@R_tab+28)-__stringbase)| (0+32768))
  2664  0285  0084               	movwf	4
  2665  0286  160A  118A  2000  120A  118A  	fcall	stringdir
  2666  028B  1683               	bsf	3,5	;RP0=1, select bank1
  2667  028C  1303               	bcf	3,6	;RP1=0, select bank1
  2668  028D  00A4               	movwf	??_conversion_newton^(0+128)
  2669  028E  160A  118A  2000  120A  118A  	fcall	stringdir
  2670  0293  00A5               	movwf	(??_conversion_newton^(0+128)+1)
  2671  0294  160A  118A  2000  120A  118A  	fcall	stringdir
  2672  0299  00A6               	movwf	(??_conversion_newton^(0+128)+2)
  2673  029A  160A  118A  2000  120A  118A  	fcall	stringdir
  2674  029F  00A7               	movwf	(??_conversion_newton^(0+128)+3)
  2675  02A0  0827               	movf	(??_conversion_newton+3)^(0+128),w
  2676  02A1  00F5               	movwf	___flge@ff1+3
  2677  02A2  0826               	movf	(??_conversion_newton+2)^(0+128),w
  2678  02A3  00F4               	movwf	___flge@ff1+2
  2679  02A4  0825               	movf	(??_conversion_newton+1)^(0+128),w
  2680  02A5  00F3               	movwf	___flge@ff1+1
  2681  02A6  0824               	movf	??_conversion_newton^(0+128),w
  2682  02A7  00F2               	movwf	___flge@ff1
  2683  02A8  0823               	movf	(conversion_newton@Rc+3)^(0+128),w
  2684  02A9  00F9               	movwf	___flge@ff2+3
  2685  02AA  0822               	movf	(conversion_newton@Rc+2)^(0+128),w
  2686  02AB  00F8               	movwf	___flge@ff2+2
  2687  02AC  0821               	movf	(conversion_newton@Rc+1)^(0+128),w
  2688  02AD  00F7               	movwf	___flge@ff2+1
  2689  02AE  0820               	movf	conversion_newton@Rc^(0+128),w
  2690  02AF  00F6               	movwf	___flge@ff2
  2691  02B0  160A  118A  2549  120A  118A  	fcall	___flge
  2692  02B5  1C03               	btfss	3,0
  2693  02B6  2AB8               	goto	u4131
  2694  02B7  2AB9               	goto	u4130
  2695  02B8                     u4131:
  2696  02B8  2AF5               	goto	l2729
  2697  02B9                     u4130:
  2698  02B9                     l2725:
  2699  02B9  3019               	movlw	low (((conversion_newton@R_tab+24)-__stringbase)| (0+32768))
  2700  02BA  0084               	movwf	4
  2701  02BB  160A  118A  2000  120A  118A  	fcall	stringdir
  2702  02C0  1683               	bsf	3,5	;RP0=1, select bank1
  2703  02C1  1303               	bcf	3,6	;RP1=0, select bank1
  2704  02C2  00A4               	movwf	??_conversion_newton^(0+128)
  2705  02C3  160A  118A  2000  120A  118A  	fcall	stringdir
  2706  02C8  00A5               	movwf	(??_conversion_newton^(0+128)+1)
  2707  02C9  160A  118A  2000  120A  118A  	fcall	stringdir
  2708  02CE  00A6               	movwf	(??_conversion_newton^(0+128)+2)
  2709  02CF  160A  118A  2000  120A  118A  	fcall	stringdir
  2710  02D4  00A7               	movwf	(??_conversion_newton^(0+128)+3)
  2711  02D5  0827               	movf	(??_conversion_newton+3)^(0+128),w
  2712  02D6  00F5               	movwf	___flge@ff1+3
  2713  02D7  0826               	movf	(??_conversion_newton+2)^(0+128),w
  2714  02D8  00F4               	movwf	___flge@ff1+2
  2715  02D9  0825               	movf	(??_conversion_newton+1)^(0+128),w
  2716  02DA  00F3               	movwf	___flge@ff1+1
  2717  02DB  0824               	movf	??_conversion_newton^(0+128),w
  2718  02DC  00F2               	movwf	___flge@ff1
  2719  02DD  0823               	movf	(conversion_newton@Rc+3)^(0+128),w
  2720  02DE  00F9               	movwf	___flge@ff2+3
  2721  02DF  0822               	movf	(conversion_newton@Rc+2)^(0+128),w
  2722  02E0  00F8               	movwf	___flge@ff2+2
  2723  02E1  0821               	movf	(conversion_newton@Rc+1)^(0+128),w
  2724  02E2  00F7               	movwf	___flge@ff2+1
  2725  02E3  0820               	movf	conversion_newton@Rc^(0+128),w
  2726  02E4  00F6               	movwf	___flge@ff2
  2727  02E5  160A  118A  2549  120A  118A  	fcall	___flge
  2728  02EA  1803               	btfsc	3,0
  2729  02EB  2AED               	goto	u4141
  2730  02EC  2AEE               	goto	u4140
  2731  02ED                     u4141:
  2732  02ED  2AF5               	goto	l2729
  2733  02EE                     u4140:
  2734  02EE                     l2727:
  2735                           
  2736                           ;main.c: 195:          {;main.c: 196:          n = 6;
  2737  02EE  3006               	movlw	6
  2738  02EF  1683               	bsf	3,5	;RP0=1, select bank1
  2739  02F0  1303               	bcf	3,6	;RP1=0, select bank1
  2740  02F1  00C5               	movwf	conversion_newton@n^(0+128)
  2741  02F2  3000               	movlw	0
  2742  02F3  00C6               	movwf	(conversion_newton@n^(0+128)+1)
  2743                           
  2744                           ;main.c: 197:          }
  2745  02F4  2C84               	goto	l2751
  2746  02F5                     l2729:
  2747  02F5  3021               	movlw	low (((conversion_newton@R_tab+32)-__stringbase)| (0+32768))
  2748  02F6  0084               	movwf	4
  2749  02F7  160A  118A  2000  120A  118A  	fcall	stringdir
  2750  02FC  1683               	bsf	3,5	;RP0=1, select bank1
  2751  02FD  1303               	bcf	3,6	;RP1=0, select bank1
  2752  02FE  00A4               	movwf	??_conversion_newton^(0+128)
  2753  02FF  160A  118A  2000  120A  118A  	fcall	stringdir
  2754  0304  00A5               	movwf	(??_conversion_newton^(0+128)+1)
  2755  0305  160A  118A  2000  120A  118A  	fcall	stringdir
  2756  030A  00A6               	movwf	(??_conversion_newton^(0+128)+2)
  2757  030B  160A  118A  2000  120A  118A  	fcall	stringdir
  2758  0310  00A7               	movwf	(??_conversion_newton^(0+128)+3)
  2759  0311  0827               	movf	(??_conversion_newton+3)^(0+128),w
  2760  0312  00F5               	movwf	___flge@ff1+3
  2761  0313  0826               	movf	(??_conversion_newton+2)^(0+128),w
  2762  0314  00F4               	movwf	___flge@ff1+2
  2763  0315  0825               	movf	(??_conversion_newton+1)^(0+128),w
  2764  0316  00F3               	movwf	___flge@ff1+1
  2765  0317  0824               	movf	??_conversion_newton^(0+128),w
  2766  0318  00F2               	movwf	___flge@ff1
  2767  0319  0823               	movf	(conversion_newton@Rc+3)^(0+128),w
  2768  031A  00F9               	movwf	___flge@ff2+3
  2769  031B  0822               	movf	(conversion_newton@Rc+2)^(0+128),w
  2770  031C  00F8               	movwf	___flge@ff2+2
  2771  031D  0821               	movf	(conversion_newton@Rc+1)^(0+128),w
  2772  031E  00F7               	movwf	___flge@ff2+1
  2773  031F  0820               	movf	conversion_newton@Rc^(0+128),w
  2774  0320  00F6               	movwf	___flge@ff2
  2775  0321  160A  118A  2549  120A  118A  	fcall	___flge
  2776  0326  1C03               	btfss	3,0
  2777  0327  2B29               	goto	u4151
  2778  0328  2B2A               	goto	u4150
  2779  0329                     u4151:
  2780  0329  2B66               	goto	l2735
  2781  032A                     u4150:
  2782  032A                     l2731:
  2783  032A  301D               	movlw	low (((conversion_newton@R_tab+28)-__stringbase)| (0+32768))
  2784  032B  0084               	movwf	4
  2785  032C  160A  118A  2000  120A  118A  	fcall	stringdir
  2786  0331  1683               	bsf	3,5	;RP0=1, select bank1
  2787  0332  1303               	bcf	3,6	;RP1=0, select bank1
  2788  0333  00A4               	movwf	??_conversion_newton^(0+128)
  2789  0334  160A  118A  2000  120A  118A  	fcall	stringdir
  2790  0339  00A5               	movwf	(??_conversion_newton^(0+128)+1)
  2791  033A  160A  118A  2000  120A  118A  	fcall	stringdir
  2792  033F  00A6               	movwf	(??_conversion_newton^(0+128)+2)
  2793  0340  160A  118A  2000  120A  118A  	fcall	stringdir
  2794  0345  00A7               	movwf	(??_conversion_newton^(0+128)+3)
  2795  0346  0827               	movf	(??_conversion_newton+3)^(0+128),w
  2796  0347  00F5               	movwf	___flge@ff1+3
  2797  0348  0826               	movf	(??_conversion_newton+2)^(0+128),w
  2798  0349  00F4               	movwf	___flge@ff1+2
  2799  034A  0825               	movf	(??_conversion_newton+1)^(0+128),w
  2800  034B  00F3               	movwf	___flge@ff1+1
  2801  034C  0824               	movf	??_conversion_newton^(0+128),w
  2802  034D  00F2               	movwf	___flge@ff1
  2803  034E  0823               	movf	(conversion_newton@Rc+3)^(0+128),w
  2804  034F  00F9               	movwf	___flge@ff2+3
  2805  0350  0822               	movf	(conversion_newton@Rc+2)^(0+128),w
  2806  0351  00F8               	movwf	___flge@ff2+2
  2807  0352  0821               	movf	(conversion_newton@Rc+1)^(0+128),w
  2808  0353  00F7               	movwf	___flge@ff2+1
  2809  0354  0820               	movf	conversion_newton@Rc^(0+128),w
  2810  0355  00F6               	movwf	___flge@ff2
  2811  0356  160A  118A  2549  120A  118A  	fcall	___flge
  2812  035B  1803               	btfsc	3,0
  2813  035C  2B5E               	goto	u4161
  2814  035D  2B5F               	goto	u4160
  2815  035E                     u4161:
  2816  035E  2B66               	goto	l2735
  2817  035F                     u4160:
  2818  035F                     l2733:
  2819                           
  2820                           ;main.c: 199:          {;main.c: 200:          n = 7;
  2821  035F  3007               	movlw	7
  2822  0360  1683               	bsf	3,5	;RP0=1, select bank1
  2823  0361  1303               	bcf	3,6	;RP1=0, select bank1
  2824  0362  00C5               	movwf	conversion_newton@n^(0+128)
  2825  0363  3000               	movlw	0
  2826  0364  00C6               	movwf	(conversion_newton@n^(0+128)+1)
  2827                           
  2828                           ;main.c: 201:          }
  2829  0365  2C84               	goto	l2751
  2830  0366                     l2735:
  2831  0366  3025               	movlw	low (((conversion_newton@R_tab+36)-__stringbase)| (0+32768))
  2832  0367  0084               	movwf	4
  2833  0368  160A  118A  2000  120A  118A  	fcall	stringdir
  2834  036D  1683               	bsf	3,5	;RP0=1, select bank1
  2835  036E  1303               	bcf	3,6	;RP1=0, select bank1
  2836  036F  00A4               	movwf	??_conversion_newton^(0+128)
  2837  0370  160A  118A  2000  120A  118A  	fcall	stringdir
  2838  0375  00A5               	movwf	(??_conversion_newton^(0+128)+1)
  2839  0376  160A  118A  2000  120A  118A  	fcall	stringdir
  2840  037B  00A6               	movwf	(??_conversion_newton^(0+128)+2)
  2841  037C  160A  118A  2000  120A  118A  	fcall	stringdir
  2842  0381  00A7               	movwf	(??_conversion_newton^(0+128)+3)
  2843  0382  0827               	movf	(??_conversion_newton+3)^(0+128),w
  2844  0383  00F5               	movwf	___flge@ff1+3
  2845  0384  0826               	movf	(??_conversion_newton+2)^(0+128),w
  2846  0385  00F4               	movwf	___flge@ff1+2
  2847  0386  0825               	movf	(??_conversion_newton+1)^(0+128),w
  2848  0387  00F3               	movwf	___flge@ff1+1
  2849  0388  0824               	movf	??_conversion_newton^(0+128),w
  2850  0389  00F2               	movwf	___flge@ff1
  2851  038A  0823               	movf	(conversion_newton@Rc+3)^(0+128),w
  2852  038B  00F9               	movwf	___flge@ff2+3
  2853  038C  0822               	movf	(conversion_newton@Rc+2)^(0+128),w
  2854  038D  00F8               	movwf	___flge@ff2+2
  2855  038E  0821               	movf	(conversion_newton@Rc+1)^(0+128),w
  2856  038F  00F7               	movwf	___flge@ff2+1
  2857  0390  0820               	movf	conversion_newton@Rc^(0+128),w
  2858  0391  00F6               	movwf	___flge@ff2
  2859  0392  160A  118A  2549  120A  118A  	fcall	___flge
  2860  0397  1C03               	btfss	3,0
  2861  0398  2B9A               	goto	u4171
  2862  0399  2B9B               	goto	u4170
  2863  039A                     u4171:
  2864  039A  2BD7               	goto	l2741
  2865  039B                     u4170:
  2866  039B                     l2737:
  2867  039B  3021               	movlw	low (((conversion_newton@R_tab+32)-__stringbase)| (0+32768))
  2868  039C  0084               	movwf	4
  2869  039D  160A  118A  2000  120A  118A  	fcall	stringdir
  2870  03A2  1683               	bsf	3,5	;RP0=1, select bank1
  2871  03A3  1303               	bcf	3,6	;RP1=0, select bank1
  2872  03A4  00A4               	movwf	??_conversion_newton^(0+128)
  2873  03A5  160A  118A  2000  120A  118A  	fcall	stringdir
  2874  03AA  00A5               	movwf	(??_conversion_newton^(0+128)+1)
  2875  03AB  160A  118A  2000  120A  118A  	fcall	stringdir
  2876  03B0  00A6               	movwf	(??_conversion_newton^(0+128)+2)
  2877  03B1  160A  118A  2000  120A  118A  	fcall	stringdir
  2878  03B6  00A7               	movwf	(??_conversion_newton^(0+128)+3)
  2879  03B7  0827               	movf	(??_conversion_newton+3)^(0+128),w
  2880  03B8  00F5               	movwf	___flge@ff1+3
  2881  03B9  0826               	movf	(??_conversion_newton+2)^(0+128),w
  2882  03BA  00F4               	movwf	___flge@ff1+2
  2883  03BB  0825               	movf	(??_conversion_newton+1)^(0+128),w
  2884  03BC  00F3               	movwf	___flge@ff1+1
  2885  03BD  0824               	movf	??_conversion_newton^(0+128),w
  2886  03BE  00F2               	movwf	___flge@ff1
  2887  03BF  0823               	movf	(conversion_newton@Rc+3)^(0+128),w
  2888  03C0  00F9               	movwf	___flge@ff2+3
  2889  03C1  0822               	movf	(conversion_newton@Rc+2)^(0+128),w
  2890  03C2  00F8               	movwf	___flge@ff2+2
  2891  03C3  0821               	movf	(conversion_newton@Rc+1)^(0+128),w
  2892  03C4  00F7               	movwf	___flge@ff2+1
  2893  03C5  0820               	movf	conversion_newton@Rc^(0+128),w
  2894  03C6  00F6               	movwf	___flge@ff2
  2895  03C7  160A  118A  2549  120A  118A  	fcall	___flge
  2896  03CC  1803               	btfsc	3,0
  2897  03CD  2BCF               	goto	u4181
  2898  03CE  2BD0               	goto	u4180
  2899  03CF                     u4181:
  2900  03CF  2BD7               	goto	l2741
  2901  03D0                     u4180:
  2902  03D0                     l2739:
  2903                           
  2904                           ;main.c: 203:          {;main.c: 204:          n = 8;
  2905  03D0  3008               	movlw	8
  2906  03D1  1683               	bsf	3,5	;RP0=1, select bank1
  2907  03D2  1303               	bcf	3,6	;RP1=0, select bank1
  2908  03D3  00C5               	movwf	conversion_newton@n^(0+128)
  2909  03D4  3000               	movlw	0
  2910  03D5  00C6               	movwf	(conversion_newton@n^(0+128)+1)
  2911                           
  2912                           ;main.c: 205:          }
  2913  03D6  2C84               	goto	l2751
  2914  03D7                     l2741:
  2915  03D7  3029               	movlw	low (((conversion_newton@R_tab+40)-__stringbase)| (0+32768))
  2916  03D8  0084               	movwf	4
  2917  03D9  160A  118A  2000  120A  118A  	fcall	stringdir
  2918  03DE  1683               	bsf	3,5	;RP0=1, select bank1
  2919  03DF  1303               	bcf	3,6	;RP1=0, select bank1
  2920  03E0  00A4               	movwf	??_conversion_newton^(0+128)
  2921  03E1  160A  118A  2000  120A  118A  	fcall	stringdir
  2922  03E6  00A5               	movwf	(??_conversion_newton^(0+128)+1)
  2923  03E7  160A  118A  2000  120A  118A  	fcall	stringdir
  2924  03EC  00A6               	movwf	(??_conversion_newton^(0+128)+2)
  2925  03ED  160A  118A  2000  120A  118A  	fcall	stringdir
  2926  03F2  00A7               	movwf	(??_conversion_newton^(0+128)+3)
  2927  03F3  0827               	movf	(??_conversion_newton+3)^(0+128),w
  2928  03F4  00F5               	movwf	___flge@ff1+3
  2929  03F5  0826               	movf	(??_conversion_newton+2)^(0+128),w
  2930  03F6  00F4               	movwf	___flge@ff1+2
  2931  03F7  0825               	movf	(??_conversion_newton+1)^(0+128),w
  2932  03F8  00F3               	movwf	___flge@ff1+1
  2933  03F9  0824               	movf	??_conversion_newton^(0+128),w
  2934  03FA  00F2               	movwf	___flge@ff1
  2935  03FB  0823               	movf	(conversion_newton@Rc+3)^(0+128),w
  2936  03FC  00F9               	movwf	___flge@ff2+3
  2937  03FD  0822               	movf	(conversion_newton@Rc+2)^(0+128),w
  2938  03FE  00F8               	movwf	___flge@ff2+2
  2939  03FF  0821               	movf	(conversion_newton@Rc+1)^(0+128),w
  2940  0400  00F7               	movwf	___flge@ff2+1
  2941  0401  0820               	movf	conversion_newton@Rc^(0+128),w
  2942  0402  00F6               	movwf	___flge@ff2
  2943  0403  160A  118A  2549  120A  118A  	fcall	___flge
  2944  0408  1C03               	btfss	3,0
  2945  0409  2C0B               	goto	u4191
  2946  040A  2C0C               	goto	u4190
  2947  040B                     u4191:
  2948  040B  2C48               	goto	l2747
  2949  040C                     u4190:
  2950  040C                     l2743:
  2951  040C  3025               	movlw	low (((conversion_newton@R_tab+36)-__stringbase)| (0+32768))
  2952  040D  0084               	movwf	4
  2953  040E  160A  118A  2000  120A  118A  	fcall	stringdir
  2954  0413  1683               	bsf	3,5	;RP0=1, select bank1
  2955  0414  1303               	bcf	3,6	;RP1=0, select bank1
  2956  0415  00A4               	movwf	??_conversion_newton^(0+128)
  2957  0416  160A  118A  2000  120A  118A  	fcall	stringdir
  2958  041B  00A5               	movwf	(??_conversion_newton^(0+128)+1)
  2959  041C  160A  118A  2000  120A  118A  	fcall	stringdir
  2960  0421  00A6               	movwf	(??_conversion_newton^(0+128)+2)
  2961  0422  160A  118A  2000  120A  118A  	fcall	stringdir
  2962  0427  00A7               	movwf	(??_conversion_newton^(0+128)+3)
  2963  0428  0827               	movf	(??_conversion_newton+3)^(0+128),w
  2964  0429  00F5               	movwf	___flge@ff1+3
  2965  042A  0826               	movf	(??_conversion_newton+2)^(0+128),w
  2966  042B  00F4               	movwf	___flge@ff1+2
  2967  042C  0825               	movf	(??_conversion_newton+1)^(0+128),w
  2968  042D  00F3               	movwf	___flge@ff1+1
  2969  042E  0824               	movf	??_conversion_newton^(0+128),w
  2970  042F  00F2               	movwf	___flge@ff1
  2971  0430  0823               	movf	(conversion_newton@Rc+3)^(0+128),w
  2972  0431  00F9               	movwf	___flge@ff2+3
  2973  0432  0822               	movf	(conversion_newton@Rc+2)^(0+128),w
  2974  0433  00F8               	movwf	___flge@ff2+2
  2975  0434  0821               	movf	(conversion_newton@Rc+1)^(0+128),w
  2976  0435  00F7               	movwf	___flge@ff2+1
  2977  0436  0820               	movf	conversion_newton@Rc^(0+128),w
  2978  0437  00F6               	movwf	___flge@ff2
  2979  0438  160A  118A  2549  120A  118A  	fcall	___flge
  2980  043D  1803               	btfsc	3,0
  2981  043E  2C40               	goto	u4201
  2982  043F  2C41               	goto	u4200
  2983  0440                     u4201:
  2984  0440  2C48               	goto	l2747
  2985  0441                     u4200:
  2986  0441                     l2745:
  2987                           
  2988                           ;main.c: 207:          {;main.c: 208:          n = 9;
  2989  0441  3009               	movlw	9
  2990  0442  1683               	bsf	3,5	;RP0=1, select bank1
  2991  0443  1303               	bcf	3,6	;RP1=0, select bank1
  2992  0444  00C5               	movwf	conversion_newton@n^(0+128)
  2993  0445  3000               	movlw	0
  2994  0446  00C6               	movwf	(conversion_newton@n^(0+128)+1)
  2995                           
  2996                           ;main.c: 209:          }
  2997  0447  2C84               	goto	l2751
  2998  0448                     l2747:
  2999  0448  3029               	movlw	low (((conversion_newton@R_tab+40)-__stringbase)| (0+32768))
  3000  0449  0084               	movwf	4
  3001  044A  160A  118A  2000  120A  118A  	fcall	stringdir
  3002  044F  1683               	bsf	3,5	;RP0=1, select bank1
  3003  0450  1303               	bcf	3,6	;RP1=0, select bank1
  3004  0451  00A4               	movwf	??_conversion_newton^(0+128)
  3005  0452  160A  118A  2000  120A  118A  	fcall	stringdir
  3006  0457  00A5               	movwf	(??_conversion_newton^(0+128)+1)
  3007  0458  160A  118A  2000  120A  118A  	fcall	stringdir
  3008  045D  00A6               	movwf	(??_conversion_newton^(0+128)+2)
  3009  045E  160A  118A  2000  120A  118A  	fcall	stringdir
  3010  0463  00A7               	movwf	(??_conversion_newton^(0+128)+3)
  3011  0464  0827               	movf	(??_conversion_newton+3)^(0+128),w
  3012  0465  00F5               	movwf	___flge@ff1+3
  3013  0466  0826               	movf	(??_conversion_newton+2)^(0+128),w
  3014  0467  00F4               	movwf	___flge@ff1+2
  3015  0468  0825               	movf	(??_conversion_newton+1)^(0+128),w
  3016  0469  00F3               	movwf	___flge@ff1+1
  3017  046A  0824               	movf	??_conversion_newton^(0+128),w
  3018  046B  00F2               	movwf	___flge@ff1
  3019  046C  0823               	movf	(conversion_newton@Rc+3)^(0+128),w
  3020  046D  00F9               	movwf	___flge@ff2+3
  3021  046E  0822               	movf	(conversion_newton@Rc+2)^(0+128),w
  3022  046F  00F8               	movwf	___flge@ff2+2
  3023  0470  0821               	movf	(conversion_newton@Rc+1)^(0+128),w
  3024  0471  00F7               	movwf	___flge@ff2+1
  3025  0472  0820               	movf	conversion_newton@Rc^(0+128),w
  3026  0473  00F6               	movwf	___flge@ff2
  3027  0474  160A  118A  2549  120A  118A  	fcall	___flge
  3028  0479  1803               	btfsc	3,0
  3029  047A  2C7C               	goto	u4211
  3030  047B  2C7D               	goto	u4210
  3031  047C                     u4211:
  3032  047C  2C84               	goto	l72
  3033  047D                     u4210:
  3034  047D                     l2749:
  3035                           
  3036                           ;main.c: 211:          {;main.c: 212:          n = 10;
  3037  047D  300A               	movlw	10
  3038  047E  1683               	bsf	3,5	;RP0=1, select bank1
  3039  047F  1303               	bcf	3,6	;RP1=0, select bank1
  3040  0480  00C5               	movwf	conversion_newton@n^(0+128)
  3041  0481  3000               	movlw	0
  3042  0482  00C6               	movwf	(conversion_newton@n^(0+128)+1)
  3043  0483  2C84               	goto	l2751
  3044  0484                     l72:
  3045  0484                     l2751:
  3046                           
  3047                           ;main.c: 214:      F = (((F_tab[n]-F_tab[n+1])/(R_tab[n+1]-R_tab[n]))*(Rc-R_tab[n]))+F_t
      +                          ab[n];
  3048  0484  1683               	bsf	3,5	;RP0=1, select bank1
  3049  0485  1303               	bcf	3,6	;RP1=0, select bank1
  3050  0486  0845               	movf	conversion_newton@n^(0+128),w
  3051  0487  00A4               	movwf	??_conversion_newton^(0+128)
  3052  0488  3001               	movlw	1
  3053  0489                     u4225:
  3054  0489  1003               	clrc
  3055  048A  0DA4               	rlf	??_conversion_newton^(0+128),f
  3056  048B  3EFF               	addlw	-1
  3057  048C  1D03               	skipz
  3058  048D  2C89               	goto	u4225
  3059  048E  1003               	clrc
  3060  048F  0D24               	rlf	??_conversion_newton^(0+128),w
  3061  0490  3E01               	addlw	low ((conversion_newton@R_tab-__stringbase)| (0+32768))
  3062  0491  0084               	movwf	4
  3063  0492  160A  118A  2000  120A  118A  	fcall	stringdir
  3064  0497  00A5               	movwf	(??_conversion_newton+1)^(0+128)
  3065  0498  160A  118A  2000  120A  118A  	fcall	stringdir
  3066  049D  00A6               	movwf	((??_conversion_newton+1)^(0+128)+1)
  3067  049E  160A  118A  2000  120A  118A  	fcall	stringdir
  3068  04A3  00A7               	movwf	((??_conversion_newton+1)^(0+128)+2)
  3069  04A4  160A  118A  2000  120A  118A  	fcall	stringdir
  3070  04A9  00A8               	movwf	((??_conversion_newton+1)^(0+128)+3)
  3071  04AA  0828               	movf	(??_conversion_newton+4)^(0+128),w
  3072  04AB  1283               	bcf	3,5	;RP0=0, select bank0
  3073  04AC  1303               	bcf	3,6	;RP1=0, select bank0
  3074  04AD  00B7               	movwf	___flsub@a+3
  3075  04AE  1683               	bsf	3,5	;RP0=1, select bank1
  3076  04AF  1303               	bcf	3,6	;RP1=0, select bank1
  3077  04B0  0827               	movf	(??_conversion_newton+3)^(0+128),w
  3078  04B1  1283               	bcf	3,5	;RP0=0, select bank0
  3079  04B2  1303               	bcf	3,6	;RP1=0, select bank0
  3080  04B3  00B6               	movwf	___flsub@a+2
  3081  04B4  1683               	bsf	3,5	;RP0=1, select bank1
  3082  04B5  1303               	bcf	3,6	;RP1=0, select bank1
  3083  04B6  0826               	movf	(??_conversion_newton+2)^(0+128),w
  3084  04B7  1283               	bcf	3,5	;RP0=0, select bank0
  3085  04B8  1303               	bcf	3,6	;RP1=0, select bank0
  3086  04B9  00B5               	movwf	___flsub@a+1
  3087  04BA  1683               	bsf	3,5	;RP0=1, select bank1
  3088  04BB  1303               	bcf	3,6	;RP1=0, select bank1
  3089  04BC  0825               	movf	(??_conversion_newton+1)^(0+128),w
  3090  04BD  1283               	bcf	3,5	;RP0=0, select bank0
  3091  04BE  1303               	bcf	3,6	;RP1=0, select bank0
  3092  04BF  00B4               	movwf	___flsub@a
  3093  04C0  1683               	bsf	3,5	;RP0=1, select bank1
  3094  04C1  1303               	bcf	3,6	;RP1=0, select bank1
  3095  04C2  0823               	movf	(conversion_newton@Rc+3)^(0+128),w
  3096  04C3  1283               	bcf	3,5	;RP0=0, select bank0
  3097  04C4  1303               	bcf	3,6	;RP1=0, select bank0
  3098  04C5  00BB               	movwf	___flsub@b+3
  3099  04C6  1683               	bsf	3,5	;RP0=1, select bank1
  3100  04C7  1303               	bcf	3,6	;RP1=0, select bank1
  3101  04C8  0822               	movf	(conversion_newton@Rc+2)^(0+128),w
  3102  04C9  1283               	bcf	3,5	;RP0=0, select bank0
  3103  04CA  1303               	bcf	3,6	;RP1=0, select bank0
  3104  04CB  00BA               	movwf	___flsub@b+2
  3105  04CC  1683               	bsf	3,5	;RP0=1, select bank1
  3106  04CD  1303               	bcf	3,6	;RP1=0, select bank1
  3107  04CE  0821               	movf	(conversion_newton@Rc+1)^(0+128),w
  3108  04CF  1283               	bcf	3,5	;RP0=0, select bank0
  3109  04D0  1303               	bcf	3,6	;RP1=0, select bank0
  3110  04D1  00B9               	movwf	___flsub@b+1
  3111  04D2  1683               	bsf	3,5	;RP0=1, select bank1
  3112  04D3  1303               	bcf	3,6	;RP1=0, select bank1
  3113  04D4  0820               	movf	conversion_newton@Rc^(0+128),w
  3114  04D5  1283               	bcf	3,5	;RP0=0, select bank0
  3115  04D6  1303               	bcf	3,6	;RP1=0, select bank0
  3116  04D7  00B8               	movwf	___flsub@b
  3117  04D8  160A  118A  21D9  120A  118A  	fcall	___flsub
  3118  04DD  1283               	bcf	3,5	;RP0=0, select bank0
  3119  04DE  1303               	bcf	3,6	;RP1=0, select bank0
  3120  04DF  0837               	movf	?___flsub+3,w
  3121  04E0  00D9               	movwf	___flmul@b+3
  3122  04E1  0836               	movf	?___flsub+2,w
  3123  04E2  00D8               	movwf	___flmul@b+2
  3124  04E3  0835               	movf	?___flsub+1,w
  3125  04E4  00D7               	movwf	___flmul@b+1
  3126  04E5  0834               	movf	?___flsub,w
  3127  04E6  00D6               	movwf	___flmul@b
  3128  04E7  1683               	bsf	3,5	;RP0=1, select bank1
  3129  04E8  1303               	bcf	3,6	;RP1=0, select bank1
  3130  04E9  0845               	movf	conversion_newton@n^(0+128),w
  3131  04EA  00A9               	movwf	(??_conversion_newton+5)^(0+128)
  3132  04EB  3001               	movlw	1
  3133  04EC                     u4235:
  3134  04EC  1003               	clrc
  3135  04ED  0DA9               	rlf	(??_conversion_newton+5)^(0+128),f
  3136  04EE  3EFF               	addlw	-1
  3137  04EF  1D03               	skipz
  3138  04F0  2CEC               	goto	u4235
  3139  04F1  1003               	clrc
  3140  04F2  0D29               	rlf	(??_conversion_newton+5)^(0+128),w
  3141  04F3  3E01               	addlw	low ((conversion_newton@R_tab-__stringbase)| (0+32768))
  3142  04F4  0084               	movwf	4
  3143  04F5  160A  118A  2000  120A  118A  	fcall	stringdir
  3144  04FA  00AA               	movwf	(??_conversion_newton+6)^(0+128)
  3145  04FB  160A  118A  2000  120A  118A  	fcall	stringdir
  3146  0500  00AB               	movwf	((??_conversion_newton+6)^(0+128)+1)
  3147  0501  160A  118A  2000  120A  118A  	fcall	stringdir
  3148  0506  00AC               	movwf	((??_conversion_newton+6)^(0+128)+2)
  3149  0507  160A  118A  2000  120A  118A  	fcall	stringdir
  3150  050C  00AD               	movwf	((??_conversion_newton+6)^(0+128)+3)
  3151  050D  082D               	movf	(??_conversion_newton+9)^(0+128),w
  3152  050E  1283               	bcf	3,5	;RP0=0, select bank0
  3153  050F  1303               	bcf	3,6	;RP1=0, select bank0
  3154  0510  00B7               	movwf	___flsub@a+3
  3155  0511  1683               	bsf	3,5	;RP0=1, select bank1
  3156  0512  1303               	bcf	3,6	;RP1=0, select bank1
  3157  0513  082C               	movf	(??_conversion_newton+8)^(0+128),w
  3158  0514  1283               	bcf	3,5	;RP0=0, select bank0
  3159  0515  1303               	bcf	3,6	;RP1=0, select bank0
  3160  0516  00B6               	movwf	___flsub@a+2
  3161  0517  1683               	bsf	3,5	;RP0=1, select bank1
  3162  0518  1303               	bcf	3,6	;RP1=0, select bank1
  3163  0519  082B               	movf	(??_conversion_newton+7)^(0+128),w
  3164  051A  1283               	bcf	3,5	;RP0=0, select bank0
  3165  051B  1303               	bcf	3,6	;RP1=0, select bank0
  3166  051C  00B5               	movwf	___flsub@a+1
  3167  051D  1683               	bsf	3,5	;RP0=1, select bank1
  3168  051E  1303               	bcf	3,6	;RP1=0, select bank1
  3169  051F  082A               	movf	(??_conversion_newton+6)^(0+128),w
  3170  0520  1283               	bcf	3,5	;RP0=0, select bank0
  3171  0521  1303               	bcf	3,6	;RP1=0, select bank0
  3172  0522  00B4               	movwf	___flsub@a
  3173  0523  1683               	bsf	3,5	;RP0=1, select bank1
  3174  0524  1303               	bcf	3,6	;RP1=0, select bank1
  3175  0525  0845               	movf	conversion_newton@n^(0+128),w
  3176  0526  00AE               	movwf	(??_conversion_newton+10)^(0+128)
  3177  0527  3001               	movlw	1
  3178  0528                     u4245:
  3179  0528  1003               	clrc
  3180  0529  0DAE               	rlf	(??_conversion_newton+10)^(0+128),f
  3181  052A  3EFF               	addlw	-1
  3182  052B  1D03               	skipz
  3183  052C  2D28               	goto	u4245
  3184  052D  1003               	clrc
  3185  052E  0D2E               	rlf	(??_conversion_newton+10)^(0+128),w
  3186  052F  3E05               	addlw	low (((conversion_newton@R_tab-__stringbase)| (0+32768)+4))
  3187  0530  0084               	movwf	4
  3188  0531  160A  118A  2000  120A  118A  	fcall	stringdir
  3189  0536  00AF               	movwf	(??_conversion_newton+11)^(0+128)
  3190  0537  160A  118A  2000  120A  118A  	fcall	stringdir
  3191  053C  00B0               	movwf	((??_conversion_newton+11)^(0+128)+1)
  3192  053D  160A  118A  2000  120A  118A  	fcall	stringdir
  3193  0542  00B1               	movwf	((??_conversion_newton+11)^(0+128)+2)
  3194  0543  160A  118A  2000  120A  118A  	fcall	stringdir
  3195  0548  00B2               	movwf	((??_conversion_newton+11)^(0+128)+3)
  3196  0549  0832               	movf	(??_conversion_newton+14)^(0+128),w
  3197  054A  1283               	bcf	3,5	;RP0=0, select bank0
  3198  054B  1303               	bcf	3,6	;RP1=0, select bank0
  3199  054C  00BB               	movwf	___flsub@b+3
  3200  054D  1683               	bsf	3,5	;RP0=1, select bank1
  3201  054E  1303               	bcf	3,6	;RP1=0, select bank1
  3202  054F  0831               	movf	(??_conversion_newton+13)^(0+128),w
  3203  0550  1283               	bcf	3,5	;RP0=0, select bank0
  3204  0551  1303               	bcf	3,6	;RP1=0, select bank0
  3205  0552  00BA               	movwf	___flsub@b+2
  3206  0553  1683               	bsf	3,5	;RP0=1, select bank1
  3207  0554  1303               	bcf	3,6	;RP1=0, select bank1
  3208  0555  0830               	movf	(??_conversion_newton+12)^(0+128),w
  3209  0556  1283               	bcf	3,5	;RP0=0, select bank0
  3210  0557  1303               	bcf	3,6	;RP1=0, select bank0
  3211  0558  00B9               	movwf	___flsub@b+1
  3212  0559  1683               	bsf	3,5	;RP0=1, select bank1
  3213  055A  1303               	bcf	3,6	;RP1=0, select bank1
  3214  055B  082F               	movf	(??_conversion_newton+11)^(0+128),w
  3215  055C  1283               	bcf	3,5	;RP0=0, select bank0
  3216  055D  1303               	bcf	3,6	;RP1=0, select bank0
  3217  055E  00B8               	movwf	___flsub@b
  3218  055F  160A  118A  21D9  120A  118A  	fcall	___flsub
  3219  0564  1283               	bcf	3,5	;RP0=0, select bank0
  3220  0565  1303               	bcf	3,6	;RP1=0, select bank0
  3221  0566  0837               	movf	?___flsub+3,w
  3222  0567  00BF               	movwf	___fldiv@a+3
  3223  0568  0836               	movf	?___flsub+2,w
  3224  0569  00BE               	movwf	___fldiv@a+2
  3225  056A  0835               	movf	?___flsub+1,w
  3226  056B  00BD               	movwf	___fldiv@a+1
  3227  056C  0834               	movf	?___flsub,w
  3228  056D  00BC               	movwf	___fldiv@a
  3229  056E  1683               	bsf	3,5	;RP0=1, select bank1
  3230  056F  1303               	bcf	3,6	;RP1=0, select bank1
  3231  0570  0845               	movf	conversion_newton@n^(0+128),w
  3232  0571  00B3               	movwf	(??_conversion_newton+15)^(0+128)
  3233  0572  3001               	movlw	1
  3234  0573                     u4255:
  3235  0573  1003               	clrc
  3236  0574  0DB3               	rlf	(??_conversion_newton+15)^(0+128),f
  3237  0575  3EFF               	addlw	-1
  3238  0576  1D03               	skipz
  3239  0577  2D73               	goto	u4255
  3240  0578  1003               	clrc
  3241  0579  0D33               	rlf	(??_conversion_newton+15)^(0+128),w
  3242  057A  3E55               	addlw	low (((conversion_newton@F_tab-__stringbase)| (0+32768)+4))
  3243  057B  0084               	movwf	4
  3244  057C  160A  118A  2000  120A  118A  	fcall	stringdir
  3245  0581  00B4               	movwf	(??_conversion_newton+16)^(0+128)
  3246  0582  160A  118A  2000  120A  118A  	fcall	stringdir
  3247  0587  00B5               	movwf	((??_conversion_newton+16)^(0+128)+1)
  3248  0588  160A  118A  2000  120A  118A  	fcall	stringdir
  3249  058D  00B6               	movwf	((??_conversion_newton+16)^(0+128)+2)
  3250  058E  160A  118A  2000  120A  118A  	fcall	stringdir
  3251  0593  00B7               	movwf	((??_conversion_newton+16)^(0+128)+3)
  3252  0594  0837               	movf	(??_conversion_newton+19)^(0+128),w
  3253  0595  1283               	bcf	3,5	;RP0=0, select bank0
  3254  0596  1303               	bcf	3,6	;RP1=0, select bank0
  3255  0597  00B7               	movwf	___flsub@a+3
  3256  0598  1683               	bsf	3,5	;RP0=1, select bank1
  3257  0599  1303               	bcf	3,6	;RP1=0, select bank1
  3258  059A  0836               	movf	(??_conversion_newton+18)^(0+128),w
  3259  059B  1283               	bcf	3,5	;RP0=0, select bank0
  3260  059C  1303               	bcf	3,6	;RP1=0, select bank0
  3261  059D  00B6               	movwf	___flsub@a+2
  3262  059E  1683               	bsf	3,5	;RP0=1, select bank1
  3263  059F  1303               	bcf	3,6	;RP1=0, select bank1
  3264  05A0  0835               	movf	(??_conversion_newton+17)^(0+128),w
  3265  05A1  1283               	bcf	3,5	;RP0=0, select bank0
  3266  05A2  1303               	bcf	3,6	;RP1=0, select bank0
  3267  05A3  00B5               	movwf	___flsub@a+1
  3268  05A4  1683               	bsf	3,5	;RP0=1, select bank1
  3269  05A5  1303               	bcf	3,6	;RP1=0, select bank1
  3270  05A6  0834               	movf	(??_conversion_newton+16)^(0+128),w
  3271  05A7  1283               	bcf	3,5	;RP0=0, select bank0
  3272  05A8  1303               	bcf	3,6	;RP1=0, select bank0
  3273  05A9  00B4               	movwf	___flsub@a
  3274  05AA  1683               	bsf	3,5	;RP0=1, select bank1
  3275  05AB  1303               	bcf	3,6	;RP1=0, select bank1
  3276  05AC  0845               	movf	conversion_newton@n^(0+128),w
  3277  05AD  00B8               	movwf	(??_conversion_newton+20)^(0+128)
  3278  05AE  3001               	movlw	1
  3279  05AF                     u4265:
  3280  05AF  1003               	clrc
  3281  05B0  0DB8               	rlf	(??_conversion_newton+20)^(0+128),f
  3282  05B1  3EFF               	addlw	-1
  3283  05B2  1D03               	skipz
  3284  05B3  2DAF               	goto	u4265
  3285  05B4  1003               	clrc
  3286  05B5  0D38               	rlf	(??_conversion_newton+20)^(0+128),w
  3287  05B6  3E51               	addlw	low ((conversion_newton@F_tab-__stringbase)| (0+32768))
  3288  05B7  0084               	movwf	4
  3289  05B8  160A  118A  2000  120A  118A  	fcall	stringdir
  3290  05BD  00B9               	movwf	(??_conversion_newton+21)^(0+128)
  3291  05BE  160A  118A  2000  120A  118A  	fcall	stringdir
  3292  05C3  00BA               	movwf	((??_conversion_newton+21)^(0+128)+1)
  3293  05C4  160A  118A  2000  120A  118A  	fcall	stringdir
  3294  05C9  00BB               	movwf	((??_conversion_newton+21)^(0+128)+2)
  3295  05CA  160A  118A  2000  120A  118A  	fcall	stringdir
  3296  05CF  00BC               	movwf	((??_conversion_newton+21)^(0+128)+3)
  3297  05D0  083C               	movf	(??_conversion_newton+24)^(0+128),w
  3298  05D1  1283               	bcf	3,5	;RP0=0, select bank0
  3299  05D2  1303               	bcf	3,6	;RP1=0, select bank0
  3300  05D3  00BB               	movwf	___flsub@b+3
  3301  05D4  1683               	bsf	3,5	;RP0=1, select bank1
  3302  05D5  1303               	bcf	3,6	;RP1=0, select bank1
  3303  05D6  083B               	movf	(??_conversion_newton+23)^(0+128),w
  3304  05D7  1283               	bcf	3,5	;RP0=0, select bank0
  3305  05D8  1303               	bcf	3,6	;RP1=0, select bank0
  3306  05D9  00BA               	movwf	___flsub@b+2
  3307  05DA  1683               	bsf	3,5	;RP0=1, select bank1
  3308  05DB  1303               	bcf	3,6	;RP1=0, select bank1
  3309  05DC  083A               	movf	(??_conversion_newton+22)^(0+128),w
  3310  05DD  1283               	bcf	3,5	;RP0=0, select bank0
  3311  05DE  1303               	bcf	3,6	;RP1=0, select bank0
  3312  05DF  00B9               	movwf	___flsub@b+1
  3313  05E0  1683               	bsf	3,5	;RP0=1, select bank1
  3314  05E1  1303               	bcf	3,6	;RP1=0, select bank1
  3315  05E2  0839               	movf	(??_conversion_newton+21)^(0+128),w
  3316  05E3  1283               	bcf	3,5	;RP0=0, select bank0
  3317  05E4  1303               	bcf	3,6	;RP1=0, select bank0
  3318  05E5  00B8               	movwf	___flsub@b
  3319  05E6  160A  118A  21D9  120A  118A  	fcall	___flsub
  3320  05EB  1283               	bcf	3,5	;RP0=0, select bank0
  3321  05EC  1303               	bcf	3,6	;RP1=0, select bank0
  3322  05ED  0837               	movf	?___flsub+3,w
  3323  05EE  00C3               	movwf	___fldiv@b+3
  3324  05EF  0836               	movf	?___flsub+2,w
  3325  05F0  00C2               	movwf	___fldiv@b+2
  3326  05F1  0835               	movf	?___flsub+1,w
  3327  05F2  00C1               	movwf	___fldiv@b+1
  3328  05F3  0834               	movf	?___flsub,w
  3329  05F4  00C0               	movwf	___fldiv@b
  3330  05F5  120A  158A  203A  120A  118A  	fcall	___fldiv
  3331  05FA  1283               	bcf	3,5	;RP0=0, select bank0
  3332  05FB  1303               	bcf	3,6	;RP1=0, select bank0
  3333  05FC  083F               	movf	?___fldiv+3,w
  3334  05FD  00DD               	movwf	___flmul@a+3
  3335  05FE  083E               	movf	?___fldiv+2,w
  3336  05FF  00DC               	movwf	___flmul@a+2
  3337  0600  083D               	movf	?___fldiv+1,w
  3338  0601  00DB               	movwf	___flmul@a+1
  3339  0602  083C               	movf	?___fldiv,w
  3340  0603  00DA               	movwf	___flmul@a
  3341  0604  120A  158A  249F  120A  118A  	fcall	___flmul
  3342  0609  1283               	bcf	3,5	;RP0=0, select bank0
  3343  060A  1303               	bcf	3,6	;RP1=0, select bank0
  3344  060B  0859               	movf	?___flmul+3,w
  3345  060C  1683               	bsf	3,5	;RP0=1, select bank1
  3346  060D  1303               	bcf	3,6	;RP1=0, select bank1
  3347  060E  00C0               	movwf	(_conversion_newton$778+3)^(0+128)
  3348  060F  1283               	bcf	3,5	;RP0=0, select bank0
  3349  0610  1303               	bcf	3,6	;RP1=0, select bank0
  3350  0611  0858               	movf	?___flmul+2,w
  3351  0612  1683               	bsf	3,5	;RP0=1, select bank1
  3352  0613  1303               	bcf	3,6	;RP1=0, select bank1
  3353  0614  00BF               	movwf	(_conversion_newton$778+2)^(0+128)
  3354  0615  1283               	bcf	3,5	;RP0=0, select bank0
  3355  0616  1303               	bcf	3,6	;RP1=0, select bank0
  3356  0617  0857               	movf	?___flmul+1,w
  3357  0618  1683               	bsf	3,5	;RP0=1, select bank1
  3358  0619  1303               	bcf	3,6	;RP1=0, select bank1
  3359  061A  00BE               	movwf	(_conversion_newton$778+1)^(0+128)
  3360  061B  1283               	bcf	3,5	;RP0=0, select bank0
  3361  061C  1303               	bcf	3,6	;RP1=0, select bank0
  3362  061D  0856               	movf	?___flmul,w
  3363  061E  1683               	bsf	3,5	;RP0=1, select bank1
  3364  061F  1303               	bcf	3,6	;RP1=0, select bank1
  3365  0620  00BD               	movwf	_conversion_newton$778^(0+128)
  3366  0621                     l2753:
  3367                           
  3368                           ;main.c: 214:      F = (((F_tab[n]-F_tab[n+1])/(R_tab[n+1]-R_tab[n]))*(Rc-R_tab[n]))+F_t
      +                          ab[n];
  3369  0621  0845               	movf	conversion_newton@n^(0+128),w
  3370  0622  00A4               	movwf	??_conversion_newton^(0+128)
  3371  0623  3001               	movlw	1
  3372  0624                     u4275:
  3373  0624  1003               	clrc
  3374  0625  0DA4               	rlf	??_conversion_newton^(0+128),f
  3375  0626  3EFF               	addlw	-1
  3376  0627  1D03               	skipz
  3377  0628  2E24               	goto	u4275
  3378  0629  1003               	clrc
  3379  062A  0D24               	rlf	??_conversion_newton^(0+128),w
  3380  062B  3E51               	addlw	low ((conversion_newton@F_tab-__stringbase)| (0+32768))
  3381  062C  0084               	movwf	4
  3382  062D  160A  118A  2000  120A  118A  	fcall	stringdir
  3383  0632  00A5               	movwf	(??_conversion_newton+1)^(0+128)
  3384  0633  160A  118A  2000  120A  118A  	fcall	stringdir
  3385  0638  00A6               	movwf	((??_conversion_newton+1)^(0+128)+1)
  3386  0639  160A  118A  2000  120A  118A  	fcall	stringdir
  3387  063E  00A7               	movwf	((??_conversion_newton+1)^(0+128)+2)
  3388  063F  160A  118A  2000  120A  118A  	fcall	stringdir
  3389  0644  00A8               	movwf	((??_conversion_newton+1)^(0+128)+3)
  3390  0645  0828               	movf	(??_conversion_newton+4)^(0+128),w
  3391  0646  1283               	bcf	3,5	;RP0=0, select bank0
  3392  0647  1303               	bcf	3,6	;RP1=0, select bank0
  3393  0648  00A3               	movwf	___fladd@b+3
  3394  0649  1683               	bsf	3,5	;RP0=1, select bank1
  3395  064A  1303               	bcf	3,6	;RP1=0, select bank1
  3396  064B  0827               	movf	(??_conversion_newton+3)^(0+128),w
  3397  064C  1283               	bcf	3,5	;RP0=0, select bank0
  3398  064D  1303               	bcf	3,6	;RP1=0, select bank0
  3399  064E  00A2               	movwf	___fladd@b+2
  3400  064F  1683               	bsf	3,5	;RP0=1, select bank1
  3401  0650  1303               	bcf	3,6	;RP1=0, select bank1
  3402  0651  0826               	movf	(??_conversion_newton+2)^(0+128),w
  3403  0652  1283               	bcf	3,5	;RP0=0, select bank0
  3404  0653  1303               	bcf	3,6	;RP1=0, select bank0
  3405  0654  00A1               	movwf	___fladd@b+1
  3406  0655  1683               	bsf	3,5	;RP0=1, select bank1
  3407  0656  1303               	bcf	3,6	;RP1=0, select bank1
  3408  0657  0825               	movf	(??_conversion_newton+1)^(0+128),w
  3409  0658  1283               	bcf	3,5	;RP0=0, select bank0
  3410  0659  1303               	bcf	3,6	;RP1=0, select bank0
  3411  065A  00A0               	movwf	___fladd@b
  3412  065B  1683               	bsf	3,5	;RP0=1, select bank1
  3413  065C  1303               	bcf	3,6	;RP1=0, select bank1
  3414  065D  0840               	movf	(_conversion_newton$778+3)^(0+128),w
  3415  065E  1283               	bcf	3,5	;RP0=0, select bank0
  3416  065F  1303               	bcf	3,6	;RP1=0, select bank0
  3417  0660  00A7               	movwf	___fladd@a+3
  3418  0661  1683               	bsf	3,5	;RP0=1, select bank1
  3419  0662  1303               	bcf	3,6	;RP1=0, select bank1
  3420  0663  083F               	movf	(_conversion_newton$778+2)^(0+128),w
  3421  0664  1283               	bcf	3,5	;RP0=0, select bank0
  3422  0665  1303               	bcf	3,6	;RP1=0, select bank0
  3423  0666  00A6               	movwf	___fladd@a+2
  3424  0667  1683               	bsf	3,5	;RP0=1, select bank1
  3425  0668  1303               	bcf	3,6	;RP1=0, select bank1
  3426  0669  083E               	movf	(_conversion_newton$778+1)^(0+128),w
  3427  066A  1283               	bcf	3,5	;RP0=0, select bank0
  3428  066B  1303               	bcf	3,6	;RP1=0, select bank0
  3429  066C  00A5               	movwf	___fladd@a+1
  3430  066D  1683               	bsf	3,5	;RP0=1, select bank1
  3431  066E  1303               	bcf	3,6	;RP1=0, select bank1
  3432  066F  083D               	movf	_conversion_newton$778^(0+128),w
  3433  0670  1283               	bcf	3,5	;RP0=0, select bank0
  3434  0671  1303               	bcf	3,6	;RP1=0, select bank0
  3435  0672  00A4               	movwf	___fladd@a
  3436  0673  120A  158A  2217  120A  118A  	fcall	___fladd
  3437  0678  1283               	bcf	3,5	;RP0=0, select bank0
  3438  0679  1303               	bcf	3,6	;RP1=0, select bank0
  3439  067A  0823               	movf	?___fladd+3,w
  3440  067B  1683               	bsf	3,5	;RP0=1, select bank1
  3441  067C  1303               	bcf	3,6	;RP1=0, select bank1
  3442  067D  00C4               	movwf	(conversion_newton@F+3)^(0+128)
  3443  067E  1283               	bcf	3,5	;RP0=0, select bank0
  3444  067F  1303               	bcf	3,6	;RP1=0, select bank0
  3445  0680  0822               	movf	?___fladd+2,w
  3446  0681  1683               	bsf	3,5	;RP0=1, select bank1
  3447  0682  1303               	bcf	3,6	;RP1=0, select bank1
  3448  0683  00C3               	movwf	(conversion_newton@F+2)^(0+128)
  3449  0684  1283               	bcf	3,5	;RP0=0, select bank0
  3450  0685  1303               	bcf	3,6	;RP1=0, select bank0
  3451  0686  0821               	movf	?___fladd+1,w
  3452  0687  1683               	bsf	3,5	;RP0=1, select bank1
  3453  0688  1303               	bcf	3,6	;RP1=0, select bank1
  3454  0689  00C2               	movwf	(conversion_newton@F+1)^(0+128)
  3455  068A  1283               	bcf	3,5	;RP0=0, select bank0
  3456  068B  1303               	bcf	3,6	;RP1=0, select bank0
  3457  068C  0820               	movf	?___fladd,w
  3458  068D  1683               	bsf	3,5	;RP0=1, select bank1
  3459  068E  1303               	bcf	3,6	;RP1=0, select bank1
  3460  068F  00C1               	movwf	conversion_newton@F^(0+128)
  3461  0690                     l2755:
  3462                           
  3463                           ;main.c: 217:      if (Rc <= R_tab[10])
  3464  0690  3029               	movlw	low (((conversion_newton@R_tab+40)-__stringbase)| (0+32768))
  3465  0691  0084               	movwf	4
  3466  0692  160A  118A  2000  120A  118A  	fcall	stringdir
  3467  0697  00A4               	movwf	??_conversion_newton^(0+128)
  3468  0698  160A  118A  2000  120A  118A  	fcall	stringdir
  3469  069D  00A5               	movwf	(??_conversion_newton^(0+128)+1)
  3470  069E  160A  118A  2000  120A  118A  	fcall	stringdir
  3471  06A3  00A6               	movwf	(??_conversion_newton^(0+128)+2)
  3472  06A4  160A  118A  2000  120A  118A  	fcall	stringdir
  3473  06A9  00A7               	movwf	(??_conversion_newton^(0+128)+3)
  3474  06AA  0827               	movf	(??_conversion_newton+3)^(0+128),w
  3475  06AB  00F5               	movwf	___flge@ff1+3
  3476  06AC  0826               	movf	(??_conversion_newton+2)^(0+128),w
  3477  06AD  00F4               	movwf	___flge@ff1+2
  3478  06AE  0825               	movf	(??_conversion_newton+1)^(0+128),w
  3479  06AF  00F3               	movwf	___flge@ff1+1
  3480  06B0  0824               	movf	??_conversion_newton^(0+128),w
  3481  06B1  00F2               	movwf	___flge@ff1
  3482  06B2  0823               	movf	(conversion_newton@Rc+3)^(0+128),w
  3483  06B3  00F9               	movwf	___flge@ff2+3
  3484  06B4  0822               	movf	(conversion_newton@Rc+2)^(0+128),w
  3485  06B5  00F8               	movwf	___flge@ff2+2
  3486  06B6  0821               	movf	(conversion_newton@Rc+1)^(0+128),w
  3487  06B7  00F7               	movwf	___flge@ff2+1
  3488  06B8  0820               	movf	conversion_newton@Rc^(0+128),w
  3489  06B9  00F6               	movwf	___flge@ff2
  3490  06BA  160A  118A  2549  120A  118A  	fcall	___flge
  3491  06BF  1C03               	btfss	3,0
  3492  06C0  2EC2               	goto	u4281
  3493  06C1  2EC3               	goto	u4280
  3494  06C2                     u4281:
  3495  06C2  2ECD               	goto	l2759
  3496  06C3                     u4280:
  3497  06C3                     l2757:
  3498                           
  3499                           ;main.c: 218:          {;main.c: 219:          F = 70;
  3500  06C3  3042               	movlw	66
  3501  06C4  1683               	bsf	3,5	;RP0=1, select bank1
  3502  06C5  1303               	bcf	3,6	;RP1=0, select bank1
  3503  06C6  00C4               	movwf	(conversion_newton@F+3)^(0+128)
  3504  06C7  308C               	movlw	140
  3505  06C8  00C3               	movwf	(conversion_newton@F+2)^(0+128)
  3506  06C9  3000               	movlw	0
  3507  06CA  00C2               	movwf	(conversion_newton@F+1)^(0+128)
  3508  06CB  3000               	movlw	0
  3509  06CC  00C1               	movwf	conversion_newton@F^(0+128)
  3510  06CD                     l2759:
  3511                           
  3512                           ;main.c: 221:      if (Rc > R_tab[10])
  3513  06CD  3029               	movlw	low (((conversion_newton@R_tab+40)-__stringbase)| (0+32768))
  3514  06CE  0084               	movwf	4
  3515  06CF  160A  118A  2000  120A  118A  	fcall	stringdir
  3516  06D4  1683               	bsf	3,5	;RP0=1, select bank1
  3517  06D5  1303               	bcf	3,6	;RP1=0, select bank1
  3518  06D6  00A4               	movwf	??_conversion_newton^(0+128)
  3519  06D7  160A  118A  2000  120A  118A  	fcall	stringdir
  3520  06DC  00A5               	movwf	(??_conversion_newton^(0+128)+1)
  3521  06DD  160A  118A  2000  120A  118A  	fcall	stringdir
  3522  06E2  00A6               	movwf	(??_conversion_newton^(0+128)+2)
  3523  06E3  160A  118A  2000  120A  118A  	fcall	stringdir
  3524  06E8  00A7               	movwf	(??_conversion_newton^(0+128)+3)
  3525  06E9  0827               	movf	(??_conversion_newton+3)^(0+128),w
  3526  06EA  00F5               	movwf	___flge@ff1+3
  3527  06EB  0826               	movf	(??_conversion_newton+2)^(0+128),w
  3528  06EC  00F4               	movwf	___flge@ff1+2
  3529  06ED  0825               	movf	(??_conversion_newton+1)^(0+128),w
  3530  06EE  00F3               	movwf	___flge@ff1+1
  3531  06EF  0824               	movf	??_conversion_newton^(0+128),w
  3532  06F0  00F2               	movwf	___flge@ff1
  3533  06F1  0823               	movf	(conversion_newton@Rc+3)^(0+128),w
  3534  06F2  00F9               	movwf	___flge@ff2+3
  3535  06F3  0822               	movf	(conversion_newton@Rc+2)^(0+128),w
  3536  06F4  00F8               	movwf	___flge@ff2+2
  3537  06F5  0821               	movf	(conversion_newton@Rc+1)^(0+128),w
  3538  06F6  00F7               	movwf	___flge@ff2+1
  3539  06F7  0820               	movf	conversion_newton@Rc^(0+128),w
  3540  06F8  00F6               	movwf	___flge@ff2
  3541  06F9  160A  118A  2549  120A  118A  	fcall	___flge
  3542  06FE  1803               	btfsc	3,0
  3543  06FF  2F01               	goto	u4291
  3544  0700  2F02               	goto	u4290
  3545  0701                     u4291:
  3546  0701  2F0C               	goto	l79
  3547  0702                     u4290:
  3548  0702                     l2761:
  3549                           
  3550                           ;main.c: 222:          {;main.c: 223:          F = 0.12;
  3551  0702  303D               	movlw	61
  3552  0703  1683               	bsf	3,5	;RP0=1, select bank1
  3553  0704  1303               	bcf	3,6	;RP1=0, select bank1
  3554  0705  00C4               	movwf	(conversion_newton@F+3)^(0+128)
  3555  0706  30F5               	movlw	245
  3556  0707  00C3               	movwf	(conversion_newton@F+2)^(0+128)
  3557  0708  30C2               	movlw	194
  3558  0709  00C2               	movwf	(conversion_newton@F+1)^(0+128)
  3559  070A  308F               	movlw	143
  3560  070B  00C1               	movwf	conversion_newton@F^(0+128)
  3561  070C                     l79:	
  3562                           ;main.c: 224:          }
  3563                           
  3564                           
  3565                           ;main.c: 226:      return F;
  3566  070C  1683               	bsf	3,5	;RP0=1, select bank1
  3567  070D  1303               	bcf	3,6	;RP1=0, select bank1
  3568  070E  0844               	movf	(conversion_newton@F+3)^(0+128),w
  3569  070F  00A3               	movwf	(?_conversion_newton+3)^(0+128)
  3570  0710  0843               	movf	(conversion_newton@F+2)^(0+128),w
  3571  0711  00A2               	movwf	(?_conversion_newton+2)^(0+128)
  3572  0712  0842               	movf	(conversion_newton@F+1)^(0+128),w
  3573  0713  00A1               	movwf	(?_conversion_newton+1)^(0+128)
  3574  0714  0841               	movf	conversion_newton@F^(0+128),w
  3575  0715  00A0               	movwf	?_conversion_newton^(0+128)
  3576  0716                     l80:
  3577  0716  0008               	return
  3578  0717                     __end_of_conversion_newton:
  3579                           
  3580                           	psect	text6
  3581  1549                     __ptext6:	
  3582 ;; *************** function ___flge *****************
  3583 ;; Defined at:
  3584 ;;		line 4 in file "C:\Program Files\Microchip\xc8\v2.20\pic\sources\c90\common\flge.c"
  3585 ;; Parameters:    Size  Location     Type
  3586 ;;  ff1             4    2[COMMON] float 
  3587 ;;  ff2             4    6[COMMON] float 
  3588 ;; Auto vars:     Size  Location     Type
  3589 ;;		None
  3590 ;; Return value:  Size  Location     Type
  3591 ;;		None               void
  3592 ;; Registers used:
  3593 ;;		wreg, status,2, status,0
  3594 ;; Tracked objects:
  3595 ;;		On entry : 0/0
  3596 ;;		On exit  : 0/0
  3597 ;;		Unchanged: 0/0
  3598 ;; Data sizes:     COMMON   BANK0   BANK1   BANK3   BANK2
  3599 ;;      Params:         8       0       0       0       0
  3600 ;;      Locals:         0       0       0       0       0
  3601 ;;      Temps:          0       4       0       0       0
  3602 ;;      Totals:         8       4       0       0       0
  3603 ;;Total ram usage:       12 bytes
  3604 ;; Hardware stack levels used:    1
  3605 ;; Hardware stack levels required when called:    1
  3606 ;; This function calls:
  3607 ;;		Nothing
  3608 ;; This function is called by:
  3609 ;;		_conversion_newton
  3610 ;; This function uses a non-reentrant model
  3611 ;;
  3612                           
  3613                           
  3614                           ;psect for function ___flge
  3615  1549                     ___flge:
  3616  1549                     l2119:	
  3617                           ;incstack = 0
  3618                           ; Regs used in ___flge: [wreg+status,2+status,0]
  3619                           
  3620  1549  3000               	movlw	0
  3621  154A  0572               	andwf	___flge@ff1,w
  3622  154B  1283               	bcf	3,5	;RP0=0, select bank0
  3623  154C  1303               	bcf	3,6	;RP1=0, select bank0
  3624  154D  00A0               	movwf	??___flge
  3625  154E  3000               	movlw	0
  3626  154F  0573               	andwf	___flge@ff1+1,w
  3627  1550  00A1               	movwf	??___flge+1
  3628  1551  3080               	movlw	128
  3629  1552  0574               	andwf	___flge@ff1+2,w
  3630  1553  00A2               	movwf	??___flge+2
  3631  1554  307F               	movlw	127
  3632  1555  0575               	andwf	___flge@ff1+3,w
  3633  1556  00A3               	movwf	??___flge+3
  3634  1557  0823               	movf	??___flge+3,w
  3635  1558  0422               	iorwf	??___flge+2,w
  3636  1559  0421               	iorwf	??___flge+1,w
  3637  155A  0420               	iorwf	??___flge,w
  3638  155B  1D03               	skipz
  3639  155C  2D5E               	goto	u2881
  3640  155D  2D5F               	goto	u2880
  3641  155E                     u2881:
  3642  155E  2D67               	goto	l397
  3643  155F                     u2880:
  3644  155F                     l2121:
  3645  155F  3000               	movlw	0
  3646  1560  00F5               	movwf	___flge@ff1+3
  3647  1561  3000               	movlw	0
  3648  1562  00F4               	movwf	___flge@ff1+2
  3649  1563  3000               	movlw	0
  3650  1564  00F3               	movwf	___flge@ff1+1
  3651  1565  3000               	movlw	0
  3652  1566  00F2               	movwf	___flge@ff1
  3653  1567                     l397:
  3654  1567  3000               	movlw	0
  3655  1568  0576               	andwf	___flge@ff2,w
  3656  1569  00A0               	movwf	??___flge
  3657  156A  3000               	movlw	0
  3658  156B  0577               	andwf	___flge@ff2+1,w
  3659  156C  00A1               	movwf	??___flge+1
  3660  156D  3080               	movlw	128
  3661  156E  0578               	andwf	___flge@ff2+2,w
  3662  156F  00A2               	movwf	??___flge+2
  3663  1570  307F               	movlw	127
  3664  1571  0579               	andwf	___flge@ff2+3,w
  3665  1572  00A3               	movwf	??___flge+3
  3666  1573  0823               	movf	??___flge+3,w
  3667  1574  0422               	iorwf	??___flge+2,w
  3668  1575  0421               	iorwf	??___flge+1,w
  3669  1576  0420               	iorwf	??___flge,w
  3670  1577  1D03               	skipz
  3671  1578  2D7A               	goto	u2891
  3672  1579  2D7B               	goto	u2890
  3673  157A                     u2891:
  3674  157A  2D83               	goto	l2125
  3675  157B                     u2890:
  3676  157B                     l2123:
  3677  157B  3000               	movlw	0
  3678  157C  00F9               	movwf	___flge@ff2+3
  3679  157D  3000               	movlw	0
  3680  157E  00F8               	movwf	___flge@ff2+2
  3681  157F  3000               	movlw	0
  3682  1580  00F7               	movwf	___flge@ff2+1
  3683  1581  3000               	movlw	0
  3684  1582  00F6               	movwf	___flge@ff2
  3685  1583                     l2125:
  3686  1583  1FF5               	btfss	___flge@ff1+3,7
  3687  1584  2D86               	goto	u2901
  3688  1585  2D87               	goto	u2900
  3689  1586                     u2901:
  3690  1586  2DAB               	goto	l2129
  3691  1587                     u2900:
  3692  1587                     l2127:
  3693  1587  3000               	movlw	0
  3694  1588  00A0               	movwf	??___flge
  3695  1589  3000               	movlw	0
  3696  158A  00A1               	movwf	??___flge+1
  3697  158B  3000               	movlw	0
  3698  158C  00A2               	movwf	??___flge+2
  3699  158D  3080               	movlw	128
  3700  158E  00A3               	movwf	??___flge+3
  3701  158F  0872               	movf	___flge@ff1,w
  3702  1590  02A0               	subwf	??___flge,f
  3703  1591  0873               	movf	___flge@ff1+1,w
  3704  1592  1C03               	skipc
  3705  1593  0F73               	incfsz	___flge@ff1+1,w
  3706  1594  2D96               	goto	u2911
  3707  1595  2D97               	goto	u2912
  3708  1596                     u2911:
  3709  1596  02A1               	subwf	??___flge+1,f
  3710  1597                     u2912:
  3711  1597  0874               	movf	___flge@ff1+2,w
  3712  1598  1C03               	skipc
  3713  1599  0F74               	incfsz	___flge@ff1+2,w
  3714  159A  2D9C               	goto	u2913
  3715  159B  2D9D               	goto	u2914
  3716  159C                     u2913:
  3717  159C  02A2               	subwf	??___flge+2,f
  3718  159D                     u2914:
  3719  159D  0875               	movf	___flge@ff1+3,w
  3720  159E  1C03               	skipc
  3721  159F  0F75               	incfsz	___flge@ff1+3,w
  3722  15A0  2DA2               	goto	u2915
  3723  15A1  2DA3               	goto	u2916
  3724  15A2                     u2915:
  3725  15A2  02A3               	subwf	??___flge+3,f
  3726  15A3                     u2916:
  3727  15A3  0823               	movf	??___flge+3,w
  3728  15A4  00F5               	movwf	___flge@ff1+3
  3729  15A5  0822               	movf	??___flge+2,w
  3730  15A6  00F4               	movwf	___flge@ff1+2
  3731  15A7  0821               	movf	??___flge+1,w
  3732  15A8  00F3               	movwf	___flge@ff1+1
  3733  15A9  0820               	movf	??___flge,w
  3734  15AA  00F2               	movwf	___flge@ff1
  3735  15AB                     l2129:
  3736  15AB  1FF9               	btfss	___flge@ff2+3,7
  3737  15AC  2DAE               	goto	u2921
  3738  15AD  2DAF               	goto	u2920
  3739  15AE                     u2921:
  3740  15AE  2DD3               	goto	l400
  3741  15AF                     u2920:
  3742  15AF                     l2131:
  3743  15AF  3000               	movlw	0
  3744  15B0  00A0               	movwf	??___flge
  3745  15B1  3000               	movlw	0
  3746  15B2  00A1               	movwf	??___flge+1
  3747  15B3  3000               	movlw	0
  3748  15B4  00A2               	movwf	??___flge+2
  3749  15B5  3080               	movlw	128
  3750  15B6  00A3               	movwf	??___flge+3
  3751  15B7  0876               	movf	___flge@ff2,w
  3752  15B8  02A0               	subwf	??___flge,f
  3753  15B9  0877               	movf	___flge@ff2+1,w
  3754  15BA  1C03               	skipc
  3755  15BB  0F77               	incfsz	___flge@ff2+1,w
  3756  15BC  2DBE               	goto	u2931
  3757  15BD  2DBF               	goto	u2932
  3758  15BE                     u2931:
  3759  15BE  02A1               	subwf	??___flge+1,f
  3760  15BF                     u2932:
  3761  15BF  0878               	movf	___flge@ff2+2,w
  3762  15C0  1C03               	skipc
  3763  15C1  0F78               	incfsz	___flge@ff2+2,w
  3764  15C2  2DC4               	goto	u2933
  3765  15C3  2DC5               	goto	u2934
  3766  15C4                     u2933:
  3767  15C4  02A2               	subwf	??___flge+2,f
  3768  15C5                     u2934:
  3769  15C5  0879               	movf	___flge@ff2+3,w
  3770  15C6  1C03               	skipc
  3771  15C7  0F79               	incfsz	___flge@ff2+3,w
  3772  15C8  2DCA               	goto	u2935
  3773  15C9  2DCB               	goto	u2936
  3774  15CA                     u2935:
  3775  15CA  02A3               	subwf	??___flge+3,f
  3776  15CB                     u2936:
  3777  15CB  0823               	movf	??___flge+3,w
  3778  15CC  00F9               	movwf	___flge@ff2+3
  3779  15CD  0822               	movf	??___flge+2,w
  3780  15CE  00F8               	movwf	___flge@ff2+2
  3781  15CF  0821               	movf	??___flge+1,w
  3782  15D0  00F7               	movwf	___flge@ff2+1
  3783  15D1  0820               	movf	??___flge,w
  3784  15D2  00F6               	movwf	___flge@ff2
  3785  15D3                     l400:
  3786  15D3  3080               	movlw	128
  3787  15D4  06F5               	xorwf	___flge@ff1+3,f
  3788  15D5  3080               	movlw	128
  3789  15D6  06F9               	xorwf	___flge@ff2+3,f
  3790  15D7  0879               	movf	___flge@ff2+3,w
  3791  15D8  0275               	subwf	___flge@ff1+3,w
  3792  15D9  1D03               	skipz
  3793  15DA  2DE5               	goto	u2945
  3794  15DB  0878               	movf	___flge@ff2+2,w
  3795  15DC  0274               	subwf	___flge@ff1+2,w
  3796  15DD  1D03               	skipz
  3797  15DE  2DE5               	goto	u2945
  3798  15DF  0877               	movf	___flge@ff2+1,w
  3799  15E0  0273               	subwf	___flge@ff1+1,w
  3800  15E1  1D03               	skipz
  3801  15E2  2DE5               	goto	u2945
  3802  15E3  0876               	movf	___flge@ff2,w
  3803  15E4  0272               	subwf	___flge@ff1,w
  3804  15E5                     u2945:
  3805  15E5  1803               	skipnc
  3806  15E6  2DE8               	goto	u2941
  3807  15E7  2DE9               	goto	u2940
  3808  15E8                     u2941:
  3809  15E8  2DEB               	goto	l2135
  3810  15E9                     u2940:
  3811  15E9                     l2133:
  3812  15E9  1003               	clrc
  3813  15EA  2DEC               	goto	l401
  3814  15EB                     l2135:
  3815  15EB  1403               	setc
  3816  15EC                     l401:
  3817  15EC  0008               	return
  3818  15ED                     __end_of___flge:
  3819                           
  3820                           	psect	text7
  3821  131F                     __ptext7:	
  3822 ;; *************** function _Voltage_Value *****************
  3823 ;; Defined at:
  3824 ;;		line 143 in file "main.c"
  3825 ;; Parameters:    Size  Location     Type
  3826 ;;  sensor          1    wreg     unsigned char 
  3827 ;; Auto vars:     Size  Location     Type
  3828 ;;  sensor          1   11[COMMON] unsigned char 
  3829 ;; Return value:  Size  Location     Type
  3830 ;;                  4    0[BANK1 ] float 
  3831 ;; Registers used:
  3832 ;;		wreg, status,2, status,0, btemp+1, pclath, cstack
  3833 ;; Tracked objects:
  3834 ;;		On entry : 0/0
  3835 ;;		On exit  : 0/0
  3836 ;;		Unchanged: 0/0
  3837 ;; Data sizes:     COMMON   BANK0   BANK1   BANK3   BANK2
  3838 ;;      Params:         0       0       4       0       0
  3839 ;;      Locals:         1       0       0       0       0
  3840 ;;      Temps:          0       0       4       0       0
  3841 ;;      Totals:         1       0       8       0       0
  3842 ;;Total ram usage:        9 bytes
  3843 ;; Hardware stack levels used:    1
  3844 ;; Hardware stack levels required when called:    3
  3845 ;; This function calls:
  3846 ;;		___fldiv
  3847 ;;		___flmul
  3848 ;;		___xxtofl
  3849 ;; This function is called by:
  3850 ;;		_main
  3851 ;; This function uses a non-reentrant model
  3852 ;;
  3853                           
  3854                           
  3855                           ;psect for function _Voltage_Value
  3856  131F                     _Voltage_Value:
  3857                           
  3858                           ;incstack = 0
  3859                           ; Regs used in _Voltage_Value: [wreg+status,2+status,0+btemp+1+pclath+cstack]
  3860                           ;Voltage_Value@sensor stored from wreg
  3861  131F  00FB               	movwf	Voltage_Value@sensor
  3862  1320                     l2659:
  3863                           
  3864                           ;main.c: 145:     return (float) sensor * 5/255;
  3865  1320  3043               	movlw	67
  3866  1321  1283               	bcf	3,5	;RP0=0, select bank0
  3867  1322  1303               	bcf	3,6	;RP1=0, select bank0
  3868  1323  00BF               	movwf	___fldiv@a+3
  3869  1324  307F               	movlw	127
  3870  1325  00BE               	movwf	___fldiv@a+2
  3871  1326  3000               	movlw	0
  3872  1327  00BD               	movwf	___fldiv@a+1
  3873  1328  3000               	movlw	0
  3874  1329  00BC               	movwf	___fldiv@a
  3875  132A  3040               	movlw	64
  3876  132B  00D9               	movwf	___flmul@b+3
  3877  132C  30A0               	movlw	160
  3878  132D  00D8               	movwf	___flmul@b+2
  3879  132E  3000               	movlw	0
  3880  132F  00D7               	movwf	___flmul@b+1
  3881  1330  3000               	movlw	0
  3882  1331  00D6               	movwf	___flmul@b
  3883  1332  087B               	movf	Voltage_Value@sensor,w
  3884  1333  1683               	bsf	3,5	;RP0=1, select bank1
  3885  1334  1303               	bcf	3,6	;RP1=0, select bank1
  3886  1335  00A4               	movwf	??_Voltage_Value^(0+128)
  3887  1336  01A5               	clrf	(??_Voltage_Value^(0+128)+1)
  3888  1337  01A6               	clrf	(??_Voltage_Value^(0+128)+2)
  3889  1338  01A7               	clrf	(??_Voltage_Value^(0+128)+3)
  3890  1339  0827               	movf	(??_Voltage_Value+3)^(0+128),w
  3891  133A  00F5               	movwf	___xxtofl@val+3
  3892  133B  0826               	movf	(??_Voltage_Value+2)^(0+128),w
  3893  133C  00F4               	movwf	___xxtofl@val+2
  3894  133D  0825               	movf	(??_Voltage_Value+1)^(0+128),w
  3895  133E  00F3               	movwf	___xxtofl@val+1
  3896  133F  0824               	movf	??_Voltage_Value^(0+128),w
  3897  1340  00F2               	movwf	___xxtofl@val
  3898  1341  3000               	movlw	0
  3899  1342  120A  118A  2717  160A  118A  	fcall	___xxtofl
  3900  1347  0875               	movf	?___xxtofl+3,w
  3901  1348  1283               	bcf	3,5	;RP0=0, select bank0
  3902  1349  1303               	bcf	3,6	;RP1=0, select bank0
  3903  134A  00DD               	movwf	___flmul@a+3
  3904  134B  0874               	movf	?___xxtofl+2,w
  3905  134C  00DC               	movwf	___flmul@a+2
  3906  134D  0873               	movf	?___xxtofl+1,w
  3907  134E  00DB               	movwf	___flmul@a+1
  3908  134F  0872               	movf	?___xxtofl,w
  3909  1350  00DA               	movwf	___flmul@a
  3910  1351  120A  158A  249F  160A  118A  	fcall	___flmul
  3911  1356  1283               	bcf	3,5	;RP0=0, select bank0
  3912  1357  1303               	bcf	3,6	;RP1=0, select bank0
  3913  1358  0859               	movf	?___flmul+3,w
  3914  1359  00C3               	movwf	___fldiv@b+3
  3915  135A  0858               	movf	?___flmul+2,w
  3916  135B  00C2               	movwf	___fldiv@b+2
  3917  135C  0857               	movf	?___flmul+1,w
  3918  135D  00C1               	movwf	___fldiv@b+1
  3919  135E  0856               	movf	?___flmul,w
  3920  135F  00C0               	movwf	___fldiv@b
  3921  1360  120A  158A  203A  160A  118A  	fcall	___fldiv
  3922  1365  1283               	bcf	3,5	;RP0=0, select bank0
  3923  1366  1303               	bcf	3,6	;RP1=0, select bank0
  3924  1367  083F               	movf	?___fldiv+3,w
  3925  1368  1683               	bsf	3,5	;RP0=1, select bank1
  3926  1369  1303               	bcf	3,6	;RP1=0, select bank1
  3927  136A  00A3               	movwf	(?_Voltage_Value+3)^(0+128)
  3928  136B  1283               	bcf	3,5	;RP0=0, select bank0
  3929  136C  1303               	bcf	3,6	;RP1=0, select bank0
  3930  136D  083E               	movf	?___fldiv+2,w
  3931  136E  1683               	bsf	3,5	;RP0=1, select bank1
  3932  136F  1303               	bcf	3,6	;RP1=0, select bank1
  3933  1370  00A2               	movwf	(?_Voltage_Value+2)^(0+128)
  3934  1371  1283               	bcf	3,5	;RP0=0, select bank0
  3935  1372  1303               	bcf	3,6	;RP1=0, select bank0
  3936  1373  083D               	movf	?___fldiv+1,w
  3937  1374  1683               	bsf	3,5	;RP0=1, select bank1
  3938  1375  1303               	bcf	3,6	;RP1=0, select bank1
  3939  1376  00A1               	movwf	(?_Voltage_Value+1)^(0+128)
  3940  1377  1283               	bcf	3,5	;RP0=0, select bank0
  3941  1378  1303               	bcf	3,6	;RP1=0, select bank0
  3942  1379  083C               	movf	?___fldiv,w
  3943  137A  1683               	bsf	3,5	;RP0=1, select bank1
  3944  137B  1303               	bcf	3,6	;RP1=0, select bank1
  3945  137C  00A0               	movwf	?_Voltage_Value^(0+128)
  3946  137D                     l48:
  3947  137D  0008               	return
  3948  137E                     __end_of_Voltage_Value:
  3949                           
  3950                           	psect	text8
  3951  0717                     __ptext8:	
  3952 ;; *************** function ___xxtofl *****************
  3953 ;; Defined at:
  3954 ;;		line 10 in file "C:\Program Files\Microchip\xc8\v2.20\pic\sources\c90\common\xxtofl.c"
  3955 ;; Parameters:    Size  Location     Type
  3956 ;;  sign            1    wreg     unsigned char 
  3957 ;;  val             4    2[COMMON] long 
  3958 ;; Auto vars:     Size  Location     Type
  3959 ;;  sign            1    0[BANK0 ] unsigned char 
  3960 ;;  arg             4    2[BANK0 ] unsigned long 
  3961 ;;  exp             1    1[BANK0 ] unsigned char 
  3962 ;; Return value:  Size  Location     Type
  3963 ;;                  4    2[COMMON] unsigned char 
  3964 ;; Registers used:
  3965 ;;		wreg, status,2, status,0, btemp+1
  3966 ;; Tracked objects:
  3967 ;;		On entry : 0/0
  3968 ;;		On exit  : 0/0
  3969 ;;		Unchanged: 0/0
  3970 ;; Data sizes:     COMMON   BANK0   BANK1   BANK3   BANK2
  3971 ;;      Params:         4       0       0       0       0
  3972 ;;      Locals:         0       6       0       0       0
  3973 ;;      Temps:          4       0       0       0       0
  3974 ;;      Totals:         8       6       0       0       0
  3975 ;;Total ram usage:       14 bytes
  3976 ;; Hardware stack levels used:    1
  3977 ;; Hardware stack levels required when called:    1
  3978 ;; This function calls:
  3979 ;;		Nothing
  3980 ;; This function is called by:
  3981 ;;		_Voltage_Value
  3982 ;; This function uses a non-reentrant model
  3983 ;;
  3984                           
  3985                           
  3986                           ;psect for function ___xxtofl
  3987  0717                     ___xxtofl:
  3988                           
  3989                           ;incstack = 0
  3990                           ; Regs used in ___xxtofl: [wreg+status,2+status,0+btemp+1]
  3991                           ;___xxtofl@sign stored from wreg
  3992  0717  1283               	bcf	3,5	;RP0=0, select bank0
  3993  0718  1303               	bcf	3,6	;RP1=0, select bank0
  3994  0719  00A0               	movwf	___xxtofl@sign
  3995  071A                     l2517:
  3996  071A  0820               	movf	___xxtofl@sign,w
  3997  071B  1903               	btfsc	3,2
  3998  071C  2F1E               	goto	u3841
  3999  071D  2F1F               	goto	u3840
  4000  071E                     u3841:
  4001  071E  2F33               	goto	l2523
  4002  071F                     u3840:
  4003  071F                     l2519:
  4004  071F  1FF5               	btfss	___xxtofl@val+3,7
  4005  0720  2F22               	goto	u3851
  4006  0721  2F23               	goto	u3850
  4007  0722                     u3851:
  4008  0722  2F33               	goto	l2523
  4009  0723                     u3850:
  4010  0723                     l2521:
  4011  0723  0972               	comf	___xxtofl@val,w
  4012  0724  00A2               	movwf	___xxtofl@arg
  4013  0725  0973               	comf	___xxtofl@val+1,w
  4014  0726  00A3               	movwf	___xxtofl@arg+1
  4015  0727  0974               	comf	___xxtofl@val+2,w
  4016  0728  00A4               	movwf	___xxtofl@arg+2
  4017  0729  0975               	comf	___xxtofl@val+3,w
  4018  072A  00A5               	movwf	___xxtofl@arg+3
  4019  072B  0AA2               	incf	___xxtofl@arg,f
  4020  072C  1903               	skipnz
  4021  072D  0AA3               	incf	___xxtofl@arg+1,f
  4022  072E  1903               	skipnz
  4023  072F  0AA4               	incf	___xxtofl@arg+2,f
  4024  0730  1903               	skipnz
  4025  0731  0AA5               	incf	___xxtofl@arg+3,f
  4026  0732  2F3B               	goto	l656
  4027  0733                     l2523:
  4028  0733  0875               	movf	___xxtofl@val+3,w
  4029  0734  00A5               	movwf	___xxtofl@arg+3
  4030  0735  0874               	movf	___xxtofl@val+2,w
  4031  0736  00A4               	movwf	___xxtofl@arg+2
  4032  0737  0873               	movf	___xxtofl@val+1,w
  4033  0738  00A3               	movwf	___xxtofl@arg+1
  4034  0739  0872               	movf	___xxtofl@val,w
  4035  073A  00A2               	movwf	___xxtofl@arg
  4036  073B                     l656:
  4037  073B  0875               	movf	___xxtofl@val+3,w
  4038  073C  0474               	iorwf	___xxtofl@val+2,w
  4039  073D  0473               	iorwf	___xxtofl@val+1,w
  4040  073E  0472               	iorwf	___xxtofl@val,w
  4041  073F  1D03               	skipz
  4042  0740  2F42               	goto	u3861
  4043  0741  2F43               	goto	u3860
  4044  0742                     u3861:
  4045  0742  2F4C               	goto	l2529
  4046  0743                     u3860:
  4047  0743                     l2525:
  4048  0743  3000               	movlw	0
  4049  0744  00F5               	movwf	?___xxtofl+3
  4050  0745  3000               	movlw	0
  4051  0746  00F4               	movwf	?___xxtofl+2
  4052  0747  3000               	movlw	0
  4053  0748  00F3               	movwf	?___xxtofl+1
  4054  0749  3000               	movlw	0
  4055  074A  00F2               	movwf	?___xxtofl
  4056  074B  2FD2               	goto	l658
  4057  074C                     l2529:
  4058  074C  3096               	movlw	150
  4059  074D  00FF               	movwf	btemp+1
  4060  074E  087F               	movf	btemp+1,w
  4061  074F  00A1               	movwf	___xxtofl@exp
  4062  0750  2F5E               	goto	l2535
  4063  0751                     l2531:
  4064  0751  3001               	movlw	1
  4065  0752  00FF               	movwf	btemp+1
  4066  0753  087F               	movf	btemp+1,w
  4067  0754  07A1               	addwf	___xxtofl@exp,f
  4068  0755                     l2533:
  4069  0755  3001               	movlw	1
  4070  0756                     u3875:
  4071  0756  1003               	clrc
  4072  0757  0CA5               	rrf	___xxtofl@arg+3,f
  4073  0758  0CA4               	rrf	___xxtofl@arg+2,f
  4074  0759  0CA3               	rrf	___xxtofl@arg+1,f
  4075  075A  0CA2               	rrf	___xxtofl@arg,f
  4076  075B  3EFF               	addlw	-1
  4077  075C  1D03               	skipz
  4078  075D  2F56               	goto	u3875
  4079  075E                     l2535:
  4080  075E  30FE               	movlw	254
  4081  075F  0525               	andwf	___xxtofl@arg+3,w
  4082  0760  1D03               	btfss	3,2
  4083  0761  2F63               	goto	u3881
  4084  0762  2F64               	goto	u3880
  4085  0763                     u3881:
  4086  0763  2F51               	goto	l2531
  4087  0764                     u3880:
  4088  0764  2F80               	goto	l2543
  4089  0765                     l2537:
  4090  0765  3001               	movlw	1
  4091  0766  00FF               	movwf	btemp+1
  4092  0767  087F               	movf	btemp+1,w
  4093  0768  07A1               	addwf	___xxtofl@exp,f
  4094  0769                     l2539:
  4095  0769  3001               	movlw	1
  4096  076A  07A2               	addwf	___xxtofl@arg,f
  4097  076B  3000               	movlw	0
  4098  076C  1803               	skipnc
  4099  076D  3001               	movlw	1
  4100  076E  07A3               	addwf	___xxtofl@arg+1,f
  4101  076F  3000               	movlw	0
  4102  0770  1803               	skipnc
  4103  0771  3001               	movlw	1
  4104  0772  07A4               	addwf	___xxtofl@arg+2,f
  4105  0773  3000               	movlw	0
  4106  0774  1803               	skipnc
  4107  0775  3001               	movlw	1
  4108  0776  07A5               	addwf	___xxtofl@arg+3,f
  4109  0777                     l2541:
  4110  0777  3001               	movlw	1
  4111  0778                     u3895:
  4112  0778  1003               	clrc
  4113  0779  0CA5               	rrf	___xxtofl@arg+3,f
  4114  077A  0CA4               	rrf	___xxtofl@arg+2,f
  4115  077B  0CA3               	rrf	___xxtofl@arg+1,f
  4116  077C  0CA2               	rrf	___xxtofl@arg,f
  4117  077D  3EFF               	addlw	-1
  4118  077E  1D03               	skipz
  4119  077F  2F78               	goto	u3895
  4120  0780                     l2543:
  4121  0780  30FF               	movlw	255
  4122  0781  0525               	andwf	___xxtofl@arg+3,w
  4123  0782  1D03               	btfss	3,2
  4124  0783  2F85               	goto	u3901
  4125  0784  2F86               	goto	u3900
  4126  0785                     u3901:
  4127  0785  2F65               	goto	l2537
  4128  0786                     u3900:
  4129  0786  2F92               	goto	l2547
  4130  0787                     l2545:
  4131  0787  3001               	movlw	1
  4132  0788  02A1               	subwf	___xxtofl@exp,f
  4133  0789  3001               	movlw	1
  4134  078A  00F6               	movwf	??___xxtofl
  4135  078B                     u3915:
  4136  078B  1003               	clrc
  4137  078C  0DA2               	rlf	___xxtofl@arg,f
  4138  078D  0DA3               	rlf	___xxtofl@arg+1,f
  4139  078E  0DA4               	rlf	___xxtofl@arg+2,f
  4140  078F  0DA5               	rlf	___xxtofl@arg+3,f
  4141  0790  0BF6               	decfsz	??___xxtofl,f
  4142  0791  2F8B               	goto	u3915
  4143  0792                     l2547:
  4144  0792  1BA4               	btfsc	___xxtofl@arg+2,7
  4145  0793  2F95               	goto	u3921
  4146  0794  2F96               	goto	u3920
  4147  0795                     u3921:
  4148  0795  2F9C               	goto	l669
  4149  0796                     u3920:
  4150  0796                     l2549:
  4151  0796  3002               	movlw	2
  4152  0797  0221               	subwf	___xxtofl@exp,w
  4153  0798  1803               	skipnc
  4154  0799  2F9B               	goto	u3931
  4155  079A  2F9C               	goto	u3930
  4156  079B                     u3931:
  4157  079B  2F87               	goto	l2545
  4158  079C                     u3930:
  4159  079C                     l669:
  4160  079C  1821               	btfsc	___xxtofl@exp,0
  4161  079D  2F9F               	goto	u3941
  4162  079E  2FA0               	goto	u3940
  4163  079F                     u3941:
  4164  079F  2FA8               	goto	l670
  4165  07A0                     u3940:
  4166  07A0                     l2551:
  4167  07A0  30FF               	movlw	255
  4168  07A1  05A2               	andwf	___xxtofl@arg,f
  4169  07A2  30FF               	movlw	255
  4170  07A3  05A3               	andwf	___xxtofl@arg+1,f
  4171  07A4  307F               	movlw	127
  4172  07A5  05A4               	andwf	___xxtofl@arg+2,f
  4173  07A6  30FF               	movlw	255
  4174  07A7  05A5               	andwf	___xxtofl@arg+3,f
  4175  07A8                     l670:
  4176  07A8  1003               	clrc
  4177  07A9  0CA1               	rrf	___xxtofl@exp,f
  4178  07AA                     l2553:
  4179  07AA  0821               	movf	___xxtofl@exp,w
  4180  07AB  00F6               	movwf	??___xxtofl
  4181  07AC  01F7               	clrf	??___xxtofl+1
  4182  07AD  01F8               	clrf	??___xxtofl+2
  4183  07AE  01F9               	clrf	??___xxtofl+3
  4184  07AF  3018               	movlw	24
  4185  07B0                     u3955:
  4186  07B0  1003               	clrc
  4187  07B1  0DF6               	rlf	??___xxtofl,f
  4188  07B2  0DF7               	rlf	??___xxtofl+1,f
  4189  07B3  0DF8               	rlf	??___xxtofl+2,f
  4190  07B4  0DF9               	rlf	??___xxtofl+3,f
  4191  07B5                     u3950:
  4192  07B5  3EFF               	addlw	-1
  4193  07B6  1D03               	skipz
  4194  07B7  2FB0               	goto	u3955
  4195  07B8  0876               	movf	??___xxtofl,w
  4196  07B9  04A2               	iorwf	___xxtofl@arg,f
  4197  07BA  0877               	movf	??___xxtofl+1,w
  4198  07BB  04A3               	iorwf	___xxtofl@arg+1,f
  4199  07BC  0878               	movf	??___xxtofl+2,w
  4200  07BD  04A4               	iorwf	___xxtofl@arg+2,f
  4201  07BE  0879               	movf	??___xxtofl+3,w
  4202  07BF  04A5               	iorwf	___xxtofl@arg+3,f
  4203  07C0                     l2555:
  4204  07C0  0820               	movf	___xxtofl@sign,w
  4205  07C1  1903               	btfsc	3,2
  4206  07C2  2FC4               	goto	u3961
  4207  07C3  2FC5               	goto	u3960
  4208  07C4                     u3961:
  4209  07C4  2FCA               	goto	l2561
  4210  07C5                     u3960:
  4211  07C5                     l2557:
  4212  07C5  1FF5               	btfss	___xxtofl@val+3,7
  4213  07C6  2FC8               	goto	u3971
  4214  07C7  2FC9               	goto	u3970
  4215  07C8                     u3971:
  4216  07C8  2FCA               	goto	l2561
  4217  07C9                     u3970:
  4218  07C9                     l2559:
  4219  07C9  17A5               	bsf	___xxtofl@arg+3,7
  4220  07CA                     l2561:
  4221  07CA  0825               	movf	___xxtofl@arg+3,w
  4222  07CB  00F5               	movwf	?___xxtofl+3
  4223  07CC  0824               	movf	___xxtofl@arg+2,w
  4224  07CD  00F4               	movwf	?___xxtofl+2
  4225  07CE  0823               	movf	___xxtofl@arg+1,w
  4226  07CF  00F3               	movwf	?___xxtofl+1
  4227  07D0  0822               	movf	___xxtofl@arg,w
  4228  07D1  00F2               	movwf	?___xxtofl
  4229  07D2                     l658:
  4230  07D2  0008               	return
  4231  07D3                     __end_of___xxtofl:
  4232                           
  4233                           	psect	text9
  4234  11AE                     __ptext9:	
  4235 ;; *************** function _TIMER_init_timer1 *****************
  4236 ;; Defined at:
  4237 ;;		line 8 in file "timer.c"
  4238 ;; Parameters:    Size  Location     Type
  4239 ;;		None
  4240 ;; Auto vars:     Size  Location     Type
  4241 ;;		None
  4242 ;; Return value:  Size  Location     Type
  4243 ;;                  1    wreg      void 
  4244 ;; Registers used:
  4245 ;;		wreg
  4246 ;; Tracked objects:
  4247 ;;		On entry : 0/0
  4248 ;;		On exit  : 0/0
  4249 ;;		Unchanged: 0/0
  4250 ;; Data sizes:     COMMON   BANK0   BANK1   BANK3   BANK2
  4251 ;;      Params:         0       0       0       0       0
  4252 ;;      Locals:         0       0       0       0       0
  4253 ;;      Temps:          0       0       0       0       0
  4254 ;;      Totals:         0       0       0       0       0
  4255 ;;Total ram usage:        0 bytes
  4256 ;; Hardware stack levels used:    1
  4257 ;; Hardware stack levels required when called:    1
  4258 ;; This function calls:
  4259 ;;		Nothing
  4260 ;; This function is called by:
  4261 ;;		_main
  4262 ;; This function uses a non-reentrant model
  4263 ;;
  4264                           
  4265                           
  4266                           ;psect for function _TIMER_init_timer1
  4267  11AE                     _TIMER_init_timer1:
  4268  11AE                     l2597:	
  4269                           ;incstack = 0
  4270                           ; Regs used in _TIMER_init_timer1: [wreg]
  4271                           
  4272                           
  4273                           ;timer.c: 10:     TMRA = 65535-5000;
  4274  11AE  3077               	movlw	119
  4275  11AF  1283               	bcf	3,5	;RP0=0, select bank2
  4276  11B0  1703               	bsf	3,6	;RP1=1, select bank2
  4277  11B1  0090               	movwf	16	;volatile
  4278  11B2                     l2599:
  4279                           
  4280                           ;timer.c: 24:     T1OSCEN=0;
  4281  11B2  1283               	bcf	3,5	;RP0=0, select bank0
  4282  11B3  1303               	bcf	3,6	;RP1=0, select bank0
  4283  11B4  1190               	bcf	16,3	;volatile
  4284  11B5                     l2601:
  4285                           
  4286                           ;timer.c: 36:     TMRCS1=0;
  4287  11B5  1390               	bcf	16,7	;volatile
  4288  11B6                     l2603:
  4289                           
  4290                           ;timer.c: 37:     TMRCS0=0;
  4291  11B6  1310               	bcf	16,6	;volatile
  4292  11B7                     l2605:
  4293                           
  4294                           ;timer.c: 46:     T1CKPS0=1;
  4295  11B7  1610               	bsf	16,4	;volatile
  4296  11B8                     l2607:
  4297                           
  4298                           ;timer.c: 47:     T1CKPS1=1;
  4299  11B8  1690               	bsf	16,5	;volatile
  4300  11B9                     l2609:
  4301                           
  4302                           ;timer.c: 56:     T1SYNC=1;
  4303  11B9  1510               	bsf	16,2	;volatile
  4304  11BA                     l2611:
  4305                           
  4306                           ;timer.c: 62:     TMR1ON=1;
  4307  11BA  1410               	bsf	16,0	;volatile
  4308  11BB                     l2613:
  4309                           
  4310                           ;timer.c: 71:     TMR1GE=0;
  4311  11BB  1683               	bsf	3,5	;RP0=1, select bank1
  4312  11BC  1303               	bcf	3,6	;RP1=0, select bank1
  4313  11BD  138F               	bcf	15,7	;volatile
  4314  11BE                     l2615:
  4315                           
  4316                           ;timer.c: 75:     TMR1IE=1;
  4317  11BE  140C               	bsf	12,0	;volatile
  4318  11BF                     l212:
  4319  11BF  0008               	return
  4320  11C0                     __end_of_TIMER_init_timer1:
  4321                           
  4322                           	psect	text10
  4323  13E5                     __ptext10:	
  4324 ;; *************** function _Resistance_Value *****************
  4325 ;; Defined at:
  4326 ;;		line 154 in file "main.c"
  4327 ;; Parameters:    Size  Location     Type
  4328 ;;  Voltage         4    0[BANK1 ] float 
  4329 ;; Auto vars:     Size  Location     Type
  4330 ;;		None
  4331 ;; Return value:  Size  Location     Type
  4332 ;;                  4    0[BANK1 ] float 
  4333 ;; Registers used:
  4334 ;;		wreg, status,2, status,0, btemp+1, pclath, cstack
  4335 ;; Tracked objects:
  4336 ;;		On entry : 0/0
  4337 ;;		On exit  : 0/0
  4338 ;;		Unchanged: 0/0
  4339 ;; Data sizes:     COMMON   BANK0   BANK1   BANK3   BANK2
  4340 ;;      Params:         0       0       4       0       0
  4341 ;;      Locals:         0       0       0       0       0
  4342 ;;      Temps:          0       0       0       0       0
  4343 ;;      Totals:         0       0       4       0       0
  4344 ;;Total ram usage:        4 bytes
  4345 ;; Hardware stack levels used:    1
  4346 ;; Hardware stack levels required when called:    3
  4347 ;; This function calls:
  4348 ;;		___fldiv
  4349 ;;		___flmul
  4350 ;;		___flsub
  4351 ;; This function is called by:
  4352 ;;		_main
  4353 ;; This function uses a non-reentrant model
  4354 ;;
  4355                           
  4356                           
  4357                           ;psect for function _Resistance_Value
  4358  13E5                     _Resistance_Value:
  4359  13E5                     l2685:	
  4360                           ;incstack = 0
  4361                           ; Regs used in _Resistance_Value: [wreg+status,2+status,0+btemp+1+pclath+cstack]
  4362                           
  4363                           
  4364                           ;main.c: 155:     return (4.7 * (5)/(5 -(2*Voltage)));
  4365  13E5  3040               	movlw	64
  4366  13E6  1283               	bcf	3,5	;RP0=0, select bank0
  4367  13E7  1303               	bcf	3,6	;RP1=0, select bank0
  4368  13E8  00D9               	movwf	___flmul@b+3
  4369  13E9  3000               	movlw	0
  4370  13EA  00D8               	movwf	___flmul@b+2
  4371  13EB  3000               	movlw	0
  4372  13EC  00D7               	movwf	___flmul@b+1
  4373  13ED  3000               	movlw	0
  4374  13EE  00D6               	movwf	___flmul@b
  4375  13EF  1683               	bsf	3,5	;RP0=1, select bank1
  4376  13F0  1303               	bcf	3,6	;RP1=0, select bank1
  4377  13F1  0823               	movf	(Resistance_Value@Voltage+3)^(0+128),w
  4378  13F2  1283               	bcf	3,5	;RP0=0, select bank0
  4379  13F3  1303               	bcf	3,6	;RP1=0, select bank0
  4380  13F4  00DD               	movwf	___flmul@a+3
  4381  13F5  1683               	bsf	3,5	;RP0=1, select bank1
  4382  13F6  1303               	bcf	3,6	;RP1=0, select bank1
  4383  13F7  0822               	movf	(Resistance_Value@Voltage+2)^(0+128),w
  4384  13F8  1283               	bcf	3,5	;RP0=0, select bank0
  4385  13F9  1303               	bcf	3,6	;RP1=0, select bank0
  4386  13FA  00DC               	movwf	___flmul@a+2
  4387  13FB  1683               	bsf	3,5	;RP0=1, select bank1
  4388  13FC  1303               	bcf	3,6	;RP1=0, select bank1
  4389  13FD  0821               	movf	(Resistance_Value@Voltage+1)^(0+128),w
  4390  13FE  1283               	bcf	3,5	;RP0=0, select bank0
  4391  13FF  1303               	bcf	3,6	;RP1=0, select bank0
  4392  1400  00DB               	movwf	___flmul@a+1
  4393  1401  1683               	bsf	3,5	;RP0=1, select bank1
  4394  1402  1303               	bcf	3,6	;RP1=0, select bank1
  4395  1403  0820               	movf	Resistance_Value@Voltage^(0+128),w
  4396  1404  1283               	bcf	3,5	;RP0=0, select bank0
  4397  1405  1303               	bcf	3,6	;RP1=0, select bank0
  4398  1406  00DA               	movwf	___flmul@a
  4399  1407  120A  158A  249F  160A  118A  	fcall	___flmul
  4400  140C  1283               	bcf	3,5	;RP0=0, select bank0
  4401  140D  1303               	bcf	3,6	;RP1=0, select bank0
  4402  140E  0859               	movf	?___flmul+3,w
  4403  140F  00B7               	movwf	___flsub@a+3
  4404  1410  0858               	movf	?___flmul+2,w
  4405  1411  00B6               	movwf	___flsub@a+2
  4406  1412  0857               	movf	?___flmul+1,w
  4407  1413  00B5               	movwf	___flsub@a+1
  4408  1414  0856               	movf	?___flmul,w
  4409  1415  00B4               	movwf	___flsub@a
  4410  1416  3040               	movlw	64
  4411  1417  00BB               	movwf	___flsub@b+3
  4412  1418  30A0               	movlw	160
  4413  1419  00BA               	movwf	___flsub@b+2
  4414  141A  3000               	movlw	0
  4415  141B  00B9               	movwf	___flsub@b+1
  4416  141C  3000               	movlw	0
  4417  141D  00B8               	movwf	___flsub@b
  4418  141E  160A  118A  21D9  160A  118A  	fcall	___flsub
  4419  1423  1283               	bcf	3,5	;RP0=0, select bank0
  4420  1424  1303               	bcf	3,6	;RP1=0, select bank0
  4421  1425  0837               	movf	?___flsub+3,w
  4422  1426  00BF               	movwf	___fldiv@a+3
  4423  1427  0836               	movf	?___flsub+2,w
  4424  1428  00BE               	movwf	___fldiv@a+2
  4425  1429  0835               	movf	?___flsub+1,w
  4426  142A  00BD               	movwf	___fldiv@a+1
  4427  142B  0834               	movf	?___flsub,w
  4428  142C  00BC               	movwf	___fldiv@a
  4429  142D  3041               	movlw	65
  4430  142E  00C3               	movwf	___fldiv@b+3
  4431  142F  30BC               	movlw	188
  4432  1430  00C2               	movwf	___fldiv@b+2
  4433  1431  3000               	movlw	0
  4434  1432  00C1               	movwf	___fldiv@b+1
  4435  1433  3000               	movlw	0
  4436  1434  00C0               	movwf	___fldiv@b
  4437  1435  120A  158A  203A  160A  118A  	fcall	___fldiv
  4438  143A  1283               	bcf	3,5	;RP0=0, select bank0
  4439  143B  1303               	bcf	3,6	;RP1=0, select bank0
  4440  143C  083F               	movf	?___fldiv+3,w
  4441  143D  1683               	bsf	3,5	;RP0=1, select bank1
  4442  143E  1303               	bcf	3,6	;RP1=0, select bank1
  4443  143F  00A3               	movwf	(?_Resistance_Value+3)^(0+128)
  4444  1440  1283               	bcf	3,5	;RP0=0, select bank0
  4445  1441  1303               	bcf	3,6	;RP1=0, select bank0
  4446  1442  083E               	movf	?___fldiv+2,w
  4447  1443  1683               	bsf	3,5	;RP0=1, select bank1
  4448  1444  1303               	bcf	3,6	;RP1=0, select bank1
  4449  1445  00A2               	movwf	(?_Resistance_Value+2)^(0+128)
  4450  1446  1283               	bcf	3,5	;RP0=0, select bank0
  4451  1447  1303               	bcf	3,6	;RP1=0, select bank0
  4452  1448  083D               	movf	?___fldiv+1,w
  4453  1449  1683               	bsf	3,5	;RP0=1, select bank1
  4454  144A  1303               	bcf	3,6	;RP1=0, select bank1
  4455  144B  00A1               	movwf	(?_Resistance_Value+1)^(0+128)
  4456  144C  1283               	bcf	3,5	;RP0=0, select bank0
  4457  144D  1303               	bcf	3,6	;RP1=0, select bank0
  4458  144E  083C               	movf	?___fldiv,w
  4459  144F  1683               	bsf	3,5	;RP0=1, select bank1
  4460  1450  1303               	bcf	3,6	;RP1=0, select bank1
  4461  1451  00A0               	movwf	?_Resistance_Value^(0+128)
  4462  1452                     l51:
  4463  1452  0008               	return
  4464  1453                     __end_of_Resistance_Value:
  4465                           
  4466                           	psect	text11
  4467  11D9                     __ptext11:	
  4468 ;; *************** function ___flsub *****************
  4469 ;; Defined at:
  4470 ;;		line 242 in file "C:\Program Files\Microchip\xc8\v2.20\pic\sources\c90\common\sprcadd.c"
  4471 ;; Parameters:    Size  Location     Type
  4472 ;;  a               4   20[BANK0 ] float 
  4473 ;;  b               4   24[BANK0 ] float 
  4474 ;; Auto vars:     Size  Location     Type
  4475 ;;		None
  4476 ;; Return value:  Size  Location     Type
  4477 ;;                  4   20[BANK0 ] float 
  4478 ;; Registers used:
  4479 ;;		wreg, status,2, status,0, btemp+1, pclath, cstack
  4480 ;; Tracked objects:
  4481 ;;		On entry : 0/0
  4482 ;;		On exit  : 0/0
  4483 ;;		Unchanged: 0/0
  4484 ;; Data sizes:     COMMON   BANK0   BANK1   BANK3   BANK2
  4485 ;;      Params:         0       8       0       0       0
  4486 ;;      Locals:         0       0       0       0       0
  4487 ;;      Temps:          0       0       0       0       0
  4488 ;;      Totals:         0       8       0       0       0
  4489 ;;Total ram usage:        8 bytes
  4490 ;; Hardware stack levels used:    1
  4491 ;; Hardware stack levels required when called:    2
  4492 ;; This function calls:
  4493 ;;		___fladd
  4494 ;; This function is called by:
  4495 ;;		_Resistance_Value
  4496 ;;		_conversion_newton
  4497 ;; This function uses a non-reentrant model
  4498 ;;
  4499                           
  4500                           
  4501                           ;psect for function ___flsub
  4502  11D9                     ___flsub:
  4503  11D9                     l2225:	
  4504                           ;incstack = 0
  4505                           ; Regs used in ___flsub: [wreg+status,2+status,0+btemp+1+pclath+cstack]
  4506                           
  4507  11D9  3080               	movlw	128
  4508  11DA  1283               	bcf	3,5	;RP0=0, select bank0
  4509  11DB  1303               	bcf	3,6	;RP1=0, select bank0
  4510  11DC  06B7               	xorwf	___flsub@a+3,f
  4511  11DD                     l2227:
  4512  11DD  083B               	movf	___flsub@b+3,w
  4513  11DE  00A3               	movwf	___fladd@b+3
  4514  11DF  083A               	movf	___flsub@b+2,w
  4515  11E0  00A2               	movwf	___fladd@b+2
  4516  11E1  0839               	movf	___flsub@b+1,w
  4517  11E2  00A1               	movwf	___fladd@b+1
  4518  11E3  0838               	movf	___flsub@b,w
  4519  11E4  00A0               	movwf	___fladd@b
  4520  11E5  0837               	movf	___flsub@a+3,w
  4521  11E6  00A7               	movwf	___fladd@a+3
  4522  11E7  0836               	movf	___flsub@a+2,w
  4523  11E8  00A6               	movwf	___fladd@a+2
  4524  11E9  0835               	movf	___flsub@a+1,w
  4525  11EA  00A5               	movwf	___fladd@a+1
  4526  11EB  0834               	movf	___flsub@a,w
  4527  11EC  00A4               	movwf	___fladd@a
  4528  11ED  120A  158A  2217  160A  118A  	fcall	___fladd
  4529  11F2  1283               	bcf	3,5	;RP0=0, select bank0
  4530  11F3  1303               	bcf	3,6	;RP1=0, select bank0
  4531  11F4  0823               	movf	?___fladd+3,w
  4532  11F5  00B7               	movwf	?___flsub+3
  4533  11F6  0822               	movf	?___fladd+2,w
  4534  11F7  00B6               	movwf	?___flsub+2
  4535  11F8  0821               	movf	?___fladd+1,w
  4536  11F9  00B5               	movwf	?___flsub+1
  4537  11FA  0820               	movf	?___fladd,w
  4538  11FB  00B4               	movwf	?___flsub
  4539  11FC                     l562:
  4540  11FC  0008               	return
  4541  11FD                     __end_of___flsub:
  4542                           
  4543                           	psect	text12
  4544  0A17                     __ptext12:	
  4545 ;; *************** function ___fladd *****************
  4546 ;; Defined at:
  4547 ;;		line 10 in file "C:\Program Files\Microchip\xc8\v2.20\pic\sources\c90\common\sprcadd.c"
  4548 ;; Parameters:    Size  Location     Type
  4549 ;;  b               4    0[BANK0 ] float 
  4550 ;;  a               4    4[BANK0 ] float 
  4551 ;; Auto vars:     Size  Location     Type
  4552 ;;  grs             1   19[BANK0 ] unsigned char 
  4553 ;;  bexp            1   18[BANK0 ] unsigned char 
  4554 ;;  aexp            1   17[BANK0 ] unsigned char 
  4555 ;;  signs           1   16[BANK0 ] unsigned char 
  4556 ;; Return value:  Size  Location     Type
  4557 ;;                  4    0[BANK0 ] unsigned char 
  4558 ;; Registers used:
  4559 ;;		wreg, status,2, status,0, btemp+1
  4560 ;; Tracked objects:
  4561 ;;		On entry : 0/0
  4562 ;;		On exit  : 0/0
  4563 ;;		Unchanged: 0/0
  4564 ;; Data sizes:     COMMON   BANK0   BANK1   BANK3   BANK2
  4565 ;;      Params:         0       8       0       0       0
  4566 ;;      Locals:         0       4       0       0       0
  4567 ;;      Temps:          0       8       0       0       0
  4568 ;;      Totals:         0      20       0       0       0
  4569 ;;Total ram usage:       20 bytes
  4570 ;; Hardware stack levels used:    1
  4571 ;; Hardware stack levels required when called:    1
  4572 ;; This function calls:
  4573 ;;		Nothing
  4574 ;; This function is called by:
  4575 ;;		_conversion_newton
  4576 ;;		___flsub
  4577 ;; This function uses a non-reentrant model
  4578 ;;
  4579                           
  4580                           
  4581                           ;psect for function ___fladd
  4582  0A17                     ___fladd:
  4583  0A17                     l1785:	
  4584                           ;incstack = 0
  4585                           ; Regs used in ___fladd: [wreg+status,2+status,0+btemp+1]
  4586                           
  4587  0A17  1283               	bcf	3,5	;RP0=0, select bank0
  4588  0A18  1303               	bcf	3,6	;RP1=0, select bank0
  4589  0A19  0823               	movf	___fladd@b+3,w
  4590  0A1A  3980               	andlw	128
  4591  0A1B  00FF               	movwf	btemp+1
  4592  0A1C  087F               	movf	btemp+1,w
  4593  0A1D  00B0               	movwf	___fladd@signs
  4594  0A1E                     l1787:
  4595  0A1E  0823               	movf	___fladd@b+3,w
  4596  0A1F  00A8               	movwf	??___fladd
  4597  0A20  0728               	addwf	??___fladd,w
  4598  0A21  00FF               	movwf	btemp+1
  4599  0A22  087F               	movf	btemp+1,w
  4600  0A23  00B2               	movwf	___fladd@bexp
  4601  0A24                     l1789:
  4602  0A24  1FA2               	btfss	___fladd@b+2,7
  4603  0A25  2A27               	goto	u2171
  4604  0A26  2A28               	goto	u2170
  4605  0A27                     u2171:
  4606  0A27  2A29               	goto	l1793
  4607  0A28                     u2170:
  4608  0A28                     l1791:
  4609  0A28  1432               	bsf	___fladd@bexp,0
  4610  0A29                     l1793:
  4611  0A29  0832               	movf	___fladd@bexp,w
  4612  0A2A  1903               	btfsc	3,2
  4613  0A2B  2A2D               	goto	u2181
  4614  0A2C  2A2E               	goto	u2180
  4615  0A2D                     u2181:
  4616  0A2D  2A3E               	goto	l1803
  4617  0A2E                     u2180:
  4618  0A2E                     l1795:
  4619  0A2E  0A32               	incf	___fladd@bexp,w
  4620  0A2F  1D03               	btfss	3,2
  4621  0A30  2A32               	goto	u2191
  4622  0A31  2A33               	goto	u2190
  4623  0A32                     u2191:
  4624  0A32  2A3B               	goto	l1799
  4625  0A33                     u2190:
  4626  0A33                     l1797:
  4627  0A33  3000               	movlw	0
  4628  0A34  00A3               	movwf	___fladd@b+3
  4629  0A35  3000               	movlw	0
  4630  0A36  00A2               	movwf	___fladd@b+2
  4631  0A37  3000               	movlw	0
  4632  0A38  00A1               	movwf	___fladd@b+1
  4633  0A39  3000               	movlw	0
  4634  0A3A  00A0               	movwf	___fladd@b
  4635  0A3B                     l1799:
  4636  0A3B  17A2               	bsf	___fladd@b+2,7
  4637  0A3C                     l1801:
  4638  0A3C  01A3               	clrf	___fladd@b+3
  4639  0A3D  2A46               	goto	l1805
  4640  0A3E                     l1803:
  4641  0A3E  3000               	movlw	0
  4642  0A3F  00A3               	movwf	___fladd@b+3
  4643  0A40  3000               	movlw	0
  4644  0A41  00A2               	movwf	___fladd@b+2
  4645  0A42  3000               	movlw	0
  4646  0A43  00A1               	movwf	___fladd@b+1
  4647  0A44  3000               	movlw	0
  4648  0A45  00A0               	movwf	___fladd@b
  4649  0A46                     l1805:
  4650  0A46  0827               	movf	___fladd@a+3,w
  4651  0A47  3980               	andlw	128
  4652  0A48  00FF               	movwf	btemp+1
  4653  0A49  087F               	movf	btemp+1,w
  4654  0A4A  00B1               	movwf	___fladd@aexp
  4655  0A4B                     l1807:
  4656  0A4B  0831               	movf	___fladd@aexp,w
  4657  0A4C  0630               	xorwf	___fladd@signs,w
  4658  0A4D  1903               	skipnz
  4659  0A4E  2A50               	goto	u2201
  4660  0A4F  2A51               	goto	u2200
  4661  0A50                     u2201:
  4662  0A50  2A52               	goto	l1811
  4663  0A51                     u2200:
  4664  0A51                     l1809:
  4665  0A51  1730               	bsf	___fladd@signs,6
  4666  0A52                     l1811:
  4667  0A52  0827               	movf	___fladd@a+3,w
  4668  0A53  00A8               	movwf	??___fladd
  4669  0A54  0728               	addwf	??___fladd,w
  4670  0A55  00FF               	movwf	btemp+1
  4671  0A56  087F               	movf	btemp+1,w
  4672  0A57  00B1               	movwf	___fladd@aexp
  4673  0A58                     l1813:
  4674  0A58  1FA6               	btfss	___fladd@a+2,7
  4675  0A59  2A5B               	goto	u2211
  4676  0A5A  2A5C               	goto	u2210
  4677  0A5B                     u2211:
  4678  0A5B  2A5D               	goto	l1817
  4679  0A5C                     u2210:
  4680  0A5C                     l1815:
  4681  0A5C  1431               	bsf	___fladd@aexp,0
  4682  0A5D                     l1817:
  4683  0A5D  0831               	movf	___fladd@aexp,w
  4684  0A5E  1903               	btfsc	3,2
  4685  0A5F  2A61               	goto	u2221
  4686  0A60  2A62               	goto	u2220
  4687  0A61                     u2221:
  4688  0A61  2A72               	goto	l1827
  4689  0A62                     u2220:
  4690  0A62                     l1819:
  4691  0A62  0A31               	incf	___fladd@aexp,w
  4692  0A63  1D03               	btfss	3,2
  4693  0A64  2A66               	goto	u2231
  4694  0A65  2A67               	goto	u2230
  4695  0A66                     u2231:
  4696  0A66  2A6F               	goto	l1823
  4697  0A67                     u2230:
  4698  0A67                     l1821:
  4699  0A67  3000               	movlw	0
  4700  0A68  00A7               	movwf	___fladd@a+3
  4701  0A69  3000               	movlw	0
  4702  0A6A  00A6               	movwf	___fladd@a+2
  4703  0A6B  3000               	movlw	0
  4704  0A6C  00A5               	movwf	___fladd@a+1
  4705  0A6D  3000               	movlw	0
  4706  0A6E  00A4               	movwf	___fladd@a
  4707  0A6F                     l1823:
  4708  0A6F  17A6               	bsf	___fladd@a+2,7
  4709  0A70                     l1825:
  4710  0A70  01A7               	clrf	___fladd@a+3
  4711  0A71  2A7A               	goto	l516
  4712  0A72                     l1827:
  4713  0A72  3000               	movlw	0
  4714  0A73  00A7               	movwf	___fladd@a+3
  4715  0A74  3000               	movlw	0
  4716  0A75  00A6               	movwf	___fladd@a+2
  4717  0A76  3000               	movlw	0
  4718  0A77  00A5               	movwf	___fladd@a+1
  4719  0A78  3000               	movlw	0
  4720  0A79  00A4               	movwf	___fladd@a
  4721  0A7A                     l516:
  4722  0A7A  0832               	movf	___fladd@bexp,w
  4723  0A7B  0231               	subwf	___fladd@aexp,w
  4724  0A7C  1803               	skipnc
  4725  0A7D  2A7F               	goto	u2241
  4726  0A7E  2A80               	goto	u2240
  4727  0A7F                     u2241:
  4728  0A7F  2AC4               	goto	l1863
  4729  0A80                     u2240:
  4730  0A80                     l1829:
  4731  0A80  1F30               	btfss	___fladd@signs,6
  4732  0A81  2A83               	goto	u2251
  4733  0A82  2A84               	goto	u2250
  4734  0A83                     u2251:
  4735  0A83  2A88               	goto	l1833
  4736  0A84                     u2250:
  4737  0A84                     l1831:
  4738  0A84  3080               	movlw	128
  4739  0A85  00FF               	movwf	btemp+1
  4740  0A86  087F               	movf	btemp+1,w
  4741  0A87  06B0               	xorwf	___fladd@signs,f
  4742  0A88                     l1833:
  4743  0A88  0832               	movf	___fladd@bexp,w
  4744  0A89  00FF               	movwf	btemp+1
  4745  0A8A  087F               	movf	btemp+1,w
  4746  0A8B  00B3               	movwf	___fladd@grs
  4747  0A8C                     l1835:
  4748  0A8C  0831               	movf	___fladd@aexp,w
  4749  0A8D  00FF               	movwf	btemp+1
  4750  0A8E  087F               	movf	btemp+1,w
  4751  0A8F  00B2               	movwf	___fladd@bexp
  4752  0A90                     l1837:
  4753  0A90  0833               	movf	___fladd@grs,w
  4754  0A91  00FF               	movwf	btemp+1
  4755  0A92  087F               	movf	btemp+1,w
  4756  0A93  00B1               	movwf	___fladd@aexp
  4757  0A94                     l1839:
  4758  0A94  0820               	movf	___fladd@b,w
  4759  0A95  00FF               	movwf	btemp+1
  4760  0A96  087F               	movf	btemp+1,w
  4761  0A97  00B3               	movwf	___fladd@grs
  4762  0A98                     l1841:
  4763  0A98  0824               	movf	___fladd@a,w
  4764  0A99  00FF               	movwf	btemp+1
  4765  0A9A  087F               	movf	btemp+1,w
  4766  0A9B  00A0               	movwf	___fladd@b
  4767  0A9C                     l1843:
  4768  0A9C  0833               	movf	___fladd@grs,w
  4769  0A9D  00FF               	movwf	btemp+1
  4770  0A9E  087F               	movf	btemp+1,w
  4771  0A9F  00A4               	movwf	___fladd@a
  4772  0AA0                     l1845:
  4773  0AA0  0821               	movf	___fladd@b+1,w
  4774  0AA1  00FF               	movwf	btemp+1
  4775  0AA2  087F               	movf	btemp+1,w
  4776  0AA3  00B3               	movwf	___fladd@grs
  4777  0AA4                     l1847:
  4778  0AA4  0825               	movf	___fladd@a+1,w
  4779  0AA5  00FF               	movwf	btemp+1
  4780  0AA6  087F               	movf	btemp+1,w
  4781  0AA7  00A1               	movwf	___fladd@b+1
  4782  0AA8                     l1849:
  4783  0AA8  0833               	movf	___fladd@grs,w
  4784  0AA9  00FF               	movwf	btemp+1
  4785  0AAA  087F               	movf	btemp+1,w
  4786  0AAB  00A5               	movwf	___fladd@a+1
  4787  0AAC                     l1851:
  4788  0AAC  0822               	movf	___fladd@b+2,w
  4789  0AAD  00FF               	movwf	btemp+1
  4790  0AAE  087F               	movf	btemp+1,w
  4791  0AAF  00B3               	movwf	___fladd@grs
  4792  0AB0                     l1853:
  4793  0AB0  0826               	movf	___fladd@a+2,w
  4794  0AB1  00FF               	movwf	btemp+1
  4795  0AB2  087F               	movf	btemp+1,w
  4796  0AB3  00A2               	movwf	___fladd@b+2
  4797  0AB4                     l1855:
  4798  0AB4  0833               	movf	___fladd@grs,w
  4799  0AB5  00FF               	movwf	btemp+1
  4800  0AB6  087F               	movf	btemp+1,w
  4801  0AB7  00A6               	movwf	___fladd@a+2
  4802  0AB8                     l1857:
  4803  0AB8  0823               	movf	___fladd@b+3,w
  4804  0AB9  00FF               	movwf	btemp+1
  4805  0ABA  087F               	movf	btemp+1,w
  4806  0ABB  00B3               	movwf	___fladd@grs
  4807  0ABC                     l1859:
  4808  0ABC  0827               	movf	___fladd@a+3,w
  4809  0ABD  00FF               	movwf	btemp+1
  4810  0ABE  087F               	movf	btemp+1,w
  4811  0ABF  00A3               	movwf	___fladd@b+3
  4812  0AC0                     l1861:
  4813  0AC0  0833               	movf	___fladd@grs,w
  4814  0AC1  00FF               	movwf	btemp+1
  4815  0AC2  087F               	movf	btemp+1,w
  4816  0AC3  00A7               	movwf	___fladd@a+3
  4817  0AC4                     l1863:
  4818  0AC4  01B3               	clrf	___fladd@grs
  4819  0AC5                     l1865:
  4820  0AC5  0831               	movf	___fladd@aexp,w
  4821  0AC6  00A8               	movwf	??___fladd
  4822  0AC7  01A9               	clrf	??___fladd+1
  4823  0AC8  0829               	movf	??___fladd+1,w
  4824  0AC9  00AB               	movwf	??___fladd+3
  4825  0ACA  0832               	movf	___fladd@bexp,w
  4826  0ACB  0228               	subwf	??___fladd,w
  4827  0ACC  00AA               	movwf	??___fladd+2
  4828  0ACD  1C03               	skipc
  4829  0ACE  03AB               	decf	??___fladd+3,f
  4830  0ACF  082B               	movf	??___fladd+3,w
  4831  0AD0  3A80               	xorlw	128
  4832  0AD1  00FF               	movwf	btemp+1
  4833  0AD2  3080               	movlw	128
  4834  0AD3  027F               	subwf	btemp+1,w
  4835  0AD4  1D03               	skipz
  4836  0AD5  2AD8               	goto	u2265
  4837  0AD6  301A               	movlw	26
  4838  0AD7  022A               	subwf	??___fladd+2,w
  4839  0AD8                     u2265:
  4840  0AD8  1C03               	skipc
  4841  0AD9  2ADB               	goto	u2261
  4842  0ADA  2ADC               	goto	u2260
  4843  0ADB                     u2261:
  4844  0ADB  2B19               	goto	l1885
  4845  0ADC                     u2260:
  4846  0ADC                     l1867:
  4847  0ADC  1283               	bcf	3,5	;RP0=0, select bank0
  4848  0ADD  1303               	bcf	3,6	;RP1=0, select bank0
  4849  0ADE  0823               	movf	___fladd@b+3,w
  4850  0ADF  0422               	iorwf	___fladd@b+2,w
  4851  0AE0  0421               	iorwf	___fladd@b+1,w
  4852  0AE1  0420               	iorwf	___fladd@b,w
  4853  0AE2  1D03               	skipz
  4854  0AE3  2AE5               	goto	u2271
  4855  0AE4  2AE7               	goto	u2270
  4856  0AE5                     u2271:
  4857  0AE5  3001               	movlw	1
  4858  0AE6  2AE8               	goto	u2280
  4859  0AE7                     u2270:
  4860  0AE7  3000               	movlw	0
  4861  0AE8                     u2280:
  4862  0AE8  00FF               	movwf	btemp+1
  4863  0AE9  087F               	movf	btemp+1,w
  4864  0AEA  00B3               	movwf	___fladd@grs
  4865  0AEB                     l1869:
  4866  0AEB  3000               	movlw	0
  4867  0AEC  00A3               	movwf	___fladd@b+3
  4868  0AED  3000               	movlw	0
  4869  0AEE  00A2               	movwf	___fladd@b+2
  4870  0AEF  3000               	movlw	0
  4871  0AF0  00A1               	movwf	___fladd@b+1
  4872  0AF1  3000               	movlw	0
  4873  0AF2  00A0               	movwf	___fladd@b
  4874  0AF3                     l1871:
  4875  0AF3  0831               	movf	___fladd@aexp,w
  4876  0AF4  00FF               	movwf	btemp+1
  4877  0AF5  087F               	movf	btemp+1,w
  4878  0AF6  00B2               	movwf	___fladd@bexp
  4879  0AF7  2B21               	goto	l520
  4880  0AF8                     l522:
  4881  0AF8  1C33               	btfss	___fladd@grs,0
  4882  0AF9  2AFB               	goto	u2291
  4883  0AFA  2AFC               	goto	u2290
  4884  0AFB                     u2291:
  4885  0AFB  2B05               	goto	l1875
  4886  0AFC                     u2290:
  4887  0AFC                     l1873:
  4888  0AFC  0833               	movf	___fladd@grs,w
  4889  0AFD  00A8               	movwf	??___fladd
  4890  0AFE  1003               	clrc
  4891  0AFF  0C28               	rrf	??___fladd,w
  4892  0B00  3801               	iorlw	1
  4893  0B01  00FF               	movwf	btemp+1
  4894  0B02  087F               	movf	btemp+1,w
  4895  0B03  00B3               	movwf	___fladd@grs
  4896  0B04  2B07               	goto	l1877
  4897  0B05                     l1875:
  4898  0B05  1003               	clrc
  4899  0B06  0CB3               	rrf	___fladd@grs,f
  4900  0B07                     l1877:
  4901  0B07  1C20               	btfss	___fladd@b,0
  4902  0B08  2B0A               	goto	u2301
  4903  0B09  2B0B               	goto	u2300
  4904  0B0A                     u2301:
  4905  0B0A  2B0C               	goto	l1881
  4906  0B0B                     u2300:
  4907  0B0B                     l1879:
  4908  0B0B  17B3               	bsf	___fladd@grs,7
  4909  0B0C                     l1881:
  4910  0B0C  3001               	movlw	1
  4911  0B0D  00A8               	movwf	??___fladd
  4912  0B0E                     u2315:
  4913  0B0E  0D23               	rlf	___fladd@b+3,w
  4914  0B0F  0CA3               	rrf	___fladd@b+3,f
  4915  0B10  0CA2               	rrf	___fladd@b+2,f
  4916  0B11  0CA1               	rrf	___fladd@b+1,f
  4917  0B12  0CA0               	rrf	___fladd@b,f
  4918  0B13  0BA8               	decfsz	??___fladd& (0+127),f
  4919  0B14  2B0E               	goto	u2315
  4920  0B15                     l1883:
  4921  0B15  3001               	movlw	1
  4922  0B16  00FF               	movwf	btemp+1
  4923  0B17  087F               	movf	btemp+1,w
  4924  0B18  07B2               	addwf	___fladd@bexp,f
  4925  0B19                     l1885:
  4926  0B19  1283               	bcf	3,5	;RP0=0, select bank0
  4927  0B1A  1303               	bcf	3,6	;RP1=0, select bank0
  4928  0B1B  0831               	movf	___fladd@aexp,w
  4929  0B1C  0232               	subwf	___fladd@bexp,w
  4930  0B1D  1C03               	skipc
  4931  0B1E  2B20               	goto	u2321
  4932  0B1F  2B21               	goto	u2320
  4933  0B20                     u2321:
  4934  0B20  2AF8               	goto	l522
  4935  0B21                     u2320:
  4936  0B21                     l520:
  4937  0B21  1B30               	btfsc	___fladd@signs,6
  4938  0B22  2B24               	goto	u2331
  4939  0B23  2B25               	goto	u2330
  4940  0B24                     u2331:
  4941  0B24  2B70               	goto	l1911
  4942  0B25                     u2330:
  4943  0B25                     l1887:
  4944  0B25  0832               	movf	___fladd@bexp,w
  4945  0B26  1D03               	btfss	3,2
  4946  0B27  2B29               	goto	u2341
  4947  0B28  2B2A               	goto	u2340
  4948  0B29                     u2341:
  4949  0B29  2B33               	goto	l1893
  4950  0B2A                     u2340:
  4951  0B2A                     l1889:
  4952  0B2A  3000               	movlw	0
  4953  0B2B  00A3               	movwf	?___fladd+3
  4954  0B2C  3000               	movlw	0
  4955  0B2D  00A2               	movwf	?___fladd+2
  4956  0B2E  3000               	movlw	0
  4957  0B2F  00A1               	movwf	?___fladd+1
  4958  0B30  3000               	movlw	0
  4959  0B31  00A0               	movwf	?___fladd
  4960  0B32  2C9E               	goto	l529
  4961  0B33                     l1893:
  4962  0B33  0824               	movf	___fladd@a,w
  4963  0B34  07A0               	addwf	___fladd@b,f
  4964  0B35  0825               	movf	___fladd@a+1,w
  4965  0B36  1103               	clrz
  4966  0B37  1803               	skipnc
  4967  0B38  3E01               	addlw	1
  4968  0B39  1903               	skipnz
  4969  0B3A  2B3C               	goto	u2351
  4970  0B3B  07A1               	addwf	___fladd@b+1,f
  4971  0B3C                     u2351:
  4972  0B3C  0826               	movf	___fladd@a+2,w
  4973  0B3D  1103               	clrz
  4974  0B3E  1803               	skipnc
  4975  0B3F  3E01               	addlw	1
  4976  0B40  1903               	skipnz
  4977  0B41  2B43               	goto	u2352
  4978  0B42  07A2               	addwf	___fladd@b+2,f
  4979  0B43                     u2352:
  4980  0B43  0827               	movf	___fladd@a+3,w
  4981  0B44  1103               	clrz
  4982  0B45  1803               	skipnc
  4983  0B46  3E01               	addlw	1
  4984  0B47  1903               	skipnz
  4985  0B48  2B4A               	goto	u2353
  4986  0B49  07A3               	addwf	___fladd@b+3,f
  4987  0B4A                     u2353:
  4988  0B4A                     l1895:
  4989  0B4A  1C23               	btfss	___fladd@b+3,0
  4990  0B4B  2B4D               	goto	u2361
  4991  0B4C  2B4E               	goto	u2360
  4992  0B4D                     u2361:
  4993  0B4D  2C24               	goto	l1947
  4994  0B4E                     u2360:
  4995  0B4E                     l1897:
  4996  0B4E  1C33               	btfss	___fladd@grs,0
  4997  0B4F  2B51               	goto	u2371
  4998  0B50  2B52               	goto	u2370
  4999  0B51                     u2371:
  5000  0B51  2B5B               	goto	l1901
  5001  0B52                     u2370:
  5002  0B52                     l1899:
  5003  0B52  0833               	movf	___fladd@grs,w
  5004  0B53  00A8               	movwf	??___fladd
  5005  0B54  1003               	clrc
  5006  0B55  0C28               	rrf	??___fladd,w
  5007  0B56  3801               	iorlw	1
  5008  0B57  00FF               	movwf	btemp+1
  5009  0B58  087F               	movf	btemp+1,w
  5010  0B59  00B3               	movwf	___fladd@grs
  5011  0B5A  2B5D               	goto	l1903
  5012  0B5B                     l1901:
  5013  0B5B  1003               	clrc
  5014  0B5C  0CB3               	rrf	___fladd@grs,f
  5015  0B5D                     l1903:
  5016  0B5D  1C20               	btfss	___fladd@b,0
  5017  0B5E  2B60               	goto	u2381
  5018  0B5F  2B61               	goto	u2380
  5019  0B60                     u2381:
  5020  0B60  2B62               	goto	l1907
  5021  0B61                     u2380:
  5022  0B61                     l1905:
  5023  0B61  17B3               	bsf	___fladd@grs,7
  5024  0B62                     l1907:
  5025  0B62  3001               	movlw	1
  5026  0B63  00A8               	movwf	??___fladd
  5027  0B64                     u2395:
  5028  0B64  0D23               	rlf	___fladd@b+3,w
  5029  0B65  0CA3               	rrf	___fladd@b+3,f
  5030  0B66  0CA2               	rrf	___fladd@b+2,f
  5031  0B67  0CA1               	rrf	___fladd@b+1,f
  5032  0B68  0CA0               	rrf	___fladd@b,f
  5033  0B69  0BA8               	decfsz	??___fladd& (0+127),f
  5034  0B6A  2B64               	goto	u2395
  5035  0B6B                     l1909:
  5036  0B6B  3001               	movlw	1
  5037  0B6C  00FF               	movwf	btemp+1
  5038  0B6D  087F               	movf	btemp+1,w
  5039  0B6E  07B2               	addwf	___fladd@bexp,f
  5040  0B6F  2C24               	goto	l1947
  5041  0B70                     l1911:
  5042  0B70  0823               	movf	___fladd@b+3,w
  5043  0B71  3A80               	xorlw	128
  5044  0B72  00FF               	movwf	btemp+1
  5045  0B73  0827               	movf	___fladd@a+3,w
  5046  0B74  3A80               	xorlw	128
  5047  0B75  027F               	subwf	btemp+1,w
  5048  0B76  1D03               	skipz
  5049  0B77  2B82               	goto	u2403
  5050  0B78  0826               	movf	___fladd@a+2,w
  5051  0B79  0222               	subwf	___fladd@b+2,w
  5052  0B7A  1D03               	skipz
  5053  0B7B  2B82               	goto	u2403
  5054  0B7C  0825               	movf	___fladd@a+1,w
  5055  0B7D  0221               	subwf	___fladd@b+1,w
  5056  0B7E  1D03               	skipz
  5057  0B7F  2B82               	goto	u2403
  5058  0B80  0824               	movf	___fladd@a,w
  5059  0B81  0220               	subwf	___fladd@b,w
  5060  0B82                     u2403:
  5061  0B82  1803               	skipnc
  5062  0B83  2B85               	goto	u2401
  5063  0B84  2B86               	goto	u2400
  5064  0B85                     u2401:
  5065  0B85  2BDE               	goto	l1923
  5066  0B86                     u2400:
  5067  0B86                     l1913:
  5068  0B86  30FF               	movlw	255
  5069  0B87  00A8               	movwf	??___fladd
  5070  0B88  30FF               	movlw	255
  5071  0B89  00A9               	movwf	??___fladd+1
  5072  0B8A  30FF               	movlw	255
  5073  0B8B  00AA               	movwf	??___fladd+2
  5074  0B8C  30FF               	movlw	255
  5075  0B8D  00AB               	movwf	??___fladd+3
  5076  0B8E  0824               	movf	___fladd@a,w
  5077  0B8F  00AC               	movwf	??___fladd+4
  5078  0B90  0825               	movf	___fladd@a+1,w
  5079  0B91  00AD               	movwf	??___fladd+5
  5080  0B92  0826               	movf	___fladd@a+2,w
  5081  0B93  00AE               	movwf	??___fladd+6
  5082  0B94  0827               	movf	___fladd@a+3,w
  5083  0B95  00AF               	movwf	??___fladd+7
  5084  0B96  0820               	movf	___fladd@b,w
  5085  0B97  02AC               	subwf	??___fladd+4,f
  5086  0B98  0821               	movf	___fladd@b+1,w
  5087  0B99  1C03               	skipc
  5088  0B9A  0F21               	incfsz	___fladd@b+1,w
  5089  0B9B  2B9D               	goto	u2411
  5090  0B9C  2B9E               	goto	u2412
  5091  0B9D                     u2411:
  5092  0B9D  02AD               	subwf	??___fladd+5,f
  5093  0B9E                     u2412:
  5094  0B9E  0822               	movf	___fladd@b+2,w
  5095  0B9F  1C03               	skipc
  5096  0BA0  0F22               	incfsz	___fladd@b+2,w
  5097  0BA1  2BA3               	goto	u2413
  5098  0BA2  2BA4               	goto	u2414
  5099  0BA3                     u2413:
  5100  0BA3  02AE               	subwf	??___fladd+6,f
  5101  0BA4                     u2414:
  5102  0BA4  0823               	movf	___fladd@b+3,w
  5103  0BA5  1C03               	skipc
  5104  0BA6  0F23               	incfsz	___fladd@b+3,w
  5105  0BA7  2BA9               	goto	u2415
  5106  0BA8  2BAA               	goto	u2416
  5107  0BA9                     u2415:
  5108  0BA9  02AF               	subwf	??___fladd+7,f
  5109  0BAA                     u2416:
  5110  0BAA  082C               	movf	??___fladd+4,w
  5111  0BAB  07A8               	addwf	??___fladd,f
  5112  0BAC  082D               	movf	??___fladd+5,w
  5113  0BAD  1803               	skipnc
  5114  0BAE  0F2D               	incfsz	??___fladd+5,w
  5115  0BAF  2BB1               	goto	u2420
  5116  0BB0  2BB2               	goto	u2421
  5117  0BB1                     u2420:
  5118  0BB1  07A9               	addwf	??___fladd+1,f
  5119  0BB2                     u2421:
  5120  0BB2  082E               	movf	??___fladd+6,w
  5121  0BB3  1803               	skipnc
  5122  0BB4  0F2E               	incfsz	??___fladd+6,w
  5123  0BB5  2BB7               	goto	u2422
  5124  0BB6  2BB8               	goto	u2423
  5125  0BB7                     u2422:
  5126  0BB7  07AA               	addwf	??___fladd+2,f
  5127  0BB8                     u2423:
  5128  0BB8  082F               	movf	??___fladd+7,w
  5129  0BB9  1803               	skipnc
  5130  0BBA  0A2F               	incf	??___fladd+7,w
  5131  0BBB  07AB               	addwf	??___fladd+3,f
  5132  0BBC  082B               	movf	??___fladd+3,w
  5133  0BBD  00A3               	movwf	___fladd@b+3
  5134  0BBE  082A               	movf	??___fladd+2,w
  5135  0BBF  00A2               	movwf	___fladd@b+2
  5136  0BC0  0829               	movf	??___fladd+1,w
  5137  0BC1  00A1               	movwf	___fladd@b+1
  5138  0BC2  0828               	movf	??___fladd,w
  5139  0BC3  00A0               	movwf	___fladd@b
  5140  0BC4                     l1915:
  5141  0BC4  3080               	movlw	128
  5142  0BC5  00FF               	movwf	btemp+1
  5143  0BC6  087F               	movf	btemp+1,w
  5144  0BC7  06B0               	xorwf	___fladd@signs,f
  5145  0BC8                     l1917:
  5146  0BC8  09B3               	comf	___fladd@grs,f
  5147  0BC9  0AB3               	incf	___fladd@grs,f
  5148  0BCA                     l1919:
  5149  0BCA  0833               	movf	___fladd@grs,w
  5150  0BCB  1D03               	btfss	3,2
  5151  0BCC  2BCE               	goto	u2431
  5152  0BCD  2BCF               	goto	u2430
  5153  0BCE                     u2431:
  5154  0BCE  2BEC               	goto	l537
  5155  0BCF                     u2430:
  5156  0BCF                     l1921:
  5157  0BCF  3001               	movlw	1
  5158  0BD0  07A0               	addwf	___fladd@b,f
  5159  0BD1  3000               	movlw	0
  5160  0BD2  1803               	skipnc
  5161  0BD3  3001               	movlw	1
  5162  0BD4  07A1               	addwf	___fladd@b+1,f
  5163  0BD5  3000               	movlw	0
  5164  0BD6  1803               	skipnc
  5165  0BD7  3001               	movlw	1
  5166  0BD8  07A2               	addwf	___fladd@b+2,f
  5167  0BD9  3000               	movlw	0
  5168  0BDA  1803               	skipnc
  5169  0BDB  3001               	movlw	1
  5170  0BDC  07A3               	addwf	___fladd@b+3,f
  5171  0BDD  2BEC               	goto	l537
  5172  0BDE                     l1923:
  5173  0BDE  0824               	movf	___fladd@a,w
  5174  0BDF  02A0               	subwf	___fladd@b,f
  5175  0BE0  0825               	movf	___fladd@a+1,w
  5176  0BE1  1C03               	skipc
  5177  0BE2  0F25               	incfsz	___fladd@a+1,w
  5178  0BE3  02A1               	subwf	___fladd@b+1,f
  5179  0BE4  0826               	movf	___fladd@a+2,w
  5180  0BE5  1C03               	skipc
  5181  0BE6  0F26               	incfsz	___fladd@a+2,w
  5182  0BE7  02A2               	subwf	___fladd@b+2,f
  5183  0BE8  0827               	movf	___fladd@a+3,w
  5184  0BE9  1C03               	skipc
  5185  0BEA  0F27               	incfsz	___fladd@a+3,w
  5186  0BEB  02A3               	subwf	___fladd@b+3,f
  5187  0BEC                     l537:
  5188  0BEC  0823               	movf	___fladd@b+3,w
  5189  0BED  0422               	iorwf	___fladd@b+2,w
  5190  0BEE  0421               	iorwf	___fladd@b+1,w
  5191  0BEF  0420               	iorwf	___fladd@b,w
  5192  0BF0  1D03               	skipz
  5193  0BF1  2BF3               	goto	u2441
  5194  0BF2  2BF4               	goto	u2440
  5195  0BF3                     u2441:
  5196  0BF3  2C20               	goto	l1945
  5197  0BF4                     u2440:
  5198  0BF4                     l1925:
  5199  0BF4  0833               	movf	___fladd@grs,w
  5200  0BF5  1D03               	btfss	3,2
  5201  0BF6  2BF8               	goto	u2451
  5202  0BF7  2BF9               	goto	u2450
  5203  0BF8                     u2451:
  5204  0BF8  2C20               	goto	l1945
  5205  0BF9                     u2450:
  5206  0BF9                     l1927:
  5207  0BF9  3000               	movlw	0
  5208  0BFA  00A3               	movwf	?___fladd+3
  5209  0BFB  3000               	movlw	0
  5210  0BFC  00A2               	movwf	?___fladd+2
  5211  0BFD  3000               	movlw	0
  5212  0BFE  00A1               	movwf	?___fladd+1
  5213  0BFF  3000               	movlw	0
  5214  0C00  00A0               	movwf	?___fladd
  5215  0C01  2C9E               	goto	l529
  5216  0C02                     l1931:
  5217  0C02  3001               	movlw	1
  5218  0C03  00A8               	movwf	??___fladd
  5219  0C04                     u2465:
  5220  0C04  1003               	clrc
  5221  0C05  0DA0               	rlf	___fladd@b,f
  5222  0C06  0DA1               	rlf	___fladd@b+1,f
  5223  0C07  0DA2               	rlf	___fladd@b+2,f
  5224  0C08  0DA3               	rlf	___fladd@b+3,f
  5225  0C09  0BA8               	decfsz	??___fladd,f
  5226  0C0A  2C04               	goto	u2465
  5227  0C0B                     l1933:
  5228  0C0B  1FB3               	btfss	___fladd@grs,7
  5229  0C0C  2C0E               	goto	u2471
  5230  0C0D  2C0F               	goto	u2470
  5231  0C0E                     u2471:
  5232  0C0E  2C10               	goto	l541
  5233  0C0F                     u2470:
  5234  0C0F                     l1935:
  5235  0C0F  1420               	bsf	___fladd@b,0
  5236  0C10                     l541:
  5237  0C10  1C33               	btfss	___fladd@grs,0
  5238  0C11  2C13               	goto	u2481
  5239  0C12  2C14               	goto	u2480
  5240  0C13                     u2481:
  5241  0C13  2C17               	goto	l1939
  5242  0C14                     u2480:
  5243  0C14                     l1937:
  5244  0C14  1403               	setc
  5245  0C15  0DB3               	rlf	___fladd@grs,f
  5246  0C16  2C19               	goto	l1941
  5247  0C17                     l1939:
  5248  0C17  1003               	clrc
  5249  0C18  0DB3               	rlf	___fladd@grs,f
  5250  0C19                     l1941:
  5251  0C19  0832               	movf	___fladd@bexp,w
  5252  0C1A  1903               	btfsc	3,2
  5253  0C1B  2C1D               	goto	u2491
  5254  0C1C  2C1E               	goto	u2490
  5255  0C1D                     u2491:
  5256  0C1D  2C20               	goto	l1945
  5257  0C1E                     u2490:
  5258  0C1E                     l1943:
  5259  0C1E  3001               	movlw	1
  5260  0C1F  02B2               	subwf	___fladd@bexp,f
  5261  0C20                     l1945:
  5262  0C20  1FA2               	btfss	___fladd@b+2,7
  5263  0C21  2C23               	goto	u2501
  5264  0C22  2C24               	goto	u2500
  5265  0C23                     u2501:
  5266  0C23  2C02               	goto	l1931
  5267  0C24                     u2500:
  5268  0C24                     l1947:
  5269  0C24  01B1               	clrf	___fladd@aexp
  5270  0C25                     l1949:
  5271  0C25  1FB3               	btfss	___fladd@grs,7
  5272  0C26  2C28               	goto	u2511
  5273  0C27  2C29               	goto	u2510
  5274  0C28                     u2511:
  5275  0C28  2C37               	goto	l1957
  5276  0C29                     u2510:
  5277  0C29                     l1951:
  5278  0C29  0833               	movf	___fladd@grs,w
  5279  0C2A  397F               	andlw	127
  5280  0C2B  1903               	btfsc	3,2
  5281  0C2C  2C2E               	goto	u2521
  5282  0C2D  2C2F               	goto	u2520
  5283  0C2E                     u2521:
  5284  0C2E  2C32               	goto	l547
  5285  0C2F                     u2520:
  5286  0C2F                     l1953:
  5287  0C2F  01B1               	clrf	___fladd@aexp
  5288  0C30  0AB1               	incf	___fladd@aexp,f
  5289  0C31  2C37               	goto	l1957
  5290  0C32                     l547:
  5291  0C32  1C20               	btfss	___fladd@b,0
  5292  0C33  2C35               	goto	u2531
  5293  0C34  2C36               	goto	u2530
  5294  0C35                     u2531:
  5295  0C35  2C37               	goto	l1957
  5296  0C36                     u2530:
  5297  0C36  2C2F               	goto	l1953
  5298  0C37                     l1957:
  5299  0C37  0831               	movf	___fladd@aexp,w
  5300  0C38  1903               	btfsc	3,2
  5301  0C39  2C3B               	goto	u2541
  5302  0C3A  2C3C               	goto	u2540
  5303  0C3B                     u2541:
  5304  0C3B  2C70               	goto	l1967
  5305  0C3C                     u2540:
  5306  0C3C                     l1959:
  5307  0C3C  3001               	movlw	1
  5308  0C3D  07A0               	addwf	___fladd@b,f
  5309  0C3E  3000               	movlw	0
  5310  0C3F  1803               	skipnc
  5311  0C40  3001               	movlw	1
  5312  0C41  07A1               	addwf	___fladd@b+1,f
  5313  0C42  3000               	movlw	0
  5314  0C43  1803               	skipnc
  5315  0C44  3001               	movlw	1
  5316  0C45  07A2               	addwf	___fladd@b+2,f
  5317  0C46  3000               	movlw	0
  5318  0C47  1803               	skipnc
  5319  0C48  3001               	movlw	1
  5320  0C49  07A3               	addwf	___fladd@b+3,f
  5321  0C4A                     l1961:
  5322  0C4A  1C23               	btfss	___fladd@b+3,0
  5323  0C4B  2C4D               	goto	u2551
  5324  0C4C  2C4E               	goto	u2550
  5325  0C4D                     u2551:
  5326  0C4D  2C70               	goto	l1967
  5327  0C4E                     u2550:
  5328  0C4E                     l1963:
  5329  0C4E  0820               	movf	___fladd@b,w
  5330  0C4F  00A8               	movwf	??___fladd
  5331  0C50  0821               	movf	___fladd@b+1,w
  5332  0C51  00A9               	movwf	??___fladd+1
  5333  0C52  0822               	movf	___fladd@b+2,w
  5334  0C53  00AA               	movwf	??___fladd+2
  5335  0C54  0823               	movf	___fladd@b+3,w
  5336  0C55  00AB               	movwf	??___fladd+3
  5337  0C56  3001               	movlw	1
  5338  0C57  00AC               	movwf	??___fladd+4
  5339  0C58                     u2565:
  5340  0C58  0D2B               	rlf	??___fladd+3,w
  5341  0C59  0CAB               	rrf	??___fladd+3,f
  5342  0C5A  0CAA               	rrf	??___fladd+2,f
  5343  0C5B  0CA9               	rrf	??___fladd+1,f
  5344  0C5C  0CA8               	rrf	??___fladd,f
  5345  0C5D                     u2560:
  5346  0C5D  0BAC               	decfsz	??___fladd+4,f
  5347  0C5E  2C58               	goto	u2565
  5348  0C5F  082B               	movf	??___fladd+3,w
  5349  0C60  00A3               	movwf	___fladd@b+3
  5350  0C61  082A               	movf	??___fladd+2,w
  5351  0C62  00A2               	movwf	___fladd@b+2
  5352  0C63  0829               	movf	??___fladd+1,w
  5353  0C64  00A1               	movwf	___fladd@b+1
  5354  0C65  0828               	movf	??___fladd,w
  5355  0C66  00A0               	movwf	___fladd@b
  5356  0C67  0A32               	incf	___fladd@bexp,w
  5357  0C68  1903               	btfsc	3,2
  5358  0C69  2C6B               	goto	u2571
  5359  0C6A  2C6C               	goto	u2570
  5360  0C6B                     u2571:
  5361  0C6B  2C70               	goto	l1967
  5362  0C6C                     u2570:
  5363  0C6C                     l1965:
  5364  0C6C  3001               	movlw	1
  5365  0C6D  00FF               	movwf	btemp+1
  5366  0C6E  087F               	movf	btemp+1,w
  5367  0C6F  07B2               	addwf	___fladd@bexp,f
  5368  0C70                     l1967:
  5369  0C70  0A32               	incf	___fladd@bexp,w
  5370  0C71  1903               	btfsc	3,2
  5371  0C72  2C74               	goto	u2581
  5372  0C73  2C75               	goto	u2580
  5373  0C74                     u2581:
  5374  0C74  2C7A               	goto	l1971
  5375  0C75                     u2580:
  5376  0C75                     l1969:
  5377  0C75  0832               	movf	___fladd@bexp,w
  5378  0C76  1D03               	btfss	3,2
  5379  0C77  2C79               	goto	u2591
  5380  0C78  2C7A               	goto	u2590
  5381  0C79                     u2591:
  5382  0C79  2C88               	goto	l1977
  5383  0C7A                     u2590:
  5384  0C7A                     l1971:
  5385  0C7A  3000               	movlw	0
  5386  0C7B  00A3               	movwf	___fladd@b+3
  5387  0C7C  3000               	movlw	0
  5388  0C7D  00A2               	movwf	___fladd@b+2
  5389  0C7E  3000               	movlw	0
  5390  0C7F  00A1               	movwf	___fladd@b+1
  5391  0C80  3000               	movlw	0
  5392  0C81  00A0               	movwf	___fladd@b
  5393  0C82                     l1973:
  5394  0C82  0832               	movf	___fladd@bexp,w
  5395  0C83  1D03               	btfss	3,2
  5396  0C84  2C86               	goto	u2601
  5397  0C85  2C87               	goto	u2600
  5398  0C86                     u2601:
  5399  0C86  2C88               	goto	l1977
  5400  0C87                     u2600:
  5401  0C87                     l1975:
  5402  0C87  01B0               	clrf	___fladd@signs
  5403  0C88                     l1977:
  5404  0C88  1C32               	btfss	___fladd@bexp,0
  5405  0C89  2C8B               	goto	u2611
  5406  0C8A  2C8C               	goto	u2610
  5407  0C8B                     u2611:
  5408  0C8B  2C8E               	goto	l1981
  5409  0C8C                     u2610:
  5410  0C8C                     l1979:
  5411  0C8C  17A2               	bsf	___fladd@b+2,7
  5412  0C8D  2C92               	goto	l558
  5413  0C8E                     l1981:
  5414  0C8E  307F               	movlw	127
  5415  0C8F  00FF               	movwf	btemp+1
  5416  0C90  087F               	movf	btemp+1,w
  5417  0C91  05A2               	andwf	___fladd@b+2,f
  5418  0C92                     l558:
  5419  0C92  0832               	movf	___fladd@bexp,w
  5420  0C93  00A8               	movwf	??___fladd
  5421  0C94  1003               	clrc
  5422  0C95  0C28               	rrf	??___fladd,w
  5423  0C96  00FF               	movwf	btemp+1
  5424  0C97  087F               	movf	btemp+1,w
  5425  0C98  00A3               	movwf	___fladd@b+3
  5426  0C99                     l1983:
  5427  0C99  1FB0               	btfss	___fladd@signs,7
  5428  0C9A  2C9C               	goto	u2621
  5429  0C9B  2C9D               	goto	u2620
  5430  0C9C                     u2621:
  5431  0C9C  2C9E               	goto	l559
  5432  0C9D                     u2620:
  5433  0C9D                     l1985:
  5434  0C9D  17A3               	bsf	___fladd@b+3,7
  5435  0C9E                     l559:
  5436  0C9E                     l529:
  5437  0C9E  0008               	return
  5438  0C9F                     __end_of___fladd:
  5439                           
  5440                           	psect	text13
  5441  0C9F                     __ptext13:	
  5442 ;; *************** function ___flmul *****************
  5443 ;; Defined at:
  5444 ;;		line 8 in file "C:\Program Files\Microchip\xc8\v2.20\pic\sources\c90\common\sprcmul.c"
  5445 ;; Parameters:    Size  Location     Type
  5446 ;;  b               4   54[BANK0 ] unsigned char 
  5447 ;;  a               4   58[BANK0 ] unsigned char 
  5448 ;; Auto vars:     Size  Location     Type
  5449 ;;  prod            4   74[BANK0 ] struct .
  5450 ;;  grs             4   68[BANK0 ] unsigned long 
  5451 ;;  temp            2   78[BANK0 ] struct .
  5452 ;;  bexp            1   73[BANK0 ] unsigned char 
  5453 ;;  aexp            1   72[BANK0 ] unsigned char 
  5454 ;;  sign            1   67[BANK0 ] unsigned char 
  5455 ;; Return value:  Size  Location     Type
  5456 ;;                  4   54[BANK0 ] unsigned char 
  5457 ;; Registers used:
  5458 ;;		wreg, status,2, status,0, btemp+1, pclath, cstack
  5459 ;; Tracked objects:
  5460 ;;		On entry : 0/0
  5461 ;;		On exit  : 0/0
  5462 ;;		Unchanged: 0/0
  5463 ;; Data sizes:     COMMON   BANK0   BANK1   BANK3   BANK2
  5464 ;;      Params:         0       8       0       0       0
  5465 ;;      Locals:         0      13       0       0       0
  5466 ;;      Temps:          0       5       0       0       0
  5467 ;;      Totals:         0      26       0       0       0
  5468 ;;Total ram usage:       26 bytes
  5469 ;; Hardware stack levels used:    1
  5470 ;; Hardware stack levels required when called:    2
  5471 ;; This function calls:
  5472 ;;		__Umul8_16
  5473 ;; This function is called by:
  5474 ;;		_puts_float
  5475 ;;		_Voltage_Value
  5476 ;;		_Resistance_Value
  5477 ;;		_conversion_newton
  5478 ;; This function uses a non-reentrant model
  5479 ;;
  5480                           
  5481                           
  5482                           ;psect for function ___flmul
  5483  0C9F                     ___flmul:
  5484  0C9F                     l2375:	
  5485                           ;incstack = 0
  5486                           ; Regs used in ___flmul: [wreg+status,2+status,0+btemp+1+pclath+cstack]
  5487                           
  5488  0C9F  1283               	bcf	3,5	;RP0=0, select bank0
  5489  0CA0  1303               	bcf	3,6	;RP1=0, select bank0
  5490  0CA1  0859               	movf	___flmul@b+3,w
  5491  0CA2  3980               	andlw	128
  5492  0CA3  00FF               	movwf	btemp+1
  5493  0CA4  087F               	movf	btemp+1,w
  5494  0CA5  00E3               	movwf	___flmul@sign
  5495  0CA6                     l2377:
  5496  0CA6  0859               	movf	___flmul@b+3,w
  5497  0CA7  00DE               	movwf	??___flmul
  5498  0CA8  075E               	addwf	??___flmul,w
  5499  0CA9  00FF               	movwf	btemp+1
  5500  0CAA  087F               	movf	btemp+1,w
  5501  0CAB  00E9               	movwf	___flmul@bexp
  5502  0CAC                     l2379:
  5503  0CAC  1FD8               	btfss	___flmul@b+2,7
  5504  0CAD  2CAF               	goto	u3471
  5505  0CAE  2CB0               	goto	u3470
  5506  0CAF                     u3471:
  5507  0CAF  2CB1               	goto	l2383
  5508  0CB0                     u3470:
  5509  0CB0                     l2381:
  5510  0CB0  1469               	bsf	___flmul@bexp,0
  5511  0CB1                     l2383:
  5512  0CB1  0869               	movf	___flmul@bexp,w
  5513  0CB2  1903               	btfsc	3,2
  5514  0CB3  2CB5               	goto	u3481
  5515  0CB4  2CB6               	goto	u3480
  5516  0CB5                     u3481:
  5517  0CB5  2CC5               	goto	l2391
  5518  0CB6                     u3480:
  5519  0CB6                     l2385:
  5520  0CB6  0A69               	incf	___flmul@bexp,w
  5521  0CB7  1D03               	btfss	3,2
  5522  0CB8  2CBA               	goto	u3491
  5523  0CB9  2CBB               	goto	u3490
  5524  0CBA                     u3491:
  5525  0CBA  2CC3               	goto	l2389
  5526  0CBB                     u3490:
  5527  0CBB                     l2387:
  5528  0CBB  3000               	movlw	0
  5529  0CBC  00D9               	movwf	___flmul@b+3
  5530  0CBD  3000               	movlw	0
  5531  0CBE  00D8               	movwf	___flmul@b+2
  5532  0CBF  3000               	movlw	0
  5533  0CC0  00D7               	movwf	___flmul@b+1
  5534  0CC1  3000               	movlw	0
  5535  0CC2  00D6               	movwf	___flmul@b
  5536  0CC3                     l2389:
  5537  0CC3  17D8               	bsf	___flmul@b+2,7
  5538  0CC4  2CCD               	goto	l2393
  5539  0CC5                     l2391:
  5540  0CC5  3000               	movlw	0
  5541  0CC6  00D9               	movwf	___flmul@b+3
  5542  0CC7  3000               	movlw	0
  5543  0CC8  00D8               	movwf	___flmul@b+2
  5544  0CC9  3000               	movlw	0
  5545  0CCA  00D7               	movwf	___flmul@b+1
  5546  0CCB  3000               	movlw	0
  5547  0CCC  00D6               	movwf	___flmul@b
  5548  0CCD                     l2393:
  5549  0CCD  085D               	movf	___flmul@a+3,w
  5550  0CCE  3980               	andlw	128
  5551  0CCF  00FF               	movwf	btemp+1
  5552  0CD0  087F               	movf	btemp+1,w
  5553  0CD1  06E3               	xorwf	___flmul@sign,f
  5554  0CD2                     l2395:
  5555  0CD2  085D               	movf	___flmul@a+3,w
  5556  0CD3  00DE               	movwf	??___flmul
  5557  0CD4  075E               	addwf	??___flmul,w
  5558  0CD5  00FF               	movwf	btemp+1
  5559  0CD6  087F               	movf	btemp+1,w
  5560  0CD7  00E8               	movwf	___flmul@aexp
  5561  0CD8                     l2397:
  5562  0CD8  1FDC               	btfss	___flmul@a+2,7
  5563  0CD9  2CDB               	goto	u3501
  5564  0CDA  2CDC               	goto	u3500
  5565  0CDB                     u3501:
  5566  0CDB  2CDD               	goto	l2401
  5567  0CDC                     u3500:
  5568  0CDC                     l2399:
  5569  0CDC  1468               	bsf	___flmul@aexp,0
  5570  0CDD                     l2401:
  5571  0CDD  0868               	movf	___flmul@aexp,w
  5572  0CDE  1903               	btfsc	3,2
  5573  0CDF  2CE1               	goto	u3511
  5574  0CE0  2CE2               	goto	u3510
  5575  0CE1                     u3511:
  5576  0CE1  2CF1               	goto	l2409
  5577  0CE2                     u3510:
  5578  0CE2                     l2403:
  5579  0CE2  0A68               	incf	___flmul@aexp,w
  5580  0CE3  1D03               	btfss	3,2
  5581  0CE4  2CE6               	goto	u3521
  5582  0CE5  2CE7               	goto	u3520
  5583  0CE6                     u3521:
  5584  0CE6  2CEF               	goto	l2407
  5585  0CE7                     u3520:
  5586  0CE7                     l2405:
  5587  0CE7  3000               	movlw	0
  5588  0CE8  00DD               	movwf	___flmul@a+3
  5589  0CE9  3000               	movlw	0
  5590  0CEA  00DC               	movwf	___flmul@a+2
  5591  0CEB  3000               	movlw	0
  5592  0CEC  00DB               	movwf	___flmul@a+1
  5593  0CED  3000               	movlw	0
  5594  0CEE  00DA               	movwf	___flmul@a
  5595  0CEF                     l2407:
  5596  0CEF  17DC               	bsf	___flmul@a+2,7
  5597  0CF0  2CF9               	goto	l2411
  5598  0CF1                     l2409:
  5599  0CF1  3000               	movlw	0
  5600  0CF2  00DD               	movwf	___flmul@a+3
  5601  0CF3  3000               	movlw	0
  5602  0CF4  00DC               	movwf	___flmul@a+2
  5603  0CF5  3000               	movlw	0
  5604  0CF6  00DB               	movwf	___flmul@a+1
  5605  0CF7  3000               	movlw	0
  5606  0CF8  00DA               	movwf	___flmul@a
  5607  0CF9                     l2411:
  5608  0CF9  0868               	movf	___flmul@aexp,w
  5609  0CFA  1903               	btfsc	3,2
  5610  0CFB  2CFD               	goto	u3531
  5611  0CFC  2CFE               	goto	u3530
  5612  0CFD                     u3531:
  5613  0CFD  2D03               	goto	l2415
  5614  0CFE                     u3530:
  5615  0CFE                     l2413:
  5616  0CFE  0869               	movf	___flmul@bexp,w
  5617  0CFF  1D03               	btfss	3,2
  5618  0D00  2D02               	goto	u3541
  5619  0D01  2D03               	goto	u3540
  5620  0D02                     u3541:
  5621  0D02  2D0C               	goto	l2419
  5622  0D03                     u3540:
  5623  0D03                     l2415:
  5624  0D03  3000               	movlw	0
  5625  0D04  00D9               	movwf	?___flmul+3
  5626  0D05  3000               	movlw	0
  5627  0D06  00D8               	movwf	?___flmul+2
  5628  0D07  3000               	movlw	0
  5629  0D08  00D7               	movwf	?___flmul+1
  5630  0D09  3000               	movlw	0
  5631  0D0A  00D6               	movwf	?___flmul
  5632  0D0B  2FFF               	goto	l612
  5633  0D0C                     l2419:
  5634  0D0C  0856               	movf	___flmul@b,w
  5635  0D0D  00FF               	movwf	btemp+1
  5636  0D0E  087F               	movf	btemp+1,w
  5637  0D0F  00F2               	movwf	__Umul8_16@multiplicand
  5638  0D10  085C               	movf	___flmul@a+2,w
  5639  0D11  160A  118A  2222  120A  158A  	fcall	__Umul8_16
  5640  0D16  0873               	movf	?__Umul8_16+1,w
  5641  0D17  1283               	bcf	3,5	;RP0=0, select bank0
  5642  0D18  1303               	bcf	3,6	;RP1=0, select bank0
  5643  0D19  00EF               	movwf	___flmul@temp+1
  5644  0D1A  0872               	movf	?__Umul8_16,w
  5645  0D1B  00EE               	movwf	___flmul@temp
  5646  0D1C                     l2421:
  5647  0D1C  086E               	movf	___flmul@temp,w
  5648  0D1D  00DE               	movwf	??___flmul
  5649  0D1E  01DF               	clrf	??___flmul+1
  5650  0D1F  01E0               	clrf	??___flmul+2
  5651  0D20  01E1               	clrf	??___flmul+3
  5652  0D21  0861               	movf	??___flmul+3,w
  5653  0D22  00E7               	movwf	___flmul@grs+3
  5654  0D23  0860               	movf	??___flmul+2,w
  5655  0D24  00E6               	movwf	___flmul@grs+2
  5656  0D25  085F               	movf	??___flmul+1,w
  5657  0D26  00E5               	movwf	___flmul@grs+1
  5658  0D27  085E               	movf	??___flmul,w
  5659  0D28  00E4               	movwf	___flmul@grs
  5660  0D29                     l2423:
  5661  0D29  086F               	movf	___flmul@temp+1,w
  5662  0D2A  00DE               	movwf	??___flmul
  5663  0D2B  01DF               	clrf	??___flmul+1
  5664  0D2C  01E0               	clrf	??___flmul+2
  5665  0D2D  01E1               	clrf	??___flmul+3
  5666  0D2E  0861               	movf	??___flmul+3,w
  5667  0D2F  00ED               	movwf	___flmul@prod+3
  5668  0D30  0860               	movf	??___flmul+2,w
  5669  0D31  00EC               	movwf	___flmul@prod+2
  5670  0D32  085F               	movf	??___flmul+1,w
  5671  0D33  00EB               	movwf	___flmul@prod+1
  5672  0D34  085E               	movf	??___flmul,w
  5673  0D35  00EA               	movwf	___flmul@prod
  5674  0D36  0857               	movf	___flmul@b+1,w
  5675  0D37  00FF               	movwf	btemp+1
  5676  0D38  087F               	movf	btemp+1,w
  5677  0D39  00F2               	movwf	__Umul8_16@multiplicand
  5678  0D3A  085B               	movf	___flmul@a+1,w
  5679  0D3B  160A  118A  2222  120A  158A  	fcall	__Umul8_16
  5680  0D40  0873               	movf	?__Umul8_16+1,w
  5681  0D41  1283               	bcf	3,5	;RP0=0, select bank0
  5682  0D42  1303               	bcf	3,6	;RP1=0, select bank0
  5683  0D43  00EF               	movwf	___flmul@temp+1
  5684  0D44  0872               	movf	?__Umul8_16,w
  5685  0D45  00EE               	movwf	___flmul@temp
  5686  0D46                     l2425:
  5687  0D46  086E               	movf	___flmul@temp,w
  5688  0D47  00DE               	movwf	??___flmul
  5689  0D48  01DF               	clrf	??___flmul+1
  5690  0D49  01E0               	clrf	??___flmul+2
  5691  0D4A  01E1               	clrf	??___flmul+3
  5692  0D4B  085E               	movf	??___flmul,w
  5693  0D4C  07E4               	addwf	___flmul@grs,f
  5694  0D4D  085F               	movf	??___flmul+1,w
  5695  0D4E  1103               	clrz
  5696  0D4F  1803               	skipnc
  5697  0D50  3E01               	addlw	1
  5698  0D51  1903               	skipnz
  5699  0D52  2D54               	goto	u3551
  5700  0D53  07E5               	addwf	___flmul@grs+1,f
  5701  0D54                     u3551:
  5702  0D54  0860               	movf	??___flmul+2,w
  5703  0D55  1103               	clrz
  5704  0D56  1803               	skipnc
  5705  0D57  3E01               	addlw	1
  5706  0D58  1903               	skipnz
  5707  0D59  2D5B               	goto	u3552
  5708  0D5A  07E6               	addwf	___flmul@grs+2,f
  5709  0D5B                     u3552:
  5710  0D5B  0861               	movf	??___flmul+3,w
  5711  0D5C  1103               	clrz
  5712  0D5D  1803               	skipnc
  5713  0D5E  3E01               	addlw	1
  5714  0D5F  1903               	skipnz
  5715  0D60  2D62               	goto	u3553
  5716  0D61  07E7               	addwf	___flmul@grs+3,f
  5717  0D62                     u3553:
  5718  0D62                     l2427:
  5719  0D62  086F               	movf	___flmul@temp+1,w
  5720  0D63  00DE               	movwf	??___flmul
  5721  0D64  01DF               	clrf	??___flmul+1
  5722  0D65  01E0               	clrf	??___flmul+2
  5723  0D66  01E1               	clrf	??___flmul+3
  5724  0D67  085E               	movf	??___flmul,w
  5725  0D68  07EA               	addwf	___flmul@prod,f
  5726  0D69  085F               	movf	??___flmul+1,w
  5727  0D6A  1103               	clrz
  5728  0D6B  1803               	skipnc
  5729  0D6C  3E01               	addlw	1
  5730  0D6D  1903               	skipnz
  5731  0D6E  2D70               	goto	u3561
  5732  0D6F  07EB               	addwf	___flmul@prod+1,f
  5733  0D70                     u3561:
  5734  0D70  0860               	movf	??___flmul+2,w
  5735  0D71  1103               	clrz
  5736  0D72  1803               	skipnc
  5737  0D73  3E01               	addlw	1
  5738  0D74  1903               	skipnz
  5739  0D75  2D77               	goto	u3562
  5740  0D76  07EC               	addwf	___flmul@prod+2,f
  5741  0D77                     u3562:
  5742  0D77  0861               	movf	??___flmul+3,w
  5743  0D78  1103               	clrz
  5744  0D79  1803               	skipnc
  5745  0D7A  3E01               	addlw	1
  5746  0D7B  1903               	skipnz
  5747  0D7C  2D7E               	goto	u3563
  5748  0D7D  07ED               	addwf	___flmul@prod+3,f
  5749  0D7E                     u3563:
  5750  0D7E  0858               	movf	___flmul@b+2,w
  5751  0D7F  00FF               	movwf	btemp+1
  5752  0D80  087F               	movf	btemp+1,w
  5753  0D81  00F2               	movwf	__Umul8_16@multiplicand
  5754  0D82  085A               	movf	___flmul@a,w
  5755  0D83  160A  118A  2222  120A  158A  	fcall	__Umul8_16
  5756  0D88  0873               	movf	?__Umul8_16+1,w
  5757  0D89  1283               	bcf	3,5	;RP0=0, select bank0
  5758  0D8A  1303               	bcf	3,6	;RP1=0, select bank0
  5759  0D8B  00EF               	movwf	___flmul@temp+1
  5760  0D8C  0872               	movf	?__Umul8_16,w
  5761  0D8D  00EE               	movwf	___flmul@temp
  5762  0D8E                     l2429:
  5763  0D8E  086E               	movf	___flmul@temp,w
  5764  0D8F  00DE               	movwf	??___flmul
  5765  0D90  01DF               	clrf	??___flmul+1
  5766  0D91  01E0               	clrf	??___flmul+2
  5767  0D92  01E1               	clrf	??___flmul+3
  5768  0D93  085E               	movf	??___flmul,w
  5769  0D94  07E4               	addwf	___flmul@grs,f
  5770  0D95  085F               	movf	??___flmul+1,w
  5771  0D96  1103               	clrz
  5772  0D97  1803               	skipnc
  5773  0D98  3E01               	addlw	1
  5774  0D99  1903               	skipnz
  5775  0D9A  2D9C               	goto	u3571
  5776  0D9B  07E5               	addwf	___flmul@grs+1,f
  5777  0D9C                     u3571:
  5778  0D9C  0860               	movf	??___flmul+2,w
  5779  0D9D  1103               	clrz
  5780  0D9E  1803               	skipnc
  5781  0D9F  3E01               	addlw	1
  5782  0DA0  1903               	skipnz
  5783  0DA1  2DA3               	goto	u3572
  5784  0DA2  07E6               	addwf	___flmul@grs+2,f
  5785  0DA3                     u3572:
  5786  0DA3  0861               	movf	??___flmul+3,w
  5787  0DA4  1103               	clrz
  5788  0DA5  1803               	skipnc
  5789  0DA6  3E01               	addlw	1
  5790  0DA7  1903               	skipnz
  5791  0DA8  2DAA               	goto	u3573
  5792  0DA9  07E7               	addwf	___flmul@grs+3,f
  5793  0DAA                     u3573:
  5794  0DAA                     l2431:
  5795  0DAA  086F               	movf	___flmul@temp+1,w
  5796  0DAB  00DE               	movwf	??___flmul
  5797  0DAC  01DF               	clrf	??___flmul+1
  5798  0DAD  01E0               	clrf	??___flmul+2
  5799  0DAE  01E1               	clrf	??___flmul+3
  5800  0DAF  085E               	movf	??___flmul,w
  5801  0DB0  07EA               	addwf	___flmul@prod,f
  5802  0DB1  085F               	movf	??___flmul+1,w
  5803  0DB2  1103               	clrz
  5804  0DB3  1803               	skipnc
  5805  0DB4  3E01               	addlw	1
  5806  0DB5  1903               	skipnz
  5807  0DB6  2DB8               	goto	u3581
  5808  0DB7  07EB               	addwf	___flmul@prod+1,f
  5809  0DB8                     u3581:
  5810  0DB8  0860               	movf	??___flmul+2,w
  5811  0DB9  1103               	clrz
  5812  0DBA  1803               	skipnc
  5813  0DBB  3E01               	addlw	1
  5814  0DBC  1903               	skipnz
  5815  0DBD  2DBF               	goto	u3582
  5816  0DBE  07EC               	addwf	___flmul@prod+2,f
  5817  0DBF                     u3582:
  5818  0DBF  0861               	movf	??___flmul+3,w
  5819  0DC0  1103               	clrz
  5820  0DC1  1803               	skipnc
  5821  0DC2  3E01               	addlw	1
  5822  0DC3  1903               	skipnz
  5823  0DC4  2DC6               	goto	u3583
  5824  0DC5  07ED               	addwf	___flmul@prod+3,f
  5825  0DC6                     u3583:
  5826  0DC6                     l2433:
  5827  0DC6  3008               	movlw	8
  5828  0DC7  00DE               	movwf	??___flmul
  5829  0DC8                     u3595:
  5830  0DC8  1003               	clrc
  5831  0DC9  0DE4               	rlf	___flmul@grs,f
  5832  0DCA  0DE5               	rlf	___flmul@grs+1,f
  5833  0DCB  0DE6               	rlf	___flmul@grs+2,f
  5834  0DCC  0DE7               	rlf	___flmul@grs+3,f
  5835  0DCD  0BDE               	decfsz	??___flmul,f
  5836  0DCE  2DC8               	goto	u3595
  5837  0DCF                     l2435:
  5838  0DCF  0857               	movf	___flmul@b+1,w
  5839  0DD0  00FF               	movwf	btemp+1
  5840  0DD1  087F               	movf	btemp+1,w
  5841  0DD2  00F2               	movwf	__Umul8_16@multiplicand
  5842  0DD3  085A               	movf	___flmul@a,w
  5843  0DD4  160A  118A  2222  120A  158A  	fcall	__Umul8_16
  5844  0DD9  0873               	movf	?__Umul8_16+1,w
  5845  0DDA  1283               	bcf	3,5	;RP0=0, select bank0
  5846  0DDB  1303               	bcf	3,6	;RP1=0, select bank0
  5847  0DDC  00EF               	movwf	___flmul@temp+1
  5848  0DDD  0872               	movf	?__Umul8_16,w
  5849  0DDE  00EE               	movwf	___flmul@temp
  5850  0DDF                     l2437:
  5851  0DDF  086E               	movf	___flmul@temp,w
  5852  0DE0  00DE               	movwf	??___flmul
  5853  0DE1  086F               	movf	___flmul@temp+1,w
  5854  0DE2  00DF               	movwf	??___flmul+1
  5855  0DE3  01E0               	clrf	??___flmul+2
  5856  0DE4  01E1               	clrf	??___flmul+3
  5857  0DE5  085E               	movf	??___flmul,w
  5858  0DE6  07E4               	addwf	___flmul@grs,f
  5859  0DE7  085F               	movf	??___flmul+1,w
  5860  0DE8  1103               	clrz
  5861  0DE9  1803               	skipnc
  5862  0DEA  3E01               	addlw	1
  5863  0DEB  1903               	skipnz
  5864  0DEC  2DEE               	goto	u3601
  5865  0DED  07E5               	addwf	___flmul@grs+1,f
  5866  0DEE                     u3601:
  5867  0DEE  0860               	movf	??___flmul+2,w
  5868  0DEF  1103               	clrz
  5869  0DF0  1803               	skipnc
  5870  0DF1  3E01               	addlw	1
  5871  0DF2  1903               	skipnz
  5872  0DF3  2DF5               	goto	u3602
  5873  0DF4  07E6               	addwf	___flmul@grs+2,f
  5874  0DF5                     u3602:
  5875  0DF5  0861               	movf	??___flmul+3,w
  5876  0DF6  1103               	clrz
  5877  0DF7  1803               	skipnc
  5878  0DF8  3E01               	addlw	1
  5879  0DF9  1903               	skipnz
  5880  0DFA  2DFC               	goto	u3603
  5881  0DFB  07E7               	addwf	___flmul@grs+3,f
  5882  0DFC                     u3603:
  5883  0DFC                     l2439:
  5884  0DFC  0856               	movf	___flmul@b,w
  5885  0DFD  00FF               	movwf	btemp+1
  5886  0DFE  087F               	movf	btemp+1,w
  5887  0DFF  00F2               	movwf	__Umul8_16@multiplicand
  5888  0E00  085B               	movf	___flmul@a+1,w
  5889  0E01  160A  118A  2222  120A  158A  	fcall	__Umul8_16
  5890  0E06  0873               	movf	?__Umul8_16+1,w
  5891  0E07  1283               	bcf	3,5	;RP0=0, select bank0
  5892  0E08  1303               	bcf	3,6	;RP1=0, select bank0
  5893  0E09  00EF               	movwf	___flmul@temp+1
  5894  0E0A  0872               	movf	?__Umul8_16,w
  5895  0E0B  00EE               	movwf	___flmul@temp
  5896  0E0C                     l2441:
  5897  0E0C  086E               	movf	___flmul@temp,w
  5898  0E0D  00DE               	movwf	??___flmul
  5899  0E0E  086F               	movf	___flmul@temp+1,w
  5900  0E0F  00DF               	movwf	??___flmul+1
  5901  0E10  01E0               	clrf	??___flmul+2
  5902  0E11  01E1               	clrf	??___flmul+3
  5903  0E12  085E               	movf	??___flmul,w
  5904  0E13  07E4               	addwf	___flmul@grs,f
  5905  0E14  085F               	movf	??___flmul+1,w
  5906  0E15  1103               	clrz
  5907  0E16  1803               	skipnc
  5908  0E17  3E01               	addlw	1
  5909  0E18  1903               	skipnz
  5910  0E19  2E1B               	goto	u3611
  5911  0E1A  07E5               	addwf	___flmul@grs+1,f
  5912  0E1B                     u3611:
  5913  0E1B  0860               	movf	??___flmul+2,w
  5914  0E1C  1103               	clrz
  5915  0E1D  1803               	skipnc
  5916  0E1E  3E01               	addlw	1
  5917  0E1F  1903               	skipnz
  5918  0E20  2E22               	goto	u3612
  5919  0E21  07E6               	addwf	___flmul@grs+2,f
  5920  0E22                     u3612:
  5921  0E22  0861               	movf	??___flmul+3,w
  5922  0E23  1103               	clrz
  5923  0E24  1803               	skipnc
  5924  0E25  3E01               	addlw	1
  5925  0E26  1903               	skipnz
  5926  0E27  2E29               	goto	u3613
  5927  0E28  07E7               	addwf	___flmul@grs+3,f
  5928  0E29                     u3613:
  5929  0E29                     l2443:
  5930  0E29  3008               	movlw	8
  5931  0E2A  00DE               	movwf	??___flmul
  5932  0E2B                     u3625:
  5933  0E2B  1003               	clrc
  5934  0E2C  0DE4               	rlf	___flmul@grs,f
  5935  0E2D  0DE5               	rlf	___flmul@grs+1,f
  5936  0E2E  0DE6               	rlf	___flmul@grs+2,f
  5937  0E2F  0DE7               	rlf	___flmul@grs+3,f
  5938  0E30  0BDE               	decfsz	??___flmul,f
  5939  0E31  2E2B               	goto	u3625
  5940  0E32  0856               	movf	___flmul@b,w
  5941  0E33  00FF               	movwf	btemp+1
  5942  0E34  087F               	movf	btemp+1,w
  5943  0E35  00F2               	movwf	__Umul8_16@multiplicand
  5944  0E36  085A               	movf	___flmul@a,w
  5945  0E37  160A  118A  2222  120A  158A  	fcall	__Umul8_16
  5946  0E3C  0873               	movf	?__Umul8_16+1,w
  5947  0E3D  1283               	bcf	3,5	;RP0=0, select bank0
  5948  0E3E  1303               	bcf	3,6	;RP1=0, select bank0
  5949  0E3F  00EF               	movwf	___flmul@temp+1
  5950  0E40  0872               	movf	?__Umul8_16,w
  5951  0E41  00EE               	movwf	___flmul@temp
  5952  0E42                     l2445:
  5953  0E42  086E               	movf	___flmul@temp,w
  5954  0E43  00DE               	movwf	??___flmul
  5955  0E44  086F               	movf	___flmul@temp+1,w
  5956  0E45  00DF               	movwf	??___flmul+1
  5957  0E46  01E0               	clrf	??___flmul+2
  5958  0E47  01E1               	clrf	??___flmul+3
  5959  0E48  085E               	movf	??___flmul,w
  5960  0E49  07E4               	addwf	___flmul@grs,f
  5961  0E4A  085F               	movf	??___flmul+1,w
  5962  0E4B  1103               	clrz
  5963  0E4C  1803               	skipnc
  5964  0E4D  3E01               	addlw	1
  5965  0E4E  1903               	skipnz
  5966  0E4F  2E51               	goto	u3631
  5967  0E50  07E5               	addwf	___flmul@grs+1,f
  5968  0E51                     u3631:
  5969  0E51  0860               	movf	??___flmul+2,w
  5970  0E52  1103               	clrz
  5971  0E53  1803               	skipnc
  5972  0E54  3E01               	addlw	1
  5973  0E55  1903               	skipnz
  5974  0E56  2E58               	goto	u3632
  5975  0E57  07E6               	addwf	___flmul@grs+2,f
  5976  0E58                     u3632:
  5977  0E58  0861               	movf	??___flmul+3,w
  5978  0E59  1103               	clrz
  5979  0E5A  1803               	skipnc
  5980  0E5B  3E01               	addlw	1
  5981  0E5C  1903               	skipnz
  5982  0E5D  2E5F               	goto	u3633
  5983  0E5E  07E7               	addwf	___flmul@grs+3,f
  5984  0E5F                     u3633:
  5985  0E5F                     l2447:
  5986  0E5F  0857               	movf	___flmul@b+1,w
  5987  0E60  00FF               	movwf	btemp+1
  5988  0E61  087F               	movf	btemp+1,w
  5989  0E62  00F2               	movwf	__Umul8_16@multiplicand
  5990  0E63  085C               	movf	___flmul@a+2,w
  5991  0E64  160A  118A  2222  120A  158A  	fcall	__Umul8_16
  5992  0E69  0873               	movf	?__Umul8_16+1,w
  5993  0E6A  1283               	bcf	3,5	;RP0=0, select bank0
  5994  0E6B  1303               	bcf	3,6	;RP1=0, select bank0
  5995  0E6C  00EF               	movwf	___flmul@temp+1
  5996  0E6D  0872               	movf	?__Umul8_16,w
  5997  0E6E  00EE               	movwf	___flmul@temp
  5998  0E6F  086E               	movf	___flmul@temp,w
  5999  0E70  00DE               	movwf	??___flmul
  6000  0E71  086F               	movf	___flmul@temp+1,w
  6001  0E72  00DF               	movwf	??___flmul+1
  6002  0E73  01E0               	clrf	??___flmul+2
  6003  0E74  01E1               	clrf	??___flmul+3
  6004  0E75  085E               	movf	??___flmul,w
  6005  0E76  07EA               	addwf	___flmul@prod,f
  6006  0E77  085F               	movf	??___flmul+1,w
  6007  0E78  1103               	clrz
  6008  0E79  1803               	skipnc
  6009  0E7A  3E01               	addlw	1
  6010  0E7B  1903               	skipnz
  6011  0E7C  2E7E               	goto	u3641
  6012  0E7D  07EB               	addwf	___flmul@prod+1,f
  6013  0E7E                     u3641:
  6014  0E7E  0860               	movf	??___flmul+2,w
  6015  0E7F  1103               	clrz
  6016  0E80  1803               	skipnc
  6017  0E81  3E01               	addlw	1
  6018  0E82  1903               	skipnz
  6019  0E83  2E85               	goto	u3642
  6020  0E84  07EC               	addwf	___flmul@prod+2,f
  6021  0E85                     u3642:
  6022  0E85  0861               	movf	??___flmul+3,w
  6023  0E86  1103               	clrz
  6024  0E87  1803               	skipnc
  6025  0E88  3E01               	addlw	1
  6026  0E89  1903               	skipnz
  6027  0E8A  2E8C               	goto	u3643
  6028  0E8B  07ED               	addwf	___flmul@prod+3,f
  6029  0E8C                     u3643:
  6030  0E8C                     l2449:
  6031  0E8C  0858               	movf	___flmul@b+2,w
  6032  0E8D  00FF               	movwf	btemp+1
  6033  0E8E  087F               	movf	btemp+1,w
  6034  0E8F  00F2               	movwf	__Umul8_16@multiplicand
  6035  0E90  085B               	movf	___flmul@a+1,w
  6036  0E91  160A  118A  2222  120A  158A  	fcall	__Umul8_16
  6037  0E96  0873               	movf	?__Umul8_16+1,w
  6038  0E97  1283               	bcf	3,5	;RP0=0, select bank0
  6039  0E98  1303               	bcf	3,6	;RP1=0, select bank0
  6040  0E99  00EF               	movwf	___flmul@temp+1
  6041  0E9A  0872               	movf	?__Umul8_16,w
  6042  0E9B  00EE               	movwf	___flmul@temp
  6043  0E9C                     l2451:
  6044  0E9C  086E               	movf	___flmul@temp,w
  6045  0E9D  00DE               	movwf	??___flmul
  6046  0E9E  086F               	movf	___flmul@temp+1,w
  6047  0E9F  00DF               	movwf	??___flmul+1
  6048  0EA0  01E0               	clrf	??___flmul+2
  6049  0EA1  01E1               	clrf	??___flmul+3
  6050  0EA2  085E               	movf	??___flmul,w
  6051  0EA3  07EA               	addwf	___flmul@prod,f
  6052  0EA4  085F               	movf	??___flmul+1,w
  6053  0EA5  1103               	clrz
  6054  0EA6  1803               	skipnc
  6055  0EA7  3E01               	addlw	1
  6056  0EA8  1903               	skipnz
  6057  0EA9  2EAB               	goto	u3651
  6058  0EAA  07EB               	addwf	___flmul@prod+1,f
  6059  0EAB                     u3651:
  6060  0EAB  0860               	movf	??___flmul+2,w
  6061  0EAC  1103               	clrz
  6062  0EAD  1803               	skipnc
  6063  0EAE  3E01               	addlw	1
  6064  0EAF  1903               	skipnz
  6065  0EB0  2EB2               	goto	u3652
  6066  0EB1  07EC               	addwf	___flmul@prod+2,f
  6067  0EB2                     u3652:
  6068  0EB2  0861               	movf	??___flmul+3,w
  6069  0EB3  1103               	clrz
  6070  0EB4  1803               	skipnc
  6071  0EB5  3E01               	addlw	1
  6072  0EB6  1903               	skipnz
  6073  0EB7  2EB9               	goto	u3653
  6074  0EB8  07ED               	addwf	___flmul@prod+3,f
  6075  0EB9                     u3653:
  6076  0EB9  0858               	movf	___flmul@b+2,w
  6077  0EBA  00FF               	movwf	btemp+1
  6078  0EBB  087F               	movf	btemp+1,w
  6079  0EBC  00F2               	movwf	__Umul8_16@multiplicand
  6080  0EBD  085C               	movf	___flmul@a+2,w
  6081  0EBE  160A  118A  2222  120A  158A  	fcall	__Umul8_16
  6082  0EC3  0873               	movf	?__Umul8_16+1,w
  6083  0EC4  1283               	bcf	3,5	;RP0=0, select bank0
  6084  0EC5  1303               	bcf	3,6	;RP1=0, select bank0
  6085  0EC6  00EF               	movwf	___flmul@temp+1
  6086  0EC7  0872               	movf	?__Umul8_16,w
  6087  0EC8  00EE               	movwf	___flmul@temp
  6088  0EC9                     l2453:
  6089  0EC9  086E               	movf	___flmul@temp,w
  6090  0ECA  00DE               	movwf	??___flmul
  6091  0ECB  086F               	movf	___flmul@temp+1,w
  6092  0ECC  00DF               	movwf	??___flmul+1
  6093  0ECD  01E0               	clrf	??___flmul+2
  6094  0ECE  01E1               	clrf	??___flmul+3
  6095  0ECF  3008               	movlw	8
  6096  0ED0                     u3665:
  6097  0ED0  1003               	clrc
  6098  0ED1  0DDE               	rlf	??___flmul,f
  6099  0ED2  0DDF               	rlf	??___flmul+1,f
  6100  0ED3  0DE0               	rlf	??___flmul+2,f
  6101  0ED4  0DE1               	rlf	??___flmul+3,f
  6102  0ED5                     u3660:
  6103  0ED5  3EFF               	addlw	-1
  6104  0ED6  1D03               	skipz
  6105  0ED7  2ED0               	goto	u3665
  6106  0ED8  085E               	movf	??___flmul,w
  6107  0ED9  07EA               	addwf	___flmul@prod,f
  6108  0EDA  085F               	movf	??___flmul+1,w
  6109  0EDB  1103               	clrz
  6110  0EDC  1803               	skipnc
  6111  0EDD  3E01               	addlw	1
  6112  0EDE  1903               	skipnz
  6113  0EDF  2EE1               	goto	u3671
  6114  0EE0  07EB               	addwf	___flmul@prod+1,f
  6115  0EE1                     u3671:
  6116  0EE1  0860               	movf	??___flmul+2,w
  6117  0EE2  1103               	clrz
  6118  0EE3  1803               	skipnc
  6119  0EE4  3E01               	addlw	1
  6120  0EE5  1903               	skipnz
  6121  0EE6  2EE8               	goto	u3672
  6122  0EE7  07EC               	addwf	___flmul@prod+2,f
  6123  0EE8                     u3672:
  6124  0EE8  0861               	movf	??___flmul+3,w
  6125  0EE9  1103               	clrz
  6126  0EEA  1803               	skipnc
  6127  0EEB  3E01               	addlw	1
  6128  0EEC  1903               	skipnz
  6129  0EED  2EEF               	goto	u3673
  6130  0EEE  07ED               	addwf	___flmul@prod+3,f
  6131  0EEF                     u3673:
  6132  0EEF                     l2455:
  6133  0EEF  0864               	movf	___flmul@grs,w
  6134  0EF0  00DE               	movwf	??___flmul
  6135  0EF1  0865               	movf	___flmul@grs+1,w
  6136  0EF2  00DF               	movwf	??___flmul+1
  6137  0EF3  0866               	movf	___flmul@grs+2,w
  6138  0EF4  00E0               	movwf	??___flmul+2
  6139  0EF5  0867               	movf	___flmul@grs+3,w
  6140  0EF6  00E1               	movwf	??___flmul+3
  6141  0EF7  3018               	movlw	24
  6142  0EF8                     u3685:
  6143  0EF8  1003               	clrc
  6144  0EF9  0CE1               	rrf	??___flmul+3,f
  6145  0EFA  0CE0               	rrf	??___flmul+2,f
  6146  0EFB  0CDF               	rrf	??___flmul+1,f
  6147  0EFC  0CDE               	rrf	??___flmul,f
  6148  0EFD                     u3680:
  6149  0EFD  3EFF               	addlw	-1
  6150  0EFE  1D03               	skipz
  6151  0EFF  2EF8               	goto	u3685
  6152  0F00  085E               	movf	??___flmul,w
  6153  0F01  07EA               	addwf	___flmul@prod,f
  6154  0F02  085F               	movf	??___flmul+1,w
  6155  0F03  1103               	clrz
  6156  0F04  1803               	skipnc
  6157  0F05  3E01               	addlw	1
  6158  0F06  1903               	skipnz
  6159  0F07  2F09               	goto	u3691
  6160  0F08  07EB               	addwf	___flmul@prod+1,f
  6161  0F09                     u3691:
  6162  0F09  0860               	movf	??___flmul+2,w
  6163  0F0A  1103               	clrz
  6164  0F0B  1803               	skipnc
  6165  0F0C  3E01               	addlw	1
  6166  0F0D  1903               	skipnz
  6167  0F0E  2F10               	goto	u3692
  6168  0F0F  07EC               	addwf	___flmul@prod+2,f
  6169  0F10                     u3692:
  6170  0F10  0861               	movf	??___flmul+3,w
  6171  0F11  1103               	clrz
  6172  0F12  1803               	skipnc
  6173  0F13  3E01               	addlw	1
  6174  0F14  1903               	skipnz
  6175  0F15  2F17               	goto	u3693
  6176  0F16  07ED               	addwf	___flmul@prod+3,f
  6177  0F17                     u3693:
  6178  0F17                     l2457:
  6179  0F17  3008               	movlw	8
  6180  0F18  00DE               	movwf	??___flmul
  6181  0F19                     u3705:
  6182  0F19  1003               	clrc
  6183  0F1A  0DE4               	rlf	___flmul@grs,f
  6184  0F1B  0DE5               	rlf	___flmul@grs+1,f
  6185  0F1C  0DE6               	rlf	___flmul@grs+2,f
  6186  0F1D  0DE7               	rlf	___flmul@grs+3,f
  6187  0F1E  0BDE               	decfsz	??___flmul,f
  6188  0F1F  2F19               	goto	u3705
  6189  0F20                     l2459:
  6190  0F20  0869               	movf	___flmul@bexp,w
  6191  0F21  0768               	addwf	___flmul@aexp,w
  6192  0F22  00DE               	movwf	??___flmul
  6193  0F23  01DF               	clrf	??___flmul+1
  6194  0F24  0DDF               	rlf	??___flmul+1,f
  6195  0F25  085E               	movf	??___flmul,w
  6196  0F26  3E82               	addlw	130
  6197  0F27  00EE               	movwf	___flmul@temp
  6198  0F28  085F               	movf	??___flmul+1,w
  6199  0F29  1803               	skipnc
  6200  0F2A  3E01               	addlw	1
  6201  0F2B  3EFF               	addlw	255
  6202  0F2C  00EF               	movwf	___flmul@temp+1
  6203  0F2D  2F4B               	goto	l2471
  6204  0F2E                     l2461:
  6205  0F2E  3001               	movlw	1
  6206  0F2F  00DE               	movwf	??___flmul
  6207  0F30                     u3715:
  6208  0F30  1003               	clrc
  6209  0F31  0DEA               	rlf	___flmul@prod,f
  6210  0F32  0DEB               	rlf	___flmul@prod+1,f
  6211  0F33  0DEC               	rlf	___flmul@prod+2,f
  6212  0F34  0DED               	rlf	___flmul@prod+3,f
  6213  0F35  0BDE               	decfsz	??___flmul,f
  6214  0F36  2F30               	goto	u3715
  6215  0F37                     l2463:
  6216  0F37  1FE7               	btfss	___flmul@grs+3,7
  6217  0F38  2F3A               	goto	u3721
  6218  0F39  2F3B               	goto	u3720
  6219  0F3A                     u3721:
  6220  0F3A  2F3C               	goto	l2467
  6221  0F3B                     u3720:
  6222  0F3B                     l2465:
  6223  0F3B  146A               	bsf	___flmul@prod,0
  6224  0F3C                     l2467:
  6225  0F3C  3001               	movlw	1
  6226  0F3D  00DE               	movwf	??___flmul
  6227  0F3E                     u3735:
  6228  0F3E  1003               	clrc
  6229  0F3F  0DE4               	rlf	___flmul@grs,f
  6230  0F40  0DE5               	rlf	___flmul@grs+1,f
  6231  0F41  0DE6               	rlf	___flmul@grs+2,f
  6232  0F42  0DE7               	rlf	___flmul@grs+3,f
  6233  0F43  0BDE               	decfsz	??___flmul,f
  6234  0F44  2F3E               	goto	u3735
  6235  0F45                     l2469:
  6236  0F45  30FF               	movlw	255
  6237  0F46  07EE               	addwf	___flmul@temp,f
  6238  0F47  1803               	skipnc
  6239  0F48  0AEF               	incf	___flmul@temp+1,f
  6240  0F49  30FF               	movlw	255
  6241  0F4A  07EF               	addwf	___flmul@temp+1,f
  6242  0F4B                     l2471:
  6243  0F4B  1FEC               	btfss	___flmul@prod+2,7
  6244  0F4C  2F4E               	goto	u3741
  6245  0F4D  2F4F               	goto	u3740
  6246  0F4E                     u3741:
  6247  0F4E  2F2E               	goto	l2461
  6248  0F4F                     u3740:
  6249  0F4F                     l2473:
  6250  0F4F  01E8               	clrf	___flmul@aexp
  6251  0F50                     l2475:
  6252  0F50  1FE7               	btfss	___flmul@grs+3,7
  6253  0F51  2F53               	goto	u3751
  6254  0F52  2F54               	goto	u3750
  6255  0F53                     u3751:
  6256  0F53  2F70               	goto	l2483
  6257  0F54                     u3750:
  6258  0F54                     l2477:
  6259  0F54  30FF               	movlw	255
  6260  0F55  0564               	andwf	___flmul@grs,w
  6261  0F56  00DE               	movwf	??___flmul
  6262  0F57  30FF               	movlw	255
  6263  0F58  0565               	andwf	___flmul@grs+1,w
  6264  0F59  00DF               	movwf	??___flmul+1
  6265  0F5A  30FF               	movlw	255
  6266  0F5B  0566               	andwf	___flmul@grs+2,w
  6267  0F5C  00E0               	movwf	??___flmul+2
  6268  0F5D  307F               	movlw	127
  6269  0F5E  0567               	andwf	___flmul@grs+3,w
  6270  0F5F  00E1               	movwf	??___flmul+3
  6271  0F60  0861               	movf	??___flmul+3,w
  6272  0F61  0460               	iorwf	??___flmul+2,w
  6273  0F62  045F               	iorwf	??___flmul+1,w
  6274  0F63  045E               	iorwf	??___flmul,w
  6275  0F64  1903               	skipnz
  6276  0F65  2F67               	goto	u3761
  6277  0F66  2F68               	goto	u3760
  6278  0F67                     u3761:
  6279  0F67  2F6B               	goto	l618
  6280  0F68                     u3760:
  6281  0F68                     l2479:
  6282  0F68  01E8               	clrf	___flmul@aexp
  6283  0F69  0AE8               	incf	___flmul@aexp,f
  6284  0F6A  2F70               	goto	l2483
  6285  0F6B                     l618:
  6286  0F6B  1C6A               	btfss	___flmul@prod,0
  6287  0F6C  2F6E               	goto	u3771
  6288  0F6D  2F6F               	goto	u3770
  6289  0F6E                     u3771:
  6290  0F6E  2F70               	goto	l2483
  6291  0F6F                     u3770:
  6292  0F6F  2F68               	goto	l2479
  6293  0F70                     l2483:
  6294  0F70  0868               	movf	___flmul@aexp,w
  6295  0F71  1903               	btfsc	3,2
  6296  0F72  2F74               	goto	u3781
  6297  0F73  2F75               	goto	u3780
  6298  0F74                     u3781:
  6299  0F74  2FA6               	goto	l2493
  6300  0F75                     u3780:
  6301  0F75                     l2485:
  6302  0F75  3001               	movlw	1
  6303  0F76  07EA               	addwf	___flmul@prod,f
  6304  0F77  3000               	movlw	0
  6305  0F78  1803               	skipnc
  6306  0F79  3001               	movlw	1
  6307  0F7A  07EB               	addwf	___flmul@prod+1,f
  6308  0F7B  3000               	movlw	0
  6309  0F7C  1803               	skipnc
  6310  0F7D  3001               	movlw	1
  6311  0F7E  07EC               	addwf	___flmul@prod+2,f
  6312  0F7F  3000               	movlw	0
  6313  0F80  1803               	skipnc
  6314  0F81  3001               	movlw	1
  6315  0F82  07ED               	addwf	___flmul@prod+3,f
  6316  0F83                     l2487:
  6317  0F83  1C6D               	btfss	___flmul@prod+3,0
  6318  0F84  2F86               	goto	u3791
  6319  0F85  2F87               	goto	u3790
  6320  0F86                     u3791:
  6321  0F86  2FA6               	goto	l2493
  6322  0F87                     u3790:
  6323  0F87                     l2489:
  6324  0F87  086A               	movf	___flmul@prod,w
  6325  0F88  00DE               	movwf	??___flmul
  6326  0F89  086B               	movf	___flmul@prod+1,w
  6327  0F8A  00DF               	movwf	??___flmul+1
  6328  0F8B  086C               	movf	___flmul@prod+2,w
  6329  0F8C  00E0               	movwf	??___flmul+2
  6330  0F8D  086D               	movf	___flmul@prod+3,w
  6331  0F8E  00E1               	movwf	??___flmul+3
  6332  0F8F  3001               	movlw	1
  6333  0F90  00E2               	movwf	??___flmul+4
  6334  0F91                     u3805:
  6335  0F91  0D61               	rlf	??___flmul+3,w
  6336  0F92  0CE1               	rrf	??___flmul+3,f
  6337  0F93  0CE0               	rrf	??___flmul+2,f
  6338  0F94  0CDF               	rrf	??___flmul+1,f
  6339  0F95  0CDE               	rrf	??___flmul,f
  6340  0F96                     u3800:
  6341  0F96  0BE2               	decfsz	??___flmul+4,f
  6342  0F97  2F91               	goto	u3805
  6343  0F98  0861               	movf	??___flmul+3,w
  6344  0F99  00ED               	movwf	___flmul@prod+3
  6345  0F9A  0860               	movf	??___flmul+2,w
  6346  0F9B  00EC               	movwf	___flmul@prod+2
  6347  0F9C  085F               	movf	??___flmul+1,w
  6348  0F9D  00EB               	movwf	___flmul@prod+1
  6349  0F9E  085E               	movf	??___flmul,w
  6350  0F9F  00EA               	movwf	___flmul@prod
  6351  0FA0                     l2491:
  6352  0FA0  3001               	movlw	1
  6353  0FA1  07EE               	addwf	___flmul@temp,f
  6354  0FA2  1803               	skipnc
  6355  0FA3  0AEF               	incf	___flmul@temp+1,f
  6356  0FA4  3000               	movlw	0
  6357  0FA5  07EF               	addwf	___flmul@temp+1,f
  6358  0FA6                     l2493:
  6359  0FA6  086F               	movf	___flmul@temp+1,w
  6360  0FA7  3A80               	xorlw	128
  6361  0FA8  00FF               	movwf	btemp+1
  6362  0FA9  3080               	movlw	128
  6363  0FAA  027F               	subwf	btemp+1,w
  6364  0FAB  1D03               	skipz
  6365  0FAC  2FAF               	goto	u3815
  6366  0FAD  30FF               	movlw	255
  6367  0FAE  026E               	subwf	___flmul@temp,w
  6368  0FAF                     u3815:
  6369  0FAF  1C03               	skipc
  6370  0FB0  2FB2               	goto	u3811
  6371  0FB1  2FB3               	goto	u3810
  6372  0FB2                     u3811:
  6373  0FB2  2FBE               	goto	l2497
  6374  0FB3                     u3810:
  6375  0FB3                     l2495:
  6376  0FB3  307F               	movlw	127
  6377  0FB4  1283               	bcf	3,5	;RP0=0, select bank0
  6378  0FB5  1303               	bcf	3,6	;RP1=0, select bank0
  6379  0FB6  00ED               	movwf	___flmul@prod+3
  6380  0FB7  3080               	movlw	128
  6381  0FB8  00EC               	movwf	___flmul@prod+2
  6382  0FB9  3000               	movlw	0
  6383  0FBA  00EB               	movwf	___flmul@prod+1
  6384  0FBB  3000               	movlw	0
  6385  0FBC  00EA               	movwf	___flmul@prod
  6386  0FBD  2FF3               	goto	l624
  6387  0FBE                     l2497:
  6388  0FBE  1283               	bcf	3,5	;RP0=0, select bank0
  6389  0FBF  1303               	bcf	3,6	;RP1=0, select bank0
  6390  0FC0  086F               	movf	___flmul@temp+1,w
  6391  0FC1  3A80               	xorlw	128
  6392  0FC2  00FF               	movwf	btemp+1
  6393  0FC3  3080               	movlw	128
  6394  0FC4  027F               	subwf	btemp+1,w
  6395  0FC5  1D03               	skipz
  6396  0FC6  2FC9               	goto	u3825
  6397  0FC7  3001               	movlw	1
  6398  0FC8  026E               	subwf	___flmul@temp,w
  6399  0FC9                     u3825:
  6400  0FC9  1803               	skipnc
  6401  0FCA  2FCC               	goto	u3821
  6402  0FCB  2FCD               	goto	u3820
  6403  0FCC                     u3821:
  6404  0FCC  2FD9               	goto	l2503
  6405  0FCD                     u3820:
  6406  0FCD                     l2499:
  6407  0FCD  3000               	movlw	0
  6408  0FCE  1283               	bcf	3,5	;RP0=0, select bank0
  6409  0FCF  1303               	bcf	3,6	;RP1=0, select bank0
  6410  0FD0  00ED               	movwf	___flmul@prod+3
  6411  0FD1  3000               	movlw	0
  6412  0FD2  00EC               	movwf	___flmul@prod+2
  6413  0FD3  3000               	movlw	0
  6414  0FD4  00EB               	movwf	___flmul@prod+1
  6415  0FD5  3000               	movlw	0
  6416  0FD6  00EA               	movwf	___flmul@prod
  6417  0FD7                     l2501:
  6418  0FD7  01E3               	clrf	___flmul@sign
  6419  0FD8  2FF3               	goto	l624
  6420  0FD9                     l2503:
  6421  0FD9  1283               	bcf	3,5	;RP0=0, select bank0
  6422  0FDA  1303               	bcf	3,6	;RP1=0, select bank0
  6423  0FDB  086E               	movf	___flmul@temp,w
  6424  0FDC  00FF               	movwf	btemp+1
  6425  0FDD  087F               	movf	btemp+1,w
  6426  0FDE  00E9               	movwf	___flmul@bexp
  6427  0FDF                     l2505:
  6428  0FDF  30FF               	movlw	255
  6429  0FE0  05EA               	andwf	___flmul@prod,f
  6430  0FE1  30FF               	movlw	255
  6431  0FE2  05EB               	andwf	___flmul@prod+1,f
  6432  0FE3  307F               	movlw	127
  6433  0FE4  05EC               	andwf	___flmul@prod+2,f
  6434  0FE5  3000               	movlw	0
  6435  0FE6  05ED               	andwf	___flmul@prod+3,f
  6436  0FE7                     l2507:
  6437  0FE7  1C69               	btfss	___flmul@bexp,0
  6438  0FE8  2FEA               	goto	u3831
  6439  0FE9  2FEB               	goto	u3830
  6440  0FEA                     u3831:
  6441  0FEA  2FEC               	goto	l2511
  6442  0FEB                     u3830:
  6443  0FEB                     l2509:
  6444  0FEB  17EC               	bsf	___flmul@prod+2,7
  6445  0FEC                     l2511:
  6446  0FEC  0869               	movf	___flmul@bexp,w
  6447  0FED  00DE               	movwf	??___flmul
  6448  0FEE  1003               	clrc
  6449  0FEF  0C5E               	rrf	??___flmul,w
  6450  0FF0  00FF               	movwf	btemp+1
  6451  0FF1  087F               	movf	btemp+1,w
  6452  0FF2  00ED               	movwf	___flmul@prod+3
  6453  0FF3                     l624:
  6454  0FF3  0863               	movf	___flmul@sign,w
  6455  0FF4  00FF               	movwf	btemp+1
  6456  0FF5  087F               	movf	btemp+1,w
  6457  0FF6  04ED               	iorwf	___flmul@prod+3,f
  6458  0FF7                     l2513:
  6459  0FF7  086D               	movf	___flmul@prod+3,w
  6460  0FF8  00D9               	movwf	?___flmul+3
  6461  0FF9  086C               	movf	___flmul@prod+2,w
  6462  0FFA  00D8               	movwf	?___flmul+2
  6463  0FFB  086B               	movf	___flmul@prod+1,w
  6464  0FFC  00D7               	movwf	?___flmul+1
  6465  0FFD  086A               	movf	___flmul@prod,w
  6466  0FFE  00D6               	movwf	?___flmul
  6467  0FFF                     l612:
  6468  0FFF  0008               	return
  6469  1000                     __end_of___flmul:
  6470                           
  6471                           	psect	text14
  6472  1222                     __ptext14:	
  6473 ;; *************** function __Umul8_16 *****************
  6474 ;; Defined at:
  6475 ;;		line 4 in file "C:\Program Files\Microchip\xc8\v2.20\pic\sources\c90\common\Umul8_16.c"
  6476 ;; Parameters:    Size  Location     Type
  6477 ;;  multiplier      1    wreg     unsigned char 
  6478 ;;  multiplicand    1    2[COMMON] unsigned char 
  6479 ;; Auto vars:     Size  Location     Type
  6480 ;;  multiplier      1   10[COMMON] unsigned char 
  6481 ;;  word_mpld       2    8[COMMON] unsigned int 
  6482 ;;  product         2    6[COMMON] unsigned int 
  6483 ;; Return value:  Size  Location     Type
  6484 ;;                  2    2[COMMON] unsigned int 
  6485 ;; Registers used:
  6486 ;;		wreg, status,2, status,0
  6487 ;; Tracked objects:
  6488 ;;		On entry : 0/0
  6489 ;;		On exit  : 0/0
  6490 ;;		Unchanged: 0/0
  6491 ;; Data sizes:     COMMON   BANK0   BANK1   BANK3   BANK2
  6492 ;;      Params:         2       0       0       0       0
  6493 ;;      Locals:         5       0       0       0       0
  6494 ;;      Temps:          2       0       0       0       0
  6495 ;;      Totals:         9       0       0       0       0
  6496 ;;Total ram usage:        9 bytes
  6497 ;; Hardware stack levels used:    1
  6498 ;; Hardware stack levels required when called:    1
  6499 ;; This function calls:
  6500 ;;		Nothing
  6501 ;; This function is called by:
  6502 ;;		___flmul
  6503 ;; This function uses a non-reentrant model
  6504 ;;
  6505                           
  6506                           
  6507                           ;psect for function __Umul8_16
  6508  1222                     __Umul8_16:
  6509                           
  6510                           ;incstack = 0
  6511                           ; Regs used in __Umul8_16: [wreg+status,2+status,0]
  6512                           ;__Umul8_16@multiplier stored from wreg
  6513  1222  00FA               	movwf	__Umul8_16@multiplier
  6514  1223                     l1987:
  6515  1223  01F6               	clrf	__Umul8_16@product
  6516  1224  01F7               	clrf	__Umul8_16@product+1
  6517  1225                     l1989:
  6518  1225  0872               	movf	__Umul8_16@multiplicand,w
  6519  1226  00F4               	movwf	??__Umul8_16
  6520  1227  01F5               	clrf	??__Umul8_16+1
  6521  1228  0874               	movf	??__Umul8_16,w
  6522  1229  00F8               	movwf	__Umul8_16@word_mpld
  6523  122A  0875               	movf	??__Umul8_16+1,w
  6524  122B  00F9               	movwf	__Umul8_16@word_mpld+1
  6525  122C                     l1991:
  6526  122C  1C7A               	btfss	__Umul8_16@multiplier,0
  6527  122D  2A2F               	goto	u2631
  6528  122E  2A30               	goto	u2630
  6529  122F                     u2631:
  6530  122F  2A36               	goto	l631
  6531  1230                     u2630:
  6532  1230                     l1993:
  6533  1230  0878               	movf	__Umul8_16@word_mpld,w
  6534  1231  07F6               	addwf	__Umul8_16@product,f
  6535  1232  1803               	skipnc
  6536  1233  0AF7               	incf	__Umul8_16@product+1,f
  6537  1234  0879               	movf	__Umul8_16@word_mpld+1,w
  6538  1235  07F7               	addwf	__Umul8_16@product+1,f
  6539  1236                     l631:
  6540  1236  3001               	movlw	1
  6541  1237                     u2645:
  6542  1237  1003               	clrc
  6543  1238  0DF8               	rlf	__Umul8_16@word_mpld,f
  6544  1239  0DF9               	rlf	__Umul8_16@word_mpld+1,f
  6545  123A  3EFF               	addlw	-1
  6546  123B  1D03               	skipz
  6547  123C  2A37               	goto	u2645
  6548  123D  1003               	clrc
  6549  123E  0CFA               	rrf	__Umul8_16@multiplier,f
  6550  123F                     l1995:
  6551  123F  087A               	movf	__Umul8_16@multiplier,w
  6552  1240  1D03               	btfss	3,2
  6553  1241  2A43               	goto	u2651
  6554  1242  2A44               	goto	u2650
  6555  1243                     u2651:
  6556  1243  2A2C               	goto	l1991
  6557  1244                     u2650:
  6558  1244                     l1997:
  6559  1244  0877               	movf	__Umul8_16@product+1,w
  6560  1245  00F3               	movwf	?__Umul8_16+1
  6561  1246  0876               	movf	__Umul8_16@product,w
  6562  1247  00F2               	movwf	?__Umul8_16
  6563  1248                     l633:
  6564  1248  0008               	return
  6565  1249                     __end_of__Umul8_16:
  6566                           
  6567                           	psect	text15
  6568  083A                     __ptext15:	
  6569 ;; *************** function ___fldiv *****************
  6570 ;; Defined at:
  6571 ;;		line 8 in file "C:\Program Files\Microchip\xc8\v2.20\pic\sources\c90\common\sprcdiv.c"
  6572 ;; Parameters:    Size  Location     Type
  6573 ;;  a               4   28[BANK0 ] unsigned int 
  6574 ;;  b               4   32[BANK0 ] unsigned int 
  6575 ;; Auto vars:     Size  Location     Type
  6576 ;;  grs             4   48[BANK0 ] unsigned long 
  6577 ;;  rem             4   41[BANK0 ] unsigned long 
  6578 ;;  new_exp         2   46[BANK0 ] int 
  6579 ;;  aexp            1   53[BANK0 ] unsigned char 
  6580 ;;  bexp            1   52[BANK0 ] unsigned char 
  6581 ;;  sign            1   45[BANK0 ] unsigned char 
  6582 ;; Return value:  Size  Location     Type
  6583 ;;                  4   28[BANK0 ] unsigned char 
  6584 ;; Registers used:
  6585 ;;		wreg, status,2, status,0, btemp+1
  6586 ;; Tracked objects:
  6587 ;;		On entry : 0/0
  6588 ;;		On exit  : 0/0
  6589 ;;		Unchanged: 0/0
  6590 ;; Data sizes:     COMMON   BANK0   BANK1   BANK3   BANK2
  6591 ;;      Params:         0       8       0       0       0
  6592 ;;      Locals:         0      13       0       0       0
  6593 ;;      Temps:          0       5       0       0       0
  6594 ;;      Totals:         0      26       0       0       0
  6595 ;;Total ram usage:       26 bytes
  6596 ;; Hardware stack levels used:    1
  6597 ;; Hardware stack levels required when called:    1
  6598 ;; This function calls:
  6599 ;;		Nothing
  6600 ;; This function is called by:
  6601 ;;		_Voltage_Value
  6602 ;;		_Resistance_Value
  6603 ;;		_conversion_newton
  6604 ;; This function uses a non-reentrant model
  6605 ;;
  6606                           
  6607                           
  6608                           ;psect for function ___fldiv
  6609  083A                     ___fldiv:
  6610  083A                     l2231:	
  6611                           ;incstack = 0
  6612                           ; Regs used in ___fldiv: [wreg+status,2+status,0+btemp+1]
  6613                           
  6614  083A  1283               	bcf	3,5	;RP0=0, select bank0
  6615  083B  1303               	bcf	3,6	;RP1=0, select bank0
  6616  083C  0843               	movf	___fldiv@b+3,w
  6617  083D  3980               	andlw	128
  6618  083E  00FF               	movwf	btemp+1
  6619  083F  087F               	movf	btemp+1,w
  6620  0840  00CD               	movwf	___fldiv@sign
  6621  0841                     l2233:
  6622  0841  0843               	movf	___fldiv@b+3,w
  6623  0842  00C4               	movwf	??___fldiv
  6624  0843  0744               	addwf	??___fldiv,w
  6625  0844  00FF               	movwf	btemp+1
  6626  0845  087F               	movf	btemp+1,w
  6627  0846  00D4               	movwf	___fldiv@bexp
  6628  0847                     l2235:
  6629  0847  1FC2               	btfss	___fldiv@b+2,7
  6630  0848  284A               	goto	u3181
  6631  0849  284B               	goto	u3180
  6632  084A                     u3181:
  6633  084A  284C               	goto	l2239
  6634  084B                     u3180:
  6635  084B                     l2237:
  6636  084B  1454               	bsf	___fldiv@bexp,0
  6637  084C                     l2239:
  6638  084C  0854               	movf	___fldiv@bexp,w
  6639  084D  1903               	btfsc	3,2
  6640  084E  2850               	goto	u3191
  6641  084F  2851               	goto	u3190
  6642  0850                     u3191:
  6643  0850  2861               	goto	l2249
  6644  0851                     u3190:
  6645  0851                     l2241:
  6646  0851  0A54               	incf	___fldiv@bexp,w
  6647  0852  1D03               	btfss	3,2
  6648  0853  2855               	goto	u3201
  6649  0854  2856               	goto	u3200
  6650  0855                     u3201:
  6651  0855  285E               	goto	l2245
  6652  0856                     u3200:
  6653  0856                     l2243:
  6654  0856  3000               	movlw	0
  6655  0857  00C3               	movwf	___fldiv@b+3
  6656  0858  3000               	movlw	0
  6657  0859  00C2               	movwf	___fldiv@b+2
  6658  085A  3000               	movlw	0
  6659  085B  00C1               	movwf	___fldiv@b+1
  6660  085C  3000               	movlw	0
  6661  085D  00C0               	movwf	___fldiv@b
  6662  085E                     l2245:
  6663  085E  17C2               	bsf	___fldiv@b+2,7
  6664  085F                     l2247:
  6665  085F  01C3               	clrf	___fldiv@b+3
  6666  0860  2869               	goto	l2251
  6667  0861                     l2249:
  6668  0861  3000               	movlw	0
  6669  0862  00C3               	movwf	___fldiv@b+3
  6670  0863  3000               	movlw	0
  6671  0864  00C2               	movwf	___fldiv@b+2
  6672  0865  3000               	movlw	0
  6673  0866  00C1               	movwf	___fldiv@b+1
  6674  0867  3000               	movlw	0
  6675  0868  00C0               	movwf	___fldiv@b
  6676  0869                     l2251:
  6677  0869  083F               	movf	___fldiv@a+3,w
  6678  086A  3980               	andlw	128
  6679  086B  00FF               	movwf	btemp+1
  6680  086C  087F               	movf	btemp+1,w
  6681  086D  06CD               	xorwf	___fldiv@sign,f
  6682  086E                     l2253:
  6683  086E  083F               	movf	___fldiv@a+3,w
  6684  086F  00C4               	movwf	??___fldiv
  6685  0870  0744               	addwf	??___fldiv,w
  6686  0871  00FF               	movwf	btemp+1
  6687  0872  087F               	movf	btemp+1,w
  6688  0873  00D5               	movwf	___fldiv@aexp
  6689  0874                     l2255:
  6690  0874  1FBE               	btfss	___fldiv@a+2,7
  6691  0875  2877               	goto	u3211
  6692  0876  2878               	goto	u3210
  6693  0877                     u3211:
  6694  0877  2879               	goto	l2259
  6695  0878                     u3210:
  6696  0878                     l2257:
  6697  0878  1455               	bsf	___fldiv@aexp,0
  6698  0879                     l2259:
  6699  0879  0855               	movf	___fldiv@aexp,w
  6700  087A  1903               	btfsc	3,2
  6701  087B  287D               	goto	u3221
  6702  087C  287E               	goto	u3220
  6703  087D                     u3221:
  6704  087D  288E               	goto	l2269
  6705  087E                     u3220:
  6706  087E                     l2261:
  6707  087E  0A55               	incf	___fldiv@aexp,w
  6708  087F  1D03               	btfss	3,2
  6709  0880  2882               	goto	u3231
  6710  0881  2883               	goto	u3230
  6711  0882                     u3231:
  6712  0882  288B               	goto	l2265
  6713  0883                     u3230:
  6714  0883                     l2263:
  6715  0883  3000               	movlw	0
  6716  0884  00BF               	movwf	___fldiv@a+3
  6717  0885  3000               	movlw	0
  6718  0886  00BE               	movwf	___fldiv@a+2
  6719  0887  3000               	movlw	0
  6720  0888  00BD               	movwf	___fldiv@a+1
  6721  0889  3000               	movlw	0
  6722  088A  00BC               	movwf	___fldiv@a
  6723  088B                     l2265:
  6724  088B  17BE               	bsf	___fldiv@a+2,7
  6725  088C                     l2267:
  6726  088C  01BF               	clrf	___fldiv@a+3
  6727  088D  2896               	goto	l572
  6728  088E                     l2269:
  6729  088E  3000               	movlw	0
  6730  088F  00BF               	movwf	___fldiv@a+3
  6731  0890  3000               	movlw	0
  6732  0891  00BE               	movwf	___fldiv@a+2
  6733  0892  3000               	movlw	0
  6734  0893  00BD               	movwf	___fldiv@a+1
  6735  0894  3000               	movlw	0
  6736  0895  00BC               	movwf	___fldiv@a
  6737  0896                     l572:
  6738  0896  083F               	movf	___fldiv@a+3,w
  6739  0897  043E               	iorwf	___fldiv@a+2,w
  6740  0898  043D               	iorwf	___fldiv@a+1,w
  6741  0899  043C               	iorwf	___fldiv@a,w
  6742  089A  1D03               	skipz
  6743  089B  289D               	goto	u3241
  6744  089C  289E               	goto	u3240
  6745  089D                     u3241:
  6746  089D  28B7               	goto	l2279
  6747  089E                     u3240:
  6748  089E                     l2271:
  6749  089E  3000               	movlw	0
  6750  089F  00C3               	movwf	___fldiv@b+3
  6751  08A0  3000               	movlw	0
  6752  08A1  00C2               	movwf	___fldiv@b+2
  6753  08A2  3000               	movlw	0
  6754  08A3  00C1               	movwf	___fldiv@b+1
  6755  08A4  3000               	movlw	0
  6756  08A5  00C0               	movwf	___fldiv@b
  6757  08A6  3080               	movlw	128
  6758  08A7  04C2               	iorwf	___fldiv@b+2,f
  6759  08A8  307F               	movlw	127
  6760  08A9  04C3               	iorwf	___fldiv@b+3,f
  6761  08AA                     l2273:
  6762  08AA  084D               	movf	___fldiv@sign,w
  6763  08AB  00FF               	movwf	btemp+1
  6764  08AC  087F               	movf	btemp+1,w
  6765  08AD  04C3               	iorwf	___fldiv@b+3,f
  6766  08AE                     l2275:
  6767  08AE  0843               	movf	___fldiv@b+3,w
  6768  08AF  00BF               	movwf	?___fldiv+3
  6769  08B0  0842               	movf	___fldiv@b+2,w
  6770  08B1  00BE               	movwf	?___fldiv+2
  6771  08B2  0841               	movf	___fldiv@b+1,w
  6772  08B3  00BD               	movwf	?___fldiv+1
  6773  08B4  0840               	movf	___fldiv@b,w
  6774  08B5  00BC               	movwf	?___fldiv
  6775  08B6  2A16               	goto	l574
  6776  08B7                     l2279:
  6777  08B7  0854               	movf	___fldiv@bexp,w
  6778  08B8  1D03               	btfss	3,2
  6779  08B9  28BB               	goto	u3251
  6780  08BA  28BC               	goto	u3250
  6781  08BB                     u3251:
  6782  08BB  28C5               	goto	l2285
  6783  08BC                     u3250:
  6784  08BC                     l2281:
  6785  08BC  3000               	movlw	0
  6786  08BD  00BF               	movwf	?___fldiv+3
  6787  08BE  3000               	movlw	0
  6788  08BF  00BE               	movwf	?___fldiv+2
  6789  08C0  3000               	movlw	0
  6790  08C1  00BD               	movwf	?___fldiv+1
  6791  08C2  3000               	movlw	0
  6792  08C3  00BC               	movwf	?___fldiv
  6793  08C4  2A16               	goto	l574
  6794  08C5                     l2285:
  6795  08C5  0854               	movf	___fldiv@bexp,w
  6796  08C6  00C4               	movwf	??___fldiv
  6797  08C7  01C5               	clrf	??___fldiv+1
  6798  08C8  0845               	movf	??___fldiv+1,w
  6799  08C9  00C7               	movwf	??___fldiv+3
  6800  08CA  0855               	movf	___fldiv@aexp,w
  6801  08CB  0244               	subwf	??___fldiv,w
  6802  08CC  00C6               	movwf	??___fldiv+2
  6803  08CD  1C03               	skipc
  6804  08CE  03C7               	decf	??___fldiv+3,f
  6805  08CF  0846               	movf	??___fldiv+2,w
  6806  08D0  3E7F               	addlw	127
  6807  08D1  00CE               	movwf	___fldiv@new_exp
  6808  08D2  0847               	movf	??___fldiv+3,w
  6809  08D3  1803               	skipnc
  6810  08D4  3E01               	addlw	1
  6811  08D5  3E00               	addlw	0
  6812  08D6  00CF               	movwf	___fldiv@new_exp+1
  6813  08D7                     l2287:
  6814  08D7  0843               	movf	___fldiv@b+3,w
  6815  08D8  00CC               	movwf	___fldiv@rem+3
  6816  08D9  0842               	movf	___fldiv@b+2,w
  6817  08DA  00CB               	movwf	___fldiv@rem+2
  6818  08DB  0841               	movf	___fldiv@b+1,w
  6819  08DC  00CA               	movwf	___fldiv@rem+1
  6820  08DD  0840               	movf	___fldiv@b,w
  6821  08DE  00C9               	movwf	___fldiv@rem
  6822  08DF                     l2289:
  6823  08DF  3000               	movlw	0
  6824  08E0  00C3               	movwf	___fldiv@b+3
  6825  08E1  3000               	movlw	0
  6826  08E2  00C2               	movwf	___fldiv@b+2
  6827  08E3  3000               	movlw	0
  6828  08E4  00C1               	movwf	___fldiv@b+1
  6829  08E5  3000               	movlw	0
  6830  08E6  00C0               	movwf	___fldiv@b
  6831  08E7                     l2291:
  6832  08E7  3000               	movlw	0
  6833  08E8  00D3               	movwf	___fldiv@grs+3
  6834  08E9  3000               	movlw	0
  6835  08EA  00D2               	movwf	___fldiv@grs+2
  6836  08EB  3000               	movlw	0
  6837  08EC  00D1               	movwf	___fldiv@grs+1
  6838  08ED  3000               	movlw	0
  6839  08EE  00D0               	movwf	___fldiv@grs
  6840  08EF                     l2293:
  6841  08EF  01D5               	clrf	___fldiv@aexp
  6842  08F0  293B               	goto	l2313
  6843  08F1                     l2295:
  6844  08F1  0855               	movf	___fldiv@aexp,w
  6845  08F2  1903               	btfsc	3,2
  6846  08F3  28F5               	goto	u3261
  6847  08F4  28F6               	goto	u3260
  6848  08F5                     u3261:
  6849  08F5  2916               	goto	l2305
  6850  08F6                     u3260:
  6851  08F6                     l2297:
  6852  08F6  3001               	movlw	1
  6853  08F7  00C4               	movwf	??___fldiv
  6854  08F8                     u3275:
  6855  08F8  1003               	clrc
  6856  08F9  0DC9               	rlf	___fldiv@rem,f
  6857  08FA  0DCA               	rlf	___fldiv@rem+1,f
  6858  08FB  0DCB               	rlf	___fldiv@rem+2,f
  6859  08FC  0DCC               	rlf	___fldiv@rem+3,f
  6860  08FD  0BC4               	decfsz	??___fldiv,f
  6861  08FE  28F8               	goto	u3275
  6862  08FF  3001               	movlw	1
  6863  0900  00C4               	movwf	??___fldiv
  6864  0901                     u3285:
  6865  0901  1003               	clrc
  6866  0902  0DC0               	rlf	___fldiv@b,f
  6867  0903  0DC1               	rlf	___fldiv@b+1,f
  6868  0904  0DC2               	rlf	___fldiv@b+2,f
  6869  0905  0DC3               	rlf	___fldiv@b+3,f
  6870  0906  0BC4               	decfsz	??___fldiv,f
  6871  0907  2901               	goto	u3285
  6872  0908                     l2299:
  6873  0908  1FD3               	btfss	___fldiv@grs+3,7
  6874  0909  290B               	goto	u3291
  6875  090A  290C               	goto	u3290
  6876  090B                     u3291:
  6877  090B  290D               	goto	l2303
  6878  090C                     u3290:
  6879  090C                     l2301:
  6880  090C  1440               	bsf	___fldiv@b,0
  6881  090D                     l2303:
  6882  090D  3001               	movlw	1
  6883  090E  00C4               	movwf	??___fldiv
  6884  090F                     u3305:
  6885  090F  1003               	clrc
  6886  0910  0DD0               	rlf	___fldiv@grs,f
  6887  0911  0DD1               	rlf	___fldiv@grs+1,f
  6888  0912  0DD2               	rlf	___fldiv@grs+2,f
  6889  0913  0DD3               	rlf	___fldiv@grs+3,f
  6890  0914  0BC4               	decfsz	??___fldiv,f
  6891  0915  290F               	goto	u3305
  6892  0916                     l2305:
  6893  0916  083F               	movf	___fldiv@a+3,w
  6894  0917  024C               	subwf	___fldiv@rem+3,w
  6895  0918  1D03               	skipz
  6896  0919  2924               	goto	u3315
  6897  091A  083E               	movf	___fldiv@a+2,w
  6898  091B  024B               	subwf	___fldiv@rem+2,w
  6899  091C  1D03               	skipz
  6900  091D  2924               	goto	u3315
  6901  091E  083D               	movf	___fldiv@a+1,w
  6902  091F  024A               	subwf	___fldiv@rem+1,w
  6903  0920  1D03               	skipz
  6904  0921  2924               	goto	u3315
  6905  0922  083C               	movf	___fldiv@a,w
  6906  0923  0249               	subwf	___fldiv@rem,w
  6907  0924                     u3315:
  6908  0924  1C03               	skipc
  6909  0925  2927               	goto	u3311
  6910  0926  2928               	goto	u3310
  6911  0927                     u3311:
  6912  0927  2937               	goto	l2311
  6913  0928                     u3310:
  6914  0928                     l2307:
  6915  0928  1753               	bsf	___fldiv@grs+3,6
  6916  0929                     l2309:
  6917  0929  083C               	movf	___fldiv@a,w
  6918  092A  02C9               	subwf	___fldiv@rem,f
  6919  092B  083D               	movf	___fldiv@a+1,w
  6920  092C  1C03               	skipc
  6921  092D  0F3D               	incfsz	___fldiv@a+1,w
  6922  092E  02CA               	subwf	___fldiv@rem+1,f
  6923  092F  083E               	movf	___fldiv@a+2,w
  6924  0930  1C03               	skipc
  6925  0931  0F3E               	incfsz	___fldiv@a+2,w
  6926  0932  02CB               	subwf	___fldiv@rem+2,f
  6927  0933  083F               	movf	___fldiv@a+3,w
  6928  0934  1C03               	skipc
  6929  0935  0F3F               	incfsz	___fldiv@a+3,w
  6930  0936  02CC               	subwf	___fldiv@rem+3,f
  6931  0937                     l2311:
  6932  0937  3001               	movlw	1
  6933  0938  00FF               	movwf	btemp+1
  6934  0939  087F               	movf	btemp+1,w
  6935  093A  07D5               	addwf	___fldiv@aexp,f
  6936  093B                     l2313:
  6937  093B  301A               	movlw	26
  6938  093C  0255               	subwf	___fldiv@aexp,w
  6939  093D  1C03               	skipc
  6940  093E  2940               	goto	u3321
  6941  093F  2941               	goto	u3320
  6942  0940                     u3321:
  6943  0940  28F1               	goto	l2295
  6944  0941                     u3320:
  6945  0941                     l2315:
  6946  0941  084C               	movf	___fldiv@rem+3,w
  6947  0942  044B               	iorwf	___fldiv@rem+2,w
  6948  0943  044A               	iorwf	___fldiv@rem+1,w
  6949  0944  0449               	iorwf	___fldiv@rem,w
  6950  0945  1903               	skipnz
  6951  0946  2948               	goto	u3331
  6952  0947  2949               	goto	u3330
  6953  0948                     u3331:
  6954  0948  2968               	goto	l2329
  6955  0949                     u3330:
  6956  0949                     l2317:
  6957  0949  1450               	bsf	___fldiv@grs,0
  6958  094A  2968               	goto	l2329
  6959  094B                     l2319:
  6960  094B  3001               	movlw	1
  6961  094C  00C4               	movwf	??___fldiv
  6962  094D                     u3345:
  6963  094D  1003               	clrc
  6964  094E  0DC0               	rlf	___fldiv@b,f
  6965  094F  0DC1               	rlf	___fldiv@b+1,f
  6966  0950  0DC2               	rlf	___fldiv@b+2,f
  6967  0951  0DC3               	rlf	___fldiv@b+3,f
  6968  0952  0BC4               	decfsz	??___fldiv,f
  6969  0953  294D               	goto	u3345
  6970  0954                     l2321:
  6971  0954  1FD3               	btfss	___fldiv@grs+3,7
  6972  0955  2957               	goto	u3351
  6973  0956  2958               	goto	u3350
  6974  0957                     u3351:
  6975  0957  2959               	goto	l2325
  6976  0958                     u3350:
  6977  0958                     l2323:
  6978  0958  1440               	bsf	___fldiv@b,0
  6979  0959                     l2325:
  6980  0959  3001               	movlw	1
  6981  095A  00C4               	movwf	??___fldiv
  6982  095B                     u3365:
  6983  095B  1003               	clrc
  6984  095C  0DD0               	rlf	___fldiv@grs,f
  6985  095D  0DD1               	rlf	___fldiv@grs+1,f
  6986  095E  0DD2               	rlf	___fldiv@grs+2,f
  6987  095F  0DD3               	rlf	___fldiv@grs+3,f
  6988  0960  0BC4               	decfsz	??___fldiv,f
  6989  0961  295B               	goto	u3365
  6990  0962                     l2327:
  6991  0962  30FF               	movlw	255
  6992  0963  07CE               	addwf	___fldiv@new_exp,f
  6993  0964  1803               	skipnc
  6994  0965  0ACF               	incf	___fldiv@new_exp+1,f
  6995  0966  30FF               	movlw	255
  6996  0967  07CF               	addwf	___fldiv@new_exp+1,f
  6997  0968                     l2329:
  6998  0968  1FC2               	btfss	___fldiv@b+2,7
  6999  0969  296B               	goto	u3371
  7000  096A  296C               	goto	u3370
  7001  096B                     u3371:
  7002  096B  294B               	goto	l2319
  7003  096C                     u3370:
  7004  096C                     l2331:
  7005  096C  01D5               	clrf	___fldiv@aexp
  7006  096D                     l2333:
  7007  096D  1FD3               	btfss	___fldiv@grs+3,7
  7008  096E  2970               	goto	u3381
  7009  096F  2971               	goto	u3380
  7010  0970                     u3381:
  7011  0970  298D               	goto	l2341
  7012  0971                     u3380:
  7013  0971                     l2335:
  7014  0971  30FF               	movlw	255
  7015  0972  0550               	andwf	___fldiv@grs,w
  7016  0973  00C4               	movwf	??___fldiv
  7017  0974  30FF               	movlw	255
  7018  0975  0551               	andwf	___fldiv@grs+1,w
  7019  0976  00C5               	movwf	??___fldiv+1
  7020  0977  30FF               	movlw	255
  7021  0978  0552               	andwf	___fldiv@grs+2,w
  7022  0979  00C6               	movwf	??___fldiv+2
  7023  097A  307F               	movlw	127
  7024  097B  0553               	andwf	___fldiv@grs+3,w
  7025  097C  00C7               	movwf	??___fldiv+3
  7026  097D  0847               	movf	??___fldiv+3,w
  7027  097E  0446               	iorwf	??___fldiv+2,w
  7028  097F  0445               	iorwf	??___fldiv+1,w
  7029  0980  0444               	iorwf	??___fldiv,w
  7030  0981  1903               	skipnz
  7031  0982  2984               	goto	u3391
  7032  0983  2985               	goto	u3390
  7033  0984                     u3391:
  7034  0984  2988               	goto	l588
  7035  0985                     u3390:
  7036  0985                     l2337:
  7037  0985  01D5               	clrf	___fldiv@aexp
  7038  0986  0AD5               	incf	___fldiv@aexp,f
  7039  0987  298D               	goto	l2341
  7040  0988                     l588:
  7041  0988  1C40               	btfss	___fldiv@b,0
  7042  0989  298B               	goto	u3401
  7043  098A  298C               	goto	u3400
  7044  098B                     u3401:
  7045  098B  298D               	goto	l2341
  7046  098C                     u3400:
  7047  098C  2985               	goto	l2337
  7048  098D                     l2341:
  7049  098D  0855               	movf	___fldiv@aexp,w
  7050  098E  1903               	btfsc	3,2
  7051  098F  2991               	goto	u3411
  7052  0990  2992               	goto	u3410
  7053  0991                     u3411:
  7054  0991  29C3               	goto	l2351
  7055  0992                     u3410:
  7056  0992                     l2343:
  7057  0992  3001               	movlw	1
  7058  0993  07C0               	addwf	___fldiv@b,f
  7059  0994  3000               	movlw	0
  7060  0995  1803               	skipnc
  7061  0996  3001               	movlw	1
  7062  0997  07C1               	addwf	___fldiv@b+1,f
  7063  0998  3000               	movlw	0
  7064  0999  1803               	skipnc
  7065  099A  3001               	movlw	1
  7066  099B  07C2               	addwf	___fldiv@b+2,f
  7067  099C  3000               	movlw	0
  7068  099D  1803               	skipnc
  7069  099E  3001               	movlw	1
  7070  099F  07C3               	addwf	___fldiv@b+3,f
  7071  09A0                     l2345:
  7072  09A0  1C43               	btfss	___fldiv@b+3,0
  7073  09A1  29A3               	goto	u3421
  7074  09A2  29A4               	goto	u3420
  7075  09A3                     u3421:
  7076  09A3  29C3               	goto	l2351
  7077  09A4                     u3420:
  7078  09A4                     l2347:
  7079  09A4  0840               	movf	___fldiv@b,w
  7080  09A5  00C4               	movwf	??___fldiv
  7081  09A6  0841               	movf	___fldiv@b+1,w
  7082  09A7  00C5               	movwf	??___fldiv+1
  7083  09A8  0842               	movf	___fldiv@b+2,w
  7084  09A9  00C6               	movwf	??___fldiv+2
  7085  09AA  0843               	movf	___fldiv@b+3,w
  7086  09AB  00C7               	movwf	??___fldiv+3
  7087  09AC  3001               	movlw	1
  7088  09AD  00C8               	movwf	??___fldiv+4
  7089  09AE                     u3435:
  7090  09AE  0D47               	rlf	??___fldiv+3,w
  7091  09AF  0CC7               	rrf	??___fldiv+3,f
  7092  09B0  0CC6               	rrf	??___fldiv+2,f
  7093  09B1  0CC5               	rrf	??___fldiv+1,f
  7094  09B2  0CC4               	rrf	??___fldiv,f
  7095  09B3                     u3430:
  7096  09B3  0BC8               	decfsz	??___fldiv+4,f
  7097  09B4  29AE               	goto	u3435
  7098  09B5  0847               	movf	??___fldiv+3,w
  7099  09B6  00C3               	movwf	___fldiv@b+3
  7100  09B7  0846               	movf	??___fldiv+2,w
  7101  09B8  00C2               	movwf	___fldiv@b+2
  7102  09B9  0845               	movf	??___fldiv+1,w
  7103  09BA  00C1               	movwf	___fldiv@b+1
  7104  09BB  0844               	movf	??___fldiv,w
  7105  09BC  00C0               	movwf	___fldiv@b
  7106  09BD                     l2349:
  7107  09BD  3001               	movlw	1
  7108  09BE  07CE               	addwf	___fldiv@new_exp,f
  7109  09BF  1803               	skipnc
  7110  09C0  0ACF               	incf	___fldiv@new_exp+1,f
  7111  09C1  3000               	movlw	0
  7112  09C2  07CF               	addwf	___fldiv@new_exp+1,f
  7113  09C3                     l2351:
  7114  09C3  084F               	movf	___fldiv@new_exp+1,w
  7115  09C4  3A80               	xorlw	128
  7116  09C5  00FF               	movwf	btemp+1
  7117  09C6  3080               	movlw	128
  7118  09C7  027F               	subwf	btemp+1,w
  7119  09C8  1D03               	skipz
  7120  09C9  29CC               	goto	u3445
  7121  09CA  30FF               	movlw	255
  7122  09CB  024E               	subwf	___fldiv@new_exp,w
  7123  09CC                     u3445:
  7124  09CC  1C03               	skipc
  7125  09CD  29CF               	goto	u3441
  7126  09CE  29D0               	goto	u3440
  7127  09CF                     u3441:
  7128  09CF  29DE               	goto	l2355
  7129  09D0                     u3440:
  7130  09D0                     l2353:
  7131  09D0  30FF               	movlw	255
  7132  09D1  1283               	bcf	3,5	;RP0=0, select bank0
  7133  09D2  1303               	bcf	3,6	;RP1=0, select bank0
  7134  09D3  00CE               	movwf	___fldiv@new_exp
  7135  09D4  3000               	movlw	0
  7136  09D5  00CF               	movwf	___fldiv@new_exp+1
  7137  09D6  3000               	movlw	0
  7138  09D7  00C3               	movwf	___fldiv@b+3
  7139  09D8  3000               	movlw	0
  7140  09D9  00C2               	movwf	___fldiv@b+2
  7141  09DA  3000               	movlw	0
  7142  09DB  00C1               	movwf	___fldiv@b+1
  7143  09DC  3000               	movlw	0
  7144  09DD  00C0               	movwf	___fldiv@b
  7145  09DE                     l2355:
  7146  09DE  1283               	bcf	3,5	;RP0=0, select bank0
  7147  09DF  1303               	bcf	3,6	;RP1=0, select bank0
  7148  09E0  084F               	movf	___fldiv@new_exp+1,w
  7149  09E1  3A80               	xorlw	128
  7150  09E2  00FF               	movwf	btemp+1
  7151  09E3  3080               	movlw	128
  7152  09E4  027F               	subwf	btemp+1,w
  7153  09E5  1D03               	skipz
  7154  09E6  29E9               	goto	u3455
  7155  09E7  3001               	movlw	1
  7156  09E8  024E               	subwf	___fldiv@new_exp,w
  7157  09E9                     u3455:
  7158  09E9  1803               	skipnc
  7159  09EA  29EC               	goto	u3451
  7160  09EB  29ED               	goto	u3450
  7161  09EC                     u3451:
  7162  09EC  29FA               	goto	l2363
  7163  09ED                     u3450:
  7164  09ED                     l2357:
  7165  09ED  1283               	bcf	3,5	;RP0=0, select bank0
  7166  09EE  1303               	bcf	3,6	;RP1=0, select bank0
  7167  09EF  01CE               	clrf	___fldiv@new_exp
  7168  09F0  01CF               	clrf	___fldiv@new_exp+1
  7169  09F1                     l2359:
  7170  09F1  3000               	movlw	0
  7171  09F2  00C3               	movwf	___fldiv@b+3
  7172  09F3  3000               	movlw	0
  7173  09F4  00C2               	movwf	___fldiv@b+2
  7174  09F5  3000               	movlw	0
  7175  09F6  00C1               	movwf	___fldiv@b+1
  7176  09F7  3000               	movlw	0
  7177  09F8  00C0               	movwf	___fldiv@b
  7178  09F9                     l2361:
  7179  09F9  01CD               	clrf	___fldiv@sign
  7180  09FA                     l2363:
  7181  09FA  1283               	bcf	3,5	;RP0=0, select bank0
  7182  09FB  1303               	bcf	3,6	;RP1=0, select bank0
  7183  09FC  084E               	movf	___fldiv@new_exp,w
  7184  09FD  00FF               	movwf	btemp+1
  7185  09FE  087F               	movf	btemp+1,w
  7186  09FF  00D4               	movwf	___fldiv@bexp
  7187  0A00                     l2365:
  7188  0A00  1C54               	btfss	___fldiv@bexp,0
  7189  0A01  2A03               	goto	u3461
  7190  0A02  2A04               	goto	u3460
  7191  0A03                     u3461:
  7192  0A03  2A06               	goto	l2369
  7193  0A04                     u3460:
  7194  0A04                     l2367:
  7195  0A04  17C2               	bsf	___fldiv@b+2,7
  7196  0A05  2A0A               	goto	l596
  7197  0A06                     l2369:
  7198  0A06  307F               	movlw	127
  7199  0A07  00FF               	movwf	btemp+1
  7200  0A08  087F               	movf	btemp+1,w
  7201  0A09  05C2               	andwf	___fldiv@b+2,f
  7202  0A0A                     l596:
  7203  0A0A  0854               	movf	___fldiv@bexp,w
  7204  0A0B  00C4               	movwf	??___fldiv
  7205  0A0C  1003               	clrc
  7206  0A0D  0C44               	rrf	??___fldiv,w
  7207  0A0E  00FF               	movwf	btemp+1
  7208  0A0F  087F               	movf	btemp+1,w
  7209  0A10  00C3               	movwf	___fldiv@b+3
  7210  0A11  084D               	movf	___fldiv@sign,w
  7211  0A12  00FF               	movwf	btemp+1
  7212  0A13  087F               	movf	btemp+1,w
  7213  0A14  04C3               	iorwf	___fldiv@b+3,f
  7214  0A15  28AE               	goto	l2275
  7215  0A16                     l574:
  7216  0A16  0008               	return
  7217  0A17                     __end_of___fldiv:
  7218                           
  7219                           	psect	text16
  7220  11FD                     __ptext16:	
  7221 ;; *************** function _PORT_putString *****************
  7222 ;; Defined at:
  7223 ;;		line 136 in file "port.c"
  7224 ;; Parameters:    Size  Location     Type
  7225 ;;  chaine          1    wreg     PTR unsigned char 
  7226 ;;		 -> STR_8(2), STR_7(15), STR_6(2), STR_5(19), 
  7227 ;;		 -> STR_4(2), STR_3(16), STR_2(2), STR_1(16), 
  7228 ;; Auto vars:     Size  Location     Type
  7229 ;;  chaine          1    5[COMMON] PTR unsigned char 
  7230 ;;		 -> STR_8(2), STR_7(15), STR_6(2), STR_5(19), 
  7231 ;;		 -> STR_4(2), STR_3(16), STR_2(2), STR_1(16), 
  7232 ;;  i               2    3[COMMON] int 
  7233 ;; Return value:  Size  Location     Type
  7234 ;;                  1    wreg      void 
  7235 ;; Registers used:
  7236 ;;		wreg, fsr0l, fsr0h, status,2, status,0, pclath, cstack
  7237 ;; Tracked objects:
  7238 ;;		On entry : 0/0
  7239 ;;		On exit  : 0/0
  7240 ;;		Unchanged: 0/0
  7241 ;; Data sizes:     COMMON   BANK0   BANK1   BANK3   BANK2
  7242 ;;      Params:         0       0       0       0       0
  7243 ;;      Locals:         3       0       0       0       0
  7244 ;;      Temps:          0       0       0       0       0
  7245 ;;      Totals:         3       0       0       0       0
  7246 ;;Total ram usage:        3 bytes
  7247 ;; Hardware stack levels used:    1
  7248 ;; Hardware stack levels required when called:    2
  7249 ;; This function calls:
  7250 ;;		_PORT_putchar
  7251 ;; This function is called by:
  7252 ;;		_main
  7253 ;; This function uses a non-reentrant model
  7254 ;;
  7255                           
  7256                           
  7257                           ;psect for function _PORT_putString
  7258  11FD                     _PORT_putString:
  7259                           
  7260                           ;incstack = 0
  7261                           ; Regs used in _PORT_putString: [wreg-fsr0h+status,2+status,0+pclath+cstack]
  7262                           ;PORT_putString@chaine stored from wreg
  7263  11FD  00F5               	movwf	PORT_putString@chaine
  7264  11FE                     l2633:
  7265                           
  7266                           ;port.c: 138:     int i;;port.c: 140:     for(i=0 ; chaine[i]!=0 ; i++)
  7267  11FE  01F3               	clrf	PORT_putString@i
  7268  11FF  01F4               	clrf	PORT_putString@i+1
  7269  1200  2A14               	goto	l2639
  7270  1201                     l2635:
  7271                           
  7272                           ;port.c: 141:     {;port.c: 142:         PORT_putchar(chaine[i]);
  7273  1201  0873               	movf	PORT_putString@i,w
  7274  1202  0775               	addwf	PORT_putString@chaine,w
  7275  1203  0084               	movwf	4
  7276  1204  160A  118A  2000  160A  118A  	fcall	stringdir
  7277  1209  160A  118A  216E  160A  118A  	fcall	_PORT_putchar
  7278  120E                     l2637:
  7279                           
  7280                           ;port.c: 143:     }
  7281  120E  3001               	movlw	1
  7282  120F  07F3               	addwf	PORT_putString@i,f
  7283  1210  1803               	skipnc
  7284  1211  0AF4               	incf	PORT_putString@i+1,f
  7285  1212  3000               	movlw	0
  7286  1213  07F4               	addwf	PORT_putString@i+1,f
  7287  1214                     l2639:
  7288  1214  0873               	movf	PORT_putString@i,w
  7289  1215  0775               	addwf	PORT_putString@chaine,w
  7290  1216  0084               	movwf	4
  7291  1217  160A  118A  2000  160A  118A  	fcall	stringdir
  7292  121C  3A00               	xorlw	0
  7293  121D  1D03               	skipz
  7294  121E  2A20               	goto	u4011
  7295  121F  2A21               	goto	u4010
  7296  1220                     u4011:
  7297  1220  2A01               	goto	l2635
  7298  1221                     u4010:
  7299  1221                     l174:
  7300  1221  0008               	return
  7301  1222                     __end_of_PORT_putString:
  7302                           
  7303                           	psect	text17
  7304  1166                     __ptext17:	
  7305 ;; *************** function _PORT_Select_Mux1 *****************
  7306 ;; Defined at:
  7307 ;;		line 158 in file "port.c"
  7308 ;; Parameters:    Size  Location     Type
  7309 ;;		None
  7310 ;; Auto vars:     Size  Location     Type
  7311 ;;		None
  7312 ;; Return value:  Size  Location     Type
  7313 ;;                  1    wreg      void 
  7314 ;; Registers used:
  7315 ;;		wreg, status,2, status,0, btemp+1
  7316 ;; Tracked objects:
  7317 ;;		On entry : 0/0
  7318 ;;		On exit  : 0/0
  7319 ;;		Unchanged: 0/0
  7320 ;; Data sizes:     COMMON   BANK0   BANK1   BANK3   BANK2
  7321 ;;      Params:         0       0       0       0       0
  7322 ;;      Locals:         0       0       0       0       0
  7323 ;;      Temps:          0       0       0       0       0
  7324 ;;      Totals:         0       0       0       0       0
  7325 ;;Total ram usage:        0 bytes
  7326 ;; Hardware stack levels used:    1
  7327 ;; Hardware stack levels required when called:    1
  7328 ;; This function calls:
  7329 ;;		Nothing
  7330 ;; This function is called by:
  7331 ;;		_main
  7332 ;; This function uses a non-reentrant model
  7333 ;;
  7334                           
  7335                           
  7336                           ;psect for function _PORT_Select_Mux1
  7337  1166                     _PORT_Select_Mux1:
  7338  1166                     l2617:	
  7339                           ;incstack = 0
  7340                           ; Regs used in _PORT_Select_Mux1: [wreg+status,2+status,0+btemp+1]
  7341                           
  7342                           
  7343                           ;port.c: 159:     PORTD |= 0x10;
  7344  1166  1283               	bcf	3,5	;RP0=0, select bank0
  7345  1167  1303               	bcf	3,6	;RP1=0, select bank0
  7346  1168  1608               	bsf	8,4	;volatile
  7347  1169                     l2619:
  7348                           
  7349                           ;port.c: 160:     PORTD &= 0xDF;
  7350  1169  30DF               	movlw	223
  7351  116A  00FF               	movwf	btemp+1
  7352  116B  087F               	movf	btemp+1,w
  7353  116C  0588               	andwf	8,f	;volatile
  7354  116D                     l180:
  7355  116D  0008               	return
  7356  116E                     __end_of_PORT_Select_Mux1:
  7357                           
  7358                           	psect	text18
  7359  1159                     __ptext18:	
  7360 ;; *************** function _PORT_Init_Gain *****************
  7361 ;; Defined at:
  7362 ;;		line 166 in file "port.c"
  7363 ;; Parameters:    Size  Location     Type
  7364 ;;		None
  7365 ;; Auto vars:     Size  Location     Type
  7366 ;;		None
  7367 ;; Return value:  Size  Location     Type
  7368 ;;                  1    wreg      void 
  7369 ;; Registers used:
  7370 ;;		None
  7371 ;; Tracked objects:
  7372 ;;		On entry : 0/0
  7373 ;;		On exit  : 0/0
  7374 ;;		Unchanged: 0/0
  7375 ;; Data sizes:     COMMON   BANK0   BANK1   BANK3   BANK2
  7376 ;;      Params:         0       0       0       0       0
  7377 ;;      Locals:         0       0       0       0       0
  7378 ;;      Temps:          0       0       0       0       0
  7379 ;;      Totals:         0       0       0       0       0
  7380 ;;Total ram usage:        0 bytes
  7381 ;; Hardware stack levels used:    1
  7382 ;; Hardware stack levels required when called:    1
  7383 ;; This function calls:
  7384 ;;		Nothing
  7385 ;; This function is called by:
  7386 ;;		_main
  7387 ;; This function uses a non-reentrant model
  7388 ;;
  7389                           
  7390                           
  7391                           ;psect for function _PORT_Init_Gain
  7392  1159                     _PORT_Init_Gain:
  7393  1159                     l2621:	
  7394                           ;incstack = 0
  7395                           ; Regs used in _PORT_Init_Gain: []
  7396                           
  7397                           
  7398                           ;port.c: 167:     PORTCbits.RC0 = 0;
  7399  1159  1283               	bcf	3,5	;RP0=0, select bank0
  7400  115A  1303               	bcf	3,6	;RP1=0, select bank0
  7401  115B  1007               	bcf	7,0	;volatile
  7402                           
  7403                           ;port.c: 168:     PORTCbits.RC1 = 1;
  7404  115C  1487               	bsf	7,1	;volatile
  7405  115D                     l183:
  7406  115D  0008               	return
  7407  115E                     __end_of_PORT_Init_Gain:
  7408                           
  7409                           	psect	text19
  7410  1249                     __ptext19:	
  7411 ;; *************** function _PORT_Init *****************
  7412 ;; Defined at:
  7413 ;;		line 44 in file "port.c"
  7414 ;; Parameters:    Size  Location     Type
  7415 ;;		None
  7416 ;; Auto vars:     Size  Location     Type
  7417 ;;		None
  7418 ;; Return value:  Size  Location     Type
  7419 ;;                  1    wreg      void 
  7420 ;; Registers used:
  7421 ;;		wreg, status,2, status,0, pclath, cstack
  7422 ;; Tracked objects:
  7423 ;;		On entry : 0/0
  7424 ;;		On exit  : 0/0
  7425 ;;		Unchanged: 0/0
  7426 ;; Data sizes:     COMMON   BANK0   BANK1   BANK3   BANK2
  7427 ;;      Params:         0       0       0       0       0
  7428 ;;      Locals:         0       0       0       0       0
  7429 ;;      Temps:          1       0       0       0       0
  7430 ;;      Totals:         1       0       0       0       0
  7431 ;;Total ram usage:        1 bytes
  7432 ;; Hardware stack levels used:    1
  7433 ;; Hardware stack levels required when called:    2
  7434 ;; This function calls:
  7435 ;;		_PORT_Init_Serial
  7436 ;; This function is called by:
  7437 ;;		_main
  7438 ;; This function uses a non-reentrant model
  7439 ;;
  7440                           
  7441                           
  7442                           ;psect for function _PORT_Init
  7443  1249                     _PORT_Init:
  7444  1249                     l2565:	
  7445                           ;incstack = 0
  7446                           ; Regs used in _PORT_Init: [wreg+status,2+status,0+pclath+cstack]
  7447                           
  7448                           
  7449                           ;port.c: 47:     WPUB=0;
  7450  1249  1683               	bsf	3,5	;RP0=1, select bank1
  7451  124A  1303               	bcf	3,6	;RP1=0, select bank1
  7452  124B  0195               	clrf	21	;volatile
  7453                           
  7454                           ;port.c: 48:     ANSELB = 0;
  7455  124C  1683               	bsf	3,5	;RP0=1, select bank3
  7456  124D  1703               	bsf	3,6	;RP1=1, select bank3
  7457  124E  0186               	clrf	6	;volatile
  7458  124F                     l2567:
  7459                           
  7460                           ;port.c: 51:     TRISB = 0xFE;
  7461  124F  30FE               	movlw	254
  7462  1250  1683               	bsf	3,5	;RP0=1, select bank1
  7463  1251  1303               	bcf	3,6	;RP1=0, select bank1
  7464  1252  0086               	movwf	6	;volatile
  7465  1253                     l2569:
  7466                           
  7467                           ;port.c: 54:     OSCCON = 0x30;
  7468  1253  3030               	movlw	48
  7469  1254  0090               	movwf	16	;volatile
  7470  1255                     l2571:	
  7471                           ;port.c: 55:     for( ; (OSCCON & 0xC) != 0xC ; );
  7472                           
  7473  1255  300C               	movlw	12
  7474  1256  0510               	andwf	16,w	;volatile
  7475  1257  00F2               	movwf	??_PORT_Init
  7476  1258  300C               	movlw	12
  7477  1259  0672               	xorwf	??_PORT_Init,w
  7478  125A  1D03               	btfss	3,2
  7479  125B  2A5D               	goto	u3981
  7480  125C  2A5E               	goto	u3980
  7481  125D                     u3981:
  7482  125D  2A55               	goto	l2571
  7483  125E                     u3980:
  7484  125E                     l2573:
  7485                           
  7486                           ;port.c: 59:     ANSELD = 0x00;
  7487  125E  1683               	bsf	3,5	;RP0=1, select bank3
  7488  125F  1703               	bsf	3,6	;RP1=1, select bank3
  7489  1260  0188               	clrf	8	;volatile
  7490  1261                     l2575:
  7491                           
  7492                           ;port.c: 62:     TRISA = 0xFF;
  7493  1261  30FF               	movlw	255
  7494  1262  1683               	bsf	3,5	;RP0=1, select bank1
  7495  1263  1303               	bcf	3,6	;RP1=0, select bank1
  7496  1264  0085               	movwf	5	;volatile
  7497  1265                     l2577:
  7498                           
  7499                           ;port.c: 64:     TRISD = 0xC0;
  7500  1265  30C0               	movlw	192
  7501  1266  0088               	movwf	8	;volatile
  7502  1267                     l2579:
  7503                           
  7504                           ;port.c: 66:     PORT_Init_Serial();
  7505  1267  120A  118A  27D3  160A  118A  	fcall	_PORT_Init_Serial
  7506  126C                     l2581:
  7507                           
  7508                           ;port.c: 68:     ANSELA = 0x01;
  7509  126C  3001               	movlw	1
  7510  126D  1683               	bsf	3,5	;RP0=1, select bank3
  7511  126E  1703               	bsf	3,6	;RP1=1, select bank3
  7512  126F  0085               	movwf	5	;volatile
  7513  1270                     l2583:
  7514                           
  7515                           ;port.c: 70:     ADCON0=0x01;
  7516  1270  3001               	movlw	1
  7517  1271  1283               	bcf	3,5	;RP0=0, select bank0
  7518  1272  1303               	bcf	3,6	;RP1=0, select bank0
  7519  1273  009F               	movwf	31	;volatile
  7520  1274                     l2585:
  7521                           
  7522                           ;port.c: 71:     ADCON1=0x60;
  7523  1274  3060               	movlw	96
  7524  1275  1683               	bsf	3,5	;RP0=1, select bank1
  7525  1276  1303               	bcf	3,6	;RP1=0, select bank1
  7526  1277  009F               	movwf	31	;volatile
  7527  1278                     l2587:
  7528                           
  7529                           ;port.c: 73:     FVRCON=0;
  7530  1278  019D               	clrf	29	;volatile
  7531  1279                     l2589:
  7532                           
  7533                           ;port.c: 74:     DACCON0=0x0;
  7534  1279  1283               	bcf	3,5	;RP0=0, select bank2
  7535  127A  1703               	bsf	3,6	;RP1=1, select bank2
  7536  127B  0193               	clrf	19	;volatile
  7537  127C                     l2591:
  7538                           
  7539                           ;port.c: 75:     DACCON0=0x60;
  7540  127C  3060               	movlw	96
  7541  127D  0093               	movwf	19	;volatile
  7542  127E                     l2593:
  7543                           
  7544                           ;port.c: 76:     DACCON0|=0x80;
  7545  127E  1793               	bsf	19,7	;volatile
  7546  127F                     l2595:
  7547                           
  7548                           ;port.c: 78:     DACCON1=0x18;
  7549  127F  3018               	movlw	24
  7550  1280  0094               	movwf	20	;volatile
  7551  1281                     l146:
  7552  1281  0008               	return
  7553  1282                     __end_of_PORT_Init:
  7554                           
  7555                           	psect	text20
  7556  07D3                     __ptext20:	
  7557 ;; *************** function _PORT_Init_Serial *****************
  7558 ;; Defined at:
  7559 ;;		line 15 in file "port.c"
  7560 ;; Parameters:    Size  Location     Type
  7561 ;;		None
  7562 ;; Auto vars:     Size  Location     Type
  7563 ;;		None
  7564 ;; Return value:  Size  Location     Type
  7565 ;;                  1    wreg      void 
  7566 ;; Registers used:
  7567 ;;		wreg, status,2
  7568 ;; Tracked objects:
  7569 ;;		On entry : 0/0
  7570 ;;		On exit  : 0/0
  7571 ;;		Unchanged: 0/0
  7572 ;; Data sizes:     COMMON   BANK0   BANK1   BANK3   BANK2
  7573 ;;      Params:         0       0       0       0       0
  7574 ;;      Locals:         0       0       0       0       0
  7575 ;;      Temps:          0       0       0       0       0
  7576 ;;      Totals:         0       0       0       0       0
  7577 ;;Total ram usage:        0 bytes
  7578 ;; Hardware stack levels used:    1
  7579 ;; Hardware stack levels required when called:    1
  7580 ;; This function calls:
  7581 ;;		Nothing
  7582 ;; This function is called by:
  7583 ;;		_PORT_Init
  7584 ;; This function uses a non-reentrant model
  7585 ;;
  7586                           
  7587                           
  7588                           ;psect for function _PORT_Init_Serial
  7589  07D3                     _PORT_Init_Serial:
  7590  07D3                     l2015:	
  7591                           ;incstack = 0
  7592                           ; Regs used in _PORT_Init_Serial: [wreg+status,2]
  7593                           
  7594                           
  7595                           ;port.c: 18:     TRISC = 0xFF;
  7596  07D3  30FF               	movlw	255
  7597  07D4  1683               	bsf	3,5	;RP0=1, select bank1
  7598  07D5  1303               	bcf	3,6	;RP1=0, select bank1
  7599  07D6  0087               	movwf	7	;volatile
  7600                           
  7601                           ;port.c: 21:     SPBRG = 25;
  7602  07D7  3019               	movlw	25
  7603  07D8  0099               	movwf	25	;volatile
  7604  07D9                     l2017:
  7605                           
  7606                           ;port.c: 25:     TXSTA = TXSTA & 0xDF;
  7607  07D9  0818               	movf	24,w	;volatile
  7608  07DA  39DF               	andlw	223
  7609  07DB  0098               	movwf	24	;volatile
  7610  07DC                     l2019:
  7611                           
  7612                           ;port.c: 26:     TXSTA = TXSTA | 1;
  7613  07DC  0818               	movf	24,w	;volatile
  7614  07DD  3801               	iorlw	1
  7615  07DE  0098               	movwf	24	;volatile
  7616  07DF                     l2021:
  7617                           
  7618                           ;port.c: 27:     TXSTA = TXSTA & 0xFB;
  7619  07DF  0818               	movf	24,w	;volatile
  7620  07E0  39FB               	andlw	251
  7621  07E1  0098               	movwf	24	;volatile
  7622  07E2                     l2023:
  7623                           
  7624                           ;port.c: 30:     RCSTA = RCSTA | 0x20;
  7625  07E2  1283               	bcf	3,5	;RP0=0, select bank0
  7626  07E3  1303               	bcf	3,6	;RP1=0, select bank0
  7627  07E4  0818               	movf	24,w	;volatile
  7628  07E5  3820               	iorlw	32
  7629  07E6  0098               	movwf	24	;volatile
  7630  07E7                     l2025:
  7631                           
  7632                           ;port.c: 31:     RCSTA = RCSTA & 0xDF;
  7633  07E7  0818               	movf	24,w	;volatile
  7634  07E8  39DF               	andlw	223
  7635  07E9  0098               	movwf	24	;volatile
  7636  07EA                     l2027:
  7637                           
  7638                           ;port.c: 32:     RCSTA = RCSTA | 0x04;
  7639  07EA  0818               	movf	24,w	;volatile
  7640  07EB  3804               	iorlw	4
  7641  07EC  0098               	movwf	24	;volatile
  7642  07ED                     l2029:
  7643                           
  7644                           ;port.c: 33:     RCSTA = RCSTA | 0x02;
  7645  07ED  0818               	movf	24,w	;volatile
  7646  07EE  3802               	iorlw	2
  7647  07EF  0098               	movwf	24	;volatile
  7648  07F0                     l2031:
  7649                           
  7650                           ;port.c: 35:     TXSTA = TXSTA & 0xEF;
  7651  07F0  1683               	bsf	3,5	;RP0=1, select bank1
  7652  07F1  1303               	bcf	3,6	;RP1=0, select bank1
  7653  07F2  0818               	movf	24,w	;volatile
  7654  07F3  39EF               	andlw	239
  7655  07F4  0098               	movwf	24	;volatile
  7656  07F5                     l2033:
  7657                           
  7658                           ;port.c: 36:     TXSTA = TXSTA | 0x20;
  7659  07F5  0818               	movf	24,w	;volatile
  7660  07F6  3820               	iorlw	32
  7661  07F7  0098               	movwf	24	;volatile
  7662  07F8                     l2035:
  7663                           
  7664                           ;port.c: 37:     RCSTA = RCSTA | 0x80;
  7665  07F8  1283               	bcf	3,5	;RP0=0, select bank0
  7666  07F9  1303               	bcf	3,6	;RP1=0, select bank0
  7667  07FA  0818               	movf	24,w	;volatile
  7668  07FB  3880               	iorlw	128
  7669  07FC  0098               	movwf	24	;volatile
  7670  07FD                     l140:
  7671  07FD  0008               	return
  7672  07FE                     __end_of_PORT_Init_Serial:
  7673                           
  7674                           	psect	text21
  7675  117A                     __ptext21:	
  7676 ;; *************** function _PORT_Blink_LED *****************
  7677 ;; Defined at:
  7678 ;;		line 84 in file "port.c"
  7679 ;; Parameters:    Size  Location     Type
  7680 ;;		None
  7681 ;; Auto vars:     Size  Location     Type
  7682 ;;		None
  7683 ;; Return value:  Size  Location     Type
  7684 ;;                  1    wreg      void 
  7685 ;; Registers used:
  7686 ;;		status,0
  7687 ;; Tracked objects:
  7688 ;;		On entry : 0/0
  7689 ;;		On exit  : 0/0
  7690 ;;		Unchanged: 0/0
  7691 ;; Data sizes:     COMMON   BANK0   BANK1   BANK3   BANK2
  7692 ;;      Params:         0       0       0       0       0
  7693 ;;      Locals:         0       0       0       0       0
  7694 ;;      Temps:          0       0       0       0       0
  7695 ;;      Totals:         0       0       0       0       0
  7696 ;;Total ram usage:        0 bytes
  7697 ;; Hardware stack levels used:    1
  7698 ;; Hardware stack levels required when called:    1
  7699 ;; This function calls:
  7700 ;;		Nothing
  7701 ;; This function is called by:
  7702 ;;		_main
  7703 ;; This function uses a non-reentrant model
  7704 ;;
  7705                           
  7706                           
  7707                           ;psect for function _PORT_Blink_LED
  7708  117A                     _PORT_Blink_LED:
  7709  117A                     l2623:	
  7710                           ;incstack = 0
  7711                           ; Regs used in _PORT_Blink_LED: [status,0]
  7712                           
  7713                           
  7714                           ;port.c: 85:     PORTBbits.RB0 = !PORTBbits.RB0;
  7715  117A  1003               	clrc
  7716  117B  1283               	bcf	3,5	;RP0=0, select bank0
  7717  117C  1303               	bcf	3,6	;RP1=0, select bank0
  7718  117D  1C06               	btfss	6,0	;volatile
  7719  117E  1403               	setc
  7720  117F  1803               	btfsc	3,0
  7721  1180  2982               	goto	u3991
  7722  1181  2986               	goto	u3990
  7723  1182                     u3991:
  7724  1182  1283               	bcf	3,5	;RP0=0, select bank0
  7725  1183  1303               	bcf	3,6	;RP1=0, select bank0
  7726  1184  1406               	bsf	6,0	;volatile
  7727  1185  2989               	goto	u4004
  7728  1186                     u3990:
  7729  1186  1283               	bcf	3,5	;RP0=0, select bank0
  7730  1187  1303               	bcf	3,6	;RP1=0, select bank0
  7731  1188  1006               	bcf	6,0	;volatile
  7732  1189                     u4004:
  7733  1189                     l149:
  7734  1189  0008               	return
  7735  118A                     __end_of_PORT_Blink_LED:
  7736                           
  7737                           	psect	text22
  7738  14CD                     __ptext22:	
  7739 ;; *************** function _Affichage_brut *****************
  7740 ;; Defined at:
  7741 ;;		line 87 in file "main.c"
  7742 ;; Parameters:    Size  Location     Type
  7743 ;;  valeur_a_aff    2   10[COMMON] int 
  7744 ;; Auto vars:     Size  Location     Type
  7745 ;;  valueMetrics    6    3[BANK0 ] struct .
  7746 ;;  affiche         1    2[BANK0 ] unsigned char 
  7747 ;; Return value:  Size  Location     Type
  7748 ;;                  1    wreg      void 
  7749 ;; Registers used:
  7750 ;;		wreg, status,2, status,0, btemp+1, pclath, cstack
  7751 ;; Tracked objects:
  7752 ;;		On entry : 0/0
  7753 ;;		On exit  : 0/0
  7754 ;;		Unchanged: 0/0
  7755 ;; Data sizes:     COMMON   BANK0   BANK1   BANK3   BANK2
  7756 ;;      Params:         2       0       0       0       0
  7757 ;;      Locals:         0       7       0       0       0
  7758 ;;      Temps:          0       2       0       0       0
  7759 ;;      Totals:         2       9       0       0       0
  7760 ;;Total ram usage:       11 bytes
  7761 ;; Hardware stack levels used:    1
  7762 ;; Hardware stack levels required when called:    2
  7763 ;; This function calls:
  7764 ;;		_PORT_putchar
  7765 ;;		___awdiv
  7766 ;;		___awmod
  7767 ;; This function is called by:
  7768 ;;		_main
  7769 ;; This function uses a non-reentrant model
  7770 ;;
  7771                           
  7772                           
  7773                           ;psect for function _Affichage_brut
  7774  14CD                     _Affichage_brut:
  7775  14CD                     l2641:	
  7776                           ;incstack = 0
  7777                           ; Regs used in _Affichage_brut: [wreg+status,2+status,0+btemp+1+pclath+cstack]
  7778                           
  7779                           
  7780                           ;main.c: 87: void Affichage_brut(int valeur_a_afficher);main.c: 88: {;main.c: 89:     un
      +                          signed char affiche;;main.c: 91:     ValueMetrics valueMetrics;;main.c: 93:     affiche 
      +                          = valeur_a_afficher ;
  7781  14CD  087A               	movf	Affichage_brut@valeur_a_afficher,w
  7782  14CE  00FF               	movwf	btemp+1
  7783  14CF  087F               	movf	btemp+1,w
  7784  14D0  1283               	bcf	3,5	;RP0=0, select bank0
  7785  14D1  1303               	bcf	3,6	;RP1=0, select bank0
  7786  14D2  00A2               	movwf	Affichage_brut@affiche
  7787  14D3                     l2643:
  7788                           
  7789                           ;main.c: 94:     valueMetrics.cent = ((char)(affiche/100))+0x30;
  7790  14D3  3064               	movlw	100
  7791  14D4  00F2               	movwf	___awdiv@divisor
  7792  14D5  3000               	movlw	0
  7793  14D6  00F3               	movwf	___awdiv@divisor+1
  7794  14D7  0822               	movf	Affichage_brut@affiche,w
  7795  14D8  00A0               	movwf	??_Affichage_brut
  7796  14D9  01A1               	clrf	??_Affichage_brut+1
  7797  14DA  0820               	movf	??_Affichage_brut,w
  7798  14DB  00F4               	movwf	___awdiv@dividend
  7799  14DC  0821               	movf	??_Affichage_brut+1,w
  7800  14DD  00F5               	movwf	___awdiv@dividend+1
  7801  14DE  160A  118A  237E  160A  118A  	fcall	___awdiv
  7802  14E3  0872               	movf	?___awdiv,w
  7803  14E4  3E30               	addlw	48
  7804  14E5  00FF               	movwf	btemp+1
  7805  14E6  087F               	movf	btemp+1,w
  7806  14E7  1283               	bcf	3,5	;RP0=0, select bank0
  7807  14E8  1303               	bcf	3,6	;RP1=0, select bank0
  7808  14E9  00A4               	movwf	Affichage_brut@valueMetrics+1
  7809  14EA                     l2645:
  7810                           
  7811                           ;main.c: 95:     PORT_putchar(valueMetrics.cent);
  7812  14EA  0824               	movf	Affichage_brut@valueMetrics+1,w
  7813  14EB  160A  118A  216E  160A  118A  	fcall	_PORT_putchar
  7814  14F0                     l2647:
  7815                           
  7816                           ;main.c: 96:     affiche = affiche % 100 ;
  7817  14F0  3064               	movlw	100
  7818  14F1  00F2               	movwf	___awmod@divisor
  7819  14F2  3000               	movlw	0
  7820  14F3  00F3               	movwf	___awmod@divisor+1
  7821  14F4  1283               	bcf	3,5	;RP0=0, select bank0
  7822  14F5  1303               	bcf	3,6	;RP1=0, select bank0
  7823  14F6  0822               	movf	Affichage_brut@affiche,w
  7824  14F7  00A0               	movwf	??_Affichage_brut
  7825  14F8  01A1               	clrf	??_Affichage_brut+1
  7826  14F9  0820               	movf	??_Affichage_brut,w
  7827  14FA  00F4               	movwf	___awmod@dividend
  7828  14FB  0821               	movf	??_Affichage_brut+1,w
  7829  14FC  00F5               	movwf	___awmod@dividend+1
  7830  14FD  160A  118A  22C6  160A  118A  	fcall	___awmod
  7831  1502  0872               	movf	?___awmod,w
  7832  1503  00FF               	movwf	btemp+1
  7833  1504  087F               	movf	btemp+1,w
  7834  1505  1283               	bcf	3,5	;RP0=0, select bank0
  7835  1506  1303               	bcf	3,6	;RP1=0, select bank0
  7836  1507  00A2               	movwf	Affichage_brut@affiche
  7837  1508                     l2649:
  7838                           
  7839                           ;main.c: 97:     valueMetrics.diz = ((char)(affiche/10))+0x30;
  7840  1508  300A               	movlw	10
  7841  1509  00F2               	movwf	___awdiv@divisor
  7842  150A  3000               	movlw	0
  7843  150B  00F3               	movwf	___awdiv@divisor+1
  7844  150C  0822               	movf	Affichage_brut@affiche,w
  7845  150D  00A0               	movwf	??_Affichage_brut
  7846  150E  01A1               	clrf	??_Affichage_brut+1
  7847  150F  0820               	movf	??_Affichage_brut,w
  7848  1510  00F4               	movwf	___awdiv@dividend
  7849  1511  0821               	movf	??_Affichage_brut+1,w
  7850  1512  00F5               	movwf	___awdiv@dividend+1
  7851  1513  160A  118A  237E  160A  118A  	fcall	___awdiv
  7852  1518  0872               	movf	?___awdiv,w
  7853  1519  3E30               	addlw	48
  7854  151A  00FF               	movwf	btemp+1
  7855  151B  087F               	movf	btemp+1,w
  7856  151C  1283               	bcf	3,5	;RP0=0, select bank0
  7857  151D  1303               	bcf	3,6	;RP1=0, select bank0
  7858  151E  00A5               	movwf	Affichage_brut@valueMetrics+2
  7859  151F                     l2651:
  7860                           
  7861                           ;main.c: 98:     PORT_putchar(valueMetrics.diz);
  7862  151F  0825               	movf	Affichage_brut@valueMetrics+2,w
  7863  1520  160A  118A  216E  160A  118A  	fcall	_PORT_putchar
  7864  1525                     l2653:
  7865                           
  7866                           ;main.c: 99:     affiche = affiche % 10 ;
  7867  1525  300A               	movlw	10
  7868  1526  00F2               	movwf	___awmod@divisor
  7869  1527  3000               	movlw	0
  7870  1528  00F3               	movwf	___awmod@divisor+1
  7871  1529  1283               	bcf	3,5	;RP0=0, select bank0
  7872  152A  1303               	bcf	3,6	;RP1=0, select bank0
  7873  152B  0822               	movf	Affichage_brut@affiche,w
  7874  152C  00A0               	movwf	??_Affichage_brut
  7875  152D  01A1               	clrf	??_Affichage_brut+1
  7876  152E  0820               	movf	??_Affichage_brut,w
  7877  152F  00F4               	movwf	___awmod@dividend
  7878  1530  0821               	movf	??_Affichage_brut+1,w
  7879  1531  00F5               	movwf	___awmod@dividend+1
  7880  1532  160A  118A  22C6  160A  118A  	fcall	___awmod
  7881  1537  0872               	movf	?___awmod,w
  7882  1538  00FF               	movwf	btemp+1
  7883  1539  087F               	movf	btemp+1,w
  7884  153A  1283               	bcf	3,5	;RP0=0, select bank0
  7885  153B  1303               	bcf	3,6	;RP1=0, select bank0
  7886  153C  00A2               	movwf	Affichage_brut@affiche
  7887  153D                     l2655:
  7888                           
  7889                           ;main.c: 100:     valueMetrics.unit = ((char)(affiche))+0x30;
  7890  153D  0822               	movf	Affichage_brut@affiche,w
  7891  153E  3E30               	addlw	48
  7892  153F  00FF               	movwf	btemp+1
  7893  1540  087F               	movf	btemp+1,w
  7894  1541  00A6               	movwf	Affichage_brut@valueMetrics+3
  7895  1542                     l2657:
  7896                           
  7897                           ;main.c: 101:     PORT_putchar(valueMetrics.unit);
  7898  1542  0826               	movf	Affichage_brut@valueMetrics+3,w
  7899  1543  160A  118A  216E  160A  118A  	fcall	_PORT_putchar
  7900  1548                     l42:
  7901  1548  0008               	return
  7902  1549                     __end_of_Affichage_brut:
  7903                           
  7904                           	psect	text23
  7905  12C6                     __ptext23:	
  7906 ;; *************** function ___awmod *****************
  7907 ;; Defined at:
  7908 ;;		line 5 in file "C:\Program Files\Microchip\xc8\v2.20\pic\sources\c90\common\awmod.c"
  7909 ;; Parameters:    Size  Location     Type
  7910 ;;  divisor         2    2[COMMON] int 
  7911 ;;  dividend        2    4[COMMON] int 
  7912 ;; Auto vars:     Size  Location     Type
  7913 ;;  sign            1    7[COMMON] unsigned char 
  7914 ;;  counter         1    6[COMMON] unsigned char 
  7915 ;; Return value:  Size  Location     Type
  7916 ;;                  2    2[COMMON] int 
  7917 ;; Registers used:
  7918 ;;		wreg, status,2, status,0, btemp+1
  7919 ;; Tracked objects:
  7920 ;;		On entry : 0/0
  7921 ;;		On exit  : 0/0
  7922 ;;		Unchanged: 0/0
  7923 ;; Data sizes:     COMMON   BANK0   BANK1   BANK3   BANK2
  7924 ;;      Params:         4       0       0       0       0
  7925 ;;      Locals:         2       0       0       0       0
  7926 ;;      Temps:          0       0       0       0       0
  7927 ;;      Totals:         6       0       0       0       0
  7928 ;;Total ram usage:        6 bytes
  7929 ;; Hardware stack levels used:    1
  7930 ;; Hardware stack levels required when called:    1
  7931 ;; This function calls:
  7932 ;;		Nothing
  7933 ;; This function is called by:
  7934 ;;		_Affichage_brut
  7935 ;; This function uses a non-reentrant model
  7936 ;;
  7937                           
  7938                           
  7939                           ;psect for function ___awmod
  7940  12C6                     ___awmod:
  7941  12C6                     l2081:	
  7942                           ;incstack = 0
  7943                           ; Regs used in ___awmod: [wreg+status,2+status,0+btemp+1]
  7944                           
  7945  12C6  01F7               	clrf	___awmod@sign
  7946  12C7                     l2083:
  7947  12C7  1FF5               	btfss	___awmod@dividend+1,7
  7948  12C8  2ACA               	goto	u2791
  7949  12C9  2ACB               	goto	u2790
  7950  12CA                     u2791:
  7951  12CA  2AD2               	goto	l2089
  7952  12CB                     u2790:
  7953  12CB                     l2085:
  7954  12CB  09F4               	comf	___awmod@dividend,f
  7955  12CC  09F5               	comf	___awmod@dividend+1,f
  7956  12CD  0AF4               	incf	___awmod@dividend,f
  7957  12CE  1903               	skipnz
  7958  12CF  0AF5               	incf	___awmod@dividend+1,f
  7959  12D0                     l2087:
  7960  12D0  01F7               	clrf	___awmod@sign
  7961  12D1  0AF7               	incf	___awmod@sign,f
  7962  12D2                     l2089:
  7963  12D2  1FF3               	btfss	___awmod@divisor+1,7
  7964  12D3  2AD5               	goto	u2801
  7965  12D4  2AD6               	goto	u2800
  7966  12D5                     u2801:
  7967  12D5  2ADB               	goto	l2093
  7968  12D6                     u2800:
  7969  12D6                     l2091:
  7970  12D6  09F2               	comf	___awmod@divisor,f
  7971  12D7  09F3               	comf	___awmod@divisor+1,f
  7972  12D8  0AF2               	incf	___awmod@divisor,f
  7973  12D9  1903               	skipnz
  7974  12DA  0AF3               	incf	___awmod@divisor+1,f
  7975  12DB                     l2093:
  7976  12DB  0872               	movf	___awmod@divisor,w
  7977  12DC  0473               	iorwf	___awmod@divisor+1,w
  7978  12DD  1903               	btfsc	3,2
  7979  12DE  2AE0               	goto	u2811
  7980  12DF  2AE1               	goto	u2810
  7981  12E0                     u2811:
  7982  12E0  2B10               	goto	l2111
  7983  12E1                     u2810:
  7984  12E1                     l2095:
  7985  12E1  01F6               	clrf	___awmod@counter
  7986  12E2  0AF6               	incf	___awmod@counter,f
  7987  12E3  2AEF               	goto	l2101
  7988  12E4                     l2097:
  7989  12E4  3001               	movlw	1
  7990  12E5                     u2825:
  7991  12E5  1003               	clrc
  7992  12E6  0DF2               	rlf	___awmod@divisor,f
  7993  12E7  0DF3               	rlf	___awmod@divisor+1,f
  7994  12E8  3EFF               	addlw	-1
  7995  12E9  1D03               	skipz
  7996  12EA  2AE5               	goto	u2825
  7997  12EB                     l2099:
  7998  12EB  3001               	movlw	1
  7999  12EC  00FF               	movwf	btemp+1
  8000  12ED  087F               	movf	btemp+1,w
  8001  12EE  07F6               	addwf	___awmod@counter,f
  8002  12EF                     l2101:
  8003  12EF  1FF3               	btfss	___awmod@divisor+1,7
  8004  12F0  2AF2               	goto	u2831
  8005  12F1  2AF3               	goto	u2830
  8006  12F2                     u2831:
  8007  12F2  2AE4               	goto	l2097
  8008  12F3                     u2830:
  8009  12F3                     l2103:
  8010  12F3  0873               	movf	___awmod@divisor+1,w
  8011  12F4  0275               	subwf	___awmod@dividend+1,w
  8012  12F5  1D03               	skipz
  8013  12F6  2AF9               	goto	u2845
  8014  12F7  0872               	movf	___awmod@divisor,w
  8015  12F8  0274               	subwf	___awmod@dividend,w
  8016  12F9                     u2845:
  8017  12F9  1C03               	skipc
  8018  12FA  2AFC               	goto	u2841
  8019  12FB  2AFD               	goto	u2840
  8020  12FC                     u2841:
  8021  12FC  2B03               	goto	l2107
  8022  12FD                     u2840:
  8023  12FD                     l2105:
  8024  12FD  0872               	movf	___awmod@divisor,w
  8025  12FE  02F4               	subwf	___awmod@dividend,f
  8026  12FF  0873               	movf	___awmod@divisor+1,w
  8027  1300  1C03               	skipc
  8028  1301  03F5               	decf	___awmod@dividend+1,f
  8029  1302  02F5               	subwf	___awmod@dividend+1,f
  8030  1303                     l2107:
  8031  1303  3001               	movlw	1
  8032  1304                     u2855:
  8033  1304  1003               	clrc
  8034  1305  0CF3               	rrf	___awmod@divisor+1,f
  8035  1306  0CF2               	rrf	___awmod@divisor,f
  8036  1307  3EFF               	addlw	-1
  8037  1308  1D03               	skipz
  8038  1309  2B04               	goto	u2855
  8039  130A                     l2109:
  8040  130A  3001               	movlw	1
  8041  130B  02F6               	subwf	___awmod@counter,f
  8042  130C  1D03               	btfss	3,2
  8043  130D  2B0F               	goto	u2861
  8044  130E  2B10               	goto	u2860
  8045  130F                     u2861:
  8046  130F  2AF3               	goto	l2103
  8047  1310                     u2860:
  8048  1310                     l2111:
  8049  1310  0877               	movf	___awmod@sign,w
  8050  1311  1903               	btfsc	3,2
  8051  1312  2B14               	goto	u2871
  8052  1313  2B15               	goto	u2870
  8053  1314                     u2871:
  8054  1314  2B1A               	goto	l2115
  8055  1315                     u2870:
  8056  1315                     l2113:
  8057  1315  09F4               	comf	___awmod@dividend,f
  8058  1316  09F5               	comf	___awmod@dividend+1,f
  8059  1317  0AF4               	incf	___awmod@dividend,f
  8060  1318  1903               	skipnz
  8061  1319  0AF5               	incf	___awmod@dividend+1,f
  8062  131A                     l2115:
  8063  131A  0875               	movf	___awmod@dividend+1,w
  8064  131B  00F3               	movwf	?___awmod+1
  8065  131C  0874               	movf	___awmod@dividend,w
  8066  131D  00F2               	movwf	?___awmod
  8067  131E                     l389:
  8068  131E  0008               	return
  8069  131F                     __end_of___awmod:
  8070                           
  8071                           	psect	text24
  8072  137E                     __ptext24:	
  8073 ;; *************** function ___awdiv *****************
  8074 ;; Defined at:
  8075 ;;		line 5 in file "C:\Program Files\Microchip\xc8\v2.20\pic\sources\c90\common\awdiv.c"
  8076 ;; Parameters:    Size  Location     Type
  8077 ;;  divisor         2    2[COMMON] int 
  8078 ;;  dividend        2    4[COMMON] int 
  8079 ;; Auto vars:     Size  Location     Type
  8080 ;;  quotient        2    8[COMMON] int 
  8081 ;;  sign            1    7[COMMON] unsigned char 
  8082 ;;  counter         1    6[COMMON] unsigned char 
  8083 ;; Return value:  Size  Location     Type
  8084 ;;                  2    2[COMMON] int 
  8085 ;; Registers used:
  8086 ;;		wreg, status,2, status,0, btemp+1
  8087 ;; Tracked objects:
  8088 ;;		On entry : 0/0
  8089 ;;		On exit  : 0/0
  8090 ;;		Unchanged: 0/0
  8091 ;; Data sizes:     COMMON   BANK0   BANK1   BANK3   BANK2
  8092 ;;      Params:         4       0       0       0       0
  8093 ;;      Locals:         4       0       0       0       0
  8094 ;;      Temps:          0       0       0       0       0
  8095 ;;      Totals:         8       0       0       0       0
  8096 ;;Total ram usage:        8 bytes
  8097 ;; Hardware stack levels used:    1
  8098 ;; Hardware stack levels required when called:    1
  8099 ;; This function calls:
  8100 ;;		Nothing
  8101 ;; This function is called by:
  8102 ;;		_Affichage_brut
  8103 ;; This function uses a non-reentrant model
  8104 ;;
  8105                           
  8106                           
  8107                           ;psect for function ___awdiv
  8108  137E                     ___awdiv:
  8109  137E                     l2037:	
  8110                           ;incstack = 0
  8111                           ; Regs used in ___awdiv: [wreg+status,2+status,0+btemp+1]
  8112                           
  8113  137E  01F7               	clrf	___awdiv@sign
  8114  137F                     l2039:
  8115  137F  1FF3               	btfss	___awdiv@divisor+1,7
  8116  1380  2B82               	goto	u2691
  8117  1381  2B83               	goto	u2690
  8118  1382                     u2691:
  8119  1382  2B8A               	goto	l2045
  8120  1383                     u2690:
  8121  1383                     l2041:
  8122  1383  09F2               	comf	___awdiv@divisor,f
  8123  1384  09F3               	comf	___awdiv@divisor+1,f
  8124  1385  0AF2               	incf	___awdiv@divisor,f
  8125  1386  1903               	skipnz
  8126  1387  0AF3               	incf	___awdiv@divisor+1,f
  8127  1388                     l2043:
  8128  1388  01F7               	clrf	___awdiv@sign
  8129  1389  0AF7               	incf	___awdiv@sign,f
  8130  138A                     l2045:
  8131  138A  1FF5               	btfss	___awdiv@dividend+1,7
  8132  138B  2B8D               	goto	u2701
  8133  138C  2B8E               	goto	u2700
  8134  138D                     u2701:
  8135  138D  2B97               	goto	l2051
  8136  138E                     u2700:
  8137  138E                     l2047:
  8138  138E  09F4               	comf	___awdiv@dividend,f
  8139  138F  09F5               	comf	___awdiv@dividend+1,f
  8140  1390  0AF4               	incf	___awdiv@dividend,f
  8141  1391  1903               	skipnz
  8142  1392  0AF5               	incf	___awdiv@dividend+1,f
  8143  1393                     l2049:
  8144  1393  3001               	movlw	1
  8145  1394  00FF               	movwf	btemp+1
  8146  1395  087F               	movf	btemp+1,w
  8147  1396  06F7               	xorwf	___awdiv@sign,f
  8148  1397                     l2051:
  8149  1397  01F8               	clrf	___awdiv@quotient
  8150  1398  01F9               	clrf	___awdiv@quotient+1
  8151  1399                     l2053:
  8152  1399  0872               	movf	___awdiv@divisor,w
  8153  139A  0473               	iorwf	___awdiv@divisor+1,w
  8154  139B  1903               	btfsc	3,2
  8155  139C  2B9E               	goto	u2711
  8156  139D  2B9F               	goto	u2710
  8157  139E                     u2711:
  8158  139E  2BD6               	goto	l2073
  8159  139F                     u2710:
  8160  139F                     l2055:
  8161  139F  01F6               	clrf	___awdiv@counter
  8162  13A0  0AF6               	incf	___awdiv@counter,f
  8163  13A1  2BAD               	goto	l2061
  8164  13A2                     l2057:
  8165  13A2  3001               	movlw	1
  8166  13A3                     u2725:
  8167  13A3  1003               	clrc
  8168  13A4  0DF2               	rlf	___awdiv@divisor,f
  8169  13A5  0DF3               	rlf	___awdiv@divisor+1,f
  8170  13A6  3EFF               	addlw	-1
  8171  13A7  1D03               	skipz
  8172  13A8  2BA3               	goto	u2725
  8173  13A9                     l2059:
  8174  13A9  3001               	movlw	1
  8175  13AA  00FF               	movwf	btemp+1
  8176  13AB  087F               	movf	btemp+1,w
  8177  13AC  07F6               	addwf	___awdiv@counter,f
  8178  13AD                     l2061:
  8179  13AD  1FF3               	btfss	___awdiv@divisor+1,7
  8180  13AE  2BB0               	goto	u2731
  8181  13AF  2BB1               	goto	u2730
  8182  13B0                     u2731:
  8183  13B0  2BA2               	goto	l2057
  8184  13B1                     u2730:
  8185  13B1                     l2063:
  8186  13B1  3001               	movlw	1
  8187  13B2                     u2745:
  8188  13B2  1003               	clrc
  8189  13B3  0DF8               	rlf	___awdiv@quotient,f
  8190  13B4  0DF9               	rlf	___awdiv@quotient+1,f
  8191  13B5  3EFF               	addlw	-1
  8192  13B6  1D03               	skipz
  8193  13B7  2BB2               	goto	u2745
  8194  13B8  0873               	movf	___awdiv@divisor+1,w
  8195  13B9  0275               	subwf	___awdiv@dividend+1,w
  8196  13BA  1D03               	skipz
  8197  13BB  2BBE               	goto	u2755
  8198  13BC  0872               	movf	___awdiv@divisor,w
  8199  13BD  0274               	subwf	___awdiv@dividend,w
  8200  13BE                     u2755:
  8201  13BE  1C03               	skipc
  8202  13BF  2BC1               	goto	u2751
  8203  13C0  2BC2               	goto	u2750
  8204  13C1                     u2751:
  8205  13C1  2BC9               	goto	l2069
  8206  13C2                     u2750:
  8207  13C2                     l2065:
  8208  13C2  0872               	movf	___awdiv@divisor,w
  8209  13C3  02F4               	subwf	___awdiv@dividend,f
  8210  13C4  0873               	movf	___awdiv@divisor+1,w
  8211  13C5  1C03               	skipc
  8212  13C6  03F5               	decf	___awdiv@dividend+1,f
  8213  13C7  02F5               	subwf	___awdiv@dividend+1,f
  8214  13C8                     l2067:
  8215  13C8  1478               	bsf	___awdiv@quotient,0
  8216  13C9                     l2069:
  8217  13C9  3001               	movlw	1
  8218  13CA                     u2765:
  8219  13CA  1003               	clrc
  8220  13CB  0CF3               	rrf	___awdiv@divisor+1,f
  8221  13CC  0CF2               	rrf	___awdiv@divisor,f
  8222  13CD  3EFF               	addlw	-1
  8223  13CE  1D03               	skipz
  8224  13CF  2BCA               	goto	u2765
  8225  13D0                     l2071:
  8226  13D0  3001               	movlw	1
  8227  13D1  02F6               	subwf	___awdiv@counter,f
  8228  13D2  1D03               	btfss	3,2
  8229  13D3  2BD5               	goto	u2771
  8230  13D4  2BD6               	goto	u2770
  8231  13D5                     u2771:
  8232  13D5  2BB1               	goto	l2063
  8233  13D6                     u2770:
  8234  13D6                     l2073:
  8235  13D6  0877               	movf	___awdiv@sign,w
  8236  13D7  1903               	btfsc	3,2
  8237  13D8  2BDA               	goto	u2781
  8238  13D9  2BDB               	goto	u2780
  8239  13DA                     u2781:
  8240  13DA  2BE0               	goto	l2077
  8241  13DB                     u2780:
  8242  13DB                     l2075:
  8243  13DB  09F8               	comf	___awdiv@quotient,f
  8244  13DC  09F9               	comf	___awdiv@quotient+1,f
  8245  13DD  0AF8               	incf	___awdiv@quotient,f
  8246  13DE  1903               	skipnz
  8247  13DF  0AF9               	incf	___awdiv@quotient+1,f
  8248  13E0                     l2077:
  8249  13E0  0879               	movf	___awdiv@quotient+1,w
  8250  13E1  00F3               	movwf	?___awdiv+1
  8251  13E2  0878               	movf	___awdiv@quotient,w
  8252  13E3  00F2               	movwf	?___awdiv
  8253  13E4                     l376:
  8254  13E4  0008               	return
  8255  13E5                     __end_of___awdiv:
  8256                           
  8257                           	psect	text25
  8258  116E                     __ptext25:	
  8259 ;; *************** function _PORT_putchar *****************
  8260 ;; Defined at:
  8261 ;;		line 126 in file "port.c"
  8262 ;; Parameters:    Size  Location     Type
  8263 ;;  c               1    wreg     unsigned char 
  8264 ;; Auto vars:     Size  Location     Type
  8265 ;;  c               1    2[COMMON] unsigned char 
  8266 ;; Return value:  Size  Location     Type
  8267 ;;                  1    wreg      void 
  8268 ;; Registers used:
  8269 ;;		wreg
  8270 ;; Tracked objects:
  8271 ;;		On entry : 0/0
  8272 ;;		On exit  : 0/0
  8273 ;;		Unchanged: 0/0
  8274 ;; Data sizes:     COMMON   BANK0   BANK1   BANK3   BANK2
  8275 ;;      Params:         0       0       0       0       0
  8276 ;;      Locals:         1       0       0       0       0
  8277 ;;      Temps:          0       0       0       0       0
  8278 ;;      Totals:         1       0       0       0       0
  8279 ;;Total ram usage:        1 bytes
  8280 ;; Hardware stack levels used:    1
  8281 ;; Hardware stack levels required when called:    1
  8282 ;; This function calls:
  8283 ;;		Nothing
  8284 ;; This function is called by:
  8285 ;;		_Affichage_brut
  8286 ;;		_puts_float
  8287 ;;		_PORT_putString
  8288 ;; This function uses a non-reentrant model
  8289 ;;
  8290                           
  8291                           
  8292                           ;psect for function _PORT_putchar
  8293  116E                     _PORT_putchar:
  8294                           
  8295                           ;incstack = 0
  8296                           ; Regs used in _PORT_putchar: [wreg]
  8297                           ;PORT_putchar@c stored from wreg
  8298  116E  00F2               	movwf	PORT_putchar@c
  8299  116F                     l2001:
  8300  116F                     l165:	
  8301                           ;port.c: 128:     for(;(TXSTA&0x02)!=0x02;);
  8302                           
  8303  116F  1683               	bsf	3,5	;RP0=1, select bank1
  8304  1170  1303               	bcf	3,6	;RP1=0, select bank1
  8305  1171  1C98               	btfss	24,1	;volatile
  8306  1172  2974               	goto	u2661
  8307  1173  2975               	goto	u2660
  8308  1174                     u2661:
  8309  1174  296F               	goto	l165
  8310  1175                     u2660:
  8311  1175                     l2003:
  8312                           
  8313                           ;port.c: 129:     TXREG = c;
  8314  1175  0872               	movf	PORT_putchar@c,w
  8315  1176  1283               	bcf	3,5	;RP0=0, select bank0
  8316  1177  1303               	bcf	3,6	;RP1=0, select bank0
  8317  1178  0099               	movwf	25	;volatile
  8318  1179                     l168:
  8319  1179  0008               	return
  8320  117A                     __end_of_PORT_putchar:
  8321                           
  8322                           	psect	text26
  8323  119C                     __ptext26:	
  8324 ;; *************** function _ADC_GetValue *****************
  8325 ;; Defined at:
  8326 ;;		line 16 in file "adc.c"
  8327 ;; Parameters:    Size  Location     Type
  8328 ;;  channel         1    wreg     unsigned char 
  8329 ;; Auto vars:     Size  Location     Type
  8330 ;;  channel         1    3[COMMON] unsigned char 
  8331 ;; Return value:  Size  Location     Type
  8332 ;;                  1    wreg      unsigned char 
  8333 ;; Registers used:
  8334 ;;		wreg, status,2, status,0, btemp+1, pclath, cstack
  8335 ;; Tracked objects:
  8336 ;;		On entry : 0/0
  8337 ;;		On exit  : 0/0
  8338 ;;		Unchanged: 0/0
  8339 ;; Data sizes:     COMMON   BANK0   BANK1   BANK3   BANK2
  8340 ;;      Params:         0       0       0       0       0
  8341 ;;      Locals:         1       0       0       0       0
  8342 ;;      Temps:          0       0       0       0       0
  8343 ;;      Totals:         1       0       0       0       0
  8344 ;;Total ram usage:        1 bytes
  8345 ;; Hardware stack levels used:    1
  8346 ;; Hardware stack levels required when called:    2
  8347 ;; This function calls:
  8348 ;;		_PORT_Choose_Mux
  8349 ;;		_PORT_Get_Value_Adc
  8350 ;;		_PORT_Start_ADC
  8351 ;; This function is called by:
  8352 ;;		_main
  8353 ;; This function uses a non-reentrant model
  8354 ;;
  8355                           
  8356                           
  8357                           ;psect for function _ADC_GetValue
  8358  119C                     _ADC_GetValue:
  8359                           
  8360                           ;incstack = 0
  8361                           ; Regs used in _ADC_GetValue: [wreg+status,2+status,0+btemp+1+pclath+cstack]
  8362                           ;ADC_GetValue@channel stored from wreg
  8363  119C  00F3               	movwf	ADC_GetValue@channel
  8364  119D                     l2625:
  8365                           
  8366                           ;adc.c: 18:     PORT_Choose_Mux(channel);
  8367  119D  0873               	movf	ADC_GetValue@channel,w
  8368  119E  160A  118A  218A  160A  118A  	fcall	_PORT_Choose_Mux
  8369  11A3                     l2627:
  8370                           
  8371                           ;adc.c: 19:     PORT_Start_ADC();
  8372  11A3  160A  118A  215E  160A  118A  	fcall	_PORT_Start_ADC
  8373  11A8                     l2629:
  8374                           
  8375                           ;adc.c: 20:     return PORT_Get_Value_Adc();
  8376  11A8  160A  118A  2155  160A  118A  	fcall	_PORT_Get_Value_Adc
  8377  11AD                     l89:
  8378  11AD  0008               	return
  8379  11AE                     __end_of_ADC_GetValue:
  8380                           
  8381                           	psect	text27
  8382  115E                     __ptext27:	
  8383 ;; *************** function _PORT_Start_ADC *****************
  8384 ;; Defined at:
  8385 ;;		line 104 in file "port.c"
  8386 ;; Parameters:    Size  Location     Type
  8387 ;;		None
  8388 ;; Auto vars:     Size  Location     Type
  8389 ;;		None
  8390 ;; Return value:  Size  Location     Type
  8391 ;;                  1    wreg      void 
  8392 ;; Registers used:
  8393 ;;		None
  8394 ;; Tracked objects:
  8395 ;;		On entry : 0/0
  8396 ;;		On exit  : 0/0
  8397 ;;		Unchanged: 0/0
  8398 ;; Data sizes:     COMMON   BANK0   BANK1   BANK3   BANK2
  8399 ;;      Params:         0       0       0       0       0
  8400 ;;      Locals:         0       0       0       0       0
  8401 ;;      Temps:          0       0       0       0       0
  8402 ;;      Totals:         0       0       0       0       0
  8403 ;;Total ram usage:        0 bytes
  8404 ;; Hardware stack levels used:    1
  8405 ;; Hardware stack levels required when called:    1
  8406 ;; This function calls:
  8407 ;;		Nothing
  8408 ;; This function is called by:
  8409 ;;		_ADC_GetValue
  8410 ;; This function uses a non-reentrant model
  8411 ;;
  8412                           
  8413                           
  8414                           ;psect for function _PORT_Start_ADC
  8415  115E                     _PORT_Start_ADC:
  8416  115E                     l2009:	
  8417                           ;incstack = 0
  8418                           ; Regs used in _PORT_Start_ADC: []
  8419                           
  8420                           
  8421                           ;port.c: 105:     GO_nDONE=1;
  8422  115E  1283               	bcf	3,5	;RP0=0, select bank0
  8423  115F  1303               	bcf	3,6	;RP1=0, select bank0
  8424  1160  149F               	bsf	31,1	;volatile
  8425  1161                     l156:	
  8426                           ;port.c: 106:     while(GO_nDONE);
  8427                           
  8428  1161  189F               	btfsc	31,1	;volatile
  8429  1162  2964               	goto	u2681
  8430  1163  2965               	goto	u2680
  8431  1164                     u2681:
  8432  1164  2961               	goto	l156
  8433  1165                     u2680:
  8434  1165                     l159:
  8435  1165  0008               	return
  8436  1166                     __end_of_PORT_Start_ADC:
  8437                           
  8438                           	psect	text28
  8439  1155                     __ptext28:	
  8440 ;; *************** function _PORT_Get_Value_Adc *****************
  8441 ;; Defined at:
  8442 ;;		line 118 in file "port.c"
  8443 ;; Parameters:    Size  Location     Type
  8444 ;;		None
  8445 ;; Auto vars:     Size  Location     Type
  8446 ;;		None
  8447 ;; Return value:  Size  Location     Type
  8448 ;;                  1    wreg      unsigned char 
  8449 ;; Registers used:
  8450 ;;		wreg
  8451 ;; Tracked objects:
  8452 ;;		On entry : 0/0
  8453 ;;		On exit  : 0/0
  8454 ;;		Unchanged: 0/0
  8455 ;; Data sizes:     COMMON   BANK0   BANK1   BANK3   BANK2
  8456 ;;      Params:         0       0       0       0       0
  8457 ;;      Locals:         0       0       0       0       0
  8458 ;;      Temps:          0       0       0       0       0
  8459 ;;      Totals:         0       0       0       0       0
  8460 ;;Total ram usage:        0 bytes
  8461 ;; Hardware stack levels used:    1
  8462 ;; Hardware stack levels required when called:    1
  8463 ;; This function calls:
  8464 ;;		Nothing
  8465 ;; This function is called by:
  8466 ;;		_ADC_GetValue
  8467 ;; This function uses a non-reentrant model
  8468 ;;
  8469                           
  8470                           
  8471                           ;psect for function _PORT_Get_Value_Adc
  8472  1155                     _PORT_Get_Value_Adc:
  8473  1155                     l2011:	
  8474                           ;incstack = 0
  8475                           ; Regs used in _PORT_Get_Value_Adc: [wreg]
  8476                           
  8477                           
  8478                           ;port.c: 119:     return ADRES;
  8479  1155  1283               	bcf	3,5	;RP0=0, select bank0
  8480  1156  1303               	bcf	3,6	;RP1=0, select bank0
  8481  1157  081E               	movf	30,w	;volatile
  8482  1158                     l162:
  8483  1158  0008               	return
  8484  1159                     __end_of_PORT_Get_Value_Adc:
  8485                           
  8486                           	psect	text29
  8487  118A                     __ptext29:	
  8488 ;; *************** function _PORT_Choose_Mux *****************
  8489 ;; Defined at:
  8490 ;;		line 94 in file "port.c"
  8491 ;; Parameters:    Size  Location     Type
  8492 ;;  _value          1    wreg     unsigned char 
  8493 ;; Auto vars:     Size  Location     Type
  8494 ;;  _value          1    2[COMMON] unsigned char 
  8495 ;; Return value:  Size  Location     Type
  8496 ;;                  1    wreg      void 
  8497 ;; Registers used:
  8498 ;;		wreg, status,2, status,0, btemp+1
  8499 ;; Tracked objects:
  8500 ;;		On entry : 0/0
  8501 ;;		On exit  : 0/0
  8502 ;;		Unchanged: 0/0
  8503 ;; Data sizes:     COMMON   BANK0   BANK1   BANK3   BANK2
  8504 ;;      Params:         0       0       0       0       0
  8505 ;;      Locals:         1       0       0       0       0
  8506 ;;      Temps:          0       0       0       0       0
  8507 ;;      Totals:         1       0       0       0       0
  8508 ;;Total ram usage:        1 bytes
  8509 ;; Hardware stack levels used:    1
  8510 ;; Hardware stack levels required when called:    1
  8511 ;; This function calls:
  8512 ;;		Nothing
  8513 ;; This function is called by:
  8514 ;;		_ADC_GetValue
  8515 ;; This function uses a non-reentrant model
  8516 ;;
  8517                           
  8518                           
  8519                           ;psect for function _PORT_Choose_Mux
  8520  118A                     _PORT_Choose_Mux:
  8521                           
  8522                           ;incstack = 0
  8523                           ; Regs used in _PORT_Choose_Mux: [wreg+status,2+status,0+btemp+1]
  8524                           ;PORT_Choose_Mux@_value stored from wreg
  8525  118A  00F2               	movwf	PORT_Choose_Mux@_value
  8526  118B                     l2005:
  8527                           
  8528                           ;port.c: 95:     if (_value <= 0x0F) {
  8529  118B  3010               	movlw	16
  8530  118C  0272               	subwf	PORT_Choose_Mux@_value,w
  8531  118D  1803               	skipnc
  8532  118E  2990               	goto	u2671
  8533  118F  2991               	goto	u2670
  8534  1190                     u2671:
  8535  1190  299B               	goto	l153
  8536  1191                     u2670:
  8537  1191                     l2007:
  8538                           
  8539                           ;port.c: 96:         PORTD &= 0xF0;
  8540  1191  30F0               	movlw	240
  8541  1192  00FF               	movwf	btemp+1
  8542  1193  087F               	movf	btemp+1,w
  8543  1194  1283               	bcf	3,5	;RP0=0, select bank0
  8544  1195  1303               	bcf	3,6	;RP1=0, select bank0
  8545  1196  0588               	andwf	8,f	;volatile
  8546                           
  8547                           ;port.c: 97:         PORTD |= _value;
  8548  1197  0872               	movf	PORT_Choose_Mux@_value,w	;volatile
  8549  1198  00FF               	movwf	btemp+1
  8550  1199  087F               	movf	btemp+1,w
  8551  119A  0488               	iorwf	8,f	;volatile
  8552  119B                     l153:
  8553  119B  0008               	return
  8554  119C                     __end_of_PORT_Choose_Mux:
  8555                           
  8556                           	psect	text30
  8557  11C0                     __ptext30:	
  8558 ;; *************** function _isr *****************
  8559 ;; Defined at:
  8560 ;;		line 78 in file "timer.c"
  8561 ;; Parameters:    Size  Location     Type
  8562 ;;		None
  8563 ;; Auto vars:     Size  Location     Type
  8564 ;;		None
  8565 ;; Return value:  Size  Location     Type
  8566 ;;                  1    wreg      void 
  8567 ;; Registers used:
  8568 ;;		None
  8569 ;; Tracked objects:
  8570 ;;		On entry : 0/0
  8571 ;;		On exit  : 0/0
  8572 ;;		Unchanged: 0/0
  8573 ;; Data sizes:     COMMON   BANK0   BANK1   BANK3   BANK2
  8574 ;;      Params:         0       0       0       0       0
  8575 ;;      Locals:         0       0       0       0       0
  8576 ;;      Temps:          2       0       0       0       0
  8577 ;;      Totals:         2       0       0       0       0
  8578 ;;Total ram usage:        2 bytes
  8579 ;; Hardware stack levels used:    1
  8580 ;; This function calls:
  8581 ;;		Nothing
  8582 ;; This function is called by:
  8583 ;;		Interrupt level 1
  8584 ;; This function uses a non-reentrant model
  8585 ;;
  8586                           
  8587                           
  8588                           ;psect for function _isr
  8589  11C0                     _isr:
  8590  11C0                     i1l2815:
  8591                           
  8592                           ;timer.c: 85: if (TMR1IF)
  8593  11C0  1283               	bcf	3,5	;RP0=0, select bank0
  8594  11C1  1303               	bcf	3,6	;RP1=0, select bank0
  8595  11C2  1C0C               	btfss	12,0	;volatile
  8596  11C3  29C5               	goto	u431_21
  8597  11C4  29C6               	goto	u431_20
  8598  11C5                     u431_21:
  8599  11C5  29CD               	goto	i1l217
  8600  11C6                     u431_20:
  8601  11C6                     i1l2817:
  8602                           
  8603                           ;timer.c: 86:      {;timer.c: 88:      Fincompt1 = 1;
  8604  11C6  1683               	bsf	3,5	;RP0=1, select bank1
  8605  11C7  1303               	bcf	3,6	;RP1=0, select bank1
  8606  11C8  01D9               	clrf	_Fincompt1^(0+128)
  8607  11C9  0AD9               	incf	_Fincompt1^(0+128),f
  8608                           
  8609                           ;timer.c: 91:      TMR1IF=0;
  8610  11CA  1283               	bcf	3,5	;RP0=0, select bank0
  8611  11CB  1303               	bcf	3,6	;RP1=0, select bank0
  8612  11CC  100C               	bcf	12,0	;volatile
  8613  11CD                     i1l217:	
  8614                           ;timer.c: 92:      }
  8615                           
  8616                           
  8617                           ;timer.c: 94: if (TMRAIF)
  8618  11CD  1E0D               	btfss	13,4	;volatile
  8619  11CE  29D0               	goto	u432_21
  8620  11CF  29D1               	goto	u432_20
  8621  11D0                     u432_21:
  8622  11D0  29D2               	goto	i1l219
  8623  11D1                     u432_20:
  8624  11D1                     i1l2819:
  8625                           
  8626                           ;timer.c: 95:      {;timer.c: 100:      TMRAIF=0;
  8627  11D1  120D               	bcf	13,4	;volatile
  8628  11D2                     i1l219:
  8629  11D2  0871               	movf	??_isr+1,w
  8630  11D3  008A               	movwf	10
  8631  11D4  0E70               	swapf	??_isr^(0+4294967168),w
  8632  11D5  0083               	movwf	3
  8633  11D6  0EFE               	swapf	btemp,f
  8634  11D7  0E7E               	swapf	btemp,w
  8635  11D8  0009               	retfie
  8636  11D9                     __end_of_isr:
  8637  007E                     btemp	set	126	;btemp
  8638  007E                     wtemp0	set	126
  8639                           
  8640                           	psect	intentry
  8641  0004                     __pintentry:	
  8642                           ;incstack = 0
  8643                           ; Regs used in _isr: []
  8644                           
  8645  0004                     interrupt_function:
  8646  007E                     saved_w	set	btemp
  8647  0004  00FE               	movwf	btemp
  8648  0005  0E03               	swapf	3,w
  8649  0006  00F0               	movwf	??_isr
  8650  0007  080A               	movf	10,w
  8651  0008  00F1               	movwf	??_isr+1
  8652  0009  160A  118A  29C0   	ljmp	_isr
  8653                           
  8654                           	psect	config
  8655                           
  8656                           ;Config register CONFIG @ 0x2007
  8657                           ;	Oscillator Selection bits
  8658                           ;	FOSC = INTOSC, INTOSC oscillator: CLKOUT function on RA6/OSC2/CLKOUT pin, I/O function
      +                            on RA7/OSC1/CLKIN
  8659                           ;	Watchdog Timer Enable bit
  8660                           ;	WDTE = OFF, WDT disabled and can be enabled by SWDTEN bit of the WDTCON register
  8661                           ;	Power-up Timer Enable bit
  8662                           ;	PWRTE = OFF, PWRT disabled
  8663                           ;	RE3/MCLR Pin Function Select bit
  8664                           ;	MCLRE = ON, RE3/MCLR pin function is MCLR
  8665                           ;	Code Protection bit
  8666                           ;	CP = OFF, Program memory code protection is disabled
  8667                           ;	Brown-out Reset Selection bits
  8668                           ;	BOREN = ON, BOR enabled
  8669                           ;	Brown-out Reset Voltage Selection bit
  8670                           ;	BORV = 19, Brown-out Reset Voltage (VBOR) set to 1.9 V nominal
  8671                           ;	INTOSC PLLEN Enable Bit
  8672                           ;	PLLEN = ON, INTOSC Frequency is 16 MHz (32x)
  8673  2007                     	org	8199
  8674  2007  3FF5               	dw	16373
  8675                           
  8676                           ;Config register CONFIG2 @ 0x2008
  8677                           ;	Voltage Regulator Capacitor Enable bits
  8678                           ;	VCAPEN = OFF, All VCAP pin functions are disabled
  8679  2008                     	org	8200
  8680  2008  FFFF               	dw	65535

Data Sizes:
    Strings     68
    Constant    160
    Data        0
    BSS         1
    Persistent  0
    Stack       0

Auto Spaces:
    Space          Size  Autos    Used
    COMMON           14     12      12
    BANK0            80     80      80
    BANK1            80     57      58
    BANK3            96      0       0
    BANK2            91      0       0

Pointer List with Targets:

    PORT_putString@chaine	PTR unsigned char  size(1) Largest target is 19
		 -> STR_8(CODE[2]), STR_7(CODE[15]), STR_6(CODE[2]), STR_5(CODE[19]), 
		 -> STR_4(CODE[2]), STR_3(CODE[16]), STR_2(CODE[2]), STR_1(CODE[16]), 


Critical Paths under _main in COMMON

    _main->_Affichage_brut
    _main->_Voltage_Value
    _puts_float->___fltol
    ___flsub->__Umul8_16
    ___fladd->__Umul8_16
    ___flmul->__Umul8_16
    ___fldiv->__Umul8_16
    _PORT_putString->_PORT_putchar
    _Affichage_brut->___awdiv
    _ADC_GetValue->_PORT_Choose_Mux

Critical Paths under _isr in COMMON

    None.

Critical Paths under _main in BANK0

    _puts_float->___flmul
    _conversion_newton->___flmul
    _Voltage_Value->___flmul
    _Resistance_Value->___flmul
    ___flsub->___fladd
    ___flmul->___fldiv
    ___fldiv->___flsub

Critical Paths under _isr in BANK0

    None.

Critical Paths under _main in BANK1

    _main->_conversion_newton

Critical Paths under _isr in BANK1

    None.

Critical Paths under _main in BANK3

    None.

Critical Paths under _isr in BANK3

    None.

Critical Paths under _main in BANK2

    None.

Critical Paths under _isr in BANK2

    None.

Call Graph Tables:

 ---------------------------------------------------------------------------------
 (Depth) Function   	        Calls       Base Space   Used Autos Params    Refs
 ---------------------------------------------------------------------------------
 (0) _main                                                18    18      0   33966
                                             39 BANK1     18    18      0
                       _ADC_GetValue
                     _Affichage_brut
                     _PORT_Blink_LED
                          _PORT_Init
                     _PORT_Init_Gain
                   _PORT_Select_Mux1
                     _PORT_putString
                   _Resistance_Value
                  _TIMER_init_timer1
                      _Voltage_Value
                  _conversion_newton
                         _puts_float
 ---------------------------------------------------------------------------------
 (1) _puts_float                                          12     8      4    5448
                                              0 BANK1     12     8      4
                       _PORT_putchar
                            ___flmul
                            ___fltol
                            ___lwdiv
                            ___lwmod
 ---------------------------------------------------------------------------------
 (2) ___lwmod                                              5     1      4     767
                                              2 COMMON     5     1      4
 ---------------------------------------------------------------------------------
 (2) ___lwdiv                                              7     3      4     770
                                              2 COMMON     7     3      4
 ---------------------------------------------------------------------------------
 (2) ___fltol                                             10     6      4     305
                                              2 COMMON    10     6      4
 ---------------------------------------------------------------------------------
 (1) _conversion_newton                                   39    35      4   13978
                                              0 BANK1     39    35      4
                            ___fladd
                            ___fldiv
                             ___flge
                            ___flmul
                            ___flsub
 ---------------------------------------------------------------------------------
 (2) ___flge                                              12     4      8    3526
                                              2 COMMON     8     0      8
                                              0 BANK0      4     4      0
 ---------------------------------------------------------------------------------
 (1) _Voltage_Value                                        9     5      4    4870
                                             11 COMMON     1     1      0
                                              0 BANK1      8     4      4
                            ___fldiv
                            ___flmul
                           ___xxtofl
 ---------------------------------------------------------------------------------
 (2) ___xxtofl                                            14    10      4     398
                                              2 COMMON     8     4      4
                                              0 BANK0      6     6      0
 ---------------------------------------------------------------------------------
 (1) _TIMER_init_timer1                                    0     0      0       0
 ---------------------------------------------------------------------------------
 (1) _Resistance_Value                                     4     0      4    7489
                                              0 BANK1      4     0      4
                            ___fldiv
                            ___flmul
                            ___flsub
 ---------------------------------------------------------------------------------
 (2) ___flsub                                              8     0      8    2941
                                             20 BANK0      8     0      8
                          __Umul8_16 (ARG)
                            ___fladd
 ---------------------------------------------------------------------------------
 (3) ___fladd                                             20    12      8    2288
                                              0 BANK0     20    12      8
                          __Umul8_16 (ARG)
 ---------------------------------------------------------------------------------
 (2) ___flmul                                             26    18      8    2873
                                             54 BANK0     26    18      8
                          __Umul8_16
                            ___fladd (ARG)
                            ___fldiv (ARG)
                            ___flsub (ARG)
                           ___xxtofl (ARG)
 ---------------------------------------------------------------------------------
 (3) __Umul8_16                                            9     7      2     799
                                              2 COMMON     9     7      2
 ---------------------------------------------------------------------------------
 (2) ___fldiv                                             26    18      8    1577
                                             28 BANK0     26    18      8
                          __Umul8_16 (ARG)
                            ___fladd (ARG)
                            ___flsub (ARG)
                           ___xxtofl (ARG)
 ---------------------------------------------------------------------------------
 (1) _PORT_putString                                       3     3      0     376
                                              3 COMMON     3     3      0
                       _PORT_putchar
 ---------------------------------------------------------------------------------
 (1) _PORT_Select_Mux1                                     0     0      0       0
 ---------------------------------------------------------------------------------
 (1) _PORT_Init_Gain                                       0     0      0       0
 ---------------------------------------------------------------------------------
 (1) _PORT_Init                                            1     1      0       0
                                              2 COMMON     1     1      0
                   _PORT_Init_Serial
 ---------------------------------------------------------------------------------
 (2) _PORT_Init_Serial                                     0     0      0       0
 ---------------------------------------------------------------------------------
 (1) _PORT_Blink_LED                                       0     0      0       0
 ---------------------------------------------------------------------------------
 (1) _Affichage_brut                                      11     9      2    1578
                                             10 COMMON     2     0      2
                                              0 BANK0      9     9      0
                       _PORT_putchar
                            ___awdiv
                            ___awmod
 ---------------------------------------------------------------------------------
 (2) ___awmod                                              6     2      4     600
                                              2 COMMON     6     2      4
 ---------------------------------------------------------------------------------
 (2) ___awdiv                                              8     4      4     604
                                              2 COMMON     8     4      4
 ---------------------------------------------------------------------------------
 (2) _PORT_putchar                                         1     1      0      22
                                              2 COMMON     1     1      0
 ---------------------------------------------------------------------------------
 (1) _ADC_GetValue                                         1     1      0      66
                                              3 COMMON     1     1      0
                    _PORT_Choose_Mux
                 _PORT_Get_Value_Adc
                     _PORT_Start_ADC
 ---------------------------------------------------------------------------------
 (2) _PORT_Start_ADC                                       0     0      0       0
 ---------------------------------------------------------------------------------
 (2) _PORT_Get_Value_Adc                                   0     0      0       0
 ---------------------------------------------------------------------------------
 (2) _PORT_Choose_Mux                                      1     1      0      44
                                              2 COMMON     1     1      0
 ---------------------------------------------------------------------------------
 Estimated maximum stack depth 3
 ---------------------------------------------------------------------------------
 (Depth) Function   	        Calls       Base Space   Used Autos Params    Refs
 ---------------------------------------------------------------------------------
 (4) _isr                                                  2     2      0       0
                                              0 COMMON     2     2      0
 ---------------------------------------------------------------------------------
 Estimated maximum stack depth 4
 ---------------------------------------------------------------------------------

 Call Graph Graphs:

 _main (ROOT)
   _ADC_GetValue
     _PORT_Choose_Mux
     _PORT_Get_Value_Adc
     _PORT_Start_ADC
   _Affichage_brut
     _PORT_putchar
     ___awdiv
     ___awmod
   _PORT_Blink_LED
   _PORT_Init
     _PORT_Init_Serial
   _PORT_Init_Gain
   _PORT_Select_Mux1
   _PORT_putString
     _PORT_putchar
   _Resistance_Value
     ___fldiv
       __Umul8_16 (ARG)
       ___fladd (ARG)
         __Umul8_16 (ARG)
       ___flsub (ARG)
         __Umul8_16 (ARG)
         ___fladd (ARG)
           __Umul8_16 (ARG)
       ___xxtofl (ARG)
     ___flmul
       __Umul8_16
       ___fladd (ARG)
         __Umul8_16 (ARG)
       ___fldiv (ARG)
         __Umul8_16 (ARG)
         ___fladd (ARG)
           __Umul8_16 (ARG)
         ___flsub (ARG)
           __Umul8_16 (ARG)
           ___fladd (ARG)
             __Umul8_16 (ARG)
         ___xxtofl (ARG)
       ___flsub (ARG)
         __Umul8_16 (ARG)
         ___fladd (ARG)
           __Umul8_16 (ARG)
       ___xxtofl (ARG)
     ___flsub
       __Umul8_16 (ARG)
       ___fladd (ARG)
         __Umul8_16 (ARG)
   _TIMER_init_timer1
   _Voltage_Value
     ___fldiv
       __Umul8_16 (ARG)
       ___fladd (ARG)
         __Umul8_16 (ARG)
       ___flsub (ARG)
         __Umul8_16 (ARG)
         ___fladd (ARG)
           __Umul8_16 (ARG)
       ___xxtofl (ARG)
     ___flmul
       __Umul8_16
       ___fladd (ARG)
         __Umul8_16 (ARG)
       ___fldiv (ARG)
         __Umul8_16 (ARG)
         ___fladd (ARG)
           __Umul8_16 (ARG)
         ___flsub (ARG)
           __Umul8_16 (ARG)
           ___fladd (ARG)
             __Umul8_16 (ARG)
         ___xxtofl (ARG)
       ___flsub (ARG)
         __Umul8_16 (ARG)
         ___fladd (ARG)
           __Umul8_16 (ARG)
       ___xxtofl (ARG)
     ___xxtofl
   _conversion_newton
     ___fladd
       __Umul8_16 (ARG)
     ___fldiv
       __Umul8_16 (ARG)
       ___fladd (ARG)
         __Umul8_16 (ARG)
       ___flsub (ARG)
         __Umul8_16 (ARG)
         ___fladd (ARG)
           __Umul8_16 (ARG)
       ___xxtofl (ARG)
     ___flge
     ___flmul
       __Umul8_16
       ___fladd (ARG)
         __Umul8_16 (ARG)
       ___fldiv (ARG)
         __Umul8_16 (ARG)
         ___fladd (ARG)
           __Umul8_16 (ARG)
         ___flsub (ARG)
           __Umul8_16 (ARG)
           ___fladd (ARG)
             __Umul8_16 (ARG)
         ___xxtofl (ARG)
       ___flsub (ARG)
         __Umul8_16 (ARG)
         ___fladd (ARG)
           __Umul8_16 (ARG)
       ___xxtofl (ARG)
     ___flsub
       __Umul8_16 (ARG)
       ___fladd (ARG)
         __Umul8_16 (ARG)
   _puts_float
     _PORT_putchar
     ___flmul
       __Umul8_16
       ___fladd (ARG)
         __Umul8_16 (ARG)
       ___fldiv (ARG)
         __Umul8_16 (ARG)
         ___fladd (ARG)
           __Umul8_16 (ARG)
         ___flsub (ARG)
           __Umul8_16 (ARG)
           ___fladd (ARG)
             __Umul8_16 (ARG)
         ___xxtofl (ARG)
       ___flsub (ARG)
         __Umul8_16 (ARG)
         ___fladd (ARG)
           __Umul8_16 (ARG)
       ___xxtofl (ARG)
     ___fltol
     ___lwdiv
     ___lwmod

 _isr (ROOT)

 Address spaces:
Name               Size   Autos  Total    Cost      Usage
BITCOMMON            E      0       0       0        0.0%
NULL                 0      0       0       0        0.0%
CODE                 0      0       0       0        0.0%
COMMON               E      C       C       1       85.7%
BITSFR0              0      0       0       1        0.0%
SFR0                 0      0       0       1        0.0%
BITSFR1              0      0       0       2        0.0%
SFR1                 0      0       0       2        0.0%
STACK                0      0       0       2        0.0%
ABS                  0      0      96       3        0.0%
BITBANK0            50      0       0       4        0.0%
BITSFR3              0      0       0       4        0.0%
SFR3                 0      0       0       4        0.0%
BANK0               50     50      50       5      100.0%
BITSFR2              0      0       0       5        0.0%
SFR2                 0      0       0       5        0.0%
DATA                 0      0      96       6        0.0%
BITBANK1            50      0       0       7        0.0%
BANK1               50     39      3A       8       72.5%
BITBANK3            60      0       0       9        0.0%
BANK3               60      0       0      10        0.0%
BITBANK2            5B      0       0      11        0.0%
BANK2               5B      0       0      12        0.0%


Microchip Technology PIC Macro Assembler V2.20 build 20200408173844 
Symbol Table                                                                                   Thu Jun 01 11:26:20 2023

                   ___fldiv@aexp 0055                     ___fldiv@bexp 0054                                pc 0002  
                   ___fldiv@sign 004D                               l42 1548                               l51 1452  
                             l45 17FF                               l48 137D                               l80 0716  
                             l72 0484                               l79 070C                               l89 11AD  
                   ___awdiv@sign 0077                               fsr 0004              __Umul8_16@word_mpld 0078  
               ??_PORT_Blink_LED 0072                              l140 07FD                              l212 11BF  
                            l400 15D3                              l153 119B                              l401 15EC  
                            l162 1158                              l146 1281                              l156 1161  
                            l180 116D                              l165 116F                              l149 1189  
                            l174 1221                              l159 1165                              l183 115D  
                            l168 1179                              l520 0B21                              l416 14B7  
                            l409 14CC                              l505 0839                              l522 0AF8  
                            l419 14CC                              l612 0FFF                              l516 0A7A  
                            l541 0C10                              l631 1236                              l376 13E4  
                            l624 0FF3                              l633 1248                              l537 0BEC  
                            l529 0C9E                              l618 0F6B                              l562 11FC  
                            l547 0C32                              l572 0896                              l389 131E  
                            l397 1567                              l574 0A16                              l558 0C92  
                            l670 07A8                              l559 0C9E                              l495 12C5  
                            l656 073B                              l658 07D2                              l596 0A0A  
                            l588 0988                              l669 079C        __end_of_TIMER_init_timer1 11C0  
                            _isr 11C0                              fsr0 0004                     ___awmod@sign 0077  
                   ___flmul@aexp 0068                     ___flmul@bexp 0069                     ___flmul@sign 0063  
                   ___flmul@temp 006E                     ___flmul@prod 006A         __end_of_PORT_Select_Mux1 116E  
                   ___fltol@exp1 007B                             l2001 116F                             l2011 1155  
                           l2003 1175                             l2005 118B                             l2101 12EF  
                           l2021 07DF                             l2007 1191                             l2103 12F3  
                           l2111 1310                             l2031 07F0                             l2023 07E2  
                           l2015 07D3                             l2009 115E                             l2041 1383  
                           l2113 1315                             l2105 12FD                             l2033 07F5  
                           l2025 07E7                             l2017 07D9                             l2121 155F  
                           l2051 1397                             l2043 1388                             l2115 131A  
                           l2107 1303                             l2035 07F8                             l2027 07EA  
                           l2019 07DC                             l2131 15AF                             l2123 157B  
                           l2211 0814                             l2203 0800                             l2061 13AD  
                           l2053 1399                             l2045 138A                             l2037 137E  
                           l2109 130A                             l2029 07ED                             l2301 090C  
                           l2133 15E9                             l2125 1583                             l2141 145E  
                           l2213 0818                             l2205 0806                             l2221 0835  
                           l2071 13D0                             l2063 13B1                             l2055 139F  
                           l2047 138E                             l2039 137F                             l2311 0937  
                           l2303 090D                             l2231 083A                             l2135 15EB  
                           l2127 1587                             l2119 1549                             l2151 1485  
                           l2215 0822                             l2207 0809                             l2065 13C2  
                           l2057 13A2                             l2073 13D6                             l2049 1393  
                           l2081 12C6                             l2321 0954                             l2305 0916  
                           l2313 093B                             l2241 0851                             l2233 0841  
                           l2401 0CDD                             l2225 11D9                             l2129 15AB  
                           l2161 1493                             l2153 1487                             l2145 1467  
                           l2217 0828                             l2209 0810                             l2075 13DB  
                           l2067 13C8                             l2059 13A9                             l2091 12D6  
                           l2083 12C7                             l2331 096C                             l2323 0958  
                           l2315 0941                             l2307 0928                             l2251 0869  
                           l2243 0856                             l2235 0847                             l2411 0CF9  
                           l2403 0CE2                             l2227 11DD                             l2171 14AC  
                           l2163 149C                             l2155 148B                             l2147 147C  
                           l2139 1453                             l2219 082F                             l2077 13E0  
                           l2069 13C9                             l2093 12DB                             l2085 12CB  
                           l2341 098D                             l2333 096D                             l2325 0959  
                           l2317 0949                             l2309 0929                             l2261 087E  
                           l2253 086E                             l2245 085E                             l2237 084B  
                           l2501 0FD7                             l2421 0D1C                             l2413 0CFE  
                           l2405 0CE7                             l2173 14BC                             l2165 14A5  
                           l2149 147D                             l2181 128A                             l2095 12E1  
                           l2087 12D0                             l2343 0992                             l2351 09C3  
                           l2335 0971                             l2327 0962                             l2319 094B  
                           l2271 089E                             l2263 0883                             l2255 0874  
                           l2247 085F                             l2239 084C                             l2511 0FEC  
                           l2503 0FD9                             l2431 0DAA                             l2423 0D29  
                           l2415 0D03                             l2407 0CEF                             l2175 14C1  
                           l2191 12AD                             l2183 128D                             l2097 12E4  
                           l2089 12D2                             l2361 09F9                             l2353 09D0  
                           l2345 09A0                             l2337 0985                             l2329 0968  
                           l2281 08BC                             l2273 08AA                             l2265 088B  
                           l2257 0878                             l2249 0861                             l2513 0FF7  
                           l2505 0FDF                             l2441 0E0C                             l2433 0DC6  
                           l2425 0D46                             l2409 0CF1                             l1801 0A3C  
                           l2601 11B5                             l2521 0723                             l2193 12B3  
                           l2185 1294                             l2177 1282                             l2099 12EB  
                           l2363 09FA                             l2355 09DE                             l2347 09A4  
                           l2291 08E7                             l2275 08AE                             l2267 088C  
                           l2259 0879                             l2507 0FE7                             l2451 0E9C  
                           l2443 0E29                             l2435 0DCF                             l2427 0D62  
                           l2419 0D0C                             l1811 0A52                             l1803 0A3E  
                           l2611 11BA                             l2603 11B6                             l2531 0751  
                           l2523 0733                             l2195 12B4                             l2187 1298  
                           l2179 1284                             l2621 1159                             l2365 0A00  
                           l2357 09ED                             l2349 09BD                             l2293 08EF  
                           l2285 08C5                             l2269 088E                             l2509 0FEB  
                           l2461 0F2E                             l2453 0EC9                             l2445 0E42  
                           l2437 0DDF                             l2429 0D8E                             l2381 0CB0  
                           l1901 0B5B                             l1821 0A67                             l1813 0A58  
                           l1805 0A46                             l2613 11BB                             l2605 11B7  
                           l2541 0777                             l2533 0755                             l2525 0743  
                           l2517 071A                             l2701 00F5                             l2197 12BB  
                           l2189 129C                             l2623 117A                             l2367 0A04  
                           l2359 09F1                             l2295 08F1                             l2287 08D7  
                           l2279 08B7                             l2463 0F37                             l2471 0F4B  
                           l2455 0EEF                             l2447 0E5F                             l2439 0DFC  
                           l2391 0CC5                             l2383 0CB1                             l2375 0C9F  
                           l1903 0B5D                             l1911 0B70                             l1831 0A84  
                           l1823 0A6F                             l1815 0A5C                             l1807 0A4B  
                           l2615 11BE                             l2607 11B8                             l2551 07A0  
                           l2543 0780                             l2535 075E                             l2519 071F  
                           l2711 01A2                             l2703 012A                             l2199 12C1  
                           l2625 119D                             l2641 14CD                             l2617 1166  
                           l2633 11FE                             l2369 0A06                             l2297 08F6  
                           l2289 08DF                             l2473 0F4F                             l2465 0F3B  
                           l2457 0F17                             l2449 0E8C                             l2393 0CCD  
                           l2385 0CB6                             l2377 0CA6                             l1921 0BCF  
                           l1913 0B86                             l1905 0B61                             l1841 0A98  
                           l1833 0A88                             l1825 0A70                             l1817 0A5D  
                           l1809 0A51                             l2609 11B9                             l2561 07CA  
                           l2553 07AA                             l2545 0787                             l2537 0765  
                           l2529 074C                             l2721 027D                             l2713 01D7  
                           l2705 0131                             l2801 168B                             l2627 11A3  
                           l2651 151F                             l2643 14D3                             l2571 1255  
                           l2619 1169                             l2635 1201                             l2299 0908  
                           l2491 0FA0                             l2483 0F70                             l2475 0F50  
                           l2467 0F3C                             l2459 0F20                             l2395 0CD2  
                           l2387 0CBB                             l2379 0CAC                             l1931 0C02  
                           l1915 0BC4                             l1923 0BDE                             l1907 0B62  
                           l1851 0AAC                             l1843 0A9C                             l1835 0A8C  
                           l1819 0A62                             l1827 0A72                             l2555 07C0  
                           l2547 0792                             l2539 0769                             l2731 032A  
                           l2723 0284                             l2715 020C                             l2707 0166  
                           l2811 16C5                             l2803 1691                             l2629 11A8  
                           l2653 1525                             l2645 14EA                             l2581 126C  
                           l2573 125E                             l2565 1249                             l2637 120E  
                           l2485 0F75                             l2493 0FA6                             l2477 0F54  
                           l2469 0F45                             l2397 0CD8                             l2389 0CC3  
                           l1941 0C19                             l1933 0C0B                             l1925 0BF4  
                           l1917 0BC8                             l1909 0B6B                             l1861 0AC0  
                           l1853 0AB0                             l1845 0AA0                             l1837 0A90  
                           l1829 0A80                             l2557 07C5                             l2549 0796  
                           l2741 03D7                             l2733 035F                             l2725 02B9  
                           l2717 0213                             l2709 019B                             l2813 16D4  
                           l2805 16A0                             l2655 153D                             l2647 14F0  
                           l2591 127C                             l2583 1270                             l2575 1261  
                           l2567 124F                             l2639 1214                             l2495 0FB3  
                           l2487 0F83                             l2479 0F68                             l2399 0CDC  
                           l1951 0C29                             l1943 0C1E                             l1935 0C0F  
                           l1927 0BF9                             l1919 0BCA                             l1871 0AF3  
                           l1855 0AB4                             l1847 0AA4                             l1839 0A94  
                           l1863 0AC4                             l1791 0A28                             l2559 07C9  
                           l2743 040C                             l2735 0366                             l2727 02EE  
                           l2719 0248                             l2751 0484                             l2671 1773  
                           l2663 16DE                             l2807 16A6                             l2657 1542  
                           l2649 1508                             l2593 127E                             l2585 1274  
                           l2577 1265                             l2569 1253                             l2497 0FBE  
                           l2489 0F87                             l1961 0C4A                             l1953 0C2F  
                           l1937 0C14                             l1945 0C20                             l1881 0B0C  
                           l1873 0AFC                             l1865 0AC5                             l1857 0AB8  
                           l1849 0AA8                             l1793 0A29                             l1785 0A17  
                           l2761 0702                             l2753 0621                             l2745 0441  
                           l2737 039B                             l2729 02F5                             l2681 17F4  
                           l2673 17A2                             l2665 1744                             l2809 16BF  
                           l2595 127F                             l2587 1278                             l2579 1267  
                           l2499 0FCD                             l1971 0C7A                             l1963 0C4E  
                           l1939 0C17                             l1947 0C24                             l1883 0B15  
                           l1875 0B05                             l1867 0ADC                             l1859 0ABC  
                           l1795 0A2E                             l1787 0A1E                             l2659 1320  
                           l2755 0690                             l2747 0448                             l2739 03D0  
                           l2691 004B                             l2683 17F9                             l2675 17A8  
                           l2667 174A                             l2771 1601                             l2589 1279  
                           l1981 0C8E                             l1973 0C82                             l1965 0C6C  
                           l1957 0C37                             l1949 0C25                             l1893 0B33  
                           l1877 0B07                             l1869 0AEB                             l1885 0B19  
                           l1797 0A33                             l1789 0A24                             l2685 13E5  
                           l2597 11AE                             l2757 06C3                             l2749 047D  
                           l2693 004F                             l2677 17D9                             l2669 175F  
                           l2781 161F                             l2773 1608                             l2765 15ED  
                           l1991 122C                             l1983 0C99                             l1975 0C87  
                           l1959 0C3C                             l1967 0C70                             l1895 0B4A  
                           l1887 0B25                             l1879 0B0B                             l1799 0A3B  
                           l2599 11B2                             l2759 06CD                             l2695 0084  
                           l2679 17DF                             l2791 1645                             l2783 1625  
                           l2775 1609                             l2767 15F7                             l1993 1230  
                           l1985 0C9D                             l1977 0C88                             l1969 0C75  
                           l1897 0B4E                             l1889 0B2A                             l2697 00B9  
                           l2689 0016                             l2793 1657                             l2785 162B  
                           l2777 160E                             l2769 15FC                             l1995 123F  
                           l1987 1223                             l1979 0C8C                             l1899 0B52  
                           l2699 00C0                             l2795 165D                             l2787 1631  
                           l2779 1619                             l1997 1244                             l1989 1225  
                           l2797 166C                             l2789 163F                             l2799 1672  
                           ?_isr 0070                             STR_1 10C9                             STR_2 10E8  
                           STR_3 10B9                             STR_4 10E8                             STR_5 10A6  
                           STR_6 10E8                             STR_7 10D9                             STR_8 10E8  
                           u2200 0A51                             u3000 14A4                             u2201 0A50  
                           u3001 14A3                             u2210 0A5C                             u3010 14AB  
                           u2211 0A5B                             u3011 14AA                             u2300 0B0B  
                           u2220 0A62                             u2301 0B0A                             u2221 0A61  
                           u2230 0A67                             u3030 14BC                             u3110 12C1  
                           u2231 0A66                             u3031 14BB                             u3111 12C0  
                           u3200 0856                             u2400 0B86                             u2320 0B21  
                           u2240 0A80                             u3040 14C1                             u3120 0806  
                           u3201 0855                             u2401 0B85                             u2321 0B20  
                           u2241 0A7F                             u3041 14C0                             u3025 14AE  
                           u3105 12B5                             u3121 0805                             u4010 1221  
                           u3210 0878                             u2330 0B25                             u2250 0A84  
                           u2170 0A28                             u3050 128A                             u4011 1220  
                           u3211 0877                             u2411 0B9D                             u2403 0B82  
                           u2331 0B24                             u2315 0B0E                             u2251 0A83  
                           u2171 0A27                             u3051 1289                             u4004 1189  
                           u3220 087E                             u2500 0C24                             u2420 0BB1  
                           u2412 0B9E                             u2340 0B2A                             u2260 0ADC  
                           u2180 0A2E                             u4100 020C                             u4020 004B  
                           u3140 0818                             u3221 087D                             u2501 0C23  
                           u2421 0BB2                             u2413 0BA3                             u2341 0B29  
                           u2261 0ADB                             u2181 0A2D                             u4101 020B  
                           u4021 004A                             u3141 0817                             u3310 0928  
                           u3230 0883                             u2510 0C29                             u2430 0BCF  
                           u2422 0BB7                             u2414 0BA4                             u2270 0AE7  
                           u2190 0A33                             u4110 0248                             u4030 0084  
                           u3070 129C                             u3150 0822                             u3311 0927  
                           u3231 0882                             u2511 0C28                             u2431 0BCE  
                           u2423 0BB8                             u2415 0BA9                             u2351 0B3C  
                           u2271 0AE5                             u2191 0A32                             u4111 0247  
                           u4031 0083                             u3071 129B                             u3151 0821  
                           u3135 080A                             u3400 098C                             u3320 0941  
                           u3240 089E                             u2600 0C87                             u2520 0C2F  
                           u2440 0BF4                             u2416 0BAA                             u2360 0B4E  
                           u2352 0B43                             u2280 0AE8                             u4200 0441  
                           u4120 027D                             u4040 00B9                             u3401 098B  
                           u3321 0940                             u3305 090F                             u3241 089D  
                           u2601 0C86                             u2521 0C2E                             u2441 0BF3  
                           u2361 0B4D                             u2353 0B4A                             u2265 0AD8  
                           u4201 0440                             u4121 027C                             u4041 00B8  
                           u3065 128E                             u3410 0992                             u3330 0949  
                           u3250 08BC                             u2610 0C8C                             u2530 0C36  
                           u2450 0BF9                             u2370 0B52                             u2290 0AFC  
                           u4210 047D                             u4130 02B9                             u4050 00F5  
                           u3090 12AD                             u3170 0835                             u3411 0991  
                           u3331 0948                             u3315 0924                             u3251 08BB  
                           u2611 0C8B                             u2531 0C35                             u2451 0BF8  
                           u2371 0B51                             u2291 0AFB                             u4211 047C  
                           u4131 02B8                             u4051 00F4                             u3091 12AC  
                           u3171 0834                             u3155 081E                             u2700 138E  
                           u3420 09A4                             u3260 08F6                             u3180 084B  
                           u3500 0CDC                             u2620 0C9D                             u2540 0C3C  
                           u2380 0B61                             u4140 02EE                             u4060 012A  
                           u4300 1608                             u2701 138D                             u3421 09A3  
                           u3261 08F5                             u3181 084A                             u3501 0CDB  
                           u2621 0C9C                             u2541 0C3B                             u2381 0B60  
                           u4141 02ED                             u4061 0129                             u3085 129D  
                           u3165 0829                             u4301 1607                             u2710 139F  
                           u3430 09B3                             u3350 0958                             u3190 0851  
                           u2630 1230                             u3510 0CE2                             u2550 0C4E  
                           u2470 0C0F                             u4150 032A                             u4070 0166  
                           u2711 139E                             u3351 0957                             u3191 0850  
                           u2631 122F                             u3511 0CE1                             u2551 0C4D  
                           u2471 0C0E                             u4151 0329                             u4071 0165  
                           u3095 12A9                             u2800 12D6                             u3440 09D0  
                           u3520 0CE7                             u2560 0C5D                             u2480 0C14  
                           u4160 035F                             u4080 019B                             u2801 12D5  
                           u3441 09CF                             u3345 094D                             u3601 0DEE  
                           u3521 0CE6                             u2481 0C13                             u2465 0C04  
                           u4225 0489                             u4161 035E                             u4081 019A  
                           u2730 13B1                             u2810 12E1                             u3450 09ED  
                           u3370 096C                             u3290 090C                             u2650 1244  
                           u3602 0DF5                             u3530 0CFE                             u2570 0C6C  
                           u2490 0C1E                             u4170 039B                             u4090 01D7  
                           u2731 13B0                             u2811 12E0                             u3451 09EC  
                           u3435 09AE                             u3371 096B                             u3291 090B  
                           u3275 08F8                             u2651 1243                             u3611 0E1B  
                           u3603 0DFC                             u3531 0CFD                             u2571 0C6B  
                           u2491 0C1D                             u2395 0B64                             u4235 04EC  
                           u4171 039A                             u4091 01D6                             u2660 1175  
                           u3460 0A04                             u3380 0971                             u3612 0E22  
                           u3540 0D03                             u2580 0C75                             u2900 1587  
                           u4180 03D0                             u2661 1174                             u2725 13A3  
                           u3461 0A03                             u3445 09CC                             u3381 0970  
                           u3365 095B                             u3285 0901                             u2645 1237  
                           u3613 0E29                             u3541 0D02                             u2581 0C74  
                           u2565 0C58                             u2901 1586                             u4245 0528  
                           u4181 03CF                             u2670 1191                             u2750 13C2  
                           u2830 12F3                             u3390 0985                             u3470 0CB0  
                           u2590 0C7A                             u4190 040C                             u2671 1190  
                           u2751 13C1                             u2831 12F2                             u3455 09E9  
                           u3391 0984                             u3631 0E51                             u3551 0D54  
                           u3471 0CAF                             u2591 0C79                             u2911 1596  
                           u4255 0573                             u4191 040B                             u2680 1165  
                           u2840 12FD                             u3800 0F96                             u3720 0F3B  
                           u3632 0E58                             u3552 0D5B                             u3480 0CB6  
                           u2920 15AF                             u2912 1597                             u4280 06C3  
                           u2681 1164                             u2745 13B2                             u2841 12FC  
                           u2825 12E5                             u3721 0F3A                             u3705 0F19  
                           u3641 0E7E                             u3633 0E5F                             u3625 0E2B  
                           u3561 0D70                             u3553 0D62                             u3481 0CB5  
                           u2921 15AE                             u2913 159C                             u4281 06C2  
                           u4265 05AF                             u2770 13D6                             u2690 1383  
                           u3810 0FB3                             u3642 0E85                             u3562 0D77  
                           u3490 0CBB                             u2914 159D                             u4290 0702  
                           u2771 13D5                             u2755 13BE                             u2691 1382  
                           u3811 0FB2                             u3715 0F30                             u3651 0EAB  
                           u3643 0E8C                             u3571 0D9C                             u3563 0D7E  
                           u3491 0CBA                             u2931 15BE                             u2915 15A2  
                           u4291 0701                             u4275 0624                             u2780 13DB  
                           u2860 1310                             u3820 0FCD                             u3740 0F4F  
                           u3660 0ED5                             u3652 0EB2                             u3572 0DA3  
                           u3900 0786                             u2940 15E9                             u2932 15BF  
                           u2916 15A3                             u2781 13DA                             u2765 13CA  
                           u2861 130F                             u2845 12F9                             u3821 0FCC  
                           u3805 0F91                             u3741 0F4E                             u3653 0EB9  
                           u3581 0DB8                             u3573 0DAA                             u3901 0785  
                           u2941 15E8                             u2933 15C4                             u2870 1315  
                           u2790 12CB                             u3830 0FEB                             u3750 0F54  
                           u3582 0DBF                             u2934 15C5                             u2950 145E  
                           u2871 1314                             u2855 1304                             u2791 12CA  
                           u3831 0FEA                             u3815 0FAF                             u3751 0F53  
                           u3735 0F3E                             u3671 0EE1                             u3583 0DC6  
                           u2935 15CA                             u2951 145D                             u3760 0F68  
                           u3680 0EFD                             u3672 0EE8                             u3920 0796  
                           u3840 071F                             u2936 15CB                             u2880 155F  
                           u2960 1475                             u3825 0FC9                             u3761 0F67  
                           u3673 0EEF                             u3665 0ED0                             u3921 0795  
                           u3841 071E                             u2945 15E5                             u2881 155E  
                           u3770 0F6F                             u3930 079C                             u3850 0723  
                           u2890 157B                             u2970 148B                             u3771 0F6E  
                           u3691 0F09                             u3595 0DC8                             u3931 079B  
                           u3915 078B                             u3851 0722                             u2891 157A  
                           u2971 148A                             u3780 0F75                             u3692 0F10  
                           u3940 07A0                             u3860 0743                             u2980 1492  
                           u3781 0F74                             u3693 0F17                             u3685 0EF8  
                           u3941 079F                             u3861 0742                             u2981 1491  
                           u2965 1470                             u3790 0F87                             u3950 07B5  
                           u3791 0F86                             u3960 07C5                             u3880 0764  
                           u3961 07C4                             u3881 0763                             u3970 07C9  
                           u3971 07C8                             u3955 07B0                             u3875 0756  
                           u2995 1494                             u3980 125E                             u3981 125D  
                           u3990 1186                             u3991 1182                             u3895 0778  
                           _TMRA 0110                             _WPUB 0095                             _main 15ED  
               ??_PORT_Init_Gain 0072                      main@sensor1 00D8                             btemp 007E  
              ??_PORT_Choose_Mux 0072                             start 000C                  ___fldiv@new_exp 004E  
          __size_of_ADC_GetValue 0012                            ??_isr 0070            _conversion_newton$778 00BD  
                  ___fltol@sign1 007A                  __end_of___fladd 0C9F                            ?_main 0070  
                __end_of___fldiv 0A17                  __end_of___awdiv 13E5                            _ADRES 001E  
                __end_of___awmod 131F                  __end_of___flmul 1000                  __end_of___flsub 11FD  
                __end_of___fltol 14CD                  ___awdiv@divisor 0072                  __end_of___lwdiv 12C6  
                          i1l217 11CD                            i1l219 11D2                  __end_of___lwmod 083A  
                ___awdiv@counter 0076                    _Voltage_Value 131F                            _RCSTA 0018  
                          _SPBRG 0099                            _PORTD 0008                            _TRISA 0085  
                          _TRISB 0086                            _TRISC 0087                            _TRISD 0088  
                          _TXREG 0019                            _TXSTA 0098                 ??_PORT_Start_ADC 0072  
             __size_of_PORT_Init 0039                            main@F 00CC                            pclath 000A  
                          status 0003                            wtemp0 007E                     _ADC_GetValue 119C  
     __end_of_PORT_Get_Value_Adc 1159                  __initialization 000F                    PORT_putchar@c 0072  
                   __end_of_main 16DE                           ??_main 00C7                   ?_Voltage_Value 00A0  
     __size_of_TIMER_init_timer1 0012         __end_of_Resistance_Value 1453          __size_of_Affichage_brut 007C  
                         _ADCON0 001F                           _ADCON1 009F                 ___awdiv@dividend 0074  
                         _ANSELA 0185                           _ANSELB 0186                           _ANSELD 0188  
                         i1l2815 11C0                           i1l2817 11C6                           i1l2819 11D1  
                         _T1SYNC 0082                           _FVRCON 009D                 puts_float@Valeur 00A0  
                         u431_20 11C6                           u431_21 11C5                           u432_20 11D1  
                         u432_21 11D0                           _OSCCON 0090                           _TMR1GE 047F  
                         _TMR1IE 0460                           _TMR1IF 0060                           _TMR1ON 0080  
                         _TMRAIF 006C                           _TMRCS0 0086                           _TMRCS1 0087  
               __end_of___xxtofl 07D3                           ___flge 1549       Affichage_brut@valueMetrics 0023  
                      ??___fladd 0028                        ??___fldiv 0044                        ??___awdiv 0076  
                      ??___awmod 0076                        ??___flmul 005E                        ??___flsub 007B  
                      ??___fltol 0076                        ??___lwdiv 0076                        ??___lwmod 0076  
              __end_of_PORT_Init 1282                 ___awdiv@quotient 0078                  ___awmod@divisor 0072  
                ___awmod@counter 0076                           main@Rc 00D0                ?_PORT_Init_Serial 0070  
                         main@Vs 00D4               ??_PORT_Init_Serial 0072               __size_of__Umul8_16 0027  
                         saved_w 007E                 ??_PORT_putString 0073                       ___flge@ff1 0072  
                     ___flge@ff2 0076                     ___xxtofl@arg 0022                     ___xxtofl@exp 0021  
                   ___xxtofl@val 0072          __end_of__initialization 0012                       ___fltol@f1 0072  
                 __pcstackCOMMON 0070                  ??_Voltage_Value 00A4            Affichage_brut@affiche 0022  
                _PORT_Choose_Mux 118A                ?_PORT_Select_Mux1 0070                       __pbssBANK1 00D9  
             ??_PORT_Select_Mux1 0072                __end_of__Umul8_16 1249                       __pmaintext 15ED  
                        ?___flge 0072              ADC_GetValue@channel 0073                       __pintentry 0004  
                        _DACCON0 0113                          _DACCON1 0114                          _T1CKPS0 0084  
                        _T1CKPS1 0085                          _T1OSCEN 0083                        ?___xxtofl 0072  
                 _Affichage_brut 14CD                puts_float@affiche 00A4                       __stringtab 1000  
                __size_of___flge 00A4                          ___fladd 0A17                          ___fldiv 083A  
                        ___awdiv 137E                          ___awmod 12C6                          ___flmul 0C9F  
                        ___flsub 11D9                          ___fltol 1453                          ___lwdiv 1282  
                        ___lwmod 0800               conversion_newton@F 00C1               conversion_newton@n 00C5  
        __end_of_PORT_Choose_Mux 119C                          __ptext1 16DE                          __ptext2 0800  
                        __ptext3 1282                          __ptext4 1453                          __ptext5 0016  
                        __ptext6 1549                          __ptext7 131F                          __ptext8 0717  
                        __ptext9 11AE               _PORT_Get_Value_Adc 1155           __end_of_Affichage_brut 1549  
                   __size_of_isr 0019                       ??___xxtofl 0076                 ___awmod@dividend 0074  
              ?_Resistance_Value 00A0              ?_PORT_Get_Value_Adc 0070                _conversion_newton 0016  
           end_of_initialization 0012          __size_of_PORT_Blink_LED 0010               ??_Resistance_Value 007B  
             ?_conversion_newton 00A0              ??_conversion_newton 00A4             ??_PORT_Get_Value_Adc 0072  
        __size_of_PORT_Init_Gain 0005                        _PORTBbits 0006                        _PORTCbits 0007  
                      _PORT_Init 1249                      ___fladd@grs 0033                  ?_Affichage_brut 007A  
                  ___xxtofl@sign 0020                    ?_PORT_putchar 0070        __end_of_conversion_newton 0717  
                    ___fldiv@grs 0050                      ___fldiv@rem 0049        __size_of_PORT_Init_Serial 002B  
                    ___flmul@grs 0064                       _puts_float 16DE          __size_of_PORT_Start_ADC 0008  
                PORT_putString@i 0073                   __end_of___flge 15ED  Affichage_brut@valeur_a_afficher 007A  
                      _Fincompt1 00D9                 ?_PORT_Choose_Mux 0070                       ?_PORT_Init 0070  
                 ??_PORT_putchar 0072              start_initialization 000F                      __end_of_isr 11D9  
                       ??___flge 0020        __size_of_PORT_Select_Mux1 0008                        __Umul8_16 1222  
          __end_of_Voltage_Value 137E                        ___fladd@a 0024                        ___fladd@b 0020  
                      ___fldiv@a 003C                        ___fldiv@b 0040                        ___flmul@a 005A  
                      ___flmul@b 0056                        ___flsub@a 0034                        ___flsub@b 0038  
                      ___latbits 0002                    __pcstackBANK0 0020                    __pcstackBANK1 00A0  
     __size_of_conversion_newton 0701           conversion_newton@F_tab 1056                __size_of___xxtofl 00BC  
         conversion_newton@R_tab 1006                   _PORT_Blink_LED 117A                    ?_ADC_GetValue 0070  
                    ?_puts_float 00A0                 ___lwdiv@dividend 0074          __size_of_PORT_putString 0025  
                       ?___fladd 0020                         ?___fldiv 003C                         ?___awdiv 0072  
                       ?___awmod 0072                         ?___flmul 0056                         ?___flsub 0034  
                       ?___fltol 0072                       ?__Umul8_16 0072                         ?___lwdiv 0072  
                 _PORT_Init_Gain 1159                         ?___lwmod 0072           puts_float@valueMetrics 00A6  
                      __pstrings 1000                      ??_PORT_Init 0072           __end_of_PORT_Blink_LED 118A  
               ___lwdiv@quotient 0076                 _PORT_Init_Serial 07D3                   ??_ADC_GetValue 0073  
              interrupt_function 0004                   _PORT_Start_ADC 115E             __end_of_PORT_putchar 117A  
          PORT_Choose_Mux@_value 0072                         _GO_nDONE 00F9           __end_of_PORT_Init_Gain 115E  
      __size_of_Resistance_Value 006E                 ??_Affichage_brut 0020                      __stringbase 1005  
            __size_of_puts_float 0122                  ?_PORT_Blink_LED 0070           __end_of_PORT_Start_ADC 1166  
                ?_PORT_Init_Gain 0070                 _PORT_Select_Mux1 1166                      ??__Umul8_16 0074  
    __size_of_PORT_Get_Value_Adc 0004                 __size_of___fladd 0288                 __size_of___fldiv 01DD  
               __size_of___awdiv 0067                 __size_of___awmod 0059                 __size_of___flmul 0361  
               __size_of___flsub 0024                 __size_of___fltol 007A                 __size_of___lwdiv 0044  
               __size_of___lwmod 003A               __end_of__stringtab 1006                         ___xxtofl 0717  
            conversion_newton@Rc 00A0                  ___lwdiv@divisor 0072                  ___lwdiv@counter 0078  
                       __ptext10 13E5                         __ptext11 11D9                         __ptext20 07D3  
                       __ptext12 0A17                         __ptext21 117A                         __ptext13 0C9F  
                       __ptext30 11C0                         __ptext22 14CD                         __ptext14 1222  
                       __ptext23 12C6                         __ptext15 083A                         __ptext24 137E  
                       __ptext16 11FD                         __ptext25 116E                         __ptext17 1166  
                       __ptext26 119C                         __ptext18 1159                         __ptext27 115E  
                       __ptext19 1249                         __ptext28 1155                         __ptext29 118A  
                ?_PORT_Start_ADC 0070                    __size_of_main 00F1                   _PORT_putString 11FD  
           __end_of_ADC_GetValue 11AE         __size_of_PORT_Choose_Mux 0012                         intlevel1 0000  
          __size_of_PORT_putchar 000C                 ___lwmod@dividend 0074           __end_of_PORT_putString 1222  
                   ??_puts_float 007C                        stringcode 1000                 _Resistance_Value 13E5  
       __end_of_PORT_Init_Serial 07FE             PORT_putString@chaine 0075   __end_ofconversion_newton@F_tab 10A6  
         __Umul8_16@multiplicand 0072   __end_ofconversion_newton@R_tab 1056              Voltage_Value@sensor 007B  
                ___lwmod@divisor 0072                  ___lwmod@counter 0076                         stringdir 1000  
             __end_of_puts_float 1800                         stringtab 1000                     _PORT_putchar 116E  
              _TIMER_init_timer1 11AE          Resistance_Value@Voltage 00A0                    ___fladd@signs 0030  
             ?_TIMER_init_timer1 0070                     ___fladd@aexp 0031                     ___fladd@bexp 0032  
                ?_PORT_putString 0070             __Umul8_16@multiplier 007A              ??_TIMER_init_timer1 0072  
         __size_of_Voltage_Value 005F                __Umul8_16@product 0076  
