

Microchip MPLAB XC8 Assembler V2.20 build 20200408173844 
                                                                                               Thu Jun 08 17:33:12 2023

Microchip MPLAB XC8 C Compiler v2.20 (Free license) build 20200408173844 Og1 
     1                           	processor	16F707
     2                           	pagewidth 120
     3                           	opt	flic
     4                           	psect	strings,global,class=STRING,delta=2,noexec
     5                           	psect	cinit,global,class=CODE,merge=1,delta=2
     6                           	psect	bssBANK1,global,class=BANK1,space=1,delta=1,noexec
     7                           	psect	cstackBANK1,global,class=BANK1,space=1,delta=1,noexec
     8                           	psect	cstackCOMMON,global,class=COMMON,space=1,delta=1,noexec
     9                           	psect	cstackBANK0,global,class=BANK0,space=1,delta=1,noexec
    10                           	psect	maintext,global,class=CODE,split=1,delta=2
    11                           	psect	text1,local,class=CODE,merge=1,delta=2
    12                           	psect	text2,local,class=CODE,merge=1,delta=2
    13                           	psect	text3,local,class=CODE,merge=1,delta=2
    14                           	psect	text4,local,class=CODE,merge=1,delta=2
    15                           	psect	text5,local,class=CODE,merge=1,delta=2
    16                           	psect	text6,local,class=CODE,merge=1,delta=2
    17                           	psect	text7,local,class=CODE,merge=1,delta=2
    18                           	psect	text8,local,class=CODE,merge=1,delta=2,group=1
    19                           	psect	text9,local,class=CODE,merge=1,delta=2,group=1
    20                           	psect	text10,local,class=CODE,merge=1,delta=2,group=1
    21                           	psect	text11,local,class=CODE,merge=1,delta=2
    22                           	psect	text12,local,class=CODE,merge=1,delta=2,group=1
    23                           	psect	text13,local,class=CODE,merge=1,delta=2
    24                           	psect	text14,local,class=CODE,merge=1,delta=2
    25                           	psect	text15,local,class=CODE,merge=1,delta=2,group=1
    26                           	psect	text16,local,class=CODE,merge=1,delta=2,group=1
    27                           	psect	text17,local,class=CODE,merge=1,delta=2,group=1
    28                           	psect	text18,local,class=CODE,merge=1,delta=2,group=1
    29                           	psect	text19,local,class=CODE,merge=1,delta=2,group=1
    30                           	psect	text20,local,class=CODE,merge=1,delta=2,group=1
    31                           	psect	text21,local,class=CODE,merge=1,delta=2
    32                           	psect	text22,local,class=CODE,merge=1,delta=2
    33                           	psect	text23,local,class=CODE,merge=1,delta=2
    34                           	psect	text24,local,class=CODE,merge=1,delta=2
    35                           	psect	text25,local,class=CODE,merge=1,delta=2
    36                           	psect	text26,local,class=CODE,merge=1,delta=2
    37                           	psect	text27,local,class=CODE,merge=1,delta=2
    38                           	psect	text28,local,class=CODE,merge=1,delta=2
    39                           	psect	intentry,global,class=CODE,delta=2
    40                           	psect	config,global,abs,ovrld,class=CONFIG,space=4,delta=2,noexec
    41                           	dabs	1,0x7E,2
    42  0000                     
    43                           ; Version 2.20
    44                           ; Generated 12/02/2020 GMT
    45                           ; 
    46                           ; Copyright © 2020, Microchip Technology Inc. and its subsidiaries ("Microchip")
    47                           ; All rights reserved.
    48                           ; 
    49                           ; This software is developed by Microchip Technology Inc. and its subsidiaries ("Microch
      +                          ip").
    50                           ; 
    51                           ; Redistribution and use in source and binary forms, with or without modification, are
    52                           ; permitted provided that the following conditions are met:
    53                           ; 
    54                           ;     1. Redistributions of source code must retain the above copyright notice, this lis
      +                          t of
    55                           ;        conditions and the following disclaimer.
    56                           ; 
    57                           ;     2. Redistributions in binary form must reproduce the above copyright notice, this 
      +                          list
    58                           ;        of conditions and the following disclaimer in the documentation and/or other
    59                           ;        materials provided with the distribution.
    60                           ; 
    61                           ;     3. Microchip's name may not be used to endorse or promote products derived from th
      +                          is
    62                           ;        software without specific prior written permission.
    63                           ; 
    64                           ; THIS SOFTWARE IS PROVIDED BY MICROCHIP "AS IS" AND ANY EXPRESS OR IMPLIED WARRANTIES,
    65                           ; INCLUDING, BUT NOT LIMITED TO, THE IMPLIED WARRANTIES OF MERCHANTABILITY AND FITNESS F
      +                          OR
    66                           ; PURPOSE ARE DISCLAIMED.  IN NO EVENT SHALL MICROCHIP BE LIABLE FOR ANY DIRECT, INDIREC
      +                          T,
    67                           ; INCIDENTAL, SPECIAL, EXEMPLARY, OR CONSEQUENTIAL DAMAGES (INCLUDING BUT NOT LIMITED TO
    68                           ; PROCUREMENT OF SUBSTITUTE GOODS OR SERVICES; LOSS OF USE, DATA OR PROFITS; OR BUSINESS
    69                           ; INTERRUPTION) HOWSOEVER CAUSED AND ON ANY THEORY OF LIABILITY, WHETHER IN CONTRACT, ST
      +                          RICT
    70                           ; LIABILITY, OR TORT (INCLUDING NEGLIGENCE OR OTHERWISE) ARISING IN ANY WAY OUT OF THE U
      +                          SE OF
    71                           ; THIS SOFTWARE, EVEN IF ADVISED OF THE POSSIBILITY OF SUCH DAMAGE.
    72                           ; 
    73                           ; 
    74                           ; Code-generator required, PIC16F707 Definitions
    75                           ; 
    76                           ; SFR Addresses
    77  0000                     	;# 
    78  0001                     	;# 
    79  0002                     	;# 
    80  0003                     	;# 
    81  0004                     	;# 
    82  0005                     	;# 
    83  0006                     	;# 
    84  0007                     	;# 
    85  0008                     	;# 
    86  0009                     	;# 
    87  000A                     	;# 
    88  000B                     	;# 
    89  000C                     	;# 
    90  000D                     	;# 
    91  000E                     	;# 
    92  000E                     	;# 
    93  000F                     	;# 
    94  0010                     	;# 
    95  0011                     	;# 
    96  0012                     	;# 
    97  0013                     	;# 
    98  0014                     	;# 
    99  0015                     	;# 
   100  0015                     	;# 
   101  0016                     	;# 
   102  0017                     	;# 
   103  0018                     	;# 
   104  0019                     	;# 
   105  001A                     	;# 
   106  001B                     	;# 
   107  001B                     	;# 
   108  001C                     	;# 
   109  001D                     	;# 
   110  001E                     	;# 
   111  001F                     	;# 
   112  0081                     	;# 
   113  0085                     	;# 
   114  0086                     	;# 
   115  0087                     	;# 
   116  0088                     	;# 
   117  0089                     	;# 
   118  008C                     	;# 
   119  008D                     	;# 
   120  008E                     	;# 
   121  008F                     	;# 
   122  0090                     	;# 
   123  0091                     	;# 
   124  0092                     	;# 
   125  0093                     	;# 
   126  0093                     	;# 
   127  0094                     	;# 
   128  0095                     	;# 
   129  0096                     	;# 
   130  0097                     	;# 
   131  0098                     	;# 
   132  0099                     	;# 
   133  009A                     	;# 
   134  009A                     	;# 
   135  009B                     	;# 
   136  009C                     	;# 
   137  009D                     	;# 
   138  009E                     	;# 
   139  009F                     	;# 
   140  0105                     	;# 
   141  0106                     	;# 
   142  0107                     	;# 
   143  0108                     	;# 
   144  0109                     	;# 
   145  010C                     	;# 
   146  010D                     	;# 
   147  010E                     	;# 
   148  010F                     	;# 
   149  0110                     	;# 
   150  0111                     	;# 
   151  0112                     	;# 
   152  0113                     	;# 
   153  0114                     	;# 
   154  0185                     	;# 
   155  0186                     	;# 
   156  0187                     	;# 
   157  0188                     	;# 
   158  0189                     	;# 
   159  018C                     	;# 
   160  0000                     	;# 
   161  0001                     	;# 
   162  0002                     	;# 
   163  0003                     	;# 
   164  0004                     	;# 
   165  0005                     	;# 
   166  0006                     	;# 
   167  0007                     	;# 
   168  0008                     	;# 
   169  0009                     	;# 
   170  000A                     	;# 
   171  000B                     	;# 
   172  000C                     	;# 
   173  000D                     	;# 
   174  000E                     	;# 
   175  000E                     	;# 
   176  000F                     	;# 
   177  0010                     	;# 
   178  0011                     	;# 
   179  0012                     	;# 
   180  0013                     	;# 
   181  0014                     	;# 
   182  0015                     	;# 
   183  0015                     	;# 
   184  0016                     	;# 
   185  0017                     	;# 
   186  0018                     	;# 
   187  0019                     	;# 
   188  001A                     	;# 
   189  001B                     	;# 
   190  001B                     	;# 
   191  001C                     	;# 
   192  001D                     	;# 
   193  001E                     	;# 
   194  001F                     	;# 
   195  0081                     	;# 
   196  0085                     	;# 
   197  0086                     	;# 
   198  0087                     	;# 
   199  0088                     	;# 
   200  0089                     	;# 
   201  008C                     	;# 
   202  008D                     	;# 
   203  008E                     	;# 
   204  008F                     	;# 
   205  0090                     	;# 
   206  0091                     	;# 
   207  0092                     	;# 
   208  0093                     	;# 
   209  0093                     	;# 
   210  0094                     	;# 
   211  0095                     	;# 
   212  0096                     	;# 
   213  0097                     	;# 
   214  0098                     	;# 
   215  0099                     	;# 
   216  009A                     	;# 
   217  009A                     	;# 
   218  009B                     	;# 
   219  009C                     	;# 
   220  009D                     	;# 
   221  009E                     	;# 
   222  009F                     	;# 
   223  0105                     	;# 
   224  0106                     	;# 
   225  0107                     	;# 
   226  0108                     	;# 
   227  0109                     	;# 
   228  010C                     	;# 
   229  010D                     	;# 
   230  010E                     	;# 
   231  010F                     	;# 
   232  0110                     	;# 
   233  0111                     	;# 
   234  0112                     	;# 
   235  0113                     	;# 
   236  0114                     	;# 
   237  0185                     	;# 
   238  0186                     	;# 
   239  0187                     	;# 
   240  0188                     	;# 
   241  0189                     	;# 
   242  018C                     	;# 
   243  0000                     	;# 
   244  0001                     	;# 
   245  0002                     	;# 
   246  0003                     	;# 
   247  0004                     	;# 
   248  0005                     	;# 
   249  0006                     	;# 
   250  0007                     	;# 
   251  0008                     	;# 
   252  0009                     	;# 
   253  000A                     	;# 
   254  000B                     	;# 
   255  000C                     	;# 
   256  000D                     	;# 
   257  000E                     	;# 
   258  000E                     	;# 
   259  000F                     	;# 
   260  0010                     	;# 
   261  0011                     	;# 
   262  0012                     	;# 
   263  0013                     	;# 
   264  0014                     	;# 
   265  0015                     	;# 
   266  0015                     	;# 
   267  0016                     	;# 
   268  0017                     	;# 
   269  0018                     	;# 
   270  0019                     	;# 
   271  001A                     	;# 
   272  001B                     	;# 
   273  001B                     	;# 
   274  001C                     	;# 
   275  001D                     	;# 
   276  001E                     	;# 
   277  001F                     	;# 
   278  0081                     	;# 
   279  0085                     	;# 
   280  0086                     	;# 
   281  0087                     	;# 
   282  0088                     	;# 
   283  0089                     	;# 
   284  008C                     	;# 
   285  008D                     	;# 
   286  008E                     	;# 
   287  008F                     	;# 
   288  0090                     	;# 
   289  0091                     	;# 
   290  0092                     	;# 
   291  0093                     	;# 
   292  0093                     	;# 
   293  0094                     	;# 
   294  0095                     	;# 
   295  0096                     	;# 
   296  0097                     	;# 
   297  0098                     	;# 
   298  0099                     	;# 
   299  009A                     	;# 
   300  009A                     	;# 
   301  009B                     	;# 
   302  009C                     	;# 
   303  009D                     	;# 
   304  009E                     	;# 
   305  009F                     	;# 
   306  0105                     	;# 
   307  0106                     	;# 
   308  0107                     	;# 
   309  0108                     	;# 
   310  0109                     	;# 
   311  010C                     	;# 
   312  010D                     	;# 
   313  010E                     	;# 
   314  010F                     	;# 
   315  0110                     	;# 
   316  0111                     	;# 
   317  0112                     	;# 
   318  0113                     	;# 
   319  0114                     	;# 
   320  0185                     	;# 
   321  0186                     	;# 
   322  0187                     	;# 
   323  0188                     	;# 
   324  0189                     	;# 
   325  018C                     	;# 
   326                           
   327                           	psect	strings
   328  1000                     __pstrings:
   329  1000                     stringtab:
   330  1000                     __stringtab:
   331  1000                     stringcode:	
   332                           ;	String table - string pointers are 1 byte each
   333                           
   334  1000                     stringdir:
   335  1000  3010               	movlw	high stringdir
   336  1001  008A               	movwf	10
   337  1002  0804               	movf	4,w
   338  1003  0A84               	incf	4,f
   339  1004  0782               	addwf	2,f
   340  1005                     __stringbase:
   341  1005  3400               	retlw	0
   342  1006                     __end_of__stringtab:
   343  1006                     conversion_newton@R_tab:
   344  1006  3400               	retlw	0
   345  1007  3400               	retlw	0
   346  1008  34FA               	retlw	250
   347  1009  3444               	retlw	68
   348  100A  3400               	retlw	0
   349  100B  3440               	retlw	64
   350  100C  341C               	retlw	28
   351  100D  3445               	retlw	69
   352  100E  3400               	retlw	0
   353  100F  3480               	retlw	128
   354  1010  3422               	retlw	34
   355  1011  3445               	retlw	69
   356  1012  3400               	retlw	0
   357  1013  34C0               	retlw	192
   358  1014  3428               	retlw	40
   359  1015  3445               	retlw	69
   360  1016  3400               	retlw	0
   361  1017  3440               	retlw	64
   362  1018  3435               	retlw	53
   363  1019  3445               	retlw	69
   364  101A  3400               	retlw	0
   365  101B  3400               	retlw	0
   366  101C  3448               	retlw	72
   367  101D  3445               	retlw	69
   368  101E  3400               	retlw	0
   369  101F  3480               	retlw	128
   370  1020  3454               	retlw	84
   371  1021  3445               	retlw	69
   372  1022  3400               	retlw	0
   373  1023  34C0               	retlw	192
   374  1024  345A               	retlw	90
   375  1025  3445               	retlw	69
   376  1026  3400               	retlw	0
   377  1027  34C0               	retlw	192
   378  1028  3473               	retlw	115
   379  1029  3445               	retlw	69
   380  102A  3400               	retlw	0
   381  102B  3460               	retlw	96
   382  102C  3486               	retlw	134
   383  102D  3445               	retlw	69
   384  102E  3400               	retlw	0
   385  102F  3400               	retlw	0
   386  1030  3496               	retlw	150
   387  1031  3445               	retlw	69
   388  1032  3400               	retlw	0
   389  1033  34E0               	retlw	224
   390  1034  34AB               	retlw	171
   391  1035  3445               	retlw	69
   392  1036  3400               	retlw	0
   393  1037  3480               	retlw	128
   394  1038  34D4               	retlw	212
   395  1039  3445               	retlw	69
   396  103A  3400               	retlw	0
   397  103B  34D0               	retlw	208
   398  103C  3404               	retlw	4
   399  103D  3446               	retlw	70
   400  103E  3400               	retlw	0
   401  103F  34E0               	retlw	224
   402  1040  342B               	retlw	43
   403  1041  3446               	retlw	70
   404  1042  3400               	retlw	0
   405  1043  3400               	retlw	0
   406  1044  347A               	retlw	122
   407  1045  3446               	retlw	70
   408  1046  3400               	retlw	0
   409  1047  34F0               	retlw	240
   410  1048  34D2               	retlw	210
   411  1049  3446               	retlw	70
   412  104A  3400               	retlw	0
   413  104B  34C8               	retlw	200
   414  104C  342F               	retlw	47
   415  104D  3447               	retlw	71
   416  104E  3400               	retlw	0
   417  104F  34E8               	retlw	232
   418  1050  347D               	retlw	125
   419  1051  3447               	retlw	71
   420  1052  3400               	retlw	0
   421  1053  348C               	retlw	140
   422  1054  34B9               	retlw	185
   423  1055  3447               	retlw	71
   424  1056                     __end_ofconversion_newton@R_tab:
   425  1056                     conversion_newton@F_tab:
   426  1056  3400               	retlw	0
   427  1057  3400               	retlw	0
   428  1058  348C               	retlw	140
   429  1059  3442               	retlw	66
   430  105A  3400               	retlw	0
   431  105B  3400               	retlw	0
   432  105C  340C               	retlw	12
   433  105D  3442               	retlw	66
   434  105E  3400               	retlw	0
   435  105F  3400               	retlw	0
   436  1060  34F0               	retlw	240
   437  1061  3441               	retlw	65
   438  1062  3400               	retlw	0
   439  1063  3400               	retlw	0
   440  1064  34E0               	retlw	224
   441  1065  3441               	retlw	65
   442  1066  3400               	retlw	0
   443  1067  3400               	retlw	0
   444  1068  34C8               	retlw	200
   445  1069  3441               	retlw	65
   446  106A  3400               	retlw	0
   447  106B  3400               	retlw	0
   448  106C  34A0               	retlw	160
   449  106D  3441               	retlw	65
   450  106E  3400               	retlw	0
   451  106F  3400               	retlw	0
   452  1070  3498               	retlw	152
   453  1071  3441               	retlw	65
   454  1072  3400               	retlw	0
   455  1073  3400               	retlw	0
   456  1074  3490               	retlw	144
   457  1075  3441               	retlw	65
   458  1076  3400               	retlw	0
   459  1077  3400               	retlw	0
   460  1078  3470               	retlw	112
   461  1079  3441               	retlw	65
   462  107A  3400               	retlw	0
   463  107B  3400               	retlw	0
   464  107C  3450               	retlw	80
   465  107D  3441               	retlw	65
   466  107E  3400               	retlw	0
   467  107F  3400               	retlw	0
   468  1080  3420               	retlw	32
   469  1081  3441               	retlw	65
   470  1082  3400               	retlw	0
   471  1083  3400               	retlw	0
   472  1084  34E0               	retlw	224
   473  1085  3440               	retlw	64
   474  1086  34CD               	retlw	205
   475  1087  34CC               	retlw	204
   476  1088  34AC               	retlw	172
   477  1089  3440               	retlw	64
   478  108A  3400               	retlw	0
   479  108B  3400               	retlw	0
   480  108C  3480               	retlw	128
   481  108D  3440               	retlw	64
   482  108E  3400               	retlw	0
   483  108F  3400               	retlw	0
   484  1090  3440               	retlw	64
   485  1091  3440               	retlw	64
   486  1092  34CD               	retlw	205
   487  1093  34CC               	retlw	204
   488  1094  340C               	retlw	12
   489  1095  3440               	retlw	64
   490  1096  3400               	retlw	0
   491  1097  3400               	retlw	0
   492  1098  34C0               	retlw	192
   493  1099  343F               	retlw	63
   494  109A  3466               	retlw	102
   495  109B  3466               	retlw	102
   496  109C  3466               	retlw	102
   497  109D  343F               	retlw	63
   498  109E  3466               	retlw	102
   499  109F  3466               	retlw	102
   500  10A0  34E6               	retlw	230
   501  10A1  343E               	retlw	62
   502  10A2  348F               	retlw	143
   503  10A3  34C2               	retlw	194
   504  10A4  34F5               	retlw	245
   505  10A5  343D               	retlw	61
   506  10A6                     __end_ofconversion_newton@F_tab:
   507  0007                     _PORTCbits	set	7
   508  0019                     _TXREG	set	25
   509  001E                     _ADRES	set	30
   510  0008                     _PORTD	set	8
   511  0006                     _PORTBbits	set	6
   512  001F                     _ADCON0	set	31
   513  0018                     _RCSTA	set	24
   514  006C                     _TMRAIF	set	108
   515  0060                     _TMR1IF	set	96
   516  0080                     _TMR1ON	set	128
   517  0082                     _T1SYNC	set	130
   518  0085                     _T1CKPS1	set	133
   519  0084                     _T1CKPS0	set	132
   520  0086                     _TMRCS0	set	134
   521  0087                     _TMRCS1	set	135
   522  0083                     _T1OSCEN	set	131
   523  00F9                     _GO_nDONE	set	249
   524  009D                     _FVRCON	set	157
   525  009F                     _ADCON1	set	159
   526  0088                     _TRISD	set	136
   527  0085                     _TRISA	set	133
   528  0090                     _OSCCON	set	144
   529  0086                     _TRISB	set	134
   530  0095                     _WPUB	set	149
   531  0098                     _TXSTA	set	152
   532  0099                     _SPBRG	set	153
   533  0087                     _TRISC	set	135
   534  0460                     _TMR1IE	set	1120
   535  047F                     _TMR1GE	set	1151
   536  0110                     _TMRA	set	272
   537  0114                     _DACCON1	set	276
   538  0113                     _DACCON0	set	275
   539  0185                     _ANSELA	set	389
   540  0188                     _ANSELD	set	392
   541  0186                     _ANSELB	set	390
   542  10A6                     STR_1:
   543  10A6  3420               	retlw	32	;' '
   544  10A7  344E               	retlw	78	;'N'
   545  10A8  3420               	retlw	32	;' '
   546  10A9  3400               	retlw	0
   547  10AA                     STR_2:
   548  10AA  340A               	retlw	10
   549  10AB  3400               	retlw	0
   550                           
   551                           	psect	cinit
   552  000F                     start_initialization:	
   553                           ; #config settings
   554                           
   555  000F                     __initialization:
   556                           
   557                           ; Clear objects allocated to BANK1
   558  000F  1683               	bsf	3,5	;RP0=1, select bank1
   559  0010  1303               	bcf	3,6	;RP1=0, select bank1
   560  0011  01DC               	clrf	__pbssBANK1& (0+127)
   561  0012                     end_of_initialization:	
   562                           ;End of C runtime variable initialization code
   563                           
   564  0012                     __end_of__initialization:
   565  0012  0183               	clrf	3
   566  0013  120A  118A  2FD3   	ljmp	_main	;jump to C main() function
   567                           
   568                           	psect	bssBANK1
   569  00DC                     __pbssBANK1:
   570  00DC                     _Fincompt1:
   571  00DC                     	ds	1
   572                           
   573                           	psect	cstackBANK1
   574  00A0                     __pcstackBANK1:
   575  00A0                     ?_puts_Newton:
   576  00A0                     ?_Voltage_Value:	
   577                           ; 1 bytes @ 0x0
   578                           
   579  00A0                     ?_Resistance_Value:	
   580                           ; 4 bytes @ 0x0
   581                           
   582  00A0                     ?_conversion_newton:	
   583                           ; 4 bytes @ 0x0
   584                           
   585  00A0                     puts_Newton@Valeur:	
   586                           ; 4 bytes @ 0x0
   587                           
   588  00A0                     Resistance_Value@Voltage:	
   589                           ; 4 bytes @ 0x0
   590                           
   591  00A0                     conversion_newton@Rc:	
   592                           ; 4 bytes @ 0x0
   593                           
   594                           
   595                           ; 4 bytes @ 0x0
   596  00A0                     	ds	4
   597  00A4                     ??_Voltage_Value:
   598  00A4                     ??_conversion_newton:	
   599                           ; 1 bytes @ 0x4
   600                           
   601  00A4                     puts_Newton@affiche:	
   602                           ; 1 bytes @ 0x4
   603                           
   604  00A4                     Resistance_Value@R:	
   605                           ; 2 bytes @ 0x4
   606                           
   607                           
   608                           ; 2 bytes @ 0x4
   609  00A4                     	ds	2
   610  00A6                     Resistance_Value@fR:
   611  00A6                     puts_Newton@valueMetrics:	
   612                           ; 4 bytes @ 0x6
   613                           
   614                           
   615                           ; 6 bytes @ 0x6
   616  00A6                     	ds	23
   617  00BD                     _conversion_newton$791:
   618                           
   619                           ; 4 bytes @ 0x1D
   620  00BD                     	ds	4
   621  00C1                     conversion_newton@F:
   622                           
   623                           ; 4 bytes @ 0x21
   624  00C1                     	ds	4
   625  00C5                     conversion_newton@n:
   626                           
   627                           ; 2 bytes @ 0x25
   628  00C5                     	ds	2
   629  00C7                     ?_Get_Newton:
   630  00C7                     Get_Newton@INTER1:	
   631                           ; 4 bytes @ 0x27
   632                           
   633                           
   634                           ; 1 bytes @ 0x27
   635  00C7                     	ds	1
   636  00C8                     Get_Newton@sensor_Channel:
   637                           
   638                           ; 1 bytes @ 0x28
   639  00C8                     	ds	4
   640  00CC                     Get_Newton@Vs:
   641                           
   642                           ; 4 bytes @ 0x2C
   643  00CC                     	ds	4
   644  00D0                     Get_Newton@Rc:
   645                           
   646                           ; 4 bytes @ 0x30
   647  00D0                     	ds	4
   648  00D4                     Get_Newton@R:
   649                           
   650                           ; 2 bytes @ 0x34
   651  00D4                     	ds	2
   652  00D6                     Get_Newton@INTER0:
   653                           
   654                           ; 1 bytes @ 0x36
   655  00D6                     	ds	1
   656  00D7                     Get_Newton@sensor_value:
   657                           
   658                           ; 1 bytes @ 0x37
   659  00D7                     	ds	1
   660  00D8                     Get_Newton@F:
   661                           
   662                           ; 4 bytes @ 0x38
   663  00D8                     	ds	4
   664                           
   665                           	psect	cstackCOMMON
   666  0070                     __pcstackCOMMON:
   667  0070                     ?_PORT_Init:
   668  0070                     ?_TIMER_init_timer1:	
   669                           ; 1 bytes @ 0x0
   670                           
   671  0070                     ?_PORT_Select_Mux0:	
   672                           ; 1 bytes @ 0x0
   673                           
   674  0070                     ?_PORT_Blink_LED:	
   675                           ; 1 bytes @ 0x0
   676                           
   677  0070                     ?_PORT_putchar:	
   678                           ; 1 bytes @ 0x0
   679                           
   680  0070                     ?_ADC_GetValue:	
   681                           ; 1 bytes @ 0x0
   682                           
   683  0070                     ?_PORT_putString:	
   684                           ; 1 bytes @ 0x0
   685                           
   686  0070                     ?_PORT_Choose_Mux:	
   687                           ; 1 bytes @ 0x0
   688                           
   689  0070                     ?_PORT_Start_ADC:	
   690                           ; 1 bytes @ 0x0
   691                           
   692  0070                     ?_PORT_Get_Value_Adc:	
   693                           ; 1 bytes @ 0x0
   694                           
   695  0070                     ?_main:	
   696                           ; 1 bytes @ 0x0
   697                           
   698  0070                     ?_PORT_Init_Serial:	
   699                           ; 1 bytes @ 0x0
   700                           
   701  0070                     ?_isr:	
   702                           ; 1 bytes @ 0x0
   703                           
   704  0070                     ??_isr:	
   705                           ; 1 bytes @ 0x0
   706                           
   707                           
   708                           ; 1 bytes @ 0x0
   709  0070                     	ds	2
   710  0072                     ?___flge:
   711  0072                     ??_PORT_Init:	
   712                           ; 1 bit 
   713                           
   714  0072                     ??_TIMER_init_timer1:	
   715                           ; 1 bytes @ 0x2
   716                           
   717  0072                     ??_PORT_Select_Mux0:	
   718                           ; 1 bytes @ 0x2
   719                           
   720  0072                     ??_PORT_Blink_LED:	
   721                           ; 1 bytes @ 0x2
   722                           
   723  0072                     ??_PORT_putchar:	
   724                           ; 1 bytes @ 0x2
   725                           
   726  0072                     ??_PORT_Choose_Mux:	
   727                           ; 1 bytes @ 0x2
   728                           
   729  0072                     ??_PORT_Start_ADC:	
   730                           ; 1 bytes @ 0x2
   731                           
   732  0072                     ??_PORT_Get_Value_Adc:	
   733                           ; 1 bytes @ 0x2
   734                           
   735  0072                     ??_PORT_Init_Serial:	
   736                           ; 1 bytes @ 0x2
   737                           
   738  0072                     ?_PORT_Change_Gain:	
   739                           ; 1 bytes @ 0x2
   740                           
   741  0072                     ?__Umul8_16:	
   742                           ; 2 bytes @ 0x2
   743                           
   744  0072                     ?___lwdiv:	
   745                           ; 2 bytes @ 0x2
   746                           
   747  0072                     ?___lwmod:	
   748                           ; 2 bytes @ 0x2
   749                           
   750  0072                     ?___fltol:	
   751                           ; 2 bytes @ 0x2
   752                           
   753  0072                     ?___xxtofl:	
   754                           ; 4 bytes @ 0x2
   755                           
   756  0072                     PORT_Choose_Mux@_value:	
   757                           ; 4 bytes @ 0x2
   758                           
   759  0072                     PORT_putchar@c:	
   760                           ; 1 bytes @ 0x2
   761                           
   762  0072                     PORT_Change_Gain@INTER1:	
   763                           ; 1 bytes @ 0x2
   764                           
   765  0072                     __Umul8_16@multiplicand:	
   766                           ; 1 bytes @ 0x2
   767                           
   768  0072                     ___lwdiv@divisor:	
   769                           ; 1 bytes @ 0x2
   770                           
   771  0072                     ___lwmod@divisor:	
   772                           ; 2 bytes @ 0x2
   773                           
   774  0072                     ___flge@ff1:	
   775                           ; 2 bytes @ 0x2
   776                           
   777  0072                     ___fltol@f1:	
   778                           ; 4 bytes @ 0x2
   779                           
   780  0072                     ___xxtofl@val:	
   781                           ; 4 bytes @ 0x2
   782                           
   783                           
   784                           ; 4 bytes @ 0x2
   785  0072                     	ds	1
   786  0073                     ??_ADC_GetValue:
   787  0073                     ??_PORT_putString:	
   788                           ; 1 bytes @ 0x3
   789                           
   790  0073                     ADC_GetValue@channel:	
   791                           ; 1 bytes @ 0x3
   792                           
   793  0073                     PORT_putString@i:	
   794                           ; 1 bytes @ 0x3
   795                           
   796                           
   797                           ; 2 bytes @ 0x3
   798  0073                     	ds	1
   799  0074                     ??__Umul8_16:
   800  0074                     ___lwdiv@dividend:	
   801                           ; 1 bytes @ 0x4
   802                           
   803  0074                     ___lwmod@dividend:	
   804                           ; 2 bytes @ 0x4
   805                           
   806                           
   807                           ; 2 bytes @ 0x4
   808  0074                     	ds	1
   809  0075                     ??_PORT_Change_Gain:
   810  0075                     PORT_putString@chaine:	
   811                           ; 1 bytes @ 0x5
   812                           
   813  0075                     PORT_Change_Gain@INTER0:	
   814                           ; 1 bytes @ 0x5
   815                           
   816                           
   817                           ; 1 bytes @ 0x5
   818  0075                     	ds	1
   819  0076                     ??___fltol:
   820  0076                     ??___lwdiv:	
   821                           ; 1 bytes @ 0x6
   822                           
   823  0076                     ??___lwmod:	
   824                           ; 1 bytes @ 0x6
   825                           
   826  0076                     ??___xxtofl:	
   827                           ; 1 bytes @ 0x6
   828                           
   829  0076                     ___lwmod@counter:	
   830                           ; 1 bytes @ 0x6
   831                           
   832  0076                     ___lwdiv@quotient:	
   833                           ; 1 bytes @ 0x6
   834                           
   835  0076                     __Umul8_16@product:	
   836                           ; 2 bytes @ 0x6
   837                           
   838  0076                     ___flge@ff2:	
   839                           ; 2 bytes @ 0x6
   840                           
   841                           
   842                           ; 4 bytes @ 0x6
   843  0076                     	ds	2
   844  0078                     ___lwdiv@counter:
   845  0078                     __Umul8_16@word_mpld:	
   846                           ; 1 bytes @ 0x8
   847                           
   848                           
   849                           ; 2 bytes @ 0x8
   850  0078                     	ds	2
   851  007A                     ___fltol@sign1:
   852  007A                     __Umul8_16@multiplier:	
   853                           ; 1 bytes @ 0xA
   854                           
   855                           
   856                           ; 1 bytes @ 0xA
   857  007A                     	ds	1
   858  007B                     ??_Resistance_Value:
   859  007B                     ??___flsub:	
   860                           ; 1 bytes @ 0xB
   861                           
   862  007B                     Voltage_Value@sensor:	
   863                           ; 1 bytes @ 0xB
   864                           
   865  007B                     ___fltol@exp1:	
   866                           ; 1 bytes @ 0xB
   867                           
   868                           
   869                           ; 1 bytes @ 0xB
   870  007B                     	ds	1
   871  007C                     ??_Get_Newton:
   872  007C                     ??_main:	
   873                           ; 1 bytes @ 0xC
   874                           
   875  007C                     ??_puts_Newton:	
   876                           ; 1 bytes @ 0xC
   877                           
   878                           
   879                           	psect	cstackBANK0
   880  0020                     __pcstackBANK0:	
   881                           ; 1 bytes @ 0xC
   882                           
   883  0020                     ??___flge:
   884  0020                     ?___fladd:	
   885                           ; 1 bytes @ 0x0
   886                           
   887  0020                     ___xxtofl@sign:	
   888                           ; 4 bytes @ 0x0
   889                           
   890  0020                     ___fladd@b:	
   891                           ; 1 bytes @ 0x0
   892                           
   893                           
   894                           ; 4 bytes @ 0x0
   895  0020                     	ds	1
   896  0021                     ___xxtofl@exp:
   897                           
   898                           ; 1 bytes @ 0x1
   899  0021                     	ds	1
   900  0022                     ___xxtofl@arg:
   901                           
   902                           ; 4 bytes @ 0x2
   903  0022                     	ds	2
   904  0024                     ___fladd@a:
   905                           
   906                           ; 4 bytes @ 0x4
   907  0024                     	ds	4
   908  0028                     ??___fladd:
   909                           
   910                           ; 1 bytes @ 0x8
   911  0028                     	ds	8
   912  0030                     ___fladd@signs:
   913                           
   914                           ; 1 bytes @ 0x10
   915  0030                     	ds	1
   916  0031                     ___fladd@aexp:
   917                           
   918                           ; 1 bytes @ 0x11
   919  0031                     	ds	1
   920  0032                     ___fladd@bexp:
   921                           
   922                           ; 1 bytes @ 0x12
   923  0032                     	ds	1
   924  0033                     ___fladd@grs:
   925                           
   926                           ; 1 bytes @ 0x13
   927  0033                     	ds	1
   928  0034                     ?___flsub:
   929  0034                     ___flsub@a:	
   930                           ; 4 bytes @ 0x14
   931                           
   932                           
   933                           ; 4 bytes @ 0x14
   934  0034                     	ds	4
   935  0038                     ___flsub@b:
   936                           
   937                           ; 4 bytes @ 0x18
   938  0038                     	ds	4
   939  003C                     ?___fldiv:
   940  003C                     ___fldiv@a:	
   941                           ; 4 bytes @ 0x1C
   942                           
   943                           
   944                           ; 4 bytes @ 0x1C
   945  003C                     	ds	4
   946  0040                     ___fldiv@b:
   947                           
   948                           ; 4 bytes @ 0x20
   949  0040                     	ds	4
   950  0044                     ??___fldiv:
   951                           
   952                           ; 1 bytes @ 0x24
   953  0044                     	ds	5
   954  0049                     ___fldiv@rem:
   955                           
   956                           ; 4 bytes @ 0x29
   957  0049                     	ds	4
   958  004D                     ___fldiv@sign:
   959                           
   960                           ; 1 bytes @ 0x2D
   961  004D                     	ds	1
   962  004E                     ___fldiv@new_exp:
   963                           
   964                           ; 2 bytes @ 0x2E
   965  004E                     	ds	2
   966  0050                     ___fldiv@grs:
   967                           
   968                           ; 4 bytes @ 0x30
   969  0050                     	ds	4
   970  0054                     ___fldiv@bexp:
   971                           
   972                           ; 1 bytes @ 0x34
   973  0054                     	ds	1
   974  0055                     ___fldiv@aexp:
   975                           
   976                           ; 1 bytes @ 0x35
   977  0055                     	ds	1
   978  0056                     ?___flmul:
   979  0056                     ___flmul@b:	
   980                           ; 4 bytes @ 0x36
   981                           
   982                           
   983                           ; 4 bytes @ 0x36
   984  0056                     	ds	4
   985  005A                     ___flmul@a:
   986                           
   987                           ; 4 bytes @ 0x3A
   988  005A                     	ds	4
   989  005E                     ??___flmul:
   990                           
   991                           ; 1 bytes @ 0x3E
   992  005E                     	ds	5
   993  0063                     ___flmul@sign:
   994                           
   995                           ; 1 bytes @ 0x43
   996  0063                     	ds	1
   997  0064                     ___flmul@grs:
   998                           
   999                           ; 4 bytes @ 0x44
  1000  0064                     	ds	4
  1001  0068                     ___flmul@aexp:
  1002                           
  1003                           ; 1 bytes @ 0x48
  1004  0068                     	ds	1
  1005  0069                     ___flmul@bexp:
  1006                           
  1007                           ; 1 bytes @ 0x49
  1008  0069                     	ds	1
  1009  006A                     ___flmul@prod:
  1010                           
  1011                           ; 4 bytes @ 0x4A
  1012  006A                     	ds	4
  1013  006E                     ___flmul@temp:
  1014                           
  1015                           ; 2 bytes @ 0x4E
  1016  006E                     	ds	2
  1017                           
  1018                           	psect	maintext
  1019  07D3                     __pmaintext:	
  1020 ;;
  1021 ;;Main: autosize = 0, tempsize = 0, incstack = 0, save=0
  1022 ;;
  1023 ;; *************** function _main *****************
  1024 ;; Defined at:
  1025 ;;		line 24 in file "main.c"
  1026 ;; Parameters:    Size  Location     Type
  1027 ;;		None
  1028 ;; Auto vars:     Size  Location     Type
  1029 ;;  F               4    0        float 
  1030 ;; Return value:  Size  Location     Type
  1031 ;;                  1    wreg      void 
  1032 ;; Registers used:
  1033 ;;		wreg, fsr0l, fsr0h, status,2, status,0, btemp+1, pclath, cstack
  1034 ;; Tracked objects:
  1035 ;;		On entry : B00/0
  1036 ;;		On exit  : 0/0
  1037 ;;		Unchanged: 0/0
  1038 ;; Data sizes:     COMMON   BANK0   BANK1   BANK3   BANK2
  1039 ;;      Params:         0       0       0       0       0
  1040 ;;      Locals:         0       0       4       0       0
  1041 ;;      Temps:          0       0       0       0       0
  1042 ;;      Totals:         0       0       4       0       0
  1043 ;;Total ram usage:        4 bytes
  1044 ;; Hardware stack levels required when called:    5
  1045 ;; This function calls:
  1046 ;;		_Get_Newton
  1047 ;;		_PORT_Blink_LED
  1048 ;;		_PORT_Init
  1049 ;;		_PORT_Select_Mux0
  1050 ;;		_TIMER_init_timer1
  1051 ;; This function is called by:
  1052 ;;		Startup code after reset
  1053 ;; This function uses a non-reentrant model
  1054 ;;
  1055                           
  1056                           
  1057                           ;psect for function _main
  1058  07D3                     _main:
  1059  07D3                     l2660:	
  1060                           ;incstack = 0
  1061                           ; Regs used in _main: [wreg-fsr0h+status,2+status,0+btemp+1+pclath+cstack]
  1062                           
  1063                           
  1064                           ;main.c: 26:     PORT_Init();
  1065  07D3  160A  118A  2397  120A  118A  	fcall	_PORT_Init
  1066                           
  1067                           ;main.c: 27:     TIMER_init_timer1();
  1068  07D8  160A  118A  22D1  120A  118A  	fcall	_TIMER_init_timer1
  1069  07DD                     l2662:
  1070                           
  1071                           ;main.c: 29:     PORT_Select_Mux0();
  1072  07DD  160A  118A  2289  120A  118A  	fcall	_PORT_Select_Mux0
  1073  07E2                     l2664:
  1074  07E2  1683               	bsf	3,5	;RP0=1, select bank1
  1075  07E3  1303               	bcf	3,6	;RP1=0, select bank1
  1076  07E4  085C               	movf	_Fincompt1^(0+128),w
  1077  07E5  1D03               	btfss	3,2
  1078  07E6  2FE8               	goto	u4041
  1079  07E7  2FE9               	goto	u4040
  1080  07E8                     u4041:
  1081  07E8  2FE2               	goto	l2664
  1082  07E9                     u4040:
  1083  07E9                     l2666:
  1084                           
  1085                           ;main.c: 34:         Fincompt1 = 0;
  1086  07E9  01DC               	clrf	_Fincompt1^(0+128)
  1087  07EA                     l2668:
  1088                           
  1089                           ;main.c: 35:         PORT_Blink_LED();
  1090  07EA  160A  118A  229D  120A  118A  	fcall	_PORT_Blink_LED
  1091  07EF                     l2670:
  1092  07EF  1683               	bsf	3,5	;RP0=1, select bank1
  1093  07F0  1303               	bcf	3,6	;RP1=0, select bank1
  1094  07F1  01C7               	clrf	Get_Newton@INTER1^(0+128)
  1095  07F2  0AC7               	incf	Get_Newton@INTER1^(0+128),f
  1096  07F3  01C8               	clrf	Get_Newton@sensor_Channel^(0+128)
  1097  07F4  3000               	movlw	0
  1098  07F5  160A  118A  2527  120A  118A  	fcall	_Get_Newton
  1099  07FA  2FE2               	goto	l2664
  1100  07FB  120A  118A  280C   	ljmp	start
  1101  07FE                     __end_of_main:
  1102                           
  1103                           	psect	text1
  1104  12D1                     __ptext1:	
  1105 ;; *************** function _TIMER_init_timer1 *****************
  1106 ;; Defined at:
  1107 ;;		line 8 in file "timer.c"
  1108 ;; Parameters:    Size  Location     Type
  1109 ;;		None
  1110 ;; Auto vars:     Size  Location     Type
  1111 ;;		None
  1112 ;; Return value:  Size  Location     Type
  1113 ;;                  1    wreg      void 
  1114 ;; Registers used:
  1115 ;;		wreg
  1116 ;; Tracked objects:
  1117 ;;		On entry : 0/0
  1118 ;;		On exit  : 0/0
  1119 ;;		Unchanged: 0/0
  1120 ;; Data sizes:     COMMON   BANK0   BANK1   BANK3   BANK2
  1121 ;;      Params:         0       0       0       0       0
  1122 ;;      Locals:         0       0       0       0       0
  1123 ;;      Temps:          0       0       0       0       0
  1124 ;;      Totals:         0       0       0       0       0
  1125 ;;Total ram usage:        0 bytes
  1126 ;; Hardware stack levels used:    1
  1127 ;; Hardware stack levels required when called:    1
  1128 ;; This function calls:
  1129 ;;		Nothing
  1130 ;; This function is called by:
  1131 ;;		_main
  1132 ;; This function uses a non-reentrant model
  1133 ;;
  1134                           
  1135                           
  1136                           ;psect for function _TIMER_init_timer1
  1137  12D1                     _TIMER_init_timer1:
  1138  12D1                     l2620:	
  1139                           ;incstack = 0
  1140                           ; Regs used in _TIMER_init_timer1: [wreg]
  1141                           
  1142                           
  1143                           ;timer.c: 10:     TMRA = 65535-5000;
  1144  12D1  3077               	movlw	119
  1145  12D2  1283               	bcf	3,5	;RP0=0, select bank2
  1146  12D3  1703               	bsf	3,6	;RP1=1, select bank2
  1147  12D4  0090               	movwf	16	;volatile
  1148  12D5                     l2622:
  1149                           
  1150                           ;timer.c: 24:     T1OSCEN=0;
  1151  12D5  1283               	bcf	3,5	;RP0=0, select bank0
  1152  12D6  1303               	bcf	3,6	;RP1=0, select bank0
  1153  12D7  1190               	bcf	16,3	;volatile
  1154  12D8                     l2624:
  1155                           
  1156                           ;timer.c: 36:     TMRCS1=0;
  1157  12D8  1390               	bcf	16,7	;volatile
  1158  12D9                     l2626:
  1159                           
  1160                           ;timer.c: 37:     TMRCS0=0;
  1161  12D9  1310               	bcf	16,6	;volatile
  1162  12DA                     l2628:
  1163                           
  1164                           ;timer.c: 46:     T1CKPS0=1;
  1165  12DA  1610               	bsf	16,4	;volatile
  1166  12DB                     l2630:
  1167                           
  1168                           ;timer.c: 47:     T1CKPS1=1;
  1169  12DB  1690               	bsf	16,5	;volatile
  1170  12DC                     l2632:
  1171                           
  1172                           ;timer.c: 56:     T1SYNC=1;
  1173  12DC  1510               	bsf	16,2	;volatile
  1174  12DD                     l2634:
  1175                           
  1176                           ;timer.c: 62:     TMR1ON=1;
  1177  12DD  1410               	bsf	16,0	;volatile
  1178  12DE                     l2636:
  1179                           
  1180                           ;timer.c: 71:     TMR1GE=0;
  1181  12DE  1683               	bsf	3,5	;RP0=1, select bank1
  1182  12DF  1303               	bcf	3,6	;RP1=0, select bank1
  1183  12E0  138F               	bcf	15,7	;volatile
  1184  12E1                     l2638:
  1185                           
  1186                           ;timer.c: 75:     TMR1IE=1;
  1187  12E1  140C               	bsf	12,0	;volatile
  1188  12E2                     l215:
  1189  12E2  0008               	return
  1190  12E3                     __end_of_TIMER_init_timer1:
  1191                           
  1192                           	psect	text2
  1193  1289                     __ptext2:	
  1194 ;; *************** function _PORT_Select_Mux0 *****************
  1195 ;; Defined at:
  1196 ;;		line 149 in file "port.c"
  1197 ;; Parameters:    Size  Location     Type
  1198 ;;		None
  1199 ;; Auto vars:     Size  Location     Type
  1200 ;;		None
  1201 ;; Return value:  Size  Location     Type
  1202 ;;                  1    wreg      void 
  1203 ;; Registers used:
  1204 ;;		wreg, status,2, status,0, btemp+1
  1205 ;; Tracked objects:
  1206 ;;		On entry : 0/0
  1207 ;;		On exit  : 0/0
  1208 ;;		Unchanged: 0/0
  1209 ;; Data sizes:     COMMON   BANK0   BANK1   BANK3   BANK2
  1210 ;;      Params:         0       0       0       0       0
  1211 ;;      Locals:         0       0       0       0       0
  1212 ;;      Temps:          0       0       0       0       0
  1213 ;;      Totals:         0       0       0       0       0
  1214 ;;Total ram usage:        0 bytes
  1215 ;; Hardware stack levels used:    1
  1216 ;; Hardware stack levels required when called:    1
  1217 ;; This function calls:
  1218 ;;		Nothing
  1219 ;; This function is called by:
  1220 ;;		_main
  1221 ;; This function uses a non-reentrant model
  1222 ;;
  1223                           
  1224                           
  1225                           ;psect for function _PORT_Select_Mux0
  1226  1289                     _PORT_Select_Mux0:
  1227  1289                     l2640:	
  1228                           ;incstack = 0
  1229                           ; Regs used in _PORT_Select_Mux0: [wreg+status,2+status,0+btemp+1]
  1230                           
  1231                           
  1232                           ;port.c: 150:     PORTD |= 0x20;
  1233  1289  1283               	bcf	3,5	;RP0=0, select bank0
  1234  128A  1303               	bcf	3,6	;RP1=0, select bank0
  1235  128B  1688               	bsf	8,5	;volatile
  1236  128C                     l2642:
  1237                           
  1238                           ;port.c: 151:     PORTD &= 0xEF;
  1239  128C  30EF               	movlw	239
  1240  128D  00FF               	movwf	btemp+1
  1241  128E  087F               	movf	btemp+1,w
  1242  128F  0588               	andwf	8,f	;volatile
  1243  1290                     l175:
  1244  1290  0008               	return
  1245  1291                     __end_of_PORT_Select_Mux0:
  1246                           
  1247                           	psect	text3
  1248  1397                     __ptext3:	
  1249 ;; *************** function _PORT_Init *****************
  1250 ;; Defined at:
  1251 ;;		line 44 in file "port.c"
  1252 ;; Parameters:    Size  Location     Type
  1253 ;;		None
  1254 ;; Auto vars:     Size  Location     Type
  1255 ;;		None
  1256 ;; Return value:  Size  Location     Type
  1257 ;;                  1    wreg      void 
  1258 ;; Registers used:
  1259 ;;		wreg, status,2, status,0, pclath, cstack
  1260 ;; Tracked objects:
  1261 ;;		On entry : 0/0
  1262 ;;		On exit  : 0/0
  1263 ;;		Unchanged: 0/0
  1264 ;; Data sizes:     COMMON   BANK0   BANK1   BANK3   BANK2
  1265 ;;      Params:         0       0       0       0       0
  1266 ;;      Locals:         0       0       0       0       0
  1267 ;;      Temps:          1       0       0       0       0
  1268 ;;      Totals:         1       0       0       0       0
  1269 ;;Total ram usage:        1 bytes
  1270 ;; Hardware stack levels used:    1
  1271 ;; Hardware stack levels required when called:    2
  1272 ;; This function calls:
  1273 ;;		_PORT_Init_Serial
  1274 ;; This function is called by:
  1275 ;;		_main
  1276 ;; This function uses a non-reentrant model
  1277 ;;
  1278                           
  1279                           
  1280                           ;psect for function _PORT_Init
  1281  1397                     _PORT_Init:
  1282  1397                     l2588:	
  1283                           ;incstack = 0
  1284                           ; Regs used in _PORT_Init: [wreg+status,2+status,0+pclath+cstack]
  1285                           
  1286                           
  1287                           ;port.c: 47:     WPUB=0;
  1288  1397  1683               	bsf	3,5	;RP0=1, select bank1
  1289  1398  1303               	bcf	3,6	;RP1=0, select bank1
  1290  1399  0195               	clrf	21	;volatile
  1291                           
  1292                           ;port.c: 48:     ANSELB = 0;
  1293  139A  1683               	bsf	3,5	;RP0=1, select bank3
  1294  139B  1703               	bsf	3,6	;RP1=1, select bank3
  1295  139C  0186               	clrf	6	;volatile
  1296  139D                     l2590:
  1297                           
  1298                           ;port.c: 51:     TRISB = 0xFE;
  1299  139D  30FE               	movlw	254
  1300  139E  1683               	bsf	3,5	;RP0=1, select bank1
  1301  139F  1303               	bcf	3,6	;RP1=0, select bank1
  1302  13A0  0086               	movwf	6	;volatile
  1303  13A1                     l2592:
  1304                           
  1305                           ;port.c: 54:     OSCCON = 0x30;
  1306  13A1  3030               	movlw	48
  1307  13A2  0090               	movwf	16	;volatile
  1308  13A3                     l2594:	
  1309                           ;port.c: 55:     for( ; (OSCCON & 0xC) != 0xC ; );
  1310                           
  1311  13A3  300C               	movlw	12
  1312  13A4  0510               	andwf	16,w	;volatile
  1313  13A5  00F2               	movwf	??_PORT_Init
  1314  13A6  300C               	movlw	12
  1315  13A7  0672               	xorwf	??_PORT_Init,w
  1316  13A8  1D03               	btfss	3,2
  1317  13A9  2BAB               	goto	u4011
  1318  13AA  2BAC               	goto	u4010
  1319  13AB                     u4011:
  1320  13AB  2BA3               	goto	l2594
  1321  13AC                     u4010:
  1322  13AC                     l2596:
  1323                           
  1324                           ;port.c: 59:     ANSELD = 0x00;
  1325  13AC  1683               	bsf	3,5	;RP0=1, select bank3
  1326  13AD  1703               	bsf	3,6	;RP1=1, select bank3
  1327  13AE  0188               	clrf	8	;volatile
  1328  13AF                     l2598:
  1329                           
  1330                           ;port.c: 62:     TRISA = 0xFF;
  1331  13AF  30FF               	movlw	255
  1332  13B0  1683               	bsf	3,5	;RP0=1, select bank1
  1333  13B1  1303               	bcf	3,6	;RP1=0, select bank1
  1334  13B2  0085               	movwf	5	;volatile
  1335  13B3                     l2600:
  1336                           
  1337                           ;port.c: 64:     TRISD = 0xC0;
  1338  13B3  30C0               	movlw	192
  1339  13B4  0088               	movwf	8	;volatile
  1340  13B5                     l2602:
  1341                           
  1342                           ;port.c: 66:     PORT_Init_Serial();
  1343  13B5  160A  118A  236C  160A  118A  	fcall	_PORT_Init_Serial
  1344  13BA                     l2604:
  1345                           
  1346                           ;port.c: 68:     ANSELA = 0x01;
  1347  13BA  3001               	movlw	1
  1348  13BB  1683               	bsf	3,5	;RP0=1, select bank3
  1349  13BC  1703               	bsf	3,6	;RP1=1, select bank3
  1350  13BD  0085               	movwf	5	;volatile
  1351  13BE                     l2606:
  1352                           
  1353                           ;port.c: 70:     ADCON0=0x01;
  1354  13BE  3001               	movlw	1
  1355  13BF  1283               	bcf	3,5	;RP0=0, select bank0
  1356  13C0  1303               	bcf	3,6	;RP1=0, select bank0
  1357  13C1  009F               	movwf	31	;volatile
  1358  13C2                     l2608:
  1359                           
  1360                           ;port.c: 71:     ADCON1=0x60;
  1361  13C2  3060               	movlw	96
  1362  13C3  1683               	bsf	3,5	;RP0=1, select bank1
  1363  13C4  1303               	bcf	3,6	;RP1=0, select bank1
  1364  13C5  009F               	movwf	31	;volatile
  1365  13C6                     l2610:
  1366                           
  1367                           ;port.c: 73:     FVRCON=0;
  1368  13C6  019D               	clrf	29	;volatile
  1369  13C7                     l2612:
  1370                           
  1371                           ;port.c: 74:     DACCON0=0x0;
  1372  13C7  1283               	bcf	3,5	;RP0=0, select bank2
  1373  13C8  1703               	bsf	3,6	;RP1=1, select bank2
  1374  13C9  0193               	clrf	19	;volatile
  1375  13CA                     l2614:
  1376                           
  1377                           ;port.c: 75:     DACCON0=0x60;
  1378  13CA  3060               	movlw	96
  1379  13CB  0093               	movwf	19	;volatile
  1380  13CC                     l2616:
  1381                           
  1382                           ;port.c: 76:     DACCON0|=0x80;
  1383  13CC  1793               	bsf	19,7	;volatile
  1384  13CD                     l2618:
  1385                           
  1386                           ;port.c: 78:     DACCON1=0x18;
  1387  13CD  3018               	movlw	24
  1388  13CE  0094               	movwf	20	;volatile
  1389  13CF                     l144:
  1390  13CF  0008               	return
  1391  13D0                     __end_of_PORT_Init:
  1392                           
  1393                           	psect	text4
  1394  136C                     __ptext4:	
  1395 ;; *************** function _PORT_Init_Serial *****************
  1396 ;; Defined at:
  1397 ;;		line 15 in file "port.c"
  1398 ;; Parameters:    Size  Location     Type
  1399 ;;		None
  1400 ;; Auto vars:     Size  Location     Type
  1401 ;;		None
  1402 ;; Return value:  Size  Location     Type
  1403 ;;                  1    wreg      void 
  1404 ;; Registers used:
  1405 ;;		wreg, status,2
  1406 ;; Tracked objects:
  1407 ;;		On entry : 0/0
  1408 ;;		On exit  : 0/0
  1409 ;;		Unchanged: 0/0
  1410 ;; Data sizes:     COMMON   BANK0   BANK1   BANK3   BANK2
  1411 ;;      Params:         0       0       0       0       0
  1412 ;;      Locals:         0       0       0       0       0
  1413 ;;      Temps:          0       0       0       0       0
  1414 ;;      Totals:         0       0       0       0       0
  1415 ;;Total ram usage:        0 bytes
  1416 ;; Hardware stack levels used:    1
  1417 ;; Hardware stack levels required when called:    1
  1418 ;; This function calls:
  1419 ;;		Nothing
  1420 ;; This function is called by:
  1421 ;;		_PORT_Init
  1422 ;; This function uses a non-reentrant model
  1423 ;;
  1424                           
  1425                           
  1426                           ;psect for function _PORT_Init_Serial
  1427  136C                     _PORT_Init_Serial:
  1428  136C                     l2566:	
  1429                           ;incstack = 0
  1430                           ; Regs used in _PORT_Init_Serial: [wreg+status,2]
  1431                           
  1432                           
  1433                           ;port.c: 18:     TRISC = 0xFC;
  1434  136C  30FC               	movlw	252
  1435  136D  1683               	bsf	3,5	;RP0=1, select bank1
  1436  136E  1303               	bcf	3,6	;RP1=0, select bank1
  1437  136F  0087               	movwf	7	;volatile
  1438                           
  1439                           ;port.c: 21:     SPBRG = 25;
  1440  1370  3019               	movlw	25
  1441  1371  0099               	movwf	25	;volatile
  1442  1372                     l2568:
  1443                           
  1444                           ;port.c: 25:     TXSTA = TXSTA & 0xDF;
  1445  1372  0818               	movf	24,w	;volatile
  1446  1373  39DF               	andlw	223
  1447  1374  0098               	movwf	24	;volatile
  1448  1375                     l2570:
  1449                           
  1450                           ;port.c: 26:     TXSTA = TXSTA | 1;
  1451  1375  0818               	movf	24,w	;volatile
  1452  1376  3801               	iorlw	1
  1453  1377  0098               	movwf	24	;volatile
  1454  1378                     l2572:
  1455                           
  1456                           ;port.c: 27:     TXSTA = TXSTA & 0xFB;
  1457  1378  0818               	movf	24,w	;volatile
  1458  1379  39FB               	andlw	251
  1459  137A  0098               	movwf	24	;volatile
  1460  137B                     l2574:
  1461                           
  1462                           ;port.c: 30:     RCSTA = RCSTA | 0x20;
  1463  137B  1283               	bcf	3,5	;RP0=0, select bank0
  1464  137C  1303               	bcf	3,6	;RP1=0, select bank0
  1465  137D  0818               	movf	24,w	;volatile
  1466  137E  3820               	iorlw	32
  1467  137F  0098               	movwf	24	;volatile
  1468  1380                     l2576:
  1469                           
  1470                           ;port.c: 31:     RCSTA = RCSTA & 0xDF;
  1471  1380  0818               	movf	24,w	;volatile
  1472  1381  39DF               	andlw	223
  1473  1382  0098               	movwf	24	;volatile
  1474  1383                     l2578:
  1475                           
  1476                           ;port.c: 32:     RCSTA = RCSTA | 0x04;
  1477  1383  0818               	movf	24,w	;volatile
  1478  1384  3804               	iorlw	4
  1479  1385  0098               	movwf	24	;volatile
  1480  1386                     l2580:
  1481                           
  1482                           ;port.c: 33:     RCSTA = RCSTA | 0x02;
  1483  1386  0818               	movf	24,w	;volatile
  1484  1387  3802               	iorlw	2
  1485  1388  0098               	movwf	24	;volatile
  1486  1389                     l2582:
  1487                           
  1488                           ;port.c: 35:     TXSTA = TXSTA & 0xEF;
  1489  1389  1683               	bsf	3,5	;RP0=1, select bank1
  1490  138A  1303               	bcf	3,6	;RP1=0, select bank1
  1491  138B  0818               	movf	24,w	;volatile
  1492  138C  39EF               	andlw	239
  1493  138D  0098               	movwf	24	;volatile
  1494  138E                     l2584:
  1495                           
  1496                           ;port.c: 36:     TXSTA = TXSTA | 0x20;
  1497  138E  0818               	movf	24,w	;volatile
  1498  138F  3820               	iorlw	32
  1499  1390  0098               	movwf	24	;volatile
  1500  1391                     l2586:
  1501                           
  1502                           ;port.c: 37:     RCSTA = RCSTA | 0x80;
  1503  1391  1283               	bcf	3,5	;RP0=0, select bank0
  1504  1392  1303               	bcf	3,6	;RP1=0, select bank0
  1505  1393  0818               	movf	24,w	;volatile
  1506  1394  3880               	iorlw	128
  1507  1395  0098               	movwf	24	;volatile
  1508  1396                     l138:
  1509  1396  0008               	return
  1510  1397                     __end_of_PORT_Init_Serial:
  1511                           
  1512                           	psect	text5
  1513  129D                     __ptext5:	
  1514 ;; *************** function _PORT_Blink_LED *****************
  1515 ;; Defined at:
  1516 ;;		line 84 in file "port.c"
  1517 ;; Parameters:    Size  Location     Type
  1518 ;;		None
  1519 ;; Auto vars:     Size  Location     Type
  1520 ;;		None
  1521 ;; Return value:  Size  Location     Type
  1522 ;;                  1    wreg      void 
  1523 ;; Registers used:
  1524 ;;		status,0
  1525 ;; Tracked objects:
  1526 ;;		On entry : 0/0
  1527 ;;		On exit  : 0/0
  1528 ;;		Unchanged: 0/0
  1529 ;; Data sizes:     COMMON   BANK0   BANK1   BANK3   BANK2
  1530 ;;      Params:         0       0       0       0       0
  1531 ;;      Locals:         0       0       0       0       0
  1532 ;;      Temps:          0       0       0       0       0
  1533 ;;      Totals:         0       0       0       0       0
  1534 ;;Total ram usage:        0 bytes
  1535 ;; Hardware stack levels used:    1
  1536 ;; Hardware stack levels required when called:    1
  1537 ;; This function calls:
  1538 ;;		Nothing
  1539 ;; This function is called by:
  1540 ;;		_main
  1541 ;; This function uses a non-reentrant model
  1542 ;;
  1543                           
  1544                           
  1545                           ;psect for function _PORT_Blink_LED
  1546  129D                     _PORT_Blink_LED:
  1547  129D                     l2644:	
  1548                           ;incstack = 0
  1549                           ; Regs used in _PORT_Blink_LED: [status,0]
  1550                           
  1551                           
  1552                           ;port.c: 85:     PORTBbits.RB0 = !PORTBbits.RB0;
  1553  129D  1003               	clrc
  1554  129E  1283               	bcf	3,5	;RP0=0, select bank0
  1555  129F  1303               	bcf	3,6	;RP1=0, select bank0
  1556  12A0  1C06               	btfss	6,0	;volatile
  1557  12A1  1403               	setc
  1558  12A2  1803               	btfsc	3,0
  1559  12A3  2AA5               	goto	u4021
  1560  12A4  2AA9               	goto	u4020
  1561  12A5                     u4021:
  1562  12A5  1283               	bcf	3,5	;RP0=0, select bank0
  1563  12A6  1303               	bcf	3,6	;RP1=0, select bank0
  1564  12A7  1406               	bsf	6,0	;volatile
  1565  12A8  2AAC               	goto	u4034
  1566  12A9                     u4020:
  1567  12A9  1283               	bcf	3,5	;RP0=0, select bank0
  1568  12AA  1303               	bcf	3,6	;RP1=0, select bank0
  1569  12AB  1006               	bcf	6,0	;volatile
  1570  12AC                     u4034:
  1571  12AC                     l147:
  1572  12AC  0008               	return
  1573  12AD                     __end_of_PORT_Blink_LED:
  1574                           
  1575                           	psect	text6
  1576  1527                     __ptext6:	
  1577 ;; *************** function _Get_Newton *****************
  1578 ;; Defined at:
  1579 ;;		line 223 in file "main.c"
  1580 ;; Parameters:    Size  Location     Type
  1581 ;;  INTER0          1    wreg     unsigned char 
  1582 ;;  INTER1          1   39[BANK1 ] unsigned char 
  1583 ;;  sensor_Chann    1   40[BANK1 ] unsigned char 
  1584 ;; Auto vars:     Size  Location     Type
  1585 ;;  INTER0          1   54[BANK1 ] unsigned char 
  1586 ;;  F               4   56[BANK1 ] float 
  1587 ;;  Rc              4   48[BANK1 ] float 
  1588 ;;  Vs              4   44[BANK1 ] float 
  1589 ;;  R               2   52[BANK1 ] unsigned int 
  1590 ;;  sensor_value    1   55[BANK1 ] unsigned char 
  1591 ;; Return value:  Size  Location     Type
  1592 ;;                  4   39[BANK1 ] float 
  1593 ;; Registers used:
  1594 ;;		wreg, fsr0l, fsr0h, status,2, status,0, btemp+1, pclath, cstack
  1595 ;; Tracked objects:
  1596 ;;		On entry : 0/0
  1597 ;;		On exit  : 0/0
  1598 ;;		Unchanged: 0/0
  1599 ;; Data sizes:     COMMON   BANK0   BANK1   BANK3   BANK2
  1600 ;;      Params:         0       0       5       0       0
  1601 ;;      Locals:         0       0      16       0       0
  1602 ;;      Temps:          0       0       0       0       0
  1603 ;;      Totals:         0       0      21       0       0
  1604 ;;Total ram usage:       21 bytes
  1605 ;; Hardware stack levels used:    1
  1606 ;; Hardware stack levels required when called:    4
  1607 ;; This function calls:
  1608 ;;		_ADC_GetValue
  1609 ;;		_PORT_Change_Gain
  1610 ;;		_PORT_putString
  1611 ;;		_Resistance_Value
  1612 ;;		_Voltage_Value
  1613 ;;		_conversion_newton
  1614 ;;		_puts_Newton
  1615 ;; This function is called by:
  1616 ;;		_main
  1617 ;; This function uses a non-reentrant model
  1618 ;;
  1619                           
  1620                           
  1621                           ;psect for function _Get_Newton
  1622  1527                     _Get_Newton:
  1623                           
  1624                           ;incstack = 0
  1625                           ; Regs used in _Get_Newton: [wreg-fsr0h+status,2+status,0+btemp+1+pclath+cstack]
  1626                           ;Get_Newton@INTER0 stored from wreg
  1627  1527  1683               	bsf	3,5	;RP0=1, select bank1
  1628  1528  1303               	bcf	3,6	;RP1=0, select bank1
  1629  1529  00D6               	movwf	Get_Newton@INTER0^(0+128)
  1630  152A                     l2646:
  1631                           
  1632                           ;main.c: 225:     unsigned char sensor_value;;main.c: 226:     unsigned int R;;main.c: 2
      +                          27:     float Vs,F,Rc;;main.c: 229:     R = PORT_Change_Gain(INTER0,INTER1);
  1633  152A  0847               	movf	Get_Newton@INTER1^(0+128),w
  1634  152B  00FF               	movwf	btemp+1
  1635  152C  087F               	movf	btemp+1,w
  1636  152D  00F2               	movwf	PORT_Change_Gain@INTER1
  1637  152E  0856               	movf	Get_Newton@INTER0^(0+128),w
  1638  152F  160A  118A  23D0  160A  118A  	fcall	_PORT_Change_Gain
  1639  1534  0873               	movf	?_PORT_Change_Gain+1,w
  1640  1535  1683               	bsf	3,5	;RP0=1, select bank1
  1641  1536  1303               	bcf	3,6	;RP1=0, select bank1
  1642  1537  00D5               	movwf	(Get_Newton@R+1)^(0+128)
  1643  1538  0872               	movf	?_PORT_Change_Gain,w
  1644  1539  00D4               	movwf	Get_Newton@R^(0+128)
  1645                           
  1646                           ;main.c: 231:     sensor_value = ADC_GetValue(sensor_Channel);
  1647  153A  0848               	movf	Get_Newton@sensor_Channel^(0+128),w
  1648  153B  160A  118A  22BF  160A  118A  	fcall	_ADC_GetValue
  1649  1540  00FF               	movwf	btemp+1
  1650  1541  087F               	movf	btemp+1,w
  1651  1542  1683               	bsf	3,5	;RP0=1, select bank1
  1652  1543  1303               	bcf	3,6	;RP1=0, select bank1
  1653  1544  00D7               	movwf	Get_Newton@sensor_value^(0+128)
  1654                           
  1655                           ;main.c: 232:     Vs = Voltage_Value(sensor_value);
  1656  1545  0857               	movf	Get_Newton@sensor_value^(0+128),w
  1657  1546  160A  118A  244E  160A  118A  	fcall	_Voltage_Value
  1658  154B  1683               	bsf	3,5	;RP0=1, select bank1
  1659  154C  1303               	bcf	3,6	;RP1=0, select bank1
  1660  154D  0823               	movf	(?_Voltage_Value+3)^(0+128),w
  1661  154E  00CF               	movwf	(Get_Newton@Vs+3)^(0+128)
  1662  154F  0822               	movf	(?_Voltage_Value+2)^(0+128),w
  1663  1550  00CE               	movwf	(Get_Newton@Vs+2)^(0+128)
  1664  1551  0821               	movf	(?_Voltage_Value+1)^(0+128),w
  1665  1552  00CD               	movwf	(Get_Newton@Vs+1)^(0+128)
  1666  1553  0820               	movf	?_Voltage_Value^(0+128),w
  1667  1554  00CC               	movwf	Get_Newton@Vs^(0+128)
  1668                           
  1669                           ;main.c: 233:     Rc = Resistance_Value(Vs, R);
  1670  1555  084F               	movf	(Get_Newton@Vs+3)^(0+128),w
  1671  1556  00A3               	movwf	(Resistance_Value@Voltage+3)^(0+128)
  1672  1557  084E               	movf	(Get_Newton@Vs+2)^(0+128),w
  1673  1558  00A2               	movwf	(Resistance_Value@Voltage+2)^(0+128)
  1674  1559  084D               	movf	(Get_Newton@Vs+1)^(0+128),w
  1675  155A  00A1               	movwf	(Resistance_Value@Voltage+1)^(0+128)
  1676  155B  084C               	movf	Get_Newton@Vs^(0+128),w
  1677  155C  00A0               	movwf	Resistance_Value@Voltage^(0+128)
  1678  155D  0855               	movf	(Get_Newton@R+1)^(0+128),w
  1679  155E  00A5               	movwf	(Resistance_Value@R+1)^(0+128)
  1680  155F  0854               	movf	Get_Newton@R^(0+128),w
  1681  1560  00A4               	movwf	Resistance_Value@R^(0+128)
  1682  1561  160A  118A  264F  160A  118A  	fcall	_Resistance_Value
  1683  1566  1683               	bsf	3,5	;RP0=1, select bank1
  1684  1567  1303               	bcf	3,6	;RP1=0, select bank1
  1685  1568  0823               	movf	(?_Resistance_Value+3)^(0+128),w
  1686  1569  00D3               	movwf	(Get_Newton@Rc+3)^(0+128)
  1687  156A  0822               	movf	(?_Resistance_Value+2)^(0+128),w
  1688  156B  00D2               	movwf	(Get_Newton@Rc+2)^(0+128)
  1689  156C  0821               	movf	(?_Resistance_Value+1)^(0+128),w
  1690  156D  00D1               	movwf	(Get_Newton@Rc+1)^(0+128)
  1691  156E  0820               	movf	?_Resistance_Value^(0+128),w
  1692  156F  00D0               	movwf	Get_Newton@Rc^(0+128)
  1693  1570                     l2648:
  1694                           
  1695                           ;main.c: 235:     F = conversion_newton(Rc);
  1696  1570  0853               	movf	(Get_Newton@Rc+3)^(0+128),w
  1697  1571  00A3               	movwf	(conversion_newton@Rc+3)^(0+128)
  1698  1572  0852               	movf	(Get_Newton@Rc+2)^(0+128),w
  1699  1573  00A2               	movwf	(conversion_newton@Rc+2)^(0+128)
  1700  1574  0851               	movf	(Get_Newton@Rc+1)^(0+128),w
  1701  1575  00A1               	movwf	(conversion_newton@Rc+1)^(0+128)
  1702  1576  0850               	movf	Get_Newton@Rc^(0+128),w
  1703  1577  00A0               	movwf	conversion_newton@Rc^(0+128)
  1704  1578  120A  118A  2016  160A  118A  	fcall	_conversion_newton
  1705  157D  1683               	bsf	3,5	;RP0=1, select bank1
  1706  157E  1303               	bcf	3,6	;RP1=0, select bank1
  1707  157F  0823               	movf	(?_conversion_newton+3)^(0+128),w
  1708  1580  00DB               	movwf	(Get_Newton@F+3)^(0+128)
  1709  1581  0822               	movf	(?_conversion_newton+2)^(0+128),w
  1710  1582  00DA               	movwf	(Get_Newton@F+2)^(0+128)
  1711  1583  0821               	movf	(?_conversion_newton+1)^(0+128),w
  1712  1584  00D9               	movwf	(Get_Newton@F+1)^(0+128)
  1713  1585  0820               	movf	?_conversion_newton^(0+128),w
  1714  1586  00D8               	movwf	Get_Newton@F^(0+128)
  1715  1587                     l2650:
  1716                           
  1717                           ;main.c: 243:     puts_Newton(F);
  1718  1587  085B               	movf	(Get_Newton@F+3)^(0+128),w
  1719  1588  00A3               	movwf	(puts_Newton@Valeur+3)^(0+128)
  1720  1589  085A               	movf	(Get_Newton@F+2)^(0+128),w
  1721  158A  00A2               	movwf	(puts_Newton@Valeur+2)^(0+128)
  1722  158B  0859               	movf	(Get_Newton@F+1)^(0+128),w
  1723  158C  00A1               	movwf	(puts_Newton@Valeur+1)^(0+128)
  1724  158D  0858               	movf	Get_Newton@F^(0+128),w
  1725  158E  00A0               	movwf	puts_Newton@Valeur^(0+128)
  1726  158F  160A  118A  26FC  160A  118A  	fcall	_puts_Newton
  1727  1594                     l2652:
  1728                           
  1729                           ;main.c: 244:     PORT_putString(" N ");
  1730  1594  30A1               	movlw	(low ((STR_1-__stringbase)| (0+32768)))& (0+255)
  1731  1595  160A  118A  2320  160A  118A  	fcall	_PORT_putString
  1732  159A                     l2654:
  1733                           
  1734                           ;main.c: 249:     PORT_putString("\n");
  1735  159A  30A5               	movlw	(low ((STR_2-__stringbase)| (0+32768)))& (0+255)
  1736  159B  160A  118A  2320  160A  118A  	fcall	_PORT_putString
  1737  15A0                     l2656:
  1738                           
  1739                           ;main.c: 252:     return F;
  1740  15A0  1683               	bsf	3,5	;RP0=1, select bank1
  1741  15A1  1303               	bcf	3,6	;RP1=0, select bank1
  1742  15A2  085B               	movf	(Get_Newton@F+3)^(0+128),w
  1743  15A3  00CA               	movwf	(?_Get_Newton+3)^(0+128)
  1744  15A4  085A               	movf	(Get_Newton@F+2)^(0+128),w
  1745  15A5  00C9               	movwf	(?_Get_Newton+2)^(0+128)
  1746  15A6  0859               	movf	(Get_Newton@F+1)^(0+128),w
  1747  15A7  00C8               	movwf	(?_Get_Newton+1)^(0+128)
  1748  15A8  0858               	movf	Get_Newton@F^(0+128),w
  1749  15A9  00C7               	movwf	?_Get_Newton^(0+128)
  1750  15AA                     l78:
  1751  15AA  0008               	return
  1752  15AB                     __end_of_Get_Newton:
  1753                           
  1754                           	psect	text7
  1755  16FC                     __ptext7:	
  1756 ;; *************** function _puts_Newton *****************
  1757 ;; Defined at:
  1758 ;;		line 106 in file "main.c"
  1759 ;; Parameters:    Size  Location     Type
  1760 ;;  Valeur          4    0[BANK1 ] float 
  1761 ;; Auto vars:     Size  Location     Type
  1762 ;;  valueMetrics    6    6[BANK1 ] struct .
  1763 ;;  affiche         2    4[BANK1 ] unsigned int 
  1764 ;; Return value:  Size  Location     Type
  1765 ;;                  1    wreg      void 
  1766 ;; Registers used:
  1767 ;;		wreg, status,2, status,0, btemp+1, pclath, cstack
  1768 ;; Tracked objects:
  1769 ;;		On entry : 0/0
  1770 ;;		On exit  : 0/0
  1771 ;;		Unchanged: 0/0
  1772 ;; Data sizes:     COMMON   BANK0   BANK1   BANK3   BANK2
  1773 ;;      Params:         0       0       4       0       0
  1774 ;;      Locals:         0       0       8       0       0
  1775 ;;      Temps:          0       0       0       0       0
  1776 ;;      Totals:         0       0      12       0       0
  1777 ;;Total ram usage:       12 bytes
  1778 ;; Hardware stack levels used:    1
  1779 ;; Hardware stack levels required when called:    3
  1780 ;; This function calls:
  1781 ;;		_PORT_putchar
  1782 ;;		___flmul
  1783 ;;		___fltol
  1784 ;;		___lwdiv
  1785 ;;		___lwmod
  1786 ;; This function is called by:
  1787 ;;		_Get_Newton
  1788 ;; This function uses a non-reentrant model
  1789 ;;
  1790                           
  1791                           
  1792                           ;psect for function _puts_Newton
  1793  16FC                     _puts_Newton:
  1794  16FC                     l2414:	
  1795                           ;incstack = 0
  1796                           ; Regs used in _puts_Newton: [wreg+status,2+status,0+btemp+1+pclath+cstack]
  1797                           
  1798                           
  1799                           ;main.c: 108:     unsigned int affiche;;main.c: 109:     ValueMetrics valueMetrics;;main
      +                          .c: 111:     Valeur = Valeur * 100;
  1800  16FC  3042               	movlw	66
  1801  16FD  1283               	bcf	3,5	;RP0=0, select bank0
  1802  16FE  1303               	bcf	3,6	;RP1=0, select bank0
  1803  16FF  00D9               	movwf	___flmul@b+3
  1804  1700  30C8               	movlw	200
  1805  1701  00D8               	movwf	___flmul@b+2
  1806  1702  3000               	movlw	0
  1807  1703  00D7               	movwf	___flmul@b+1
  1808  1704  3000               	movlw	0
  1809  1705  00D6               	movwf	___flmul@b
  1810  1706  1683               	bsf	3,5	;RP0=1, select bank1
  1811  1707  1303               	bcf	3,6	;RP1=0, select bank1
  1812  1708  0823               	movf	(puts_Newton@Valeur+3)^(0+128),w
  1813  1709  1283               	bcf	3,5	;RP0=0, select bank0
  1814  170A  1303               	bcf	3,6	;RP1=0, select bank0
  1815  170B  00DD               	movwf	___flmul@a+3
  1816  170C  1683               	bsf	3,5	;RP0=1, select bank1
  1817  170D  1303               	bcf	3,6	;RP1=0, select bank1
  1818  170E  0822               	movf	(puts_Newton@Valeur+2)^(0+128),w
  1819  170F  1283               	bcf	3,5	;RP0=0, select bank0
  1820  1710  1303               	bcf	3,6	;RP1=0, select bank0
  1821  1711  00DC               	movwf	___flmul@a+2
  1822  1712  1683               	bsf	3,5	;RP0=1, select bank1
  1823  1713  1303               	bcf	3,6	;RP1=0, select bank1
  1824  1714  0821               	movf	(puts_Newton@Valeur+1)^(0+128),w
  1825  1715  1283               	bcf	3,5	;RP0=0, select bank0
  1826  1716  1303               	bcf	3,6	;RP1=0, select bank0
  1827  1717  00DB               	movwf	___flmul@a+1
  1828  1718  1683               	bsf	3,5	;RP0=1, select bank1
  1829  1719  1303               	bcf	3,6	;RP1=0, select bank1
  1830  171A  0820               	movf	puts_Newton@Valeur^(0+128),w
  1831  171B  1283               	bcf	3,5	;RP0=0, select bank0
  1832  171C  1303               	bcf	3,6	;RP1=0, select bank0
  1833  171D  00DA               	movwf	___flmul@a
  1834  171E  120A  158A  249F  160A  118A  	fcall	___flmul
  1835  1723  1283               	bcf	3,5	;RP0=0, select bank0
  1836  1724  1303               	bcf	3,6	;RP1=0, select bank0
  1837  1725  0859               	movf	?___flmul+3,w
  1838  1726  1683               	bsf	3,5	;RP0=1, select bank1
  1839  1727  1303               	bcf	3,6	;RP1=0, select bank1
  1840  1728  00A3               	movwf	(puts_Newton@Valeur+3)^(0+128)
  1841  1729  1283               	bcf	3,5	;RP0=0, select bank0
  1842  172A  1303               	bcf	3,6	;RP1=0, select bank0
  1843  172B  0858               	movf	?___flmul+2,w
  1844  172C  1683               	bsf	3,5	;RP0=1, select bank1
  1845  172D  1303               	bcf	3,6	;RP1=0, select bank1
  1846  172E  00A2               	movwf	(puts_Newton@Valeur+2)^(0+128)
  1847  172F  1283               	bcf	3,5	;RP0=0, select bank0
  1848  1730  1303               	bcf	3,6	;RP1=0, select bank0
  1849  1731  0857               	movf	?___flmul+1,w
  1850  1732  1683               	bsf	3,5	;RP0=1, select bank1
  1851  1733  1303               	bcf	3,6	;RP1=0, select bank1
  1852  1734  00A1               	movwf	(puts_Newton@Valeur+1)^(0+128)
  1853  1735  1283               	bcf	3,5	;RP0=0, select bank0
  1854  1736  1303               	bcf	3,6	;RP1=0, select bank0
  1855  1737  0856               	movf	?___flmul,w
  1856  1738  1683               	bsf	3,5	;RP0=1, select bank1
  1857  1739  1303               	bcf	3,6	;RP1=0, select bank1
  1858  173A  00A0               	movwf	puts_Newton@Valeur^(0+128)
  1859                           
  1860                           ;main.c: 112:     affiche = (int) Valeur ;
  1861  173B  0823               	movf	(puts_Newton@Valeur+3)^(0+128),w
  1862  173C  00F5               	movwf	___fltol@f1+3
  1863  173D  0822               	movf	(puts_Newton@Valeur+2)^(0+128),w
  1864  173E  00F4               	movwf	___fltol@f1+2
  1865  173F  0821               	movf	(puts_Newton@Valeur+1)^(0+128),w
  1866  1740  00F3               	movwf	___fltol@f1+1
  1867  1741  0820               	movf	puts_Newton@Valeur^(0+128),w
  1868  1742  00F2               	movwf	___fltol@f1
  1869  1743  160A  118A  24AD  160A  118A  	fcall	___fltol
  1870  1748  0873               	movf	?___fltol+1,w
  1871  1749  1683               	bsf	3,5	;RP0=1, select bank1
  1872  174A  1303               	bcf	3,6	;RP1=0, select bank1
  1873  174B  00A5               	movwf	(puts_Newton@affiche+1)^(0+128)
  1874  174C  0872               	movf	?___fltol,w
  1875  174D  00A4               	movwf	puts_Newton@affiche^(0+128)
  1876                           
  1877                           ;main.c: 113:     affiche = affiche % 10000 ;
  1878  174E  3010               	movlw	16
  1879  174F  00F2               	movwf	___lwmod@divisor
  1880  1750  3027               	movlw	39
  1881  1751  00F3               	movwf	___lwmod@divisor+1
  1882  1752  0825               	movf	(puts_Newton@affiche+1)^(0+128),w
  1883  1753  00F5               	movwf	___lwmod@dividend+1
  1884  1754  0824               	movf	puts_Newton@affiche^(0+128),w
  1885  1755  00F4               	movwf	___lwmod@dividend
  1886  1756  120A  158A  2000  160A  118A  	fcall	___lwmod
  1887  175B  0873               	movf	?___lwmod+1,w
  1888  175C  1683               	bsf	3,5	;RP0=1, select bank1
  1889  175D  1303               	bcf	3,6	;RP1=0, select bank1
  1890  175E  00A5               	movwf	(puts_Newton@affiche+1)^(0+128)
  1891  175F  0872               	movf	?___lwmod,w
  1892  1760  00A4               	movwf	puts_Newton@affiche^(0+128)
  1893                           
  1894                           ;main.c: 114:     valueMetrics.diz = ((char)(affiche/1000))+0x30;
  1895  1761  30E8               	movlw	232
  1896  1762  00F2               	movwf	___lwdiv@divisor
  1897  1763  3003               	movlw	3
  1898  1764  00F3               	movwf	___lwdiv@divisor+1
  1899  1765  0825               	movf	(puts_Newton@affiche+1)^(0+128),w
  1900  1766  00F5               	movwf	___lwdiv@dividend+1
  1901  1767  0824               	movf	puts_Newton@affiche^(0+128),w
  1902  1768  00F4               	movwf	___lwdiv@dividend
  1903  1769  160A  118A  240A  160A  118A  	fcall	___lwdiv
  1904  176E  0872               	movf	?___lwdiv,w
  1905  176F  3E30               	addlw	48
  1906  1770  00FF               	movwf	btemp+1
  1907  1771  087F               	movf	btemp+1,w
  1908  1772  1683               	bsf	3,5	;RP0=1, select bank1
  1909  1773  1303               	bcf	3,6	;RP1=0, select bank1
  1910  1774  00A8               	movwf	(puts_Newton@valueMetrics^(0+128)+2)
  1911  1775                     l2416:
  1912                           
  1913                           ;main.c: 115:     PORT_putchar(valueMetrics.diz);
  1914  1775  0828               	movf	(puts_Newton@valueMetrics^(0+128)+2),w
  1915  1776  160A  118A  2291  160A  118A  	fcall	_PORT_putchar
  1916  177B                     l2418:
  1917                           
  1918                           ;main.c: 116:     affiche = affiche % 1000 ;
  1919  177B  30E8               	movlw	232
  1920  177C  00F2               	movwf	___lwmod@divisor
  1921  177D  3003               	movlw	3
  1922  177E  00F3               	movwf	___lwmod@divisor+1
  1923  177F  1683               	bsf	3,5	;RP0=1, select bank1
  1924  1780  1303               	bcf	3,6	;RP1=0, select bank1
  1925  1781  0825               	movf	(puts_Newton@affiche+1)^(0+128),w
  1926  1782  00F5               	movwf	___lwmod@dividend+1
  1927  1783  0824               	movf	puts_Newton@affiche^(0+128),w
  1928  1784  00F4               	movwf	___lwmod@dividend
  1929  1785  120A  158A  2000  160A  118A  	fcall	___lwmod
  1930  178A  0873               	movf	?___lwmod+1,w
  1931  178B  1683               	bsf	3,5	;RP0=1, select bank1
  1932  178C  1303               	bcf	3,6	;RP1=0, select bank1
  1933  178D  00A5               	movwf	(puts_Newton@affiche+1)^(0+128)
  1934  178E  0872               	movf	?___lwmod,w
  1935  178F  00A4               	movwf	puts_Newton@affiche^(0+128)
  1936  1790                     l2420:
  1937                           
  1938                           ;main.c: 117:     valueMetrics.unit = ((char)(affiche/100))+0x30;
  1939  1790  3064               	movlw	100
  1940  1791  00F2               	movwf	___lwdiv@divisor
  1941  1792  3000               	movlw	0
  1942  1793  00F3               	movwf	___lwdiv@divisor+1
  1943  1794  0825               	movf	(puts_Newton@affiche+1)^(0+128),w
  1944  1795  00F5               	movwf	___lwdiv@dividend+1
  1945  1796  0824               	movf	puts_Newton@affiche^(0+128),w
  1946  1797  00F4               	movwf	___lwdiv@dividend
  1947  1798  160A  118A  240A  160A  118A  	fcall	___lwdiv
  1948  179D  0872               	movf	?___lwdiv,w
  1949  179E  3E30               	addlw	48
  1950  179F  00FF               	movwf	btemp+1
  1951  17A0  087F               	movf	btemp+1,w
  1952  17A1  1683               	bsf	3,5	;RP0=1, select bank1
  1953  17A2  1303               	bcf	3,6	;RP1=0, select bank1
  1954  17A3  00A9               	movwf	(puts_Newton@valueMetrics^(0+128)+3)
  1955  17A4                     l2422:
  1956                           
  1957                           ;main.c: 118:     PORT_putchar(valueMetrics.unit);
  1958  17A4  0829               	movf	(puts_Newton@valueMetrics^(0+128)+3),w
  1959  17A5  160A  118A  2291  160A  118A  	fcall	_PORT_putchar
  1960  17AA                     l2424:
  1961                           
  1962                           ;main.c: 119:     PORT_putchar('.');
  1963  17AA  302E               	movlw	46
  1964  17AB  160A  118A  2291  160A  118A  	fcall	_PORT_putchar
  1965  17B0                     l2426:
  1966                           
  1967                           ;main.c: 120:     affiche = affiche % 100 ;
  1968  17B0  3064               	movlw	100
  1969  17B1  00F2               	movwf	___lwmod@divisor
  1970  17B2  3000               	movlw	0
  1971  17B3  00F3               	movwf	___lwmod@divisor+1
  1972  17B4  1683               	bsf	3,5	;RP0=1, select bank1
  1973  17B5  1303               	bcf	3,6	;RP1=0, select bank1
  1974  17B6  0825               	movf	(puts_Newton@affiche+1)^(0+128),w
  1975  17B7  00F5               	movwf	___lwmod@dividend+1
  1976  17B8  0824               	movf	puts_Newton@affiche^(0+128),w
  1977  17B9  00F4               	movwf	___lwmod@dividend
  1978  17BA  120A  158A  2000  160A  118A  	fcall	___lwmod
  1979  17BF  0873               	movf	?___lwmod+1,w
  1980  17C0  1683               	bsf	3,5	;RP0=1, select bank1
  1981  17C1  1303               	bcf	3,6	;RP1=0, select bank1
  1982  17C2  00A5               	movwf	(puts_Newton@affiche+1)^(0+128)
  1983  17C3  0872               	movf	?___lwmod,w
  1984  17C4  00A4               	movwf	puts_Newton@affiche^(0+128)
  1985  17C5                     l2428:
  1986                           
  1987                           ;main.c: 121:     valueMetrics.dizi = ((char)(affiche/10))+0x30;
  1988  17C5  300A               	movlw	10
  1989  17C6  00F2               	movwf	___lwdiv@divisor
  1990  17C7  3000               	movlw	0
  1991  17C8  00F3               	movwf	___lwdiv@divisor+1
  1992  17C9  0825               	movf	(puts_Newton@affiche+1)^(0+128),w
  1993  17CA  00F5               	movwf	___lwdiv@dividend+1
  1994  17CB  0824               	movf	puts_Newton@affiche^(0+128),w
  1995  17CC  00F4               	movwf	___lwdiv@dividend
  1996  17CD  160A  118A  240A  160A  118A  	fcall	___lwdiv
  1997  17D2  0872               	movf	?___lwdiv,w
  1998  17D3  3E30               	addlw	48
  1999  17D4  00FF               	movwf	btemp+1
  2000  17D5  087F               	movf	btemp+1,w
  2001  17D6  1683               	bsf	3,5	;RP0=1, select bank1
  2002  17D7  1303               	bcf	3,6	;RP1=0, select bank1
  2003  17D8  00AA               	movwf	(puts_Newton@valueMetrics^(0+128)+4)
  2004  17D9                     l2430:
  2005                           
  2006                           ;main.c: 122:     PORT_putchar(valueMetrics.dizi);
  2007  17D9  082A               	movf	(puts_Newton@valueMetrics^(0+128)+4),w
  2008  17DA  160A  118A  2291  160A  118A  	fcall	_PORT_putchar
  2009                           
  2010                           ;main.c: 123:     affiche = affiche % 10 ;
  2011  17DF  300A               	movlw	10
  2012  17E0  00F2               	movwf	___lwmod@divisor
  2013  17E1  3000               	movlw	0
  2014  17E2  00F3               	movwf	___lwmod@divisor+1
  2015  17E3  1683               	bsf	3,5	;RP0=1, select bank1
  2016  17E4  1303               	bcf	3,6	;RP1=0, select bank1
  2017  17E5  0825               	movf	(puts_Newton@affiche+1)^(0+128),w
  2018  17E6  00F5               	movwf	___lwmod@dividend+1
  2019  17E7  0824               	movf	puts_Newton@affiche^(0+128),w
  2020  17E8  00F4               	movwf	___lwmod@dividend
  2021  17E9  120A  158A  2000  160A  118A  	fcall	___lwmod
  2022  17EE  0873               	movf	?___lwmod+1,w
  2023  17EF  1683               	bsf	3,5	;RP0=1, select bank1
  2024  17F0  1303               	bcf	3,6	;RP1=0, select bank1
  2025  17F1  00A5               	movwf	(puts_Newton@affiche+1)^(0+128)
  2026  17F2  0872               	movf	?___lwmod,w
  2027  17F3  00A4               	movwf	puts_Newton@affiche^(0+128)
  2028  17F4                     l2432:
  2029                           
  2030                           ;main.c: 124:     valueMetrics.centi = ((char)(affiche))+0x30;
  2031  17F4  0824               	movf	puts_Newton@affiche^(0+128),w
  2032  17F5  3E30               	addlw	48
  2033  17F6  00FF               	movwf	btemp+1
  2034  17F7  087F               	movf	btemp+1,w
  2035  17F8  00AB               	movwf	(puts_Newton@valueMetrics^(0+128)+5)
  2036  17F9                     l2434:
  2037                           
  2038                           ;main.c: 125:     PORT_putchar(valueMetrics.centi);
  2039  17F9  082B               	movf	(puts_Newton@valueMetrics^(0+128)+5),w
  2040  17FA  160A  118A  2291  160A  118A  	fcall	_PORT_putchar
  2041  17FF                     l40:
  2042  17FF  0008               	return
  2043  1800                     __end_of_puts_Newton:
  2044                           
  2045                           	psect	text8
  2046  0800                     __ptext8:	
  2047 ;; *************** function ___lwmod *****************
  2048 ;; Defined at:
  2049 ;;		line 5 in file "C:\Program Files\Microchip\xc8\v2.20\pic\sources\c90\common\lwmod.c"
  2050 ;; Parameters:    Size  Location     Type
  2051 ;;  divisor         2    2[COMMON] unsigned int 
  2052 ;;  dividend        2    4[COMMON] unsigned int 
  2053 ;; Auto vars:     Size  Location     Type
  2054 ;;  counter         1    6[COMMON] unsigned char 
  2055 ;; Return value:  Size  Location     Type
  2056 ;;                  2    2[COMMON] unsigned int 
  2057 ;; Registers used:
  2058 ;;		wreg, status,2, status,0, btemp+1
  2059 ;; Tracked objects:
  2060 ;;		On entry : 0/0
  2061 ;;		On exit  : 0/0
  2062 ;;		Unchanged: 0/0
  2063 ;; Data sizes:     COMMON   BANK0   BANK1   BANK3   BANK2
  2064 ;;      Params:         4       0       0       0       0
  2065 ;;      Locals:         1       0       0       0       0
  2066 ;;      Temps:          0       0       0       0       0
  2067 ;;      Totals:         5       0       0       0       0
  2068 ;;Total ram usage:        5 bytes
  2069 ;; Hardware stack levels used:    1
  2070 ;; Hardware stack levels required when called:    1
  2071 ;; This function calls:
  2072 ;;		Nothing
  2073 ;; This function is called by:
  2074 ;;		_puts_Newton
  2075 ;;		_puts_float
  2076 ;; This function uses a non-reentrant model
  2077 ;;
  2078                           
  2079                           
  2080                           ;psect for function ___lwmod
  2081  0800                     ___lwmod:
  2082  0800                     l2052:	
  2083                           ;incstack = 0
  2084                           ; Regs used in ___lwmod: [wreg+status,2+status,0+btemp+1]
  2085                           
  2086  0800  0872               	movf	___lwmod@divisor,w
  2087  0801  0473               	iorwf	___lwmod@divisor+1,w
  2088  0802  1903               	btfsc	3,2
  2089  0803  2805               	goto	u2801
  2090  0804  2806               	goto	u2800
  2091  0805                     u2801:
  2092  0805  2835               	goto	l2070
  2093  0806                     u2800:
  2094  0806                     l2054:
  2095  0806  01F6               	clrf	___lwmod@counter
  2096  0807  0AF6               	incf	___lwmod@counter,f
  2097  0808  2814               	goto	l2060
  2098  0809                     l2056:
  2099  0809  3001               	movlw	1
  2100  080A                     u2815:
  2101  080A  1003               	clrc
  2102  080B  0DF2               	rlf	___lwmod@divisor,f
  2103  080C  0DF3               	rlf	___lwmod@divisor+1,f
  2104  080D  3EFF               	addlw	-1
  2105  080E  1D03               	skipz
  2106  080F  280A               	goto	u2815
  2107  0810                     l2058:
  2108  0810  3001               	movlw	1
  2109  0811  00FF               	movwf	btemp+1
  2110  0812  087F               	movf	btemp+1,w
  2111  0813  07F6               	addwf	___lwmod@counter,f
  2112  0814                     l2060:
  2113  0814  1FF3               	btfss	___lwmod@divisor+1,7
  2114  0815  2817               	goto	u2821
  2115  0816  2818               	goto	u2820
  2116  0817                     u2821:
  2117  0817  2809               	goto	l2056
  2118  0818                     u2820:
  2119  0818                     l2062:
  2120  0818  0873               	movf	___lwmod@divisor+1,w
  2121  0819  0275               	subwf	___lwmod@dividend+1,w
  2122  081A  1D03               	skipz
  2123  081B  281E               	goto	u2835
  2124  081C  0872               	movf	___lwmod@divisor,w
  2125  081D  0274               	subwf	___lwmod@dividend,w
  2126  081E                     u2835:
  2127  081E  1C03               	skipc
  2128  081F  2821               	goto	u2831
  2129  0820  2822               	goto	u2830
  2130  0821                     u2831:
  2131  0821  2828               	goto	l2066
  2132  0822                     u2830:
  2133  0822                     l2064:
  2134  0822  0872               	movf	___lwmod@divisor,w
  2135  0823  02F4               	subwf	___lwmod@dividend,f
  2136  0824  0873               	movf	___lwmod@divisor+1,w
  2137  0825  1C03               	skipc
  2138  0826  03F5               	decf	___lwmod@dividend+1,f
  2139  0827  02F5               	subwf	___lwmod@dividend+1,f
  2140  0828                     l2066:
  2141  0828  3001               	movlw	1
  2142  0829                     u2845:
  2143  0829  1003               	clrc
  2144  082A  0CF3               	rrf	___lwmod@divisor+1,f
  2145  082B  0CF2               	rrf	___lwmod@divisor,f
  2146  082C  3EFF               	addlw	-1
  2147  082D  1D03               	skipz
  2148  082E  2829               	goto	u2845
  2149  082F                     l2068:
  2150  082F  3001               	movlw	1
  2151  0830  02F6               	subwf	___lwmod@counter,f
  2152  0831  1D03               	btfss	3,2
  2153  0832  2834               	goto	u2851
  2154  0833  2835               	goto	u2850
  2155  0834                     u2851:
  2156  0834  2818               	goto	l2062
  2157  0835                     u2850:
  2158  0835                     l2070:
  2159  0835  0875               	movf	___lwmod@dividend+1,w
  2160  0836  00F3               	movwf	?___lwmod+1
  2161  0837  0874               	movf	___lwmod@dividend,w
  2162  0838  00F2               	movwf	?___lwmod
  2163  0839                     l508:
  2164  0839  0008               	return
  2165  083A                     __end_of___lwmod:
  2166                           
  2167                           	psect	text9
  2168  140A                     __ptext9:	
  2169 ;; *************** function ___lwdiv *****************
  2170 ;; Defined at:
  2171 ;;		line 5 in file "C:\Program Files\Microchip\xc8\v2.20\pic\sources\c90\common\lwdiv.c"
  2172 ;; Parameters:    Size  Location     Type
  2173 ;;  divisor         2    2[COMMON] unsigned int 
  2174 ;;  dividend        2    4[COMMON] unsigned int 
  2175 ;; Auto vars:     Size  Location     Type
  2176 ;;  quotient        2    6[COMMON] unsigned int 
  2177 ;;  counter         1    8[COMMON] unsigned char 
  2178 ;; Return value:  Size  Location     Type
  2179 ;;                  2    2[COMMON] unsigned int 
  2180 ;; Registers used:
  2181 ;;		wreg, status,2, status,0, btemp+1
  2182 ;; Tracked objects:
  2183 ;;		On entry : 0/0
  2184 ;;		On exit  : 0/0
  2185 ;;		Unchanged: 0/0
  2186 ;; Data sizes:     COMMON   BANK0   BANK1   BANK3   BANK2
  2187 ;;      Params:         4       0       0       0       0
  2188 ;;      Locals:         3       0       0       0       0
  2189 ;;      Temps:          0       0       0       0       0
  2190 ;;      Totals:         7       0       0       0       0
  2191 ;;Total ram usage:        7 bytes
  2192 ;; Hardware stack levels used:    1
  2193 ;; Hardware stack levels required when called:    1
  2194 ;; This function calls:
  2195 ;;		Nothing
  2196 ;; This function is called by:
  2197 ;;		_puts_Newton
  2198 ;;		_puts_float
  2199 ;; This function uses a non-reentrant model
  2200 ;;
  2201                           
  2202                           
  2203                           ;psect for function ___lwdiv
  2204  140A                     ___lwdiv:
  2205  140A                     l2026:	
  2206                           ;incstack = 0
  2207                           ; Regs used in ___lwdiv: [wreg+status,2+status,0+btemp+1]
  2208                           
  2209  140A  01F6               	clrf	___lwdiv@quotient
  2210  140B  01F7               	clrf	___lwdiv@quotient+1
  2211  140C                     l2028:
  2212  140C  0872               	movf	___lwdiv@divisor,w
  2213  140D  0473               	iorwf	___lwdiv@divisor+1,w
  2214  140E  1903               	btfsc	3,2
  2215  140F  2C11               	goto	u2731
  2216  1410  2C12               	goto	u2730
  2217  1411                     u2731:
  2218  1411  2C49               	goto	l2048
  2219  1412                     u2730:
  2220  1412                     l2030:
  2221  1412  01F8               	clrf	___lwdiv@counter
  2222  1413  0AF8               	incf	___lwdiv@counter,f
  2223  1414  2C20               	goto	l2036
  2224  1415                     l2032:
  2225  1415  3001               	movlw	1
  2226  1416                     u2745:
  2227  1416  1003               	clrc
  2228  1417  0DF2               	rlf	___lwdiv@divisor,f
  2229  1418  0DF3               	rlf	___lwdiv@divisor+1,f
  2230  1419  3EFF               	addlw	-1
  2231  141A  1D03               	skipz
  2232  141B  2C16               	goto	u2745
  2233  141C                     l2034:
  2234  141C  3001               	movlw	1
  2235  141D  00FF               	movwf	btemp+1
  2236  141E  087F               	movf	btemp+1,w
  2237  141F  07F8               	addwf	___lwdiv@counter,f
  2238  1420                     l2036:
  2239  1420  1FF3               	btfss	___lwdiv@divisor+1,7
  2240  1421  2C23               	goto	u2751
  2241  1422  2C24               	goto	u2750
  2242  1423                     u2751:
  2243  1423  2C15               	goto	l2032
  2244  1424                     u2750:
  2245  1424                     l2038:
  2246  1424  3001               	movlw	1
  2247  1425                     u2765:
  2248  1425  1003               	clrc
  2249  1426  0DF6               	rlf	___lwdiv@quotient,f
  2250  1427  0DF7               	rlf	___lwdiv@quotient+1,f
  2251  1428  3EFF               	addlw	-1
  2252  1429  1D03               	skipz
  2253  142A  2C25               	goto	u2765
  2254  142B  0873               	movf	___lwdiv@divisor+1,w
  2255  142C  0275               	subwf	___lwdiv@dividend+1,w
  2256  142D  1D03               	skipz
  2257  142E  2C31               	goto	u2775
  2258  142F  0872               	movf	___lwdiv@divisor,w
  2259  1430  0274               	subwf	___lwdiv@dividend,w
  2260  1431                     u2775:
  2261  1431  1C03               	skipc
  2262  1432  2C34               	goto	u2771
  2263  1433  2C35               	goto	u2770
  2264  1434                     u2771:
  2265  1434  2C3C               	goto	l2044
  2266  1435                     u2770:
  2267  1435                     l2040:
  2268  1435  0872               	movf	___lwdiv@divisor,w
  2269  1436  02F4               	subwf	___lwdiv@dividend,f
  2270  1437  0873               	movf	___lwdiv@divisor+1,w
  2271  1438  1C03               	skipc
  2272  1439  03F5               	decf	___lwdiv@dividend+1,f
  2273  143A  02F5               	subwf	___lwdiv@dividend+1,f
  2274  143B                     l2042:
  2275  143B  1476               	bsf	___lwdiv@quotient,0
  2276  143C                     l2044:
  2277  143C  3001               	movlw	1
  2278  143D                     u2785:
  2279  143D  1003               	clrc
  2280  143E  0CF3               	rrf	___lwdiv@divisor+1,f
  2281  143F  0CF2               	rrf	___lwdiv@divisor,f
  2282  1440  3EFF               	addlw	-1
  2283  1441  1D03               	skipz
  2284  1442  2C3D               	goto	u2785
  2285  1443                     l2046:
  2286  1443  3001               	movlw	1
  2287  1444  02F8               	subwf	___lwdiv@counter,f
  2288  1445  1D03               	btfss	3,2
  2289  1446  2C48               	goto	u2791
  2290  1447  2C49               	goto	u2790
  2291  1448                     u2791:
  2292  1448  2C24               	goto	l2038
  2293  1449                     u2790:
  2294  1449                     l2048:
  2295  1449  0877               	movf	___lwdiv@quotient+1,w
  2296  144A  00F3               	movwf	?___lwdiv+1
  2297  144B  0876               	movf	___lwdiv@quotient,w
  2298  144C  00F2               	movwf	?___lwdiv
  2299  144D                     l498:
  2300  144D  0008               	return
  2301  144E                     __end_of___lwdiv:
  2302                           
  2303                           	psect	text10
  2304  14AD                     __ptext10:	
  2305 ;; *************** function ___fltol *****************
  2306 ;; Defined at:
  2307 ;;		line 43 in file "C:\Program Files\Microchip\xc8\v2.20\pic\sources\c90\common\fltol.c"
  2308 ;; Parameters:    Size  Location     Type
  2309 ;;  f1              4    2[COMMON] unsigned int 
  2310 ;; Auto vars:     Size  Location     Type
  2311 ;;  exp1            1   11[COMMON] unsigned char 
  2312 ;;  sign1           1   10[COMMON] unsigned char 
  2313 ;; Return value:  Size  Location     Type
  2314 ;;                  4    2[COMMON] long 
  2315 ;; Registers used:
  2316 ;;		wreg, status,2, status,0, btemp+1
  2317 ;; Tracked objects:
  2318 ;;		On entry : 0/0
  2319 ;;		On exit  : 0/0
  2320 ;;		Unchanged: 0/0
  2321 ;; Data sizes:     COMMON   BANK0   BANK1   BANK3   BANK2
  2322 ;;      Params:         4       0       0       0       0
  2323 ;;      Locals:         2       0       0       0       0
  2324 ;;      Temps:          4       0       0       0       0
  2325 ;;      Totals:        10       0       0       0       0
  2326 ;;Total ram usage:       10 bytes
  2327 ;; Hardware stack levels used:    1
  2328 ;; Hardware stack levels required when called:    1
  2329 ;; This function calls:
  2330 ;;		Nothing
  2331 ;; This function is called by:
  2332 ;;		_puts_Newton
  2333 ;;		_puts_float
  2334 ;; This function uses a non-reentrant model
  2335 ;;
  2336                           
  2337                           
  2338                           ;psect for function ___fltol
  2339  14AD                     ___fltol:
  2340  14AD                     l1988:	
  2341                           ;incstack = 0
  2342                           ; Regs used in ___fltol: [wreg+status,2+status,0+btemp+1]
  2343                           
  2344  14AD  1003               	clrc
  2345  14AE  0D74               	rlf	___fltol@f1+2,w
  2346  14AF  0D75               	rlf	___fltol@f1+3,w
  2347  14B0  00FF               	movwf	btemp+1
  2348  14B1  087F               	movf	btemp+1,w
  2349  14B2  00FB               	movwf	___fltol@exp1
  2350  14B3  087B               	movf	___fltol@exp1,w
  2351  14B4  1D03               	btfss	3,2
  2352  14B5  2CB7               	goto	u2631
  2353  14B6  2CB8               	goto	u2630
  2354  14B7                     u2631:
  2355  14B7  2CC1               	goto	l1994
  2356  14B8                     u2630:
  2357  14B8                     l1990:
  2358  14B8  3000               	movlw	0
  2359  14B9  00F5               	movwf	?___fltol+3
  2360  14BA  3000               	movlw	0
  2361  14BB  00F4               	movwf	?___fltol+2
  2362  14BC  3000               	movlw	0
  2363  14BD  00F3               	movwf	?___fltol+1
  2364  14BE  3000               	movlw	0
  2365  14BF  00F2               	movwf	?___fltol
  2366  14C0  2D26               	goto	l412
  2367  14C1                     l1994:
  2368  14C1  0872               	movf	___fltol@f1,w
  2369  14C2  00F6               	movwf	??___fltol
  2370  14C3  0873               	movf	___fltol@f1+1,w
  2371  14C4  00F7               	movwf	??___fltol+1
  2372  14C5  0874               	movf	___fltol@f1+2,w
  2373  14C6  00F8               	movwf	??___fltol+2
  2374  14C7  0875               	movf	___fltol@f1+3,w
  2375  14C8  00F9               	movwf	??___fltol+3
  2376  14C9  301F               	movlw	31
  2377  14CA                     u2645:
  2378  14CA  1003               	clrc
  2379  14CB  0CF9               	rrf	??___fltol+3,f
  2380  14CC  0CF8               	rrf	??___fltol+2,f
  2381  14CD  0CF7               	rrf	??___fltol+1,f
  2382  14CE  0CF6               	rrf	??___fltol,f
  2383  14CF                     u2640:
  2384  14CF  3EFF               	addlw	-1
  2385  14D0  1D03               	skipz
  2386  14D1  2CCA               	goto	u2645
  2387  14D2  0876               	movf	??___fltol,w
  2388  14D3  00FF               	movwf	btemp+1
  2389  14D4  087F               	movf	btemp+1,w
  2390  14D5  00FA               	movwf	___fltol@sign1
  2391  14D6                     l1996:
  2392  14D6  17F4               	bsf	___fltol@f1+2,7
  2393  14D7                     l1998:
  2394  14D7  30FF               	movlw	255
  2395  14D8  05F2               	andwf	___fltol@f1,f
  2396  14D9  30FF               	movlw	255
  2397  14DA  05F3               	andwf	___fltol@f1+1,f
  2398  14DB  30FF               	movlw	255
  2399  14DC  05F4               	andwf	___fltol@f1+2,f
  2400  14DD  3000               	movlw	0
  2401  14DE  05F5               	andwf	___fltol@f1+3,f
  2402  14DF                     l2000:
  2403  14DF  3096               	movlw	150
  2404  14E0  02FB               	subwf	___fltol@exp1,f
  2405  14E1                     l2002:
  2406  14E1  1FFB               	btfss	___fltol@exp1,7
  2407  14E2  2CE4               	goto	u2651
  2408  14E3  2CE5               	goto	u2650
  2409  14E4                     u2651:
  2410  14E4  2CFF               	goto	l2014
  2411  14E5                     u2650:
  2412  14E5                     l2004:
  2413  14E5  087B               	movf	___fltol@exp1,w
  2414  14E6  3A80               	xorlw	128
  2415  14E7  3E97               	addlw	151
  2416  14E8  1803               	skipnc
  2417  14E9  2CEB               	goto	u2661
  2418  14EA  2CEC               	goto	u2660
  2419  14EB                     u2661:
  2420  14EB  2CED               	goto	l2010
  2421  14EC                     u2660:
  2422  14EC  2CB8               	goto	l1990
  2423  14ED                     l2010:
  2424  14ED  3001               	movlw	1
  2425  14EE                     u2675:
  2426  14EE  1003               	clrc
  2427  14EF  0CF5               	rrf	___fltol@f1+3,f
  2428  14F0  0CF4               	rrf	___fltol@f1+2,f
  2429  14F1  0CF3               	rrf	___fltol@f1+1,f
  2430  14F2  0CF2               	rrf	___fltol@f1,f
  2431  14F3  3EFF               	addlw	-1
  2432  14F4  1D03               	skipz
  2433  14F5  2CEE               	goto	u2675
  2434  14F6                     l2012:
  2435  14F6  3001               	movlw	1
  2436  14F7  00FF               	movwf	btemp+1
  2437  14F8  087F               	movf	btemp+1,w
  2438  14F9  07FB               	addwf	___fltol@exp1,f
  2439  14FA  1D03               	btfss	3,2
  2440  14FB  2CFD               	goto	u2681
  2441  14FC  2CFE               	goto	u2680
  2442  14FD                     u2681:
  2443  14FD  2CED               	goto	l2010
  2444  14FE                     u2680:
  2445  14FE  2D16               	goto	l2022
  2446  14FF                     l2014:
  2447  14FF  3020               	movlw	32
  2448  1500  027B               	subwf	___fltol@exp1,w
  2449  1501  1C03               	skipc
  2450  1502  2D04               	goto	u2691
  2451  1503  2D05               	goto	u2690
  2452  1504                     u2691:
  2453  1504  2D11               	goto	l419
  2454  1505                     u2690:
  2455  1505  2CB8               	goto	l1990
  2456  1506                     l2020:
  2457  1506  3001               	movlw	1
  2458  1507  00F6               	movwf	??___fltol
  2459  1508                     u2705:
  2460  1508  1003               	clrc
  2461  1509  0DF2               	rlf	___fltol@f1,f
  2462  150A  0DF3               	rlf	___fltol@f1+1,f
  2463  150B  0DF4               	rlf	___fltol@f1+2,f
  2464  150C  0DF5               	rlf	___fltol@f1+3,f
  2465  150D  0BF6               	decfsz	??___fltol,f
  2466  150E  2D08               	goto	u2705
  2467  150F  3001               	movlw	1
  2468  1510  02FB               	subwf	___fltol@exp1,f
  2469  1511                     l419:
  2470  1511  087B               	movf	___fltol@exp1,w
  2471  1512  1D03               	btfss	3,2
  2472  1513  2D15               	goto	u2711
  2473  1514  2D16               	goto	u2710
  2474  1515                     u2711:
  2475  1515  2D06               	goto	l2020
  2476  1516                     u2710:
  2477  1516                     l2022:
  2478  1516  087A               	movf	___fltol@sign1,w
  2479  1517  1903               	btfsc	3,2
  2480  1518  2D1A               	goto	u2721
  2481  1519  2D1B               	goto	u2720
  2482  151A                     u2721:
  2483  151A  2D26               	goto	l422
  2484  151B                     u2720:
  2485  151B                     l2024:
  2486  151B  09F2               	comf	___fltol@f1,f
  2487  151C  09F3               	comf	___fltol@f1+1,f
  2488  151D  09F4               	comf	___fltol@f1+2,f
  2489  151E  09F5               	comf	___fltol@f1+3,f
  2490  151F  0AF2               	incf	___fltol@f1,f
  2491  1520  1903               	skipnz
  2492  1521  0AF3               	incf	___fltol@f1+1,f
  2493  1522  1903               	skipnz
  2494  1523  0AF4               	incf	___fltol@f1+2,f
  2495  1524  1903               	skipnz
  2496  1525  0AF5               	incf	___fltol@f1+3,f
  2497  1526                     l422:
  2498  1526                     l412:
  2499  1526  0008               	return
  2500  1527                     __end_of___fltol:
  2501                           
  2502                           	psect	text11
  2503  0016                     __ptext11:	
  2504 ;; *************** function _conversion_newton *****************
  2505 ;; Defined at:
  2506 ;;		line 154 in file "main.c"
  2507 ;; Parameters:    Size  Location     Type
  2508 ;;  Rc              4    0[BANK1 ] float 
  2509 ;; Auto vars:     Size  Location     Type
  2510 ;;  F               4   33[BANK1 ] float 
  2511 ;;  n               2   37[BANK1 ] int 
  2512 ;; Return value:  Size  Location     Type
  2513 ;;                  4    0[BANK1 ] float 
  2514 ;; Registers used:
  2515 ;;		wreg, fsr0l, fsr0h, status,2, status,0, btemp+1, pclath, cstack
  2516 ;; Tracked objects:
  2517 ;;		On entry : 0/0
  2518 ;;		On exit  : 0/0
  2519 ;;		Unchanged: 0/0
  2520 ;; Data sizes:     COMMON   BANK0   BANK1   BANK3   BANK2
  2521 ;;      Params:         0       0       4       0       0
  2522 ;;      Locals:         0       0      10       0       0
  2523 ;;      Temps:          0       0      25       0       0
  2524 ;;      Totals:         0       0      39       0       0
  2525 ;;Total ram usage:       39 bytes
  2526 ;; Hardware stack levels used:    1
  2527 ;; Hardware stack levels required when called:    3
  2528 ;; This function calls:
  2529 ;;		___fladd
  2530 ;;		___fldiv
  2531 ;;		___flge
  2532 ;;		___flmul
  2533 ;;		___flsub
  2534 ;; This function is called by:
  2535 ;;		_Get_Newton
  2536 ;; This function uses a non-reentrant model
  2537 ;;
  2538                           
  2539                           
  2540                           ;psect for function _conversion_newton
  2541  0016                     _conversion_newton:
  2542  0016                     l2444:	
  2543                           ;incstack = 0
  2544                           ; Regs used in _conversion_newton: [wreg-fsr0h+status,2+status,0+btemp+1+pclath+cstack]
  2545                           
  2546                           
  2547                           ;main.c: 155:      float F;;main.c: 156:      int n;;main.c: 157:      const float F_tab
      +                          [20]={70,35,30,28,25,20,19,18,15,13,10,7, 5.4, 4, 3, 2.2, 1.5, 0.9, 0.45, 0.12};;main.c:
      +                           158:      const float R_tab[20]={2000,2500,2600,2700,2900,3200,3400,3500,3900,4300,4800
      +                          ,5500,6800,8500,11000,16000,27000,45000,65000,95000};;main.c: 161:      if (Rc <= R_tab[
      +                          1])
  2548  0016  3005               	movlw	low (((conversion_newton@R_tab+4)-__stringbase)| (0+32768))
  2549  0017  0084               	movwf	4
  2550  0018  160A  118A  2000  120A  118A  	fcall	stringdir
  2551  001D  1683               	bsf	3,5	;RP0=1, select bank1
  2552  001E  1303               	bcf	3,6	;RP1=0, select bank1
  2553  001F  00A4               	movwf	??_conversion_newton^(0+128)
  2554  0020  160A  118A  2000  120A  118A  	fcall	stringdir
  2555  0025  00A5               	movwf	(??_conversion_newton^(0+128)+1)
  2556  0026  160A  118A  2000  120A  118A  	fcall	stringdir
  2557  002B  00A6               	movwf	(??_conversion_newton^(0+128)+2)
  2558  002C  160A  118A  2000  120A  118A  	fcall	stringdir
  2559  0031  00A7               	movwf	(??_conversion_newton^(0+128)+3)
  2560  0032  0827               	movf	(??_conversion_newton+3)^(0+128),w
  2561  0033  00F5               	movwf	___flge@ff1+3
  2562  0034  0826               	movf	(??_conversion_newton+2)^(0+128),w
  2563  0035  00F4               	movwf	___flge@ff1+2
  2564  0036  0825               	movf	(??_conversion_newton+1)^(0+128),w
  2565  0037  00F3               	movwf	___flge@ff1+1
  2566  0038  0824               	movf	??_conversion_newton^(0+128),w
  2567  0039  00F2               	movwf	___flge@ff1
  2568  003A  0823               	movf	(conversion_newton@Rc+3)^(0+128),w
  2569  003B  00F9               	movwf	___flge@ff2+3
  2570  003C  0822               	movf	(conversion_newton@Rc+2)^(0+128),w
  2571  003D  00F8               	movwf	___flge@ff2+2
  2572  003E  0821               	movf	(conversion_newton@Rc+1)^(0+128),w
  2573  003F  00F7               	movwf	___flge@ff2+1
  2574  0040  0820               	movf	conversion_newton@Rc^(0+128),w
  2575  0041  00F6               	movwf	___flge@ff2
  2576  0042  160A  118A  25AB  120A  118A  	fcall	___flge
  2577  0047  1C03               	btfss	3,0
  2578  0048  284A               	goto	u3661
  2579  0049  284B               	goto	u3660
  2580  004A                     u3661:
  2581  004A  284F               	goto	l2448
  2582  004B                     u3660:
  2583  004B                     l2446:
  2584                           
  2585                           ;main.c: 162:          {;main.c: 163:          n = 0;
  2586  004B  1683               	bsf	3,5	;RP0=1, select bank1
  2587  004C  1303               	bcf	3,6	;RP1=0, select bank1
  2588  004D  01C5               	clrf	conversion_newton@n^(0+128)
  2589  004E  01C6               	clrf	(conversion_newton@n+1)^(0+128)
  2590  004F                     l2448:
  2591                           
  2592                           ;main.c: 165:      if ((Rc <= R_tab[2]) && (Rc > R_tab[1]))
  2593  004F  3009               	movlw	low (((conversion_newton@R_tab+8)-__stringbase)| (0+32768))
  2594  0050  0084               	movwf	4
  2595  0051  160A  118A  2000  120A  118A  	fcall	stringdir
  2596  0056  1683               	bsf	3,5	;RP0=1, select bank1
  2597  0057  1303               	bcf	3,6	;RP1=0, select bank1
  2598  0058  00A4               	movwf	??_conversion_newton^(0+128)
  2599  0059  160A  118A  2000  120A  118A  	fcall	stringdir
  2600  005E  00A5               	movwf	(??_conversion_newton^(0+128)+1)
  2601  005F  160A  118A  2000  120A  118A  	fcall	stringdir
  2602  0064  00A6               	movwf	(??_conversion_newton^(0+128)+2)
  2603  0065  160A  118A  2000  120A  118A  	fcall	stringdir
  2604  006A  00A7               	movwf	(??_conversion_newton^(0+128)+3)
  2605  006B  0827               	movf	(??_conversion_newton+3)^(0+128),w
  2606  006C  00F5               	movwf	___flge@ff1+3
  2607  006D  0826               	movf	(??_conversion_newton+2)^(0+128),w
  2608  006E  00F4               	movwf	___flge@ff1+2
  2609  006F  0825               	movf	(??_conversion_newton+1)^(0+128),w
  2610  0070  00F3               	movwf	___flge@ff1+1
  2611  0071  0824               	movf	??_conversion_newton^(0+128),w
  2612  0072  00F2               	movwf	___flge@ff1
  2613  0073  0823               	movf	(conversion_newton@Rc+3)^(0+128),w
  2614  0074  00F9               	movwf	___flge@ff2+3
  2615  0075  0822               	movf	(conversion_newton@Rc+2)^(0+128),w
  2616  0076  00F8               	movwf	___flge@ff2+2
  2617  0077  0821               	movf	(conversion_newton@Rc+1)^(0+128),w
  2618  0078  00F7               	movwf	___flge@ff2+1
  2619  0079  0820               	movf	conversion_newton@Rc^(0+128),w
  2620  007A  00F6               	movwf	___flge@ff2
  2621  007B  160A  118A  25AB  120A  118A  	fcall	___flge
  2622  0080  1C03               	btfss	3,0
  2623  0081  2883               	goto	u3671
  2624  0082  2884               	goto	u3670
  2625  0083                     u3671:
  2626  0083  28C0               	goto	l2454
  2627  0084                     u3670:
  2628  0084                     l2450:
  2629  0084  3005               	movlw	low (((conversion_newton@R_tab+4)-__stringbase)| (0+32768))
  2630  0085  0084               	movwf	4
  2631  0086  160A  118A  2000  120A  118A  	fcall	stringdir
  2632  008B  1683               	bsf	3,5	;RP0=1, select bank1
  2633  008C  1303               	bcf	3,6	;RP1=0, select bank1
  2634  008D  00A4               	movwf	??_conversion_newton^(0+128)
  2635  008E  160A  118A  2000  120A  118A  	fcall	stringdir
  2636  0093  00A5               	movwf	(??_conversion_newton^(0+128)+1)
  2637  0094  160A  118A  2000  120A  118A  	fcall	stringdir
  2638  0099  00A6               	movwf	(??_conversion_newton^(0+128)+2)
  2639  009A  160A  118A  2000  120A  118A  	fcall	stringdir
  2640  009F  00A7               	movwf	(??_conversion_newton^(0+128)+3)
  2641  00A0  0827               	movf	(??_conversion_newton+3)^(0+128),w
  2642  00A1  00F5               	movwf	___flge@ff1+3
  2643  00A2  0826               	movf	(??_conversion_newton+2)^(0+128),w
  2644  00A3  00F4               	movwf	___flge@ff1+2
  2645  00A4  0825               	movf	(??_conversion_newton+1)^(0+128),w
  2646  00A5  00F3               	movwf	___flge@ff1+1
  2647  00A6  0824               	movf	??_conversion_newton^(0+128),w
  2648  00A7  00F2               	movwf	___flge@ff1
  2649  00A8  0823               	movf	(conversion_newton@Rc+3)^(0+128),w
  2650  00A9  00F9               	movwf	___flge@ff2+3
  2651  00AA  0822               	movf	(conversion_newton@Rc+2)^(0+128),w
  2652  00AB  00F8               	movwf	___flge@ff2+2
  2653  00AC  0821               	movf	(conversion_newton@Rc+1)^(0+128),w
  2654  00AD  00F7               	movwf	___flge@ff2+1
  2655  00AE  0820               	movf	conversion_newton@Rc^(0+128),w
  2656  00AF  00F6               	movwf	___flge@ff2
  2657  00B0  160A  118A  25AB  120A  118A  	fcall	___flge
  2658  00B5  1803               	btfsc	3,0
  2659  00B6  28B8               	goto	u3681
  2660  00B7  28B9               	goto	u3680
  2661  00B8                     u3681:
  2662  00B8  28C0               	goto	l2454
  2663  00B9                     u3680:
  2664  00B9                     l2452:
  2665                           
  2666                           ;main.c: 166:          {;main.c: 167:          n = 1;
  2667  00B9  3001               	movlw	1
  2668  00BA  1683               	bsf	3,5	;RP0=1, select bank1
  2669  00BB  1303               	bcf	3,6	;RP1=0, select bank1
  2670  00BC  00C5               	movwf	conversion_newton@n^(0+128)
  2671  00BD  3000               	movlw	0
  2672  00BE  00C6               	movwf	(conversion_newton@n^(0+128)+1)
  2673                           
  2674                           ;main.c: 168:          }
  2675  00BF  2C84               	goto	l2506
  2676  00C0                     l2454:
  2677  00C0  300D               	movlw	low (((conversion_newton@R_tab+12)-__stringbase)| (0+32768))
  2678  00C1  0084               	movwf	4
  2679  00C2  160A  118A  2000  120A  118A  	fcall	stringdir
  2680  00C7  1683               	bsf	3,5	;RP0=1, select bank1
  2681  00C8  1303               	bcf	3,6	;RP1=0, select bank1
  2682  00C9  00A4               	movwf	??_conversion_newton^(0+128)
  2683  00CA  160A  118A  2000  120A  118A  	fcall	stringdir
  2684  00CF  00A5               	movwf	(??_conversion_newton^(0+128)+1)
  2685  00D0  160A  118A  2000  120A  118A  	fcall	stringdir
  2686  00D5  00A6               	movwf	(??_conversion_newton^(0+128)+2)
  2687  00D6  160A  118A  2000  120A  118A  	fcall	stringdir
  2688  00DB  00A7               	movwf	(??_conversion_newton^(0+128)+3)
  2689  00DC  0827               	movf	(??_conversion_newton+3)^(0+128),w
  2690  00DD  00F5               	movwf	___flge@ff1+3
  2691  00DE  0826               	movf	(??_conversion_newton+2)^(0+128),w
  2692  00DF  00F4               	movwf	___flge@ff1+2
  2693  00E0  0825               	movf	(??_conversion_newton+1)^(0+128),w
  2694  00E1  00F3               	movwf	___flge@ff1+1
  2695  00E2  0824               	movf	??_conversion_newton^(0+128),w
  2696  00E3  00F2               	movwf	___flge@ff1
  2697  00E4  0823               	movf	(conversion_newton@Rc+3)^(0+128),w
  2698  00E5  00F9               	movwf	___flge@ff2+3
  2699  00E6  0822               	movf	(conversion_newton@Rc+2)^(0+128),w
  2700  00E7  00F8               	movwf	___flge@ff2+2
  2701  00E8  0821               	movf	(conversion_newton@Rc+1)^(0+128),w
  2702  00E9  00F7               	movwf	___flge@ff2+1
  2703  00EA  0820               	movf	conversion_newton@Rc^(0+128),w
  2704  00EB  00F6               	movwf	___flge@ff2
  2705  00EC  160A  118A  25AB  120A  118A  	fcall	___flge
  2706  00F1  1C03               	btfss	3,0
  2707  00F2  28F4               	goto	u3691
  2708  00F3  28F5               	goto	u3690
  2709  00F4                     u3691:
  2710  00F4  2931               	goto	l2460
  2711  00F5                     u3690:
  2712  00F5                     l2456:
  2713  00F5  3009               	movlw	low (((conversion_newton@R_tab+8)-__stringbase)| (0+32768))
  2714  00F6  0084               	movwf	4
  2715  00F7  160A  118A  2000  120A  118A  	fcall	stringdir
  2716  00FC  1683               	bsf	3,5	;RP0=1, select bank1
  2717  00FD  1303               	bcf	3,6	;RP1=0, select bank1
  2718  00FE  00A4               	movwf	??_conversion_newton^(0+128)
  2719  00FF  160A  118A  2000  120A  118A  	fcall	stringdir
  2720  0104  00A5               	movwf	(??_conversion_newton^(0+128)+1)
  2721  0105  160A  118A  2000  120A  118A  	fcall	stringdir
  2722  010A  00A6               	movwf	(??_conversion_newton^(0+128)+2)
  2723  010B  160A  118A  2000  120A  118A  	fcall	stringdir
  2724  0110  00A7               	movwf	(??_conversion_newton^(0+128)+3)
  2725  0111  0827               	movf	(??_conversion_newton+3)^(0+128),w
  2726  0112  00F5               	movwf	___flge@ff1+3
  2727  0113  0826               	movf	(??_conversion_newton+2)^(0+128),w
  2728  0114  00F4               	movwf	___flge@ff1+2
  2729  0115  0825               	movf	(??_conversion_newton+1)^(0+128),w
  2730  0116  00F3               	movwf	___flge@ff1+1
  2731  0117  0824               	movf	??_conversion_newton^(0+128),w
  2732  0118  00F2               	movwf	___flge@ff1
  2733  0119  0823               	movf	(conversion_newton@Rc+3)^(0+128),w
  2734  011A  00F9               	movwf	___flge@ff2+3
  2735  011B  0822               	movf	(conversion_newton@Rc+2)^(0+128),w
  2736  011C  00F8               	movwf	___flge@ff2+2
  2737  011D  0821               	movf	(conversion_newton@Rc+1)^(0+128),w
  2738  011E  00F7               	movwf	___flge@ff2+1
  2739  011F  0820               	movf	conversion_newton@Rc^(0+128),w
  2740  0120  00F6               	movwf	___flge@ff2
  2741  0121  160A  118A  25AB  120A  118A  	fcall	___flge
  2742  0126  1803               	btfsc	3,0
  2743  0127  2929               	goto	u3701
  2744  0128  292A               	goto	u3700
  2745  0129                     u3701:
  2746  0129  2931               	goto	l2460
  2747  012A                     u3700:
  2748  012A                     l2458:
  2749                           
  2750                           ;main.c: 170:          {;main.c: 171:          n = 2;
  2751  012A  3002               	movlw	2
  2752  012B  1683               	bsf	3,5	;RP0=1, select bank1
  2753  012C  1303               	bcf	3,6	;RP1=0, select bank1
  2754  012D  00C5               	movwf	conversion_newton@n^(0+128)
  2755  012E  3000               	movlw	0
  2756  012F  00C6               	movwf	(conversion_newton@n^(0+128)+1)
  2757                           
  2758                           ;main.c: 172:          }
  2759  0130  2C84               	goto	l2506
  2760  0131                     l2460:
  2761  0131  3011               	movlw	low (((conversion_newton@R_tab+16)-__stringbase)| (0+32768))
  2762  0132  0084               	movwf	4
  2763  0133  160A  118A  2000  120A  118A  	fcall	stringdir
  2764  0138  1683               	bsf	3,5	;RP0=1, select bank1
  2765  0139  1303               	bcf	3,6	;RP1=0, select bank1
  2766  013A  00A4               	movwf	??_conversion_newton^(0+128)
  2767  013B  160A  118A  2000  120A  118A  	fcall	stringdir
  2768  0140  00A5               	movwf	(??_conversion_newton^(0+128)+1)
  2769  0141  160A  118A  2000  120A  118A  	fcall	stringdir
  2770  0146  00A6               	movwf	(??_conversion_newton^(0+128)+2)
  2771  0147  160A  118A  2000  120A  118A  	fcall	stringdir
  2772  014C  00A7               	movwf	(??_conversion_newton^(0+128)+3)
  2773  014D  0827               	movf	(??_conversion_newton+3)^(0+128),w
  2774  014E  00F5               	movwf	___flge@ff1+3
  2775  014F  0826               	movf	(??_conversion_newton+2)^(0+128),w
  2776  0150  00F4               	movwf	___flge@ff1+2
  2777  0151  0825               	movf	(??_conversion_newton+1)^(0+128),w
  2778  0152  00F3               	movwf	___flge@ff1+1
  2779  0153  0824               	movf	??_conversion_newton^(0+128),w
  2780  0154  00F2               	movwf	___flge@ff1
  2781  0155  0823               	movf	(conversion_newton@Rc+3)^(0+128),w
  2782  0156  00F9               	movwf	___flge@ff2+3
  2783  0157  0822               	movf	(conversion_newton@Rc+2)^(0+128),w
  2784  0158  00F8               	movwf	___flge@ff2+2
  2785  0159  0821               	movf	(conversion_newton@Rc+1)^(0+128),w
  2786  015A  00F7               	movwf	___flge@ff2+1
  2787  015B  0820               	movf	conversion_newton@Rc^(0+128),w
  2788  015C  00F6               	movwf	___flge@ff2
  2789  015D  160A  118A  25AB  120A  118A  	fcall	___flge
  2790  0162  1C03               	btfss	3,0
  2791  0163  2965               	goto	u3711
  2792  0164  2966               	goto	u3710
  2793  0165                     u3711:
  2794  0165  29A2               	goto	l2466
  2795  0166                     u3710:
  2796  0166                     l2462:
  2797  0166  300D               	movlw	low (((conversion_newton@R_tab+12)-__stringbase)| (0+32768))
  2798  0167  0084               	movwf	4
  2799  0168  160A  118A  2000  120A  118A  	fcall	stringdir
  2800  016D  1683               	bsf	3,5	;RP0=1, select bank1
  2801  016E  1303               	bcf	3,6	;RP1=0, select bank1
  2802  016F  00A4               	movwf	??_conversion_newton^(0+128)
  2803  0170  160A  118A  2000  120A  118A  	fcall	stringdir
  2804  0175  00A5               	movwf	(??_conversion_newton^(0+128)+1)
  2805  0176  160A  118A  2000  120A  118A  	fcall	stringdir
  2806  017B  00A6               	movwf	(??_conversion_newton^(0+128)+2)
  2807  017C  160A  118A  2000  120A  118A  	fcall	stringdir
  2808  0181  00A7               	movwf	(??_conversion_newton^(0+128)+3)
  2809  0182  0827               	movf	(??_conversion_newton+3)^(0+128),w
  2810  0183  00F5               	movwf	___flge@ff1+3
  2811  0184  0826               	movf	(??_conversion_newton+2)^(0+128),w
  2812  0185  00F4               	movwf	___flge@ff1+2
  2813  0186  0825               	movf	(??_conversion_newton+1)^(0+128),w
  2814  0187  00F3               	movwf	___flge@ff1+1
  2815  0188  0824               	movf	??_conversion_newton^(0+128),w
  2816  0189  00F2               	movwf	___flge@ff1
  2817  018A  0823               	movf	(conversion_newton@Rc+3)^(0+128),w
  2818  018B  00F9               	movwf	___flge@ff2+3
  2819  018C  0822               	movf	(conversion_newton@Rc+2)^(0+128),w
  2820  018D  00F8               	movwf	___flge@ff2+2
  2821  018E  0821               	movf	(conversion_newton@Rc+1)^(0+128),w
  2822  018F  00F7               	movwf	___flge@ff2+1
  2823  0190  0820               	movf	conversion_newton@Rc^(0+128),w
  2824  0191  00F6               	movwf	___flge@ff2
  2825  0192  160A  118A  25AB  120A  118A  	fcall	___flge
  2826  0197  1803               	btfsc	3,0
  2827  0198  299A               	goto	u3721
  2828  0199  299B               	goto	u3720
  2829  019A                     u3721:
  2830  019A  29A2               	goto	l2466
  2831  019B                     u3720:
  2832  019B                     l2464:
  2833                           
  2834                           ;main.c: 174:          {;main.c: 175:          n = 3;
  2835  019B  3003               	movlw	3
  2836  019C  1683               	bsf	3,5	;RP0=1, select bank1
  2837  019D  1303               	bcf	3,6	;RP1=0, select bank1
  2838  019E  00C5               	movwf	conversion_newton@n^(0+128)
  2839  019F  3000               	movlw	0
  2840  01A0  00C6               	movwf	(conversion_newton@n^(0+128)+1)
  2841                           
  2842                           ;main.c: 176:          }
  2843  01A1  2C84               	goto	l2506
  2844  01A2                     l2466:
  2845  01A2  3015               	movlw	low (((conversion_newton@R_tab+20)-__stringbase)| (0+32768))
  2846  01A3  0084               	movwf	4
  2847  01A4  160A  118A  2000  120A  118A  	fcall	stringdir
  2848  01A9  1683               	bsf	3,5	;RP0=1, select bank1
  2849  01AA  1303               	bcf	3,6	;RP1=0, select bank1
  2850  01AB  00A4               	movwf	??_conversion_newton^(0+128)
  2851  01AC  160A  118A  2000  120A  118A  	fcall	stringdir
  2852  01B1  00A5               	movwf	(??_conversion_newton^(0+128)+1)
  2853  01B2  160A  118A  2000  120A  118A  	fcall	stringdir
  2854  01B7  00A6               	movwf	(??_conversion_newton^(0+128)+2)
  2855  01B8  160A  118A  2000  120A  118A  	fcall	stringdir
  2856  01BD  00A7               	movwf	(??_conversion_newton^(0+128)+3)
  2857  01BE  0827               	movf	(??_conversion_newton+3)^(0+128),w
  2858  01BF  00F5               	movwf	___flge@ff1+3
  2859  01C0  0826               	movf	(??_conversion_newton+2)^(0+128),w
  2860  01C1  00F4               	movwf	___flge@ff1+2
  2861  01C2  0825               	movf	(??_conversion_newton+1)^(0+128),w
  2862  01C3  00F3               	movwf	___flge@ff1+1
  2863  01C4  0824               	movf	??_conversion_newton^(0+128),w
  2864  01C5  00F2               	movwf	___flge@ff1
  2865  01C6  0823               	movf	(conversion_newton@Rc+3)^(0+128),w
  2866  01C7  00F9               	movwf	___flge@ff2+3
  2867  01C8  0822               	movf	(conversion_newton@Rc+2)^(0+128),w
  2868  01C9  00F8               	movwf	___flge@ff2+2
  2869  01CA  0821               	movf	(conversion_newton@Rc+1)^(0+128),w
  2870  01CB  00F7               	movwf	___flge@ff2+1
  2871  01CC  0820               	movf	conversion_newton@Rc^(0+128),w
  2872  01CD  00F6               	movwf	___flge@ff2
  2873  01CE  160A  118A  25AB  120A  118A  	fcall	___flge
  2874  01D3  1C03               	btfss	3,0
  2875  01D4  29D6               	goto	u3731
  2876  01D5  29D7               	goto	u3730
  2877  01D6                     u3731:
  2878  01D6  2A13               	goto	l2472
  2879  01D7                     u3730:
  2880  01D7                     l2468:
  2881  01D7  3011               	movlw	low (((conversion_newton@R_tab+16)-__stringbase)| (0+32768))
  2882  01D8  0084               	movwf	4
  2883  01D9  160A  118A  2000  120A  118A  	fcall	stringdir
  2884  01DE  1683               	bsf	3,5	;RP0=1, select bank1
  2885  01DF  1303               	bcf	3,6	;RP1=0, select bank1
  2886  01E0  00A4               	movwf	??_conversion_newton^(0+128)
  2887  01E1  160A  118A  2000  120A  118A  	fcall	stringdir
  2888  01E6  00A5               	movwf	(??_conversion_newton^(0+128)+1)
  2889  01E7  160A  118A  2000  120A  118A  	fcall	stringdir
  2890  01EC  00A6               	movwf	(??_conversion_newton^(0+128)+2)
  2891  01ED  160A  118A  2000  120A  118A  	fcall	stringdir
  2892  01F2  00A7               	movwf	(??_conversion_newton^(0+128)+3)
  2893  01F3  0827               	movf	(??_conversion_newton+3)^(0+128),w
  2894  01F4  00F5               	movwf	___flge@ff1+3
  2895  01F5  0826               	movf	(??_conversion_newton+2)^(0+128),w
  2896  01F6  00F4               	movwf	___flge@ff1+2
  2897  01F7  0825               	movf	(??_conversion_newton+1)^(0+128),w
  2898  01F8  00F3               	movwf	___flge@ff1+1
  2899  01F9  0824               	movf	??_conversion_newton^(0+128),w
  2900  01FA  00F2               	movwf	___flge@ff1
  2901  01FB  0823               	movf	(conversion_newton@Rc+3)^(0+128),w
  2902  01FC  00F9               	movwf	___flge@ff2+3
  2903  01FD  0822               	movf	(conversion_newton@Rc+2)^(0+128),w
  2904  01FE  00F8               	movwf	___flge@ff2+2
  2905  01FF  0821               	movf	(conversion_newton@Rc+1)^(0+128),w
  2906  0200  00F7               	movwf	___flge@ff2+1
  2907  0201  0820               	movf	conversion_newton@Rc^(0+128),w
  2908  0202  00F6               	movwf	___flge@ff2
  2909  0203  160A  118A  25AB  120A  118A  	fcall	___flge
  2910  0208  1803               	btfsc	3,0
  2911  0209  2A0B               	goto	u3741
  2912  020A  2A0C               	goto	u3740
  2913  020B                     u3741:
  2914  020B  2A13               	goto	l2472
  2915  020C                     u3740:
  2916  020C                     l2470:
  2917                           
  2918                           ;main.c: 178:          {;main.c: 179:          n = 4;
  2919  020C  3004               	movlw	4
  2920  020D  1683               	bsf	3,5	;RP0=1, select bank1
  2921  020E  1303               	bcf	3,6	;RP1=0, select bank1
  2922  020F  00C5               	movwf	conversion_newton@n^(0+128)
  2923  0210  3000               	movlw	0
  2924  0211  00C6               	movwf	(conversion_newton@n^(0+128)+1)
  2925                           
  2926                           ;main.c: 180:          }
  2927  0212  2C84               	goto	l2506
  2928  0213                     l2472:
  2929  0213  3019               	movlw	low (((conversion_newton@R_tab+24)-__stringbase)| (0+32768))
  2930  0214  0084               	movwf	4
  2931  0215  160A  118A  2000  120A  118A  	fcall	stringdir
  2932  021A  1683               	bsf	3,5	;RP0=1, select bank1
  2933  021B  1303               	bcf	3,6	;RP1=0, select bank1
  2934  021C  00A4               	movwf	??_conversion_newton^(0+128)
  2935  021D  160A  118A  2000  120A  118A  	fcall	stringdir
  2936  0222  00A5               	movwf	(??_conversion_newton^(0+128)+1)
  2937  0223  160A  118A  2000  120A  118A  	fcall	stringdir
  2938  0228  00A6               	movwf	(??_conversion_newton^(0+128)+2)
  2939  0229  160A  118A  2000  120A  118A  	fcall	stringdir
  2940  022E  00A7               	movwf	(??_conversion_newton^(0+128)+3)
  2941  022F  0827               	movf	(??_conversion_newton+3)^(0+128),w
  2942  0230  00F5               	movwf	___flge@ff1+3
  2943  0231  0826               	movf	(??_conversion_newton+2)^(0+128),w
  2944  0232  00F4               	movwf	___flge@ff1+2
  2945  0233  0825               	movf	(??_conversion_newton+1)^(0+128),w
  2946  0234  00F3               	movwf	___flge@ff1+1
  2947  0235  0824               	movf	??_conversion_newton^(0+128),w
  2948  0236  00F2               	movwf	___flge@ff1
  2949  0237  0823               	movf	(conversion_newton@Rc+3)^(0+128),w
  2950  0238  00F9               	movwf	___flge@ff2+3
  2951  0239  0822               	movf	(conversion_newton@Rc+2)^(0+128),w
  2952  023A  00F8               	movwf	___flge@ff2+2
  2953  023B  0821               	movf	(conversion_newton@Rc+1)^(0+128),w
  2954  023C  00F7               	movwf	___flge@ff2+1
  2955  023D  0820               	movf	conversion_newton@Rc^(0+128),w
  2956  023E  00F6               	movwf	___flge@ff2
  2957  023F  160A  118A  25AB  120A  118A  	fcall	___flge
  2958  0244  1C03               	btfss	3,0
  2959  0245  2A47               	goto	u3751
  2960  0246  2A48               	goto	u3750
  2961  0247                     u3751:
  2962  0247  2A84               	goto	l2478
  2963  0248                     u3750:
  2964  0248                     l2474:
  2965  0248  3015               	movlw	low (((conversion_newton@R_tab+20)-__stringbase)| (0+32768))
  2966  0249  0084               	movwf	4
  2967  024A  160A  118A  2000  120A  118A  	fcall	stringdir
  2968  024F  1683               	bsf	3,5	;RP0=1, select bank1
  2969  0250  1303               	bcf	3,6	;RP1=0, select bank1
  2970  0251  00A4               	movwf	??_conversion_newton^(0+128)
  2971  0252  160A  118A  2000  120A  118A  	fcall	stringdir
  2972  0257  00A5               	movwf	(??_conversion_newton^(0+128)+1)
  2973  0258  160A  118A  2000  120A  118A  	fcall	stringdir
  2974  025D  00A6               	movwf	(??_conversion_newton^(0+128)+2)
  2975  025E  160A  118A  2000  120A  118A  	fcall	stringdir
  2976  0263  00A7               	movwf	(??_conversion_newton^(0+128)+3)
  2977  0264  0827               	movf	(??_conversion_newton+3)^(0+128),w
  2978  0265  00F5               	movwf	___flge@ff1+3
  2979  0266  0826               	movf	(??_conversion_newton+2)^(0+128),w
  2980  0267  00F4               	movwf	___flge@ff1+2
  2981  0268  0825               	movf	(??_conversion_newton+1)^(0+128),w
  2982  0269  00F3               	movwf	___flge@ff1+1
  2983  026A  0824               	movf	??_conversion_newton^(0+128),w
  2984  026B  00F2               	movwf	___flge@ff1
  2985  026C  0823               	movf	(conversion_newton@Rc+3)^(0+128),w
  2986  026D  00F9               	movwf	___flge@ff2+3
  2987  026E  0822               	movf	(conversion_newton@Rc+2)^(0+128),w
  2988  026F  00F8               	movwf	___flge@ff2+2
  2989  0270  0821               	movf	(conversion_newton@Rc+1)^(0+128),w
  2990  0271  00F7               	movwf	___flge@ff2+1
  2991  0272  0820               	movf	conversion_newton@Rc^(0+128),w
  2992  0273  00F6               	movwf	___flge@ff2
  2993  0274  160A  118A  25AB  120A  118A  	fcall	___flge
  2994  0279  1803               	btfsc	3,0
  2995  027A  2A7C               	goto	u3761
  2996  027B  2A7D               	goto	u3760
  2997  027C                     u3761:
  2998  027C  2A84               	goto	l2478
  2999  027D                     u3760:
  3000  027D                     l2476:
  3001                           
  3002                           ;main.c: 182:          {;main.c: 183:          n = 5;
  3003  027D  3005               	movlw	5
  3004  027E  1683               	bsf	3,5	;RP0=1, select bank1
  3005  027F  1303               	bcf	3,6	;RP1=0, select bank1
  3006  0280  00C5               	movwf	conversion_newton@n^(0+128)
  3007  0281  3000               	movlw	0
  3008  0282  00C6               	movwf	(conversion_newton@n^(0+128)+1)
  3009                           
  3010                           ;main.c: 184:          }
  3011  0283  2C84               	goto	l2506
  3012  0284                     l2478:
  3013  0284  301D               	movlw	low (((conversion_newton@R_tab+28)-__stringbase)| (0+32768))
  3014  0285  0084               	movwf	4
  3015  0286  160A  118A  2000  120A  118A  	fcall	stringdir
  3016  028B  1683               	bsf	3,5	;RP0=1, select bank1
  3017  028C  1303               	bcf	3,6	;RP1=0, select bank1
  3018  028D  00A4               	movwf	??_conversion_newton^(0+128)
  3019  028E  160A  118A  2000  120A  118A  	fcall	stringdir
  3020  0293  00A5               	movwf	(??_conversion_newton^(0+128)+1)
  3021  0294  160A  118A  2000  120A  118A  	fcall	stringdir
  3022  0299  00A6               	movwf	(??_conversion_newton^(0+128)+2)
  3023  029A  160A  118A  2000  120A  118A  	fcall	stringdir
  3024  029F  00A7               	movwf	(??_conversion_newton^(0+128)+3)
  3025  02A0  0827               	movf	(??_conversion_newton+3)^(0+128),w
  3026  02A1  00F5               	movwf	___flge@ff1+3
  3027  02A2  0826               	movf	(??_conversion_newton+2)^(0+128),w
  3028  02A3  00F4               	movwf	___flge@ff1+2
  3029  02A4  0825               	movf	(??_conversion_newton+1)^(0+128),w
  3030  02A5  00F3               	movwf	___flge@ff1+1
  3031  02A6  0824               	movf	??_conversion_newton^(0+128),w
  3032  02A7  00F2               	movwf	___flge@ff1
  3033  02A8  0823               	movf	(conversion_newton@Rc+3)^(0+128),w
  3034  02A9  00F9               	movwf	___flge@ff2+3
  3035  02AA  0822               	movf	(conversion_newton@Rc+2)^(0+128),w
  3036  02AB  00F8               	movwf	___flge@ff2+2
  3037  02AC  0821               	movf	(conversion_newton@Rc+1)^(0+128),w
  3038  02AD  00F7               	movwf	___flge@ff2+1
  3039  02AE  0820               	movf	conversion_newton@Rc^(0+128),w
  3040  02AF  00F6               	movwf	___flge@ff2
  3041  02B0  160A  118A  25AB  120A  118A  	fcall	___flge
  3042  02B5  1C03               	btfss	3,0
  3043  02B6  2AB8               	goto	u3771
  3044  02B7  2AB9               	goto	u3770
  3045  02B8                     u3771:
  3046  02B8  2AF5               	goto	l2484
  3047  02B9                     u3770:
  3048  02B9                     l2480:
  3049  02B9  3019               	movlw	low (((conversion_newton@R_tab+24)-__stringbase)| (0+32768))
  3050  02BA  0084               	movwf	4
  3051  02BB  160A  118A  2000  120A  118A  	fcall	stringdir
  3052  02C0  1683               	bsf	3,5	;RP0=1, select bank1
  3053  02C1  1303               	bcf	3,6	;RP1=0, select bank1
  3054  02C2  00A4               	movwf	??_conversion_newton^(0+128)
  3055  02C3  160A  118A  2000  120A  118A  	fcall	stringdir
  3056  02C8  00A5               	movwf	(??_conversion_newton^(0+128)+1)
  3057  02C9  160A  118A  2000  120A  118A  	fcall	stringdir
  3058  02CE  00A6               	movwf	(??_conversion_newton^(0+128)+2)
  3059  02CF  160A  118A  2000  120A  118A  	fcall	stringdir
  3060  02D4  00A7               	movwf	(??_conversion_newton^(0+128)+3)
  3061  02D5  0827               	movf	(??_conversion_newton+3)^(0+128),w
  3062  02D6  00F5               	movwf	___flge@ff1+3
  3063  02D7  0826               	movf	(??_conversion_newton+2)^(0+128),w
  3064  02D8  00F4               	movwf	___flge@ff1+2
  3065  02D9  0825               	movf	(??_conversion_newton+1)^(0+128),w
  3066  02DA  00F3               	movwf	___flge@ff1+1
  3067  02DB  0824               	movf	??_conversion_newton^(0+128),w
  3068  02DC  00F2               	movwf	___flge@ff1
  3069  02DD  0823               	movf	(conversion_newton@Rc+3)^(0+128),w
  3070  02DE  00F9               	movwf	___flge@ff2+3
  3071  02DF  0822               	movf	(conversion_newton@Rc+2)^(0+128),w
  3072  02E0  00F8               	movwf	___flge@ff2+2
  3073  02E1  0821               	movf	(conversion_newton@Rc+1)^(0+128),w
  3074  02E2  00F7               	movwf	___flge@ff2+1
  3075  02E3  0820               	movf	conversion_newton@Rc^(0+128),w
  3076  02E4  00F6               	movwf	___flge@ff2
  3077  02E5  160A  118A  25AB  120A  118A  	fcall	___flge
  3078  02EA  1803               	btfsc	3,0
  3079  02EB  2AED               	goto	u3781
  3080  02EC  2AEE               	goto	u3780
  3081  02ED                     u3781:
  3082  02ED  2AF5               	goto	l2484
  3083  02EE                     u3780:
  3084  02EE                     l2482:
  3085                           
  3086                           ;main.c: 186:          {;main.c: 187:          n = 6;
  3087  02EE  3006               	movlw	6
  3088  02EF  1683               	bsf	3,5	;RP0=1, select bank1
  3089  02F0  1303               	bcf	3,6	;RP1=0, select bank1
  3090  02F1  00C5               	movwf	conversion_newton@n^(0+128)
  3091  02F2  3000               	movlw	0
  3092  02F3  00C6               	movwf	(conversion_newton@n^(0+128)+1)
  3093                           
  3094                           ;main.c: 188:          }
  3095  02F4  2C84               	goto	l2506
  3096  02F5                     l2484:
  3097  02F5  3021               	movlw	low (((conversion_newton@R_tab+32)-__stringbase)| (0+32768))
  3098  02F6  0084               	movwf	4
  3099  02F7  160A  118A  2000  120A  118A  	fcall	stringdir
  3100  02FC  1683               	bsf	3,5	;RP0=1, select bank1
  3101  02FD  1303               	bcf	3,6	;RP1=0, select bank1
  3102  02FE  00A4               	movwf	??_conversion_newton^(0+128)
  3103  02FF  160A  118A  2000  120A  118A  	fcall	stringdir
  3104  0304  00A5               	movwf	(??_conversion_newton^(0+128)+1)
  3105  0305  160A  118A  2000  120A  118A  	fcall	stringdir
  3106  030A  00A6               	movwf	(??_conversion_newton^(0+128)+2)
  3107  030B  160A  118A  2000  120A  118A  	fcall	stringdir
  3108  0310  00A7               	movwf	(??_conversion_newton^(0+128)+3)
  3109  0311  0827               	movf	(??_conversion_newton+3)^(0+128),w
  3110  0312  00F5               	movwf	___flge@ff1+3
  3111  0313  0826               	movf	(??_conversion_newton+2)^(0+128),w
  3112  0314  00F4               	movwf	___flge@ff1+2
  3113  0315  0825               	movf	(??_conversion_newton+1)^(0+128),w
  3114  0316  00F3               	movwf	___flge@ff1+1
  3115  0317  0824               	movf	??_conversion_newton^(0+128),w
  3116  0318  00F2               	movwf	___flge@ff1
  3117  0319  0823               	movf	(conversion_newton@Rc+3)^(0+128),w
  3118  031A  00F9               	movwf	___flge@ff2+3
  3119  031B  0822               	movf	(conversion_newton@Rc+2)^(0+128),w
  3120  031C  00F8               	movwf	___flge@ff2+2
  3121  031D  0821               	movf	(conversion_newton@Rc+1)^(0+128),w
  3122  031E  00F7               	movwf	___flge@ff2+1
  3123  031F  0820               	movf	conversion_newton@Rc^(0+128),w
  3124  0320  00F6               	movwf	___flge@ff2
  3125  0321  160A  118A  25AB  120A  118A  	fcall	___flge
  3126  0326  1C03               	btfss	3,0
  3127  0327  2B29               	goto	u3791
  3128  0328  2B2A               	goto	u3790
  3129  0329                     u3791:
  3130  0329  2B66               	goto	l2490
  3131  032A                     u3790:
  3132  032A                     l2486:
  3133  032A  301D               	movlw	low (((conversion_newton@R_tab+28)-__stringbase)| (0+32768))
  3134  032B  0084               	movwf	4
  3135  032C  160A  118A  2000  120A  118A  	fcall	stringdir
  3136  0331  1683               	bsf	3,5	;RP0=1, select bank1
  3137  0332  1303               	bcf	3,6	;RP1=0, select bank1
  3138  0333  00A4               	movwf	??_conversion_newton^(0+128)
  3139  0334  160A  118A  2000  120A  118A  	fcall	stringdir
  3140  0339  00A5               	movwf	(??_conversion_newton^(0+128)+1)
  3141  033A  160A  118A  2000  120A  118A  	fcall	stringdir
  3142  033F  00A6               	movwf	(??_conversion_newton^(0+128)+2)
  3143  0340  160A  118A  2000  120A  118A  	fcall	stringdir
  3144  0345  00A7               	movwf	(??_conversion_newton^(0+128)+3)
  3145  0346  0827               	movf	(??_conversion_newton+3)^(0+128),w
  3146  0347  00F5               	movwf	___flge@ff1+3
  3147  0348  0826               	movf	(??_conversion_newton+2)^(0+128),w
  3148  0349  00F4               	movwf	___flge@ff1+2
  3149  034A  0825               	movf	(??_conversion_newton+1)^(0+128),w
  3150  034B  00F3               	movwf	___flge@ff1+1
  3151  034C  0824               	movf	??_conversion_newton^(0+128),w
  3152  034D  00F2               	movwf	___flge@ff1
  3153  034E  0823               	movf	(conversion_newton@Rc+3)^(0+128),w
  3154  034F  00F9               	movwf	___flge@ff2+3
  3155  0350  0822               	movf	(conversion_newton@Rc+2)^(0+128),w
  3156  0351  00F8               	movwf	___flge@ff2+2
  3157  0352  0821               	movf	(conversion_newton@Rc+1)^(0+128),w
  3158  0353  00F7               	movwf	___flge@ff2+1
  3159  0354  0820               	movf	conversion_newton@Rc^(0+128),w
  3160  0355  00F6               	movwf	___flge@ff2
  3161  0356  160A  118A  25AB  120A  118A  	fcall	___flge
  3162  035B  1803               	btfsc	3,0
  3163  035C  2B5E               	goto	u3801
  3164  035D  2B5F               	goto	u3800
  3165  035E                     u3801:
  3166  035E  2B66               	goto	l2490
  3167  035F                     u3800:
  3168  035F                     l2488:
  3169                           
  3170                           ;main.c: 190:          {;main.c: 191:          n = 7;
  3171  035F  3007               	movlw	7
  3172  0360  1683               	bsf	3,5	;RP0=1, select bank1
  3173  0361  1303               	bcf	3,6	;RP1=0, select bank1
  3174  0362  00C5               	movwf	conversion_newton@n^(0+128)
  3175  0363  3000               	movlw	0
  3176  0364  00C6               	movwf	(conversion_newton@n^(0+128)+1)
  3177                           
  3178                           ;main.c: 192:          }
  3179  0365  2C84               	goto	l2506
  3180  0366                     l2490:
  3181  0366  3025               	movlw	low (((conversion_newton@R_tab+36)-__stringbase)| (0+32768))
  3182  0367  0084               	movwf	4
  3183  0368  160A  118A  2000  120A  118A  	fcall	stringdir
  3184  036D  1683               	bsf	3,5	;RP0=1, select bank1
  3185  036E  1303               	bcf	3,6	;RP1=0, select bank1
  3186  036F  00A4               	movwf	??_conversion_newton^(0+128)
  3187  0370  160A  118A  2000  120A  118A  	fcall	stringdir
  3188  0375  00A5               	movwf	(??_conversion_newton^(0+128)+1)
  3189  0376  160A  118A  2000  120A  118A  	fcall	stringdir
  3190  037B  00A6               	movwf	(??_conversion_newton^(0+128)+2)
  3191  037C  160A  118A  2000  120A  118A  	fcall	stringdir
  3192  0381  00A7               	movwf	(??_conversion_newton^(0+128)+3)
  3193  0382  0827               	movf	(??_conversion_newton+3)^(0+128),w
  3194  0383  00F5               	movwf	___flge@ff1+3
  3195  0384  0826               	movf	(??_conversion_newton+2)^(0+128),w
  3196  0385  00F4               	movwf	___flge@ff1+2
  3197  0386  0825               	movf	(??_conversion_newton+1)^(0+128),w
  3198  0387  00F3               	movwf	___flge@ff1+1
  3199  0388  0824               	movf	??_conversion_newton^(0+128),w
  3200  0389  00F2               	movwf	___flge@ff1
  3201  038A  0823               	movf	(conversion_newton@Rc+3)^(0+128),w
  3202  038B  00F9               	movwf	___flge@ff2+3
  3203  038C  0822               	movf	(conversion_newton@Rc+2)^(0+128),w
  3204  038D  00F8               	movwf	___flge@ff2+2
  3205  038E  0821               	movf	(conversion_newton@Rc+1)^(0+128),w
  3206  038F  00F7               	movwf	___flge@ff2+1
  3207  0390  0820               	movf	conversion_newton@Rc^(0+128),w
  3208  0391  00F6               	movwf	___flge@ff2
  3209  0392  160A  118A  25AB  120A  118A  	fcall	___flge
  3210  0397  1C03               	btfss	3,0
  3211  0398  2B9A               	goto	u3811
  3212  0399  2B9B               	goto	u3810
  3213  039A                     u3811:
  3214  039A  2BD7               	goto	l2496
  3215  039B                     u3810:
  3216  039B                     l2492:
  3217  039B  3021               	movlw	low (((conversion_newton@R_tab+32)-__stringbase)| (0+32768))
  3218  039C  0084               	movwf	4
  3219  039D  160A  118A  2000  120A  118A  	fcall	stringdir
  3220  03A2  1683               	bsf	3,5	;RP0=1, select bank1
  3221  03A3  1303               	bcf	3,6	;RP1=0, select bank1
  3222  03A4  00A4               	movwf	??_conversion_newton^(0+128)
  3223  03A5  160A  118A  2000  120A  118A  	fcall	stringdir
  3224  03AA  00A5               	movwf	(??_conversion_newton^(0+128)+1)
  3225  03AB  160A  118A  2000  120A  118A  	fcall	stringdir
  3226  03B0  00A6               	movwf	(??_conversion_newton^(0+128)+2)
  3227  03B1  160A  118A  2000  120A  118A  	fcall	stringdir
  3228  03B6  00A7               	movwf	(??_conversion_newton^(0+128)+3)
  3229  03B7  0827               	movf	(??_conversion_newton+3)^(0+128),w
  3230  03B8  00F5               	movwf	___flge@ff1+3
  3231  03B9  0826               	movf	(??_conversion_newton+2)^(0+128),w
  3232  03BA  00F4               	movwf	___flge@ff1+2
  3233  03BB  0825               	movf	(??_conversion_newton+1)^(0+128),w
  3234  03BC  00F3               	movwf	___flge@ff1+1
  3235  03BD  0824               	movf	??_conversion_newton^(0+128),w
  3236  03BE  00F2               	movwf	___flge@ff1
  3237  03BF  0823               	movf	(conversion_newton@Rc+3)^(0+128),w
  3238  03C0  00F9               	movwf	___flge@ff2+3
  3239  03C1  0822               	movf	(conversion_newton@Rc+2)^(0+128),w
  3240  03C2  00F8               	movwf	___flge@ff2+2
  3241  03C3  0821               	movf	(conversion_newton@Rc+1)^(0+128),w
  3242  03C4  00F7               	movwf	___flge@ff2+1
  3243  03C5  0820               	movf	conversion_newton@Rc^(0+128),w
  3244  03C6  00F6               	movwf	___flge@ff2
  3245  03C7  160A  118A  25AB  120A  118A  	fcall	___flge
  3246  03CC  1803               	btfsc	3,0
  3247  03CD  2BCF               	goto	u3821
  3248  03CE  2BD0               	goto	u3820
  3249  03CF                     u3821:
  3250  03CF  2BD7               	goto	l2496
  3251  03D0                     u3820:
  3252  03D0                     l2494:
  3253                           
  3254                           ;main.c: 194:          {;main.c: 195:          n = 8;
  3255  03D0  3008               	movlw	8
  3256  03D1  1683               	bsf	3,5	;RP0=1, select bank1
  3257  03D2  1303               	bcf	3,6	;RP1=0, select bank1
  3258  03D3  00C5               	movwf	conversion_newton@n^(0+128)
  3259  03D4  3000               	movlw	0
  3260  03D5  00C6               	movwf	(conversion_newton@n^(0+128)+1)
  3261                           
  3262                           ;main.c: 196:          }
  3263  03D6  2C84               	goto	l2506
  3264  03D7                     l2496:
  3265  03D7  3029               	movlw	low (((conversion_newton@R_tab+40)-__stringbase)| (0+32768))
  3266  03D8  0084               	movwf	4
  3267  03D9  160A  118A  2000  120A  118A  	fcall	stringdir
  3268  03DE  1683               	bsf	3,5	;RP0=1, select bank1
  3269  03DF  1303               	bcf	3,6	;RP1=0, select bank1
  3270  03E0  00A4               	movwf	??_conversion_newton^(0+128)
  3271  03E1  160A  118A  2000  120A  118A  	fcall	stringdir
  3272  03E6  00A5               	movwf	(??_conversion_newton^(0+128)+1)
  3273  03E7  160A  118A  2000  120A  118A  	fcall	stringdir
  3274  03EC  00A6               	movwf	(??_conversion_newton^(0+128)+2)
  3275  03ED  160A  118A  2000  120A  118A  	fcall	stringdir
  3276  03F2  00A7               	movwf	(??_conversion_newton^(0+128)+3)
  3277  03F3  0827               	movf	(??_conversion_newton+3)^(0+128),w
  3278  03F4  00F5               	movwf	___flge@ff1+3
  3279  03F5  0826               	movf	(??_conversion_newton+2)^(0+128),w
  3280  03F6  00F4               	movwf	___flge@ff1+2
  3281  03F7  0825               	movf	(??_conversion_newton+1)^(0+128),w
  3282  03F8  00F3               	movwf	___flge@ff1+1
  3283  03F9  0824               	movf	??_conversion_newton^(0+128),w
  3284  03FA  00F2               	movwf	___flge@ff1
  3285  03FB  0823               	movf	(conversion_newton@Rc+3)^(0+128),w
  3286  03FC  00F9               	movwf	___flge@ff2+3
  3287  03FD  0822               	movf	(conversion_newton@Rc+2)^(0+128),w
  3288  03FE  00F8               	movwf	___flge@ff2+2
  3289  03FF  0821               	movf	(conversion_newton@Rc+1)^(0+128),w
  3290  0400  00F7               	movwf	___flge@ff2+1
  3291  0401  0820               	movf	conversion_newton@Rc^(0+128),w
  3292  0402  00F6               	movwf	___flge@ff2
  3293  0403  160A  118A  25AB  120A  118A  	fcall	___flge
  3294  0408  1C03               	btfss	3,0
  3295  0409  2C0B               	goto	u3831
  3296  040A  2C0C               	goto	u3830
  3297  040B                     u3831:
  3298  040B  2C48               	goto	l2502
  3299  040C                     u3830:
  3300  040C                     l2498:
  3301  040C  3025               	movlw	low (((conversion_newton@R_tab+36)-__stringbase)| (0+32768))
  3302  040D  0084               	movwf	4
  3303  040E  160A  118A  2000  120A  118A  	fcall	stringdir
  3304  0413  1683               	bsf	3,5	;RP0=1, select bank1
  3305  0414  1303               	bcf	3,6	;RP1=0, select bank1
  3306  0415  00A4               	movwf	??_conversion_newton^(0+128)
  3307  0416  160A  118A  2000  120A  118A  	fcall	stringdir
  3308  041B  00A5               	movwf	(??_conversion_newton^(0+128)+1)
  3309  041C  160A  118A  2000  120A  118A  	fcall	stringdir
  3310  0421  00A6               	movwf	(??_conversion_newton^(0+128)+2)
  3311  0422  160A  118A  2000  120A  118A  	fcall	stringdir
  3312  0427  00A7               	movwf	(??_conversion_newton^(0+128)+3)
  3313  0428  0827               	movf	(??_conversion_newton+3)^(0+128),w
  3314  0429  00F5               	movwf	___flge@ff1+3
  3315  042A  0826               	movf	(??_conversion_newton+2)^(0+128),w
  3316  042B  00F4               	movwf	___flge@ff1+2
  3317  042C  0825               	movf	(??_conversion_newton+1)^(0+128),w
  3318  042D  00F3               	movwf	___flge@ff1+1
  3319  042E  0824               	movf	??_conversion_newton^(0+128),w
  3320  042F  00F2               	movwf	___flge@ff1
  3321  0430  0823               	movf	(conversion_newton@Rc+3)^(0+128),w
  3322  0431  00F9               	movwf	___flge@ff2+3
  3323  0432  0822               	movf	(conversion_newton@Rc+2)^(0+128),w
  3324  0433  00F8               	movwf	___flge@ff2+2
  3325  0434  0821               	movf	(conversion_newton@Rc+1)^(0+128),w
  3326  0435  00F7               	movwf	___flge@ff2+1
  3327  0436  0820               	movf	conversion_newton@Rc^(0+128),w
  3328  0437  00F6               	movwf	___flge@ff2
  3329  0438  160A  118A  25AB  120A  118A  	fcall	___flge
  3330  043D  1803               	btfsc	3,0
  3331  043E  2C40               	goto	u3841
  3332  043F  2C41               	goto	u3840
  3333  0440                     u3841:
  3334  0440  2C48               	goto	l2502
  3335  0441                     u3840:
  3336  0441                     l2500:
  3337                           
  3338                           ;main.c: 198:          {;main.c: 199:          n = 9;
  3339  0441  3009               	movlw	9
  3340  0442  1683               	bsf	3,5	;RP0=1, select bank1
  3341  0443  1303               	bcf	3,6	;RP1=0, select bank1
  3342  0444  00C5               	movwf	conversion_newton@n^(0+128)
  3343  0445  3000               	movlw	0
  3344  0446  00C6               	movwf	(conversion_newton@n^(0+128)+1)
  3345                           
  3346                           ;main.c: 200:          }
  3347  0447  2C84               	goto	l2506
  3348  0448                     l2502:
  3349  0448  3029               	movlw	low (((conversion_newton@R_tab+40)-__stringbase)| (0+32768))
  3350  0449  0084               	movwf	4
  3351  044A  160A  118A  2000  120A  118A  	fcall	stringdir
  3352  044F  1683               	bsf	3,5	;RP0=1, select bank1
  3353  0450  1303               	bcf	3,6	;RP1=0, select bank1
  3354  0451  00A4               	movwf	??_conversion_newton^(0+128)
  3355  0452  160A  118A  2000  120A  118A  	fcall	stringdir
  3356  0457  00A5               	movwf	(??_conversion_newton^(0+128)+1)
  3357  0458  160A  118A  2000  120A  118A  	fcall	stringdir
  3358  045D  00A6               	movwf	(??_conversion_newton^(0+128)+2)
  3359  045E  160A  118A  2000  120A  118A  	fcall	stringdir
  3360  0463  00A7               	movwf	(??_conversion_newton^(0+128)+3)
  3361  0464  0827               	movf	(??_conversion_newton+3)^(0+128),w
  3362  0465  00F5               	movwf	___flge@ff1+3
  3363  0466  0826               	movf	(??_conversion_newton+2)^(0+128),w
  3364  0467  00F4               	movwf	___flge@ff1+2
  3365  0468  0825               	movf	(??_conversion_newton+1)^(0+128),w
  3366  0469  00F3               	movwf	___flge@ff1+1
  3367  046A  0824               	movf	??_conversion_newton^(0+128),w
  3368  046B  00F2               	movwf	___flge@ff1
  3369  046C  0823               	movf	(conversion_newton@Rc+3)^(0+128),w
  3370  046D  00F9               	movwf	___flge@ff2+3
  3371  046E  0822               	movf	(conversion_newton@Rc+2)^(0+128),w
  3372  046F  00F8               	movwf	___flge@ff2+2
  3373  0470  0821               	movf	(conversion_newton@Rc+1)^(0+128),w
  3374  0471  00F7               	movwf	___flge@ff2+1
  3375  0472  0820               	movf	conversion_newton@Rc^(0+128),w
  3376  0473  00F6               	movwf	___flge@ff2
  3377  0474  160A  118A  25AB  120A  118A  	fcall	___flge
  3378  0479  1803               	btfsc	3,0
  3379  047A  2C7C               	goto	u3851
  3380  047B  2C7D               	goto	u3850
  3381  047C                     u3851:
  3382  047C  2C84               	goto	l67
  3383  047D                     u3850:
  3384  047D                     l2504:
  3385                           
  3386                           ;main.c: 202:          {;main.c: 203:          n = 10;
  3387  047D  300A               	movlw	10
  3388  047E  1683               	bsf	3,5	;RP0=1, select bank1
  3389  047F  1303               	bcf	3,6	;RP1=0, select bank1
  3390  0480  00C5               	movwf	conversion_newton@n^(0+128)
  3391  0481  3000               	movlw	0
  3392  0482  00C6               	movwf	(conversion_newton@n^(0+128)+1)
  3393  0483  2C84               	goto	l2506
  3394  0484                     l67:
  3395  0484                     l2506:
  3396                           
  3397                           ;main.c: 205:      F = (((F_tab[n]-F_tab[n+1])/(R_tab[n+1]-R_tab[n]))*(Rc-R_tab[n]))+F_t
      +                          ab[n];
  3398  0484  1683               	bsf	3,5	;RP0=1, select bank1
  3399  0485  1303               	bcf	3,6	;RP1=0, select bank1
  3400  0486  0845               	movf	conversion_newton@n^(0+128),w
  3401  0487  00A4               	movwf	??_conversion_newton^(0+128)
  3402  0488  3001               	movlw	1
  3403  0489                     u3865:
  3404  0489  1003               	clrc
  3405  048A  0DA4               	rlf	??_conversion_newton^(0+128),f
  3406  048B  3EFF               	addlw	-1
  3407  048C  1D03               	skipz
  3408  048D  2C89               	goto	u3865
  3409  048E  1003               	clrc
  3410  048F  0D24               	rlf	??_conversion_newton^(0+128),w
  3411  0490  3E01               	addlw	low ((conversion_newton@R_tab-__stringbase)| (0+32768))
  3412  0491  0084               	movwf	4
  3413  0492  160A  118A  2000  120A  118A  	fcall	stringdir
  3414  0497  00A5               	movwf	(??_conversion_newton+1)^(0+128)
  3415  0498  160A  118A  2000  120A  118A  	fcall	stringdir
  3416  049D  00A6               	movwf	((??_conversion_newton+1)^(0+128)+1)
  3417  049E  160A  118A  2000  120A  118A  	fcall	stringdir
  3418  04A3  00A7               	movwf	((??_conversion_newton+1)^(0+128)+2)
  3419  04A4  160A  118A  2000  120A  118A  	fcall	stringdir
  3420  04A9  00A8               	movwf	((??_conversion_newton+1)^(0+128)+3)
  3421  04AA  0828               	movf	(??_conversion_newton+4)^(0+128),w
  3422  04AB  1283               	bcf	3,5	;RP0=0, select bank0
  3423  04AC  1303               	bcf	3,6	;RP1=0, select bank0
  3424  04AD  00B7               	movwf	___flsub@a+3
  3425  04AE  1683               	bsf	3,5	;RP0=1, select bank1
  3426  04AF  1303               	bcf	3,6	;RP1=0, select bank1
  3427  04B0  0827               	movf	(??_conversion_newton+3)^(0+128),w
  3428  04B1  1283               	bcf	3,5	;RP0=0, select bank0
  3429  04B2  1303               	bcf	3,6	;RP1=0, select bank0
  3430  04B3  00B6               	movwf	___flsub@a+2
  3431  04B4  1683               	bsf	3,5	;RP0=1, select bank1
  3432  04B5  1303               	bcf	3,6	;RP1=0, select bank1
  3433  04B6  0826               	movf	(??_conversion_newton+2)^(0+128),w
  3434  04B7  1283               	bcf	3,5	;RP0=0, select bank0
  3435  04B8  1303               	bcf	3,6	;RP1=0, select bank0
  3436  04B9  00B5               	movwf	___flsub@a+1
  3437  04BA  1683               	bsf	3,5	;RP0=1, select bank1
  3438  04BB  1303               	bcf	3,6	;RP1=0, select bank1
  3439  04BC  0825               	movf	(??_conversion_newton+1)^(0+128),w
  3440  04BD  1283               	bcf	3,5	;RP0=0, select bank0
  3441  04BE  1303               	bcf	3,6	;RP1=0, select bank0
  3442  04BF  00B4               	movwf	___flsub@a
  3443  04C0  1683               	bsf	3,5	;RP0=1, select bank1
  3444  04C1  1303               	bcf	3,6	;RP1=0, select bank1
  3445  04C2  0823               	movf	(conversion_newton@Rc+3)^(0+128),w
  3446  04C3  1283               	bcf	3,5	;RP0=0, select bank0
  3447  04C4  1303               	bcf	3,6	;RP1=0, select bank0
  3448  04C5  00BB               	movwf	___flsub@b+3
  3449  04C6  1683               	bsf	3,5	;RP0=1, select bank1
  3450  04C7  1303               	bcf	3,6	;RP1=0, select bank1
  3451  04C8  0822               	movf	(conversion_newton@Rc+2)^(0+128),w
  3452  04C9  1283               	bcf	3,5	;RP0=0, select bank0
  3453  04CA  1303               	bcf	3,6	;RP1=0, select bank0
  3454  04CB  00BA               	movwf	___flsub@b+2
  3455  04CC  1683               	bsf	3,5	;RP0=1, select bank1
  3456  04CD  1303               	bcf	3,6	;RP1=0, select bank1
  3457  04CE  0821               	movf	(conversion_newton@Rc+1)^(0+128),w
  3458  04CF  1283               	bcf	3,5	;RP0=0, select bank0
  3459  04D0  1303               	bcf	3,6	;RP1=0, select bank0
  3460  04D1  00B9               	movwf	___flsub@b+1
  3461  04D2  1683               	bsf	3,5	;RP0=1, select bank1
  3462  04D3  1303               	bcf	3,6	;RP1=0, select bank1
  3463  04D4  0820               	movf	conversion_newton@Rc^(0+128),w
  3464  04D5  1283               	bcf	3,5	;RP0=0, select bank0
  3465  04D6  1303               	bcf	3,6	;RP1=0, select bank0
  3466  04D7  00B8               	movwf	___flsub@b
  3467  04D8  160A  118A  22FC  120A  118A  	fcall	___flsub
  3468  04DD  1283               	bcf	3,5	;RP0=0, select bank0
  3469  04DE  1303               	bcf	3,6	;RP1=0, select bank0
  3470  04DF  0837               	movf	?___flsub+3,w
  3471  04E0  00D9               	movwf	___flmul@b+3
  3472  04E1  0836               	movf	?___flsub+2,w
  3473  04E2  00D8               	movwf	___flmul@b+2
  3474  04E3  0835               	movf	?___flsub+1,w
  3475  04E4  00D7               	movwf	___flmul@b+1
  3476  04E5  0834               	movf	?___flsub,w
  3477  04E6  00D6               	movwf	___flmul@b
  3478  04E7  1683               	bsf	3,5	;RP0=1, select bank1
  3479  04E8  1303               	bcf	3,6	;RP1=0, select bank1
  3480  04E9  0845               	movf	conversion_newton@n^(0+128),w
  3481  04EA  00A9               	movwf	(??_conversion_newton+5)^(0+128)
  3482  04EB  3001               	movlw	1
  3483  04EC                     u3875:
  3484  04EC  1003               	clrc
  3485  04ED  0DA9               	rlf	(??_conversion_newton+5)^(0+128),f
  3486  04EE  3EFF               	addlw	-1
  3487  04EF  1D03               	skipz
  3488  04F0  2CEC               	goto	u3875
  3489  04F1  1003               	clrc
  3490  04F2  0D29               	rlf	(??_conversion_newton+5)^(0+128),w
  3491  04F3  3E01               	addlw	low ((conversion_newton@R_tab-__stringbase)| (0+32768))
  3492  04F4  0084               	movwf	4
  3493  04F5  160A  118A  2000  120A  118A  	fcall	stringdir
  3494  04FA  00AA               	movwf	(??_conversion_newton+6)^(0+128)
  3495  04FB  160A  118A  2000  120A  118A  	fcall	stringdir
  3496  0500  00AB               	movwf	((??_conversion_newton+6)^(0+128)+1)
  3497  0501  160A  118A  2000  120A  118A  	fcall	stringdir
  3498  0506  00AC               	movwf	((??_conversion_newton+6)^(0+128)+2)
  3499  0507  160A  118A  2000  120A  118A  	fcall	stringdir
  3500  050C  00AD               	movwf	((??_conversion_newton+6)^(0+128)+3)
  3501  050D  082D               	movf	(??_conversion_newton+9)^(0+128),w
  3502  050E  1283               	bcf	3,5	;RP0=0, select bank0
  3503  050F  1303               	bcf	3,6	;RP1=0, select bank0
  3504  0510  00B7               	movwf	___flsub@a+3
  3505  0511  1683               	bsf	3,5	;RP0=1, select bank1
  3506  0512  1303               	bcf	3,6	;RP1=0, select bank1
  3507  0513  082C               	movf	(??_conversion_newton+8)^(0+128),w
  3508  0514  1283               	bcf	3,5	;RP0=0, select bank0
  3509  0515  1303               	bcf	3,6	;RP1=0, select bank0
  3510  0516  00B6               	movwf	___flsub@a+2
  3511  0517  1683               	bsf	3,5	;RP0=1, select bank1
  3512  0518  1303               	bcf	3,6	;RP1=0, select bank1
  3513  0519  082B               	movf	(??_conversion_newton+7)^(0+128),w
  3514  051A  1283               	bcf	3,5	;RP0=0, select bank0
  3515  051B  1303               	bcf	3,6	;RP1=0, select bank0
  3516  051C  00B5               	movwf	___flsub@a+1
  3517  051D  1683               	bsf	3,5	;RP0=1, select bank1
  3518  051E  1303               	bcf	3,6	;RP1=0, select bank1
  3519  051F  082A               	movf	(??_conversion_newton+6)^(0+128),w
  3520  0520  1283               	bcf	3,5	;RP0=0, select bank0
  3521  0521  1303               	bcf	3,6	;RP1=0, select bank0
  3522  0522  00B4               	movwf	___flsub@a
  3523  0523  1683               	bsf	3,5	;RP0=1, select bank1
  3524  0524  1303               	bcf	3,6	;RP1=0, select bank1
  3525  0525  0845               	movf	conversion_newton@n^(0+128),w
  3526  0526  00AE               	movwf	(??_conversion_newton+10)^(0+128)
  3527  0527  3001               	movlw	1
  3528  0528                     u3885:
  3529  0528  1003               	clrc
  3530  0529  0DAE               	rlf	(??_conversion_newton+10)^(0+128),f
  3531  052A  3EFF               	addlw	-1
  3532  052B  1D03               	skipz
  3533  052C  2D28               	goto	u3885
  3534  052D  1003               	clrc
  3535  052E  0D2E               	rlf	(??_conversion_newton+10)^(0+128),w
  3536  052F  3E05               	addlw	low (((conversion_newton@R_tab-__stringbase)| (0+32768)+4))
  3537  0530  0084               	movwf	4
  3538  0531  160A  118A  2000  120A  118A  	fcall	stringdir
  3539  0536  00AF               	movwf	(??_conversion_newton+11)^(0+128)
  3540  0537  160A  118A  2000  120A  118A  	fcall	stringdir
  3541  053C  00B0               	movwf	((??_conversion_newton+11)^(0+128)+1)
  3542  053D  160A  118A  2000  120A  118A  	fcall	stringdir
  3543  0542  00B1               	movwf	((??_conversion_newton+11)^(0+128)+2)
  3544  0543  160A  118A  2000  120A  118A  	fcall	stringdir
  3545  0548  00B2               	movwf	((??_conversion_newton+11)^(0+128)+3)
  3546  0549  0832               	movf	(??_conversion_newton+14)^(0+128),w
  3547  054A  1283               	bcf	3,5	;RP0=0, select bank0
  3548  054B  1303               	bcf	3,6	;RP1=0, select bank0
  3549  054C  00BB               	movwf	___flsub@b+3
  3550  054D  1683               	bsf	3,5	;RP0=1, select bank1
  3551  054E  1303               	bcf	3,6	;RP1=0, select bank1
  3552  054F  0831               	movf	(??_conversion_newton+13)^(0+128),w
  3553  0550  1283               	bcf	3,5	;RP0=0, select bank0
  3554  0551  1303               	bcf	3,6	;RP1=0, select bank0
  3555  0552  00BA               	movwf	___flsub@b+2
  3556  0553  1683               	bsf	3,5	;RP0=1, select bank1
  3557  0554  1303               	bcf	3,6	;RP1=0, select bank1
  3558  0555  0830               	movf	(??_conversion_newton+12)^(0+128),w
  3559  0556  1283               	bcf	3,5	;RP0=0, select bank0
  3560  0557  1303               	bcf	3,6	;RP1=0, select bank0
  3561  0558  00B9               	movwf	___flsub@b+1
  3562  0559  1683               	bsf	3,5	;RP0=1, select bank1
  3563  055A  1303               	bcf	3,6	;RP1=0, select bank1
  3564  055B  082F               	movf	(??_conversion_newton+11)^(0+128),w
  3565  055C  1283               	bcf	3,5	;RP0=0, select bank0
  3566  055D  1303               	bcf	3,6	;RP1=0, select bank0
  3567  055E  00B8               	movwf	___flsub@b
  3568  055F  160A  118A  22FC  120A  118A  	fcall	___flsub
  3569  0564  1283               	bcf	3,5	;RP0=0, select bank0
  3570  0565  1303               	bcf	3,6	;RP1=0, select bank0
  3571  0566  0837               	movf	?___flsub+3,w
  3572  0567  00BF               	movwf	___fldiv@a+3
  3573  0568  0836               	movf	?___flsub+2,w
  3574  0569  00BE               	movwf	___fldiv@a+2
  3575  056A  0835               	movf	?___flsub+1,w
  3576  056B  00BD               	movwf	___fldiv@a+1
  3577  056C  0834               	movf	?___flsub,w
  3578  056D  00BC               	movwf	___fldiv@a
  3579  056E  1683               	bsf	3,5	;RP0=1, select bank1
  3580  056F  1303               	bcf	3,6	;RP1=0, select bank1
  3581  0570  0845               	movf	conversion_newton@n^(0+128),w
  3582  0571  00B3               	movwf	(??_conversion_newton+15)^(0+128)
  3583  0572  3001               	movlw	1
  3584  0573                     u3895:
  3585  0573  1003               	clrc
  3586  0574  0DB3               	rlf	(??_conversion_newton+15)^(0+128),f
  3587  0575  3EFF               	addlw	-1
  3588  0576  1D03               	skipz
  3589  0577  2D73               	goto	u3895
  3590  0578  1003               	clrc
  3591  0579  0D33               	rlf	(??_conversion_newton+15)^(0+128),w
  3592  057A  3E55               	addlw	low (((conversion_newton@F_tab-__stringbase)| (0+32768)+4))
  3593  057B  0084               	movwf	4
  3594  057C  160A  118A  2000  120A  118A  	fcall	stringdir
  3595  0581  00B4               	movwf	(??_conversion_newton+16)^(0+128)
  3596  0582  160A  118A  2000  120A  118A  	fcall	stringdir
  3597  0587  00B5               	movwf	((??_conversion_newton+16)^(0+128)+1)
  3598  0588  160A  118A  2000  120A  118A  	fcall	stringdir
  3599  058D  00B6               	movwf	((??_conversion_newton+16)^(0+128)+2)
  3600  058E  160A  118A  2000  120A  118A  	fcall	stringdir
  3601  0593  00B7               	movwf	((??_conversion_newton+16)^(0+128)+3)
  3602  0594  0837               	movf	(??_conversion_newton+19)^(0+128),w
  3603  0595  1283               	bcf	3,5	;RP0=0, select bank0
  3604  0596  1303               	bcf	3,6	;RP1=0, select bank0
  3605  0597  00B7               	movwf	___flsub@a+3
  3606  0598  1683               	bsf	3,5	;RP0=1, select bank1
  3607  0599  1303               	bcf	3,6	;RP1=0, select bank1
  3608  059A  0836               	movf	(??_conversion_newton+18)^(0+128),w
  3609  059B  1283               	bcf	3,5	;RP0=0, select bank0
  3610  059C  1303               	bcf	3,6	;RP1=0, select bank0
  3611  059D  00B6               	movwf	___flsub@a+2
  3612  059E  1683               	bsf	3,5	;RP0=1, select bank1
  3613  059F  1303               	bcf	3,6	;RP1=0, select bank1
  3614  05A0  0835               	movf	(??_conversion_newton+17)^(0+128),w
  3615  05A1  1283               	bcf	3,5	;RP0=0, select bank0
  3616  05A2  1303               	bcf	3,6	;RP1=0, select bank0
  3617  05A3  00B5               	movwf	___flsub@a+1
  3618  05A4  1683               	bsf	3,5	;RP0=1, select bank1
  3619  05A5  1303               	bcf	3,6	;RP1=0, select bank1
  3620  05A6  0834               	movf	(??_conversion_newton+16)^(0+128),w
  3621  05A7  1283               	bcf	3,5	;RP0=0, select bank0
  3622  05A8  1303               	bcf	3,6	;RP1=0, select bank0
  3623  05A9  00B4               	movwf	___flsub@a
  3624  05AA  1683               	bsf	3,5	;RP0=1, select bank1
  3625  05AB  1303               	bcf	3,6	;RP1=0, select bank1
  3626  05AC  0845               	movf	conversion_newton@n^(0+128),w
  3627  05AD  00B8               	movwf	(??_conversion_newton+20)^(0+128)
  3628  05AE  3001               	movlw	1
  3629  05AF                     u3905:
  3630  05AF  1003               	clrc
  3631  05B0  0DB8               	rlf	(??_conversion_newton+20)^(0+128),f
  3632  05B1  3EFF               	addlw	-1
  3633  05B2  1D03               	skipz
  3634  05B3  2DAF               	goto	u3905
  3635  05B4  1003               	clrc
  3636  05B5  0D38               	rlf	(??_conversion_newton+20)^(0+128),w
  3637  05B6  3E51               	addlw	low ((conversion_newton@F_tab-__stringbase)| (0+32768))
  3638  05B7  0084               	movwf	4
  3639  05B8  160A  118A  2000  120A  118A  	fcall	stringdir
  3640  05BD  00B9               	movwf	(??_conversion_newton+21)^(0+128)
  3641  05BE  160A  118A  2000  120A  118A  	fcall	stringdir
  3642  05C3  00BA               	movwf	((??_conversion_newton+21)^(0+128)+1)
  3643  05C4  160A  118A  2000  120A  118A  	fcall	stringdir
  3644  05C9  00BB               	movwf	((??_conversion_newton+21)^(0+128)+2)
  3645  05CA  160A  118A  2000  120A  118A  	fcall	stringdir
  3646  05CF  00BC               	movwf	((??_conversion_newton+21)^(0+128)+3)
  3647  05D0  083C               	movf	(??_conversion_newton+24)^(0+128),w
  3648  05D1  1283               	bcf	3,5	;RP0=0, select bank0
  3649  05D2  1303               	bcf	3,6	;RP1=0, select bank0
  3650  05D3  00BB               	movwf	___flsub@b+3
  3651  05D4  1683               	bsf	3,5	;RP0=1, select bank1
  3652  05D5  1303               	bcf	3,6	;RP1=0, select bank1
  3653  05D6  083B               	movf	(??_conversion_newton+23)^(0+128),w
  3654  05D7  1283               	bcf	3,5	;RP0=0, select bank0
  3655  05D8  1303               	bcf	3,6	;RP1=0, select bank0
  3656  05D9  00BA               	movwf	___flsub@b+2
  3657  05DA  1683               	bsf	3,5	;RP0=1, select bank1
  3658  05DB  1303               	bcf	3,6	;RP1=0, select bank1
  3659  05DC  083A               	movf	(??_conversion_newton+22)^(0+128),w
  3660  05DD  1283               	bcf	3,5	;RP0=0, select bank0
  3661  05DE  1303               	bcf	3,6	;RP1=0, select bank0
  3662  05DF  00B9               	movwf	___flsub@b+1
  3663  05E0  1683               	bsf	3,5	;RP0=1, select bank1
  3664  05E1  1303               	bcf	3,6	;RP1=0, select bank1
  3665  05E2  0839               	movf	(??_conversion_newton+21)^(0+128),w
  3666  05E3  1283               	bcf	3,5	;RP0=0, select bank0
  3667  05E4  1303               	bcf	3,6	;RP1=0, select bank0
  3668  05E5  00B8               	movwf	___flsub@b
  3669  05E6  160A  118A  22FC  120A  118A  	fcall	___flsub
  3670  05EB  1283               	bcf	3,5	;RP0=0, select bank0
  3671  05EC  1303               	bcf	3,6	;RP1=0, select bank0
  3672  05ED  0837               	movf	?___flsub+3,w
  3673  05EE  00C3               	movwf	___fldiv@b+3
  3674  05EF  0836               	movf	?___flsub+2,w
  3675  05F0  00C2               	movwf	___fldiv@b+2
  3676  05F1  0835               	movf	?___flsub+1,w
  3677  05F2  00C1               	movwf	___fldiv@b+1
  3678  05F3  0834               	movf	?___flsub,w
  3679  05F4  00C0               	movwf	___fldiv@b
  3680  05F5  120A  158A  203A  120A  118A  	fcall	___fldiv
  3681  05FA  1283               	bcf	3,5	;RP0=0, select bank0
  3682  05FB  1303               	bcf	3,6	;RP1=0, select bank0
  3683  05FC  083F               	movf	?___fldiv+3,w
  3684  05FD  00DD               	movwf	___flmul@a+3
  3685  05FE  083E               	movf	?___fldiv+2,w
  3686  05FF  00DC               	movwf	___flmul@a+2
  3687  0600  083D               	movf	?___fldiv+1,w
  3688  0601  00DB               	movwf	___flmul@a+1
  3689  0602  083C               	movf	?___fldiv,w
  3690  0603  00DA               	movwf	___flmul@a
  3691  0604  120A  158A  249F  120A  118A  	fcall	___flmul
  3692  0609  1283               	bcf	3,5	;RP0=0, select bank0
  3693  060A  1303               	bcf	3,6	;RP1=0, select bank0
  3694  060B  0859               	movf	?___flmul+3,w
  3695  060C  1683               	bsf	3,5	;RP0=1, select bank1
  3696  060D  1303               	bcf	3,6	;RP1=0, select bank1
  3697  060E  00C0               	movwf	(_conversion_newton$791+3)^(0+128)
  3698  060F  1283               	bcf	3,5	;RP0=0, select bank0
  3699  0610  1303               	bcf	3,6	;RP1=0, select bank0
  3700  0611  0858               	movf	?___flmul+2,w
  3701  0612  1683               	bsf	3,5	;RP0=1, select bank1
  3702  0613  1303               	bcf	3,6	;RP1=0, select bank1
  3703  0614  00BF               	movwf	(_conversion_newton$791+2)^(0+128)
  3704  0615  1283               	bcf	3,5	;RP0=0, select bank0
  3705  0616  1303               	bcf	3,6	;RP1=0, select bank0
  3706  0617  0857               	movf	?___flmul+1,w
  3707  0618  1683               	bsf	3,5	;RP0=1, select bank1
  3708  0619  1303               	bcf	3,6	;RP1=0, select bank1
  3709  061A  00BE               	movwf	(_conversion_newton$791+1)^(0+128)
  3710  061B  1283               	bcf	3,5	;RP0=0, select bank0
  3711  061C  1303               	bcf	3,6	;RP1=0, select bank0
  3712  061D  0856               	movf	?___flmul,w
  3713  061E  1683               	bsf	3,5	;RP0=1, select bank1
  3714  061F  1303               	bcf	3,6	;RP1=0, select bank1
  3715  0620  00BD               	movwf	_conversion_newton$791^(0+128)
  3716  0621                     l2508:
  3717                           
  3718                           ;main.c: 205:      F = (((F_tab[n]-F_tab[n+1])/(R_tab[n+1]-R_tab[n]))*(Rc-R_tab[n]))+F_t
      +                          ab[n];
  3719  0621  0845               	movf	conversion_newton@n^(0+128),w
  3720  0622  00A4               	movwf	??_conversion_newton^(0+128)
  3721  0623  3001               	movlw	1
  3722  0624                     u3915:
  3723  0624  1003               	clrc
  3724  0625  0DA4               	rlf	??_conversion_newton^(0+128),f
  3725  0626  3EFF               	addlw	-1
  3726  0627  1D03               	skipz
  3727  0628  2E24               	goto	u3915
  3728  0629  1003               	clrc
  3729  062A  0D24               	rlf	??_conversion_newton^(0+128),w
  3730  062B  3E51               	addlw	low ((conversion_newton@F_tab-__stringbase)| (0+32768))
  3731  062C  0084               	movwf	4
  3732  062D  160A  118A  2000  120A  118A  	fcall	stringdir
  3733  0632  00A5               	movwf	(??_conversion_newton+1)^(0+128)
  3734  0633  160A  118A  2000  120A  118A  	fcall	stringdir
  3735  0638  00A6               	movwf	((??_conversion_newton+1)^(0+128)+1)
  3736  0639  160A  118A  2000  120A  118A  	fcall	stringdir
  3737  063E  00A7               	movwf	((??_conversion_newton+1)^(0+128)+2)
  3738  063F  160A  118A  2000  120A  118A  	fcall	stringdir
  3739  0644  00A8               	movwf	((??_conversion_newton+1)^(0+128)+3)
  3740  0645  0828               	movf	(??_conversion_newton+4)^(0+128),w
  3741  0646  1283               	bcf	3,5	;RP0=0, select bank0
  3742  0647  1303               	bcf	3,6	;RP1=0, select bank0
  3743  0648  00A3               	movwf	___fladd@b+3
  3744  0649  1683               	bsf	3,5	;RP0=1, select bank1
  3745  064A  1303               	bcf	3,6	;RP1=0, select bank1
  3746  064B  0827               	movf	(??_conversion_newton+3)^(0+128),w
  3747  064C  1283               	bcf	3,5	;RP0=0, select bank0
  3748  064D  1303               	bcf	3,6	;RP1=0, select bank0
  3749  064E  00A2               	movwf	___fladd@b+2
  3750  064F  1683               	bsf	3,5	;RP0=1, select bank1
  3751  0650  1303               	bcf	3,6	;RP1=0, select bank1
  3752  0651  0826               	movf	(??_conversion_newton+2)^(0+128),w
  3753  0652  1283               	bcf	3,5	;RP0=0, select bank0
  3754  0653  1303               	bcf	3,6	;RP1=0, select bank0
  3755  0654  00A1               	movwf	___fladd@b+1
  3756  0655  1683               	bsf	3,5	;RP0=1, select bank1
  3757  0656  1303               	bcf	3,6	;RP1=0, select bank1
  3758  0657  0825               	movf	(??_conversion_newton+1)^(0+128),w
  3759  0658  1283               	bcf	3,5	;RP0=0, select bank0
  3760  0659  1303               	bcf	3,6	;RP1=0, select bank0
  3761  065A  00A0               	movwf	___fladd@b
  3762  065B  1683               	bsf	3,5	;RP0=1, select bank1
  3763  065C  1303               	bcf	3,6	;RP1=0, select bank1
  3764  065D  0840               	movf	(_conversion_newton$791+3)^(0+128),w
  3765  065E  1283               	bcf	3,5	;RP0=0, select bank0
  3766  065F  1303               	bcf	3,6	;RP1=0, select bank0
  3767  0660  00A7               	movwf	___fladd@a+3
  3768  0661  1683               	bsf	3,5	;RP0=1, select bank1
  3769  0662  1303               	bcf	3,6	;RP1=0, select bank1
  3770  0663  083F               	movf	(_conversion_newton$791+2)^(0+128),w
  3771  0664  1283               	bcf	3,5	;RP0=0, select bank0
  3772  0665  1303               	bcf	3,6	;RP1=0, select bank0
  3773  0666  00A6               	movwf	___fladd@a+2
  3774  0667  1683               	bsf	3,5	;RP0=1, select bank1
  3775  0668  1303               	bcf	3,6	;RP1=0, select bank1
  3776  0669  083E               	movf	(_conversion_newton$791+1)^(0+128),w
  3777  066A  1283               	bcf	3,5	;RP0=0, select bank0
  3778  066B  1303               	bcf	3,6	;RP1=0, select bank0
  3779  066C  00A5               	movwf	___fladd@a+1
  3780  066D  1683               	bsf	3,5	;RP0=1, select bank1
  3781  066E  1303               	bcf	3,6	;RP1=0, select bank1
  3782  066F  083D               	movf	_conversion_newton$791^(0+128),w
  3783  0670  1283               	bcf	3,5	;RP0=0, select bank0
  3784  0671  1303               	bcf	3,6	;RP1=0, select bank0
  3785  0672  00A4               	movwf	___fladd@a
  3786  0673  120A  158A  2217  120A  118A  	fcall	___fladd
  3787  0678  1283               	bcf	3,5	;RP0=0, select bank0
  3788  0679  1303               	bcf	3,6	;RP1=0, select bank0
  3789  067A  0823               	movf	?___fladd+3,w
  3790  067B  1683               	bsf	3,5	;RP0=1, select bank1
  3791  067C  1303               	bcf	3,6	;RP1=0, select bank1
  3792  067D  00C4               	movwf	(conversion_newton@F+3)^(0+128)
  3793  067E  1283               	bcf	3,5	;RP0=0, select bank0
  3794  067F  1303               	bcf	3,6	;RP1=0, select bank0
  3795  0680  0822               	movf	?___fladd+2,w
  3796  0681  1683               	bsf	3,5	;RP0=1, select bank1
  3797  0682  1303               	bcf	3,6	;RP1=0, select bank1
  3798  0683  00C3               	movwf	(conversion_newton@F+2)^(0+128)
  3799  0684  1283               	bcf	3,5	;RP0=0, select bank0
  3800  0685  1303               	bcf	3,6	;RP1=0, select bank0
  3801  0686  0821               	movf	?___fladd+1,w
  3802  0687  1683               	bsf	3,5	;RP0=1, select bank1
  3803  0688  1303               	bcf	3,6	;RP1=0, select bank1
  3804  0689  00C2               	movwf	(conversion_newton@F+1)^(0+128)
  3805  068A  1283               	bcf	3,5	;RP0=0, select bank0
  3806  068B  1303               	bcf	3,6	;RP1=0, select bank0
  3807  068C  0820               	movf	?___fladd,w
  3808  068D  1683               	bsf	3,5	;RP0=1, select bank1
  3809  068E  1303               	bcf	3,6	;RP1=0, select bank1
  3810  068F  00C1               	movwf	conversion_newton@F^(0+128)
  3811  0690                     l2510:
  3812                           
  3813                           ;main.c: 208:      if (Rc <= R_tab[10])
  3814  0690  3029               	movlw	low (((conversion_newton@R_tab+40)-__stringbase)| (0+32768))
  3815  0691  0084               	movwf	4
  3816  0692  160A  118A  2000  120A  118A  	fcall	stringdir
  3817  0697  00A4               	movwf	??_conversion_newton^(0+128)
  3818  0698  160A  118A  2000  120A  118A  	fcall	stringdir
  3819  069D  00A5               	movwf	(??_conversion_newton^(0+128)+1)
  3820  069E  160A  118A  2000  120A  118A  	fcall	stringdir
  3821  06A3  00A6               	movwf	(??_conversion_newton^(0+128)+2)
  3822  06A4  160A  118A  2000  120A  118A  	fcall	stringdir
  3823  06A9  00A7               	movwf	(??_conversion_newton^(0+128)+3)
  3824  06AA  0827               	movf	(??_conversion_newton+3)^(0+128),w
  3825  06AB  00F5               	movwf	___flge@ff1+3
  3826  06AC  0826               	movf	(??_conversion_newton+2)^(0+128),w
  3827  06AD  00F4               	movwf	___flge@ff1+2
  3828  06AE  0825               	movf	(??_conversion_newton+1)^(0+128),w
  3829  06AF  00F3               	movwf	___flge@ff1+1
  3830  06B0  0824               	movf	??_conversion_newton^(0+128),w
  3831  06B1  00F2               	movwf	___flge@ff1
  3832  06B2  0823               	movf	(conversion_newton@Rc+3)^(0+128),w
  3833  06B3  00F9               	movwf	___flge@ff2+3
  3834  06B4  0822               	movf	(conversion_newton@Rc+2)^(0+128),w
  3835  06B5  00F8               	movwf	___flge@ff2+2
  3836  06B6  0821               	movf	(conversion_newton@Rc+1)^(0+128),w
  3837  06B7  00F7               	movwf	___flge@ff2+1
  3838  06B8  0820               	movf	conversion_newton@Rc^(0+128),w
  3839  06B9  00F6               	movwf	___flge@ff2
  3840  06BA  160A  118A  25AB  120A  118A  	fcall	___flge
  3841  06BF  1C03               	btfss	3,0
  3842  06C0  2EC2               	goto	u3921
  3843  06C1  2EC3               	goto	u3920
  3844  06C2                     u3921:
  3845  06C2  2ECD               	goto	l2514
  3846  06C3                     u3920:
  3847  06C3                     l2512:
  3848                           
  3849                           ;main.c: 209:          {;main.c: 210:          F = 70;
  3850  06C3  3042               	movlw	66
  3851  06C4  1683               	bsf	3,5	;RP0=1, select bank1
  3852  06C5  1303               	bcf	3,6	;RP1=0, select bank1
  3853  06C6  00C4               	movwf	(conversion_newton@F+3)^(0+128)
  3854  06C7  308C               	movlw	140
  3855  06C8  00C3               	movwf	(conversion_newton@F+2)^(0+128)
  3856  06C9  3000               	movlw	0
  3857  06CA  00C2               	movwf	(conversion_newton@F+1)^(0+128)
  3858  06CB  3000               	movlw	0
  3859  06CC  00C1               	movwf	conversion_newton@F^(0+128)
  3860  06CD                     l2514:
  3861                           
  3862                           ;main.c: 212:      if (Rc > R_tab[10])
  3863  06CD  3029               	movlw	low (((conversion_newton@R_tab+40)-__stringbase)| (0+32768))
  3864  06CE  0084               	movwf	4
  3865  06CF  160A  118A  2000  120A  118A  	fcall	stringdir
  3866  06D4  1683               	bsf	3,5	;RP0=1, select bank1
  3867  06D5  1303               	bcf	3,6	;RP1=0, select bank1
  3868  06D6  00A4               	movwf	??_conversion_newton^(0+128)
  3869  06D7  160A  118A  2000  120A  118A  	fcall	stringdir
  3870  06DC  00A5               	movwf	(??_conversion_newton^(0+128)+1)
  3871  06DD  160A  118A  2000  120A  118A  	fcall	stringdir
  3872  06E2  00A6               	movwf	(??_conversion_newton^(0+128)+2)
  3873  06E3  160A  118A  2000  120A  118A  	fcall	stringdir
  3874  06E8  00A7               	movwf	(??_conversion_newton^(0+128)+3)
  3875  06E9  0827               	movf	(??_conversion_newton+3)^(0+128),w
  3876  06EA  00F5               	movwf	___flge@ff1+3
  3877  06EB  0826               	movf	(??_conversion_newton+2)^(0+128),w
  3878  06EC  00F4               	movwf	___flge@ff1+2
  3879  06ED  0825               	movf	(??_conversion_newton+1)^(0+128),w
  3880  06EE  00F3               	movwf	___flge@ff1+1
  3881  06EF  0824               	movf	??_conversion_newton^(0+128),w
  3882  06F0  00F2               	movwf	___flge@ff1
  3883  06F1  0823               	movf	(conversion_newton@Rc+3)^(0+128),w
  3884  06F2  00F9               	movwf	___flge@ff2+3
  3885  06F3  0822               	movf	(conversion_newton@Rc+2)^(0+128),w
  3886  06F4  00F8               	movwf	___flge@ff2+2
  3887  06F5  0821               	movf	(conversion_newton@Rc+1)^(0+128),w
  3888  06F6  00F7               	movwf	___flge@ff2+1
  3889  06F7  0820               	movf	conversion_newton@Rc^(0+128),w
  3890  06F8  00F6               	movwf	___flge@ff2
  3891  06F9  160A  118A  25AB  120A  118A  	fcall	___flge
  3892  06FE  1803               	btfsc	3,0
  3893  06FF  2F01               	goto	u3931
  3894  0700  2F02               	goto	u3930
  3895  0701                     u3931:
  3896  0701  2F0C               	goto	l74
  3897  0702                     u3930:
  3898  0702                     l2516:
  3899                           
  3900                           ;main.c: 213:          {;main.c: 214:          F = 0.12;
  3901  0702  303D               	movlw	61
  3902  0703  1683               	bsf	3,5	;RP0=1, select bank1
  3903  0704  1303               	bcf	3,6	;RP1=0, select bank1
  3904  0705  00C4               	movwf	(conversion_newton@F+3)^(0+128)
  3905  0706  30F5               	movlw	245
  3906  0707  00C3               	movwf	(conversion_newton@F+2)^(0+128)
  3907  0708  30C2               	movlw	194
  3908  0709  00C2               	movwf	(conversion_newton@F+1)^(0+128)
  3909  070A  308F               	movlw	143
  3910  070B  00C1               	movwf	conversion_newton@F^(0+128)
  3911  070C                     l74:	
  3912                           ;main.c: 215:          }
  3913                           
  3914                           
  3915                           ;main.c: 217:      return F;
  3916  070C  1683               	bsf	3,5	;RP0=1, select bank1
  3917  070D  1303               	bcf	3,6	;RP1=0, select bank1
  3918  070E  0844               	movf	(conversion_newton@F+3)^(0+128),w
  3919  070F  00A3               	movwf	(?_conversion_newton+3)^(0+128)
  3920  0710  0843               	movf	(conversion_newton@F+2)^(0+128),w
  3921  0711  00A2               	movwf	(?_conversion_newton+2)^(0+128)
  3922  0712  0842               	movf	(conversion_newton@F+1)^(0+128),w
  3923  0713  00A1               	movwf	(?_conversion_newton+1)^(0+128)
  3924  0714  0841               	movf	conversion_newton@F^(0+128),w
  3925  0715  00A0               	movwf	?_conversion_newton^(0+128)
  3926  0716                     l75:
  3927  0716  0008               	return
  3928  0717                     __end_of_conversion_newton:
  3929                           
  3930                           	psect	text12
  3931  15AB                     __ptext12:	
  3932 ;; *************** function ___flge *****************
  3933 ;; Defined at:
  3934 ;;		line 4 in file "C:\Program Files\Microchip\xc8\v2.20\pic\sources\c90\common\flge.c"
  3935 ;; Parameters:    Size  Location     Type
  3936 ;;  ff1             4    2[COMMON] float 
  3937 ;;  ff2             4    6[COMMON] float 
  3938 ;; Auto vars:     Size  Location     Type
  3939 ;;		None
  3940 ;; Return value:  Size  Location     Type
  3941 ;;		None               void
  3942 ;; Registers used:
  3943 ;;		wreg, status,2, status,0
  3944 ;; Tracked objects:
  3945 ;;		On entry : 0/0
  3946 ;;		On exit  : 0/0
  3947 ;;		Unchanged: 0/0
  3948 ;; Data sizes:     COMMON   BANK0   BANK1   BANK3   BANK2
  3949 ;;      Params:         8       0       0       0       0
  3950 ;;      Locals:         0       0       0       0       0
  3951 ;;      Temps:          0       4       0       0       0
  3952 ;;      Totals:         8       4       0       0       0
  3953 ;;Total ram usage:       12 bytes
  3954 ;; Hardware stack levels used:    1
  3955 ;; Hardware stack levels required when called:    1
  3956 ;; This function calls:
  3957 ;;		Nothing
  3958 ;; This function is called by:
  3959 ;;		_conversion_newton
  3960 ;; This function uses a non-reentrant model
  3961 ;;
  3962                           
  3963                           
  3964                           ;psect for function ___flge
  3965  15AB                     ___flge:
  3966  15AB                     l1968:	
  3967                           ;incstack = 0
  3968                           ; Regs used in ___flge: [wreg+status,2+status,0]
  3969                           
  3970  15AB  3000               	movlw	0
  3971  15AC  0572               	andwf	___flge@ff1,w
  3972  15AD  1283               	bcf	3,5	;RP0=0, select bank0
  3973  15AE  1303               	bcf	3,6	;RP1=0, select bank0
  3974  15AF  00A0               	movwf	??___flge
  3975  15B0  3000               	movlw	0
  3976  15B1  0573               	andwf	___flge@ff1+1,w
  3977  15B2  00A1               	movwf	??___flge+1
  3978  15B3  3080               	movlw	128
  3979  15B4  0574               	andwf	___flge@ff1+2,w
  3980  15B5  00A2               	movwf	??___flge+2
  3981  15B6  307F               	movlw	127
  3982  15B7  0575               	andwf	___flge@ff1+3,w
  3983  15B8  00A3               	movwf	??___flge+3
  3984  15B9  0823               	movf	??___flge+3,w
  3985  15BA  0422               	iorwf	??___flge+2,w
  3986  15BB  0421               	iorwf	??___flge+1,w
  3987  15BC  0420               	iorwf	??___flge,w
  3988  15BD  1D03               	skipz
  3989  15BE  2DC0               	goto	u2561
  3990  15BF  2DC1               	goto	u2560
  3991  15C0                     u2561:
  3992  15C0  2DC9               	goto	l400
  3993  15C1                     u2560:
  3994  15C1                     l1970:
  3995  15C1  3000               	movlw	0
  3996  15C2  00F5               	movwf	___flge@ff1+3
  3997  15C3  3000               	movlw	0
  3998  15C4  00F4               	movwf	___flge@ff1+2
  3999  15C5  3000               	movlw	0
  4000  15C6  00F3               	movwf	___flge@ff1+1
  4001  15C7  3000               	movlw	0
  4002  15C8  00F2               	movwf	___flge@ff1
  4003  15C9                     l400:
  4004  15C9  3000               	movlw	0
  4005  15CA  0576               	andwf	___flge@ff2,w
  4006  15CB  00A0               	movwf	??___flge
  4007  15CC  3000               	movlw	0
  4008  15CD  0577               	andwf	___flge@ff2+1,w
  4009  15CE  00A1               	movwf	??___flge+1
  4010  15CF  3080               	movlw	128
  4011  15D0  0578               	andwf	___flge@ff2+2,w
  4012  15D1  00A2               	movwf	??___flge+2
  4013  15D2  307F               	movlw	127
  4014  15D3  0579               	andwf	___flge@ff2+3,w
  4015  15D4  00A3               	movwf	??___flge+3
  4016  15D5  0823               	movf	??___flge+3,w
  4017  15D6  0422               	iorwf	??___flge+2,w
  4018  15D7  0421               	iorwf	??___flge+1,w
  4019  15D8  0420               	iorwf	??___flge,w
  4020  15D9  1D03               	skipz
  4021  15DA  2DDC               	goto	u2571
  4022  15DB  2DDD               	goto	u2570
  4023  15DC                     u2571:
  4024  15DC  2DE5               	goto	l1974
  4025  15DD                     u2570:
  4026  15DD                     l1972:
  4027  15DD  3000               	movlw	0
  4028  15DE  00F9               	movwf	___flge@ff2+3
  4029  15DF  3000               	movlw	0
  4030  15E0  00F8               	movwf	___flge@ff2+2
  4031  15E1  3000               	movlw	0
  4032  15E2  00F7               	movwf	___flge@ff2+1
  4033  15E3  3000               	movlw	0
  4034  15E4  00F6               	movwf	___flge@ff2
  4035  15E5                     l1974:
  4036  15E5  1FF5               	btfss	___flge@ff1+3,7
  4037  15E6  2DE8               	goto	u2581
  4038  15E7  2DE9               	goto	u2580
  4039  15E8                     u2581:
  4040  15E8  2E0D               	goto	l1978
  4041  15E9                     u2580:
  4042  15E9                     l1976:
  4043  15E9  3000               	movlw	0
  4044  15EA  00A0               	movwf	??___flge
  4045  15EB  3000               	movlw	0
  4046  15EC  00A1               	movwf	??___flge+1
  4047  15ED  3000               	movlw	0
  4048  15EE  00A2               	movwf	??___flge+2
  4049  15EF  3080               	movlw	128
  4050  15F0  00A3               	movwf	??___flge+3
  4051  15F1  0872               	movf	___flge@ff1,w
  4052  15F2  02A0               	subwf	??___flge,f
  4053  15F3  0873               	movf	___flge@ff1+1,w
  4054  15F4  1C03               	skipc
  4055  15F5  0F73               	incfsz	___flge@ff1+1,w
  4056  15F6  2DF8               	goto	u2591
  4057  15F7  2DF9               	goto	u2592
  4058  15F8                     u2591:
  4059  15F8  02A1               	subwf	??___flge+1,f
  4060  15F9                     u2592:
  4061  15F9  0874               	movf	___flge@ff1+2,w
  4062  15FA  1C03               	skipc
  4063  15FB  0F74               	incfsz	___flge@ff1+2,w
  4064  15FC  2DFE               	goto	u2593
  4065  15FD  2DFF               	goto	u2594
  4066  15FE                     u2593:
  4067  15FE  02A2               	subwf	??___flge+2,f
  4068  15FF                     u2594:
  4069  15FF  0875               	movf	___flge@ff1+3,w
  4070  1600  1C03               	skipc
  4071  1601  0F75               	incfsz	___flge@ff1+3,w
  4072  1602  2E04               	goto	u2595
  4073  1603  2E05               	goto	u2596
  4074  1604                     u2595:
  4075  1604  02A3               	subwf	??___flge+3,f
  4076  1605                     u2596:
  4077  1605  0823               	movf	??___flge+3,w
  4078  1606  00F5               	movwf	___flge@ff1+3
  4079  1607  0822               	movf	??___flge+2,w
  4080  1608  00F4               	movwf	___flge@ff1+2
  4081  1609  0821               	movf	??___flge+1,w
  4082  160A  00F3               	movwf	___flge@ff1+1
  4083  160B  0820               	movf	??___flge,w
  4084  160C  00F2               	movwf	___flge@ff1
  4085  160D                     l1978:
  4086  160D  1FF9               	btfss	___flge@ff2+3,7
  4087  160E  2E10               	goto	u2601
  4088  160F  2E11               	goto	u2600
  4089  1610                     u2601:
  4090  1610  2E35               	goto	l403
  4091  1611                     u2600:
  4092  1611                     l1980:
  4093  1611  3000               	movlw	0
  4094  1612  00A0               	movwf	??___flge
  4095  1613  3000               	movlw	0
  4096  1614  00A1               	movwf	??___flge+1
  4097  1615  3000               	movlw	0
  4098  1616  00A2               	movwf	??___flge+2
  4099  1617  3080               	movlw	128
  4100  1618  00A3               	movwf	??___flge+3
  4101  1619  0876               	movf	___flge@ff2,w
  4102  161A  02A0               	subwf	??___flge,f
  4103  161B  0877               	movf	___flge@ff2+1,w
  4104  161C  1C03               	skipc
  4105  161D  0F77               	incfsz	___flge@ff2+1,w
  4106  161E  2E20               	goto	u2611
  4107  161F  2E21               	goto	u2612
  4108  1620                     u2611:
  4109  1620  02A1               	subwf	??___flge+1,f
  4110  1621                     u2612:
  4111  1621  0878               	movf	___flge@ff2+2,w
  4112  1622  1C03               	skipc
  4113  1623  0F78               	incfsz	___flge@ff2+2,w
  4114  1624  2E26               	goto	u2613
  4115  1625  2E27               	goto	u2614
  4116  1626                     u2613:
  4117  1626  02A2               	subwf	??___flge+2,f
  4118  1627                     u2614:
  4119  1627  0879               	movf	___flge@ff2+3,w
  4120  1628  1C03               	skipc
  4121  1629  0F79               	incfsz	___flge@ff2+3,w
  4122  162A  2E2C               	goto	u2615
  4123  162B  2E2D               	goto	u2616
  4124  162C                     u2615:
  4125  162C  02A3               	subwf	??___flge+3,f
  4126  162D                     u2616:
  4127  162D  0823               	movf	??___flge+3,w
  4128  162E  00F9               	movwf	___flge@ff2+3
  4129  162F  0822               	movf	??___flge+2,w
  4130  1630  00F8               	movwf	___flge@ff2+2
  4131  1631  0821               	movf	??___flge+1,w
  4132  1632  00F7               	movwf	___flge@ff2+1
  4133  1633  0820               	movf	??___flge,w
  4134  1634  00F6               	movwf	___flge@ff2
  4135  1635                     l403:
  4136  1635  3080               	movlw	128
  4137  1636  06F5               	xorwf	___flge@ff1+3,f
  4138  1637  3080               	movlw	128
  4139  1638  06F9               	xorwf	___flge@ff2+3,f
  4140  1639  0879               	movf	___flge@ff2+3,w
  4141  163A  0275               	subwf	___flge@ff1+3,w
  4142  163B  1D03               	skipz
  4143  163C  2E47               	goto	u2625
  4144  163D  0878               	movf	___flge@ff2+2,w
  4145  163E  0274               	subwf	___flge@ff1+2,w
  4146  163F  1D03               	skipz
  4147  1640  2E47               	goto	u2625
  4148  1641  0877               	movf	___flge@ff2+1,w
  4149  1642  0273               	subwf	___flge@ff1+1,w
  4150  1643  1D03               	skipz
  4151  1644  2E47               	goto	u2625
  4152  1645  0876               	movf	___flge@ff2,w
  4153  1646  0272               	subwf	___flge@ff1,w
  4154  1647                     u2625:
  4155  1647  1803               	skipnc
  4156  1648  2E4A               	goto	u2621
  4157  1649  2E4B               	goto	u2620
  4158  164A                     u2621:
  4159  164A  2E4D               	goto	l1984
  4160  164B                     u2620:
  4161  164B                     l1982:
  4162  164B  1003               	clrc
  4163  164C  2E4E               	goto	l404
  4164  164D                     l1984:
  4165  164D  1403               	setc
  4166  164E                     l404:
  4167  164E  0008               	return
  4168  164F                     __end_of___flge:
  4169                           
  4170                           	psect	text13
  4171  144E                     __ptext13:	
  4172 ;; *************** function _Voltage_Value *****************
  4173 ;; Defined at:
  4174 ;;		line 133 in file "main.c"
  4175 ;; Parameters:    Size  Location     Type
  4176 ;;  sensor          1    wreg     unsigned char 
  4177 ;; Auto vars:     Size  Location     Type
  4178 ;;  sensor          1   11[COMMON] unsigned char 
  4179 ;; Return value:  Size  Location     Type
  4180 ;;                  4    0[BANK1 ] float 
  4181 ;; Registers used:
  4182 ;;		wreg, status,2, status,0, btemp+1, pclath, cstack
  4183 ;; Tracked objects:
  4184 ;;		On entry : 0/0
  4185 ;;		On exit  : 0/0
  4186 ;;		Unchanged: 0/0
  4187 ;; Data sizes:     COMMON   BANK0   BANK1   BANK3   BANK2
  4188 ;;      Params:         0       0       4       0       0
  4189 ;;      Locals:         1       0       0       0       0
  4190 ;;      Temps:          0       0       4       0       0
  4191 ;;      Totals:         1       0       8       0       0
  4192 ;;Total ram usage:        9 bytes
  4193 ;; Hardware stack levels used:    1
  4194 ;; Hardware stack levels required when called:    3
  4195 ;; This function calls:
  4196 ;;		___fldiv
  4197 ;;		___flmul
  4198 ;;		___xxtofl
  4199 ;; This function is called by:
  4200 ;;		_Get_Newton
  4201 ;; This function uses a non-reentrant model
  4202 ;;
  4203                           
  4204                           
  4205                           ;psect for function _Voltage_Value
  4206  144E                     _Voltage_Value:
  4207                           
  4208                           ;incstack = 0
  4209                           ; Regs used in _Voltage_Value: [wreg+status,2+status,0+btemp+1+pclath+cstack]
  4210                           ;Voltage_Value@sensor stored from wreg
  4211  144E  00FB               	movwf	Voltage_Value@sensor
  4212  144F                     l2436:
  4213                           
  4214                           ;main.c: 135:     return (float) sensor * 5.0/256;
  4215  144F  3043               	movlw	67
  4216  1450  1283               	bcf	3,5	;RP0=0, select bank0
  4217  1451  1303               	bcf	3,6	;RP1=0, select bank0
  4218  1452  00BF               	movwf	___fldiv@a+3
  4219  1453  3080               	movlw	128
  4220  1454  00BE               	movwf	___fldiv@a+2
  4221  1455  3000               	movlw	0
  4222  1456  00BD               	movwf	___fldiv@a+1
  4223  1457  3000               	movlw	0
  4224  1458  00BC               	movwf	___fldiv@a
  4225  1459  3040               	movlw	64
  4226  145A  00D9               	movwf	___flmul@b+3
  4227  145B  30A0               	movlw	160
  4228  145C  00D8               	movwf	___flmul@b+2
  4229  145D  3000               	movlw	0
  4230  145E  00D7               	movwf	___flmul@b+1
  4231  145F  3000               	movlw	0
  4232  1460  00D6               	movwf	___flmul@b
  4233  1461  087B               	movf	Voltage_Value@sensor,w
  4234  1462  1683               	bsf	3,5	;RP0=1, select bank1
  4235  1463  1303               	bcf	3,6	;RP1=0, select bank1
  4236  1464  00A4               	movwf	??_Voltage_Value^(0+128)
  4237  1465  01A5               	clrf	(??_Voltage_Value^(0+128)+1)
  4238  1466  01A6               	clrf	(??_Voltage_Value^(0+128)+2)
  4239  1467  01A7               	clrf	(??_Voltage_Value^(0+128)+3)
  4240  1468  0827               	movf	(??_Voltage_Value+3)^(0+128),w
  4241  1469  00F5               	movwf	___xxtofl@val+3
  4242  146A  0826               	movf	(??_Voltage_Value+2)^(0+128),w
  4243  146B  00F4               	movwf	___xxtofl@val+2
  4244  146C  0825               	movf	(??_Voltage_Value+1)^(0+128),w
  4245  146D  00F3               	movwf	___xxtofl@val+1
  4246  146E  0824               	movf	??_Voltage_Value^(0+128),w
  4247  146F  00F2               	movwf	___xxtofl@val
  4248  1470  3000               	movlw	0
  4249  1471  120A  118A  2717  160A  118A  	fcall	___xxtofl
  4250  1476  0875               	movf	?___xxtofl+3,w
  4251  1477  1283               	bcf	3,5	;RP0=0, select bank0
  4252  1478  1303               	bcf	3,6	;RP1=0, select bank0
  4253  1479  00DD               	movwf	___flmul@a+3
  4254  147A  0874               	movf	?___xxtofl+2,w
  4255  147B  00DC               	movwf	___flmul@a+2
  4256  147C  0873               	movf	?___xxtofl+1,w
  4257  147D  00DB               	movwf	___flmul@a+1
  4258  147E  0872               	movf	?___xxtofl,w
  4259  147F  00DA               	movwf	___flmul@a
  4260  1480  120A  158A  249F  160A  118A  	fcall	___flmul
  4261  1485  1283               	bcf	3,5	;RP0=0, select bank0
  4262  1486  1303               	bcf	3,6	;RP1=0, select bank0
  4263  1487  0859               	movf	?___flmul+3,w
  4264  1488  00C3               	movwf	___fldiv@b+3
  4265  1489  0858               	movf	?___flmul+2,w
  4266  148A  00C2               	movwf	___fldiv@b+2
  4267  148B  0857               	movf	?___flmul+1,w
  4268  148C  00C1               	movwf	___fldiv@b+1
  4269  148D  0856               	movf	?___flmul,w
  4270  148E  00C0               	movwf	___fldiv@b
  4271  148F  120A  158A  203A  160A  118A  	fcall	___fldiv
  4272  1494  1283               	bcf	3,5	;RP0=0, select bank0
  4273  1495  1303               	bcf	3,6	;RP1=0, select bank0
  4274  1496  083F               	movf	?___fldiv+3,w
  4275  1497  1683               	bsf	3,5	;RP0=1, select bank1
  4276  1498  1303               	bcf	3,6	;RP1=0, select bank1
  4277  1499  00A3               	movwf	(?_Voltage_Value+3)^(0+128)
  4278  149A  1283               	bcf	3,5	;RP0=0, select bank0
  4279  149B  1303               	bcf	3,6	;RP1=0, select bank0
  4280  149C  083E               	movf	?___fldiv+2,w
  4281  149D  1683               	bsf	3,5	;RP0=1, select bank1
  4282  149E  1303               	bcf	3,6	;RP1=0, select bank1
  4283  149F  00A2               	movwf	(?_Voltage_Value+2)^(0+128)
  4284  14A0  1283               	bcf	3,5	;RP0=0, select bank0
  4285  14A1  1303               	bcf	3,6	;RP1=0, select bank0
  4286  14A2  083D               	movf	?___fldiv+1,w
  4287  14A3  1683               	bsf	3,5	;RP0=1, select bank1
  4288  14A4  1303               	bcf	3,6	;RP1=0, select bank1
  4289  14A5  00A1               	movwf	(?_Voltage_Value+1)^(0+128)
  4290  14A6  1283               	bcf	3,5	;RP0=0, select bank0
  4291  14A7  1303               	bcf	3,6	;RP1=0, select bank0
  4292  14A8  083C               	movf	?___fldiv,w
  4293  14A9  1683               	bsf	3,5	;RP0=1, select bank1
  4294  14AA  1303               	bcf	3,6	;RP1=0, select bank1
  4295  14AB  00A0               	movwf	?_Voltage_Value^(0+128)
  4296  14AC                     l43:
  4297  14AC  0008               	return
  4298  14AD                     __end_of_Voltage_Value:
  4299                           
  4300                           	psect	text14
  4301  164F                     __ptext14:	
  4302 ;; *************** function _Resistance_Value *****************
  4303 ;; Defined at:
  4304 ;;		line 144 in file "main.c"
  4305 ;; Parameters:    Size  Location     Type
  4306 ;;  Voltage         4    0[BANK1 ] float 
  4307 ;;  R               2    4[BANK1 ] unsigned int 
  4308 ;; Auto vars:     Size  Location     Type
  4309 ;;  fR              4    6[BANK1 ] float 
  4310 ;; Return value:  Size  Location     Type
  4311 ;;                  4    0[BANK1 ] float 
  4312 ;; Registers used:
  4313 ;;		wreg, status,2, status,0, btemp+1, pclath, cstack
  4314 ;; Tracked objects:
  4315 ;;		On entry : 0/0
  4316 ;;		On exit  : 0/0
  4317 ;;		Unchanged: 0/0
  4318 ;; Data sizes:     COMMON   BANK0   BANK1   BANK3   BANK2
  4319 ;;      Params:         0       0       6       0       0
  4320 ;;      Locals:         0       0       4       0       0
  4321 ;;      Temps:          0       0       0       0       0
  4322 ;;      Totals:         0       0      10       0       0
  4323 ;;Total ram usage:       10 bytes
  4324 ;; Hardware stack levels used:    1
  4325 ;; Hardware stack levels required when called:    3
  4326 ;; This function calls:
  4327 ;;		___fldiv
  4328 ;;		___flmul
  4329 ;;		___flsub
  4330 ;;		___xxtofl
  4331 ;; This function is called by:
  4332 ;;		_Get_Newton
  4333 ;; This function uses a non-reentrant model
  4334 ;;
  4335                           
  4336                           
  4337                           ;psect for function _Resistance_Value
  4338  164F                     _Resistance_Value:
  4339  164F                     l2440:	
  4340                           ;incstack = 0
  4341                           ; Regs used in _Resistance_Value: [wreg+status,2+status,0+btemp+1+pclath+cstack]
  4342                           
  4343                           
  4344                           ;main.c: 145:     float fR = R;
  4345  164F  1683               	bsf	3,5	;RP0=1, select bank1
  4346  1650  1303               	bcf	3,6	;RP1=0, select bank1
  4347  1651  0824               	movf	Resistance_Value@R^(0+128),w
  4348  1652  00F2               	movwf	___xxtofl@val
  4349  1653  0825               	movf	(Resistance_Value@R+1)^(0+128),w
  4350  1654  00F3               	movwf	___xxtofl@val+1
  4351  1655  01F4               	clrf	___xxtofl@val+2
  4352  1656  01F5               	clrf	___xxtofl@val+3
  4353  1657  3000               	movlw	0
  4354  1658  120A  118A  2717  160A  118A  	fcall	___xxtofl
  4355  165D  0875               	movf	?___xxtofl+3,w
  4356  165E  1683               	bsf	3,5	;RP0=1, select bank1
  4357  165F  1303               	bcf	3,6	;RP1=0, select bank1
  4358  1660  00A9               	movwf	(Resistance_Value@fR+3)^(0+128)
  4359  1661  0874               	movf	?___xxtofl+2,w
  4360  1662  00A8               	movwf	(Resistance_Value@fR+2)^(0+128)
  4361  1663  0873               	movf	?___xxtofl+1,w
  4362  1664  00A7               	movwf	(Resistance_Value@fR+1)^(0+128)
  4363  1665  0872               	movf	?___xxtofl,w
  4364  1666  00A6               	movwf	Resistance_Value@fR^(0+128)
  4365                           
  4366                           ;main.c: 146:     return (float) (fR * 5.0)/(5.0 -(2*Voltage));
  4367  1667  3040               	movlw	64
  4368  1668  1283               	bcf	3,5	;RP0=0, select bank0
  4369  1669  1303               	bcf	3,6	;RP1=0, select bank0
  4370  166A  00D9               	movwf	___flmul@b+3
  4371  166B  3000               	movlw	0
  4372  166C  00D8               	movwf	___flmul@b+2
  4373  166D  3000               	movlw	0
  4374  166E  00D7               	movwf	___flmul@b+1
  4375  166F  3000               	movlw	0
  4376  1670  00D6               	movwf	___flmul@b
  4377  1671  1683               	bsf	3,5	;RP0=1, select bank1
  4378  1672  1303               	bcf	3,6	;RP1=0, select bank1
  4379  1673  0823               	movf	(Resistance_Value@Voltage+3)^(0+128),w
  4380  1674  1283               	bcf	3,5	;RP0=0, select bank0
  4381  1675  1303               	bcf	3,6	;RP1=0, select bank0
  4382  1676  00DD               	movwf	___flmul@a+3
  4383  1677  1683               	bsf	3,5	;RP0=1, select bank1
  4384  1678  1303               	bcf	3,6	;RP1=0, select bank1
  4385  1679  0822               	movf	(Resistance_Value@Voltage+2)^(0+128),w
  4386  167A  1283               	bcf	3,5	;RP0=0, select bank0
  4387  167B  1303               	bcf	3,6	;RP1=0, select bank0
  4388  167C  00DC               	movwf	___flmul@a+2
  4389  167D  1683               	bsf	3,5	;RP0=1, select bank1
  4390  167E  1303               	bcf	3,6	;RP1=0, select bank1
  4391  167F  0821               	movf	(Resistance_Value@Voltage+1)^(0+128),w
  4392  1680  1283               	bcf	3,5	;RP0=0, select bank0
  4393  1681  1303               	bcf	3,6	;RP1=0, select bank0
  4394  1682  00DB               	movwf	___flmul@a+1
  4395  1683  1683               	bsf	3,5	;RP0=1, select bank1
  4396  1684  1303               	bcf	3,6	;RP1=0, select bank1
  4397  1685  0820               	movf	Resistance_Value@Voltage^(0+128),w
  4398  1686  1283               	bcf	3,5	;RP0=0, select bank0
  4399  1687  1303               	bcf	3,6	;RP1=0, select bank0
  4400  1688  00DA               	movwf	___flmul@a
  4401  1689  120A  158A  249F  160A  118A  	fcall	___flmul
  4402  168E  1283               	bcf	3,5	;RP0=0, select bank0
  4403  168F  1303               	bcf	3,6	;RP1=0, select bank0
  4404  1690  0859               	movf	?___flmul+3,w
  4405  1691  00B7               	movwf	___flsub@a+3
  4406  1692  0858               	movf	?___flmul+2,w
  4407  1693  00B6               	movwf	___flsub@a+2
  4408  1694  0857               	movf	?___flmul+1,w
  4409  1695  00B5               	movwf	___flsub@a+1
  4410  1696  0856               	movf	?___flmul,w
  4411  1697  00B4               	movwf	___flsub@a
  4412  1698  3040               	movlw	64
  4413  1699  00BB               	movwf	___flsub@b+3
  4414  169A  30A0               	movlw	160
  4415  169B  00BA               	movwf	___flsub@b+2
  4416  169C  3000               	movlw	0
  4417  169D  00B9               	movwf	___flsub@b+1
  4418  169E  3000               	movlw	0
  4419  169F  00B8               	movwf	___flsub@b
  4420  16A0  160A  118A  22FC  160A  118A  	fcall	___flsub
  4421  16A5  1283               	bcf	3,5	;RP0=0, select bank0
  4422  16A6  1303               	bcf	3,6	;RP1=0, select bank0
  4423  16A7  0837               	movf	?___flsub+3,w
  4424  16A8  00BF               	movwf	___fldiv@a+3
  4425  16A9  0836               	movf	?___flsub+2,w
  4426  16AA  00BE               	movwf	___fldiv@a+2
  4427  16AB  0835               	movf	?___flsub+1,w
  4428  16AC  00BD               	movwf	___fldiv@a+1
  4429  16AD  0834               	movf	?___flsub,w
  4430  16AE  00BC               	movwf	___fldiv@a
  4431  16AF  3040               	movlw	64
  4432  16B0  00D9               	movwf	___flmul@b+3
  4433  16B1  30A0               	movlw	160
  4434  16B2  00D8               	movwf	___flmul@b+2
  4435  16B3  3000               	movlw	0
  4436  16B4  00D7               	movwf	___flmul@b+1
  4437  16B5  3000               	movlw	0
  4438  16B6  00D6               	movwf	___flmul@b
  4439  16B7  1683               	bsf	3,5	;RP0=1, select bank1
  4440  16B8  1303               	bcf	3,6	;RP1=0, select bank1
  4441  16B9  0829               	movf	(Resistance_Value@fR+3)^(0+128),w
  4442  16BA  1283               	bcf	3,5	;RP0=0, select bank0
  4443  16BB  1303               	bcf	3,6	;RP1=0, select bank0
  4444  16BC  00DD               	movwf	___flmul@a+3
  4445  16BD  1683               	bsf	3,5	;RP0=1, select bank1
  4446  16BE  1303               	bcf	3,6	;RP1=0, select bank1
  4447  16BF  0828               	movf	(Resistance_Value@fR+2)^(0+128),w
  4448  16C0  1283               	bcf	3,5	;RP0=0, select bank0
  4449  16C1  1303               	bcf	3,6	;RP1=0, select bank0
  4450  16C2  00DC               	movwf	___flmul@a+2
  4451  16C3  1683               	bsf	3,5	;RP0=1, select bank1
  4452  16C4  1303               	bcf	3,6	;RP1=0, select bank1
  4453  16C5  0827               	movf	(Resistance_Value@fR+1)^(0+128),w
  4454  16C6  1283               	bcf	3,5	;RP0=0, select bank0
  4455  16C7  1303               	bcf	3,6	;RP1=0, select bank0
  4456  16C8  00DB               	movwf	___flmul@a+1
  4457  16C9  1683               	bsf	3,5	;RP0=1, select bank1
  4458  16CA  1303               	bcf	3,6	;RP1=0, select bank1
  4459  16CB  0826               	movf	Resistance_Value@fR^(0+128),w
  4460  16CC  1283               	bcf	3,5	;RP0=0, select bank0
  4461  16CD  1303               	bcf	3,6	;RP1=0, select bank0
  4462  16CE  00DA               	movwf	___flmul@a
  4463  16CF  120A  158A  249F  160A  118A  	fcall	___flmul
  4464  16D4  1283               	bcf	3,5	;RP0=0, select bank0
  4465  16D5  1303               	bcf	3,6	;RP1=0, select bank0
  4466  16D6  0859               	movf	?___flmul+3,w
  4467  16D7  00C3               	movwf	___fldiv@b+3
  4468  16D8  0858               	movf	?___flmul+2,w
  4469  16D9  00C2               	movwf	___fldiv@b+2
  4470  16DA  0857               	movf	?___flmul+1,w
  4471  16DB  00C1               	movwf	___fldiv@b+1
  4472  16DC  0856               	movf	?___flmul,w
  4473  16DD  00C0               	movwf	___fldiv@b
  4474  16DE  120A  158A  203A  160A  118A  	fcall	___fldiv
  4475  16E3  1283               	bcf	3,5	;RP0=0, select bank0
  4476  16E4  1303               	bcf	3,6	;RP1=0, select bank0
  4477  16E5  083F               	movf	?___fldiv+3,w
  4478  16E6  1683               	bsf	3,5	;RP0=1, select bank1
  4479  16E7  1303               	bcf	3,6	;RP1=0, select bank1
  4480  16E8  00A3               	movwf	(?_Resistance_Value+3)^(0+128)
  4481  16E9  1283               	bcf	3,5	;RP0=0, select bank0
  4482  16EA  1303               	bcf	3,6	;RP1=0, select bank0
  4483  16EB  083E               	movf	?___fldiv+2,w
  4484  16EC  1683               	bsf	3,5	;RP0=1, select bank1
  4485  16ED  1303               	bcf	3,6	;RP1=0, select bank1
  4486  16EE  00A2               	movwf	(?_Resistance_Value+2)^(0+128)
  4487  16EF  1283               	bcf	3,5	;RP0=0, select bank0
  4488  16F0  1303               	bcf	3,6	;RP1=0, select bank0
  4489  16F1  083D               	movf	?___fldiv+1,w
  4490  16F2  1683               	bsf	3,5	;RP0=1, select bank1
  4491  16F3  1303               	bcf	3,6	;RP1=0, select bank1
  4492  16F4  00A1               	movwf	(?_Resistance_Value+1)^(0+128)
  4493  16F5  1283               	bcf	3,5	;RP0=0, select bank0
  4494  16F6  1303               	bcf	3,6	;RP1=0, select bank0
  4495  16F7  083C               	movf	?___fldiv,w
  4496  16F8  1683               	bsf	3,5	;RP0=1, select bank1
  4497  16F9  1303               	bcf	3,6	;RP1=0, select bank1
  4498  16FA  00A0               	movwf	?_Resistance_Value^(0+128)
  4499  16FB                     l46:
  4500  16FB  0008               	return
  4501  16FC                     __end_of_Resistance_Value:
  4502                           
  4503                           	psect	text15
  4504  0717                     __ptext15:	
  4505 ;; *************** function ___xxtofl *****************
  4506 ;; Defined at:
  4507 ;;		line 10 in file "C:\Program Files\Microchip\xc8\v2.20\pic\sources\c90\common\xxtofl.c"
  4508 ;; Parameters:    Size  Location     Type
  4509 ;;  sign            1    wreg     unsigned char 
  4510 ;;  val             4    2[COMMON] long 
  4511 ;; Auto vars:     Size  Location     Type
  4512 ;;  sign            1    0[BANK0 ] unsigned char 
  4513 ;;  arg             4    2[BANK0 ] unsigned long 
  4514 ;;  exp             1    1[BANK0 ] unsigned char 
  4515 ;; Return value:  Size  Location     Type
  4516 ;;                  4    2[COMMON] unsigned char 
  4517 ;; Registers used:
  4518 ;;		wreg, status,2, status,0, btemp+1
  4519 ;; Tracked objects:
  4520 ;;		On entry : 0/0
  4521 ;;		On exit  : 0/0
  4522 ;;		Unchanged: 0/0
  4523 ;; Data sizes:     COMMON   BANK0   BANK1   BANK3   BANK2
  4524 ;;      Params:         4       0       0       0       0
  4525 ;;      Locals:         0       6       0       0       0
  4526 ;;      Temps:          4       0       0       0       0
  4527 ;;      Totals:         8       6       0       0       0
  4528 ;;Total ram usage:       14 bytes
  4529 ;; Hardware stack levels used:    1
  4530 ;; Hardware stack levels required when called:    1
  4531 ;; This function calls:
  4532 ;;		Nothing
  4533 ;; This function is called by:
  4534 ;;		_Voltage_Value
  4535 ;;		_Resistance_Value
  4536 ;; This function uses a non-reentrant model
  4537 ;;
  4538                           
  4539                           
  4540                           ;psect for function ___xxtofl
  4541  0717                     ___xxtofl:
  4542                           
  4543                           ;incstack = 0
  4544                           ; Regs used in ___xxtofl: [wreg+status,2+status,0+btemp+1]
  4545                           ;___xxtofl@sign stored from wreg
  4546  0717  1283               	bcf	3,5	;RP0=0, select bank0
  4547  0718  1303               	bcf	3,6	;RP1=0, select bank0
  4548  0719  00A0               	movwf	___xxtofl@sign
  4549  071A                     l2366:
  4550  071A  0820               	movf	___xxtofl@sign,w
  4551  071B  1903               	btfsc	3,2
  4552  071C  2F1E               	goto	u3521
  4553  071D  2F1F               	goto	u3520
  4554  071E                     u3521:
  4555  071E  2F33               	goto	l2372
  4556  071F                     u3520:
  4557  071F                     l2368:
  4558  071F  1FF5               	btfss	___xxtofl@val+3,7
  4559  0720  2F22               	goto	u3531
  4560  0721  2F23               	goto	u3530
  4561  0722                     u3531:
  4562  0722  2F33               	goto	l2372
  4563  0723                     u3530:
  4564  0723                     l2370:
  4565  0723  0972               	comf	___xxtofl@val,w
  4566  0724  00A2               	movwf	___xxtofl@arg
  4567  0725  0973               	comf	___xxtofl@val+1,w
  4568  0726  00A3               	movwf	___xxtofl@arg+1
  4569  0727  0974               	comf	___xxtofl@val+2,w
  4570  0728  00A4               	movwf	___xxtofl@arg+2
  4571  0729  0975               	comf	___xxtofl@val+3,w
  4572  072A  00A5               	movwf	___xxtofl@arg+3
  4573  072B  0AA2               	incf	___xxtofl@arg,f
  4574  072C  1903               	skipnz
  4575  072D  0AA3               	incf	___xxtofl@arg+1,f
  4576  072E  1903               	skipnz
  4577  072F  0AA4               	incf	___xxtofl@arg+2,f
  4578  0730  1903               	skipnz
  4579  0731  0AA5               	incf	___xxtofl@arg+3,f
  4580  0732  2F3B               	goto	l659
  4581  0733                     l2372:
  4582  0733  0875               	movf	___xxtofl@val+3,w
  4583  0734  00A5               	movwf	___xxtofl@arg+3
  4584  0735  0874               	movf	___xxtofl@val+2,w
  4585  0736  00A4               	movwf	___xxtofl@arg+2
  4586  0737  0873               	movf	___xxtofl@val+1,w
  4587  0738  00A3               	movwf	___xxtofl@arg+1
  4588  0739  0872               	movf	___xxtofl@val,w
  4589  073A  00A2               	movwf	___xxtofl@arg
  4590  073B                     l659:
  4591  073B  0875               	movf	___xxtofl@val+3,w
  4592  073C  0474               	iorwf	___xxtofl@val+2,w
  4593  073D  0473               	iorwf	___xxtofl@val+1,w
  4594  073E  0472               	iorwf	___xxtofl@val,w
  4595  073F  1D03               	skipz
  4596  0740  2F42               	goto	u3541
  4597  0741  2F43               	goto	u3540
  4598  0742                     u3541:
  4599  0742  2F4C               	goto	l2378
  4600  0743                     u3540:
  4601  0743                     l2374:
  4602  0743  3000               	movlw	0
  4603  0744  00F5               	movwf	?___xxtofl+3
  4604  0745  3000               	movlw	0
  4605  0746  00F4               	movwf	?___xxtofl+2
  4606  0747  3000               	movlw	0
  4607  0748  00F3               	movwf	?___xxtofl+1
  4608  0749  3000               	movlw	0
  4609  074A  00F2               	movwf	?___xxtofl
  4610  074B  2FD2               	goto	l661
  4611  074C                     l2378:
  4612  074C  3096               	movlw	150
  4613  074D  00FF               	movwf	btemp+1
  4614  074E  087F               	movf	btemp+1,w
  4615  074F  00A1               	movwf	___xxtofl@exp
  4616  0750  2F5E               	goto	l2384
  4617  0751                     l2380:
  4618  0751  3001               	movlw	1
  4619  0752  00FF               	movwf	btemp+1
  4620  0753  087F               	movf	btemp+1,w
  4621  0754  07A1               	addwf	___xxtofl@exp,f
  4622  0755                     l2382:
  4623  0755  3001               	movlw	1
  4624  0756                     u3555:
  4625  0756  1003               	clrc
  4626  0757  0CA5               	rrf	___xxtofl@arg+3,f
  4627  0758  0CA4               	rrf	___xxtofl@arg+2,f
  4628  0759  0CA3               	rrf	___xxtofl@arg+1,f
  4629  075A  0CA2               	rrf	___xxtofl@arg,f
  4630  075B  3EFF               	addlw	-1
  4631  075C  1D03               	skipz
  4632  075D  2F56               	goto	u3555
  4633  075E                     l2384:
  4634  075E  30FE               	movlw	254
  4635  075F  0525               	andwf	___xxtofl@arg+3,w
  4636  0760  1D03               	btfss	3,2
  4637  0761  2F63               	goto	u3561
  4638  0762  2F64               	goto	u3560
  4639  0763                     u3561:
  4640  0763  2F51               	goto	l2380
  4641  0764                     u3560:
  4642  0764  2F80               	goto	l2392
  4643  0765                     l2386:
  4644  0765  3001               	movlw	1
  4645  0766  00FF               	movwf	btemp+1
  4646  0767  087F               	movf	btemp+1,w
  4647  0768  07A1               	addwf	___xxtofl@exp,f
  4648  0769                     l2388:
  4649  0769  3001               	movlw	1
  4650  076A  07A2               	addwf	___xxtofl@arg,f
  4651  076B  3000               	movlw	0
  4652  076C  1803               	skipnc
  4653  076D  3001               	movlw	1
  4654  076E  07A3               	addwf	___xxtofl@arg+1,f
  4655  076F  3000               	movlw	0
  4656  0770  1803               	skipnc
  4657  0771  3001               	movlw	1
  4658  0772  07A4               	addwf	___xxtofl@arg+2,f
  4659  0773  3000               	movlw	0
  4660  0774  1803               	skipnc
  4661  0775  3001               	movlw	1
  4662  0776  07A5               	addwf	___xxtofl@arg+3,f
  4663  0777                     l2390:
  4664  0777  3001               	movlw	1
  4665  0778                     u3575:
  4666  0778  1003               	clrc
  4667  0779  0CA5               	rrf	___xxtofl@arg+3,f
  4668  077A  0CA4               	rrf	___xxtofl@arg+2,f
  4669  077B  0CA3               	rrf	___xxtofl@arg+1,f
  4670  077C  0CA2               	rrf	___xxtofl@arg,f
  4671  077D  3EFF               	addlw	-1
  4672  077E  1D03               	skipz
  4673  077F  2F78               	goto	u3575
  4674  0780                     l2392:
  4675  0780  30FF               	movlw	255
  4676  0781  0525               	andwf	___xxtofl@arg+3,w
  4677  0782  1D03               	btfss	3,2
  4678  0783  2F85               	goto	u3581
  4679  0784  2F86               	goto	u3580
  4680  0785                     u3581:
  4681  0785  2F65               	goto	l2386
  4682  0786                     u3580:
  4683  0786  2F92               	goto	l2396
  4684  0787                     l2394:
  4685  0787  3001               	movlw	1
  4686  0788  02A1               	subwf	___xxtofl@exp,f
  4687  0789  3001               	movlw	1
  4688  078A  00F6               	movwf	??___xxtofl
  4689  078B                     u3595:
  4690  078B  1003               	clrc
  4691  078C  0DA2               	rlf	___xxtofl@arg,f
  4692  078D  0DA3               	rlf	___xxtofl@arg+1,f
  4693  078E  0DA4               	rlf	___xxtofl@arg+2,f
  4694  078F  0DA5               	rlf	___xxtofl@arg+3,f
  4695  0790  0BF6               	decfsz	??___xxtofl,f
  4696  0791  2F8B               	goto	u3595
  4697  0792                     l2396:
  4698  0792  1BA4               	btfsc	___xxtofl@arg+2,7
  4699  0793  2F95               	goto	u3601
  4700  0794  2F96               	goto	u3600
  4701  0795                     u3601:
  4702  0795  2F9C               	goto	l672
  4703  0796                     u3600:
  4704  0796                     l2398:
  4705  0796  3002               	movlw	2
  4706  0797  0221               	subwf	___xxtofl@exp,w
  4707  0798  1803               	skipnc
  4708  0799  2F9B               	goto	u3611
  4709  079A  2F9C               	goto	u3610
  4710  079B                     u3611:
  4711  079B  2F87               	goto	l2394
  4712  079C                     u3610:
  4713  079C                     l672:
  4714  079C  1821               	btfsc	___xxtofl@exp,0
  4715  079D  2F9F               	goto	u3621
  4716  079E  2FA0               	goto	u3620
  4717  079F                     u3621:
  4718  079F  2FA8               	goto	l673
  4719  07A0                     u3620:
  4720  07A0                     l2400:
  4721  07A0  30FF               	movlw	255
  4722  07A1  05A2               	andwf	___xxtofl@arg,f
  4723  07A2  30FF               	movlw	255
  4724  07A3  05A3               	andwf	___xxtofl@arg+1,f
  4725  07A4  307F               	movlw	127
  4726  07A5  05A4               	andwf	___xxtofl@arg+2,f
  4727  07A6  30FF               	movlw	255
  4728  07A7  05A5               	andwf	___xxtofl@arg+3,f
  4729  07A8                     l673:
  4730  07A8  1003               	clrc
  4731  07A9  0CA1               	rrf	___xxtofl@exp,f
  4732  07AA                     l2402:
  4733  07AA  0821               	movf	___xxtofl@exp,w
  4734  07AB  00F6               	movwf	??___xxtofl
  4735  07AC  01F7               	clrf	??___xxtofl+1
  4736  07AD  01F8               	clrf	??___xxtofl+2
  4737  07AE  01F9               	clrf	??___xxtofl+3
  4738  07AF  3018               	movlw	24
  4739  07B0                     u3635:
  4740  07B0  1003               	clrc
  4741  07B1  0DF6               	rlf	??___xxtofl,f
  4742  07B2  0DF7               	rlf	??___xxtofl+1,f
  4743  07B3  0DF8               	rlf	??___xxtofl+2,f
  4744  07B4  0DF9               	rlf	??___xxtofl+3,f
  4745  07B5                     u3630:
  4746  07B5  3EFF               	addlw	-1
  4747  07B6  1D03               	skipz
  4748  07B7  2FB0               	goto	u3635
  4749  07B8  0876               	movf	??___xxtofl,w
  4750  07B9  04A2               	iorwf	___xxtofl@arg,f
  4751  07BA  0877               	movf	??___xxtofl+1,w
  4752  07BB  04A3               	iorwf	___xxtofl@arg+1,f
  4753  07BC  0878               	movf	??___xxtofl+2,w
  4754  07BD  04A4               	iorwf	___xxtofl@arg+2,f
  4755  07BE  0879               	movf	??___xxtofl+3,w
  4756  07BF  04A5               	iorwf	___xxtofl@arg+3,f
  4757  07C0                     l2404:
  4758  07C0  0820               	movf	___xxtofl@sign,w
  4759  07C1  1903               	btfsc	3,2
  4760  07C2  2FC4               	goto	u3641
  4761  07C3  2FC5               	goto	u3640
  4762  07C4                     u3641:
  4763  07C4  2FCA               	goto	l2410
  4764  07C5                     u3640:
  4765  07C5                     l2406:
  4766  07C5  1FF5               	btfss	___xxtofl@val+3,7
  4767  07C6  2FC8               	goto	u3651
  4768  07C7  2FC9               	goto	u3650
  4769  07C8                     u3651:
  4770  07C8  2FCA               	goto	l2410
  4771  07C9                     u3650:
  4772  07C9                     l2408:
  4773  07C9  17A5               	bsf	___xxtofl@arg+3,7
  4774  07CA                     l2410:
  4775  07CA  0825               	movf	___xxtofl@arg+3,w
  4776  07CB  00F5               	movwf	?___xxtofl+3
  4777  07CC  0824               	movf	___xxtofl@arg+2,w
  4778  07CD  00F4               	movwf	?___xxtofl+2
  4779  07CE  0823               	movf	___xxtofl@arg+1,w
  4780  07CF  00F3               	movwf	?___xxtofl+1
  4781  07D0  0822               	movf	___xxtofl@arg,w
  4782  07D1  00F2               	movwf	?___xxtofl
  4783  07D2                     l661:
  4784  07D2  0008               	return
  4785  07D3                     __end_of___xxtofl:
  4786                           
  4787                           	psect	text16
  4788  12FC                     __ptext16:	
  4789 ;; *************** function ___flsub *****************
  4790 ;; Defined at:
  4791 ;;		line 242 in file "C:\Program Files\Microchip\xc8\v2.20\pic\sources\c90\common\sprcadd.c"
  4792 ;; Parameters:    Size  Location     Type
  4793 ;;  a               4   20[BANK0 ] unsigned char 
  4794 ;;  b               4   24[BANK0 ] unsigned char 
  4795 ;; Auto vars:     Size  Location     Type
  4796 ;;		None
  4797 ;; Return value:  Size  Location     Type
  4798 ;;                  4   20[BANK0 ] unsigned char 
  4799 ;; Registers used:
  4800 ;;		wreg, status,2, status,0, btemp+1, pclath, cstack
  4801 ;; Tracked objects:
  4802 ;;		On entry : 0/0
  4803 ;;		On exit  : 0/0
  4804 ;;		Unchanged: 0/0
  4805 ;; Data sizes:     COMMON   BANK0   BANK1   BANK3   BANK2
  4806 ;;      Params:         0       8       0       0       0
  4807 ;;      Locals:         0       0       0       0       0
  4808 ;;      Temps:          0       0       0       0       0
  4809 ;;      Totals:         0       8       0       0       0
  4810 ;;Total ram usage:        8 bytes
  4811 ;; Hardware stack levels used:    1
  4812 ;; Hardware stack levels required when called:    2
  4813 ;; This function calls:
  4814 ;;		___fladd
  4815 ;; This function is called by:
  4816 ;;		_Resistance_Value
  4817 ;;		_conversion_newton
  4818 ;; This function uses a non-reentrant model
  4819 ;;
  4820                           
  4821                           
  4822                           ;psect for function ___flsub
  4823  12FC                     ___flsub:
  4824  12FC                     l2074:	
  4825                           ;incstack = 0
  4826                           ; Regs used in ___flsub: [wreg+status,2+status,0+btemp+1+pclath+cstack]
  4827                           
  4828  12FC  3080               	movlw	128
  4829  12FD  1283               	bcf	3,5	;RP0=0, select bank0
  4830  12FE  1303               	bcf	3,6	;RP1=0, select bank0
  4831  12FF  06B7               	xorwf	___flsub@a+3,f
  4832  1300                     l2076:
  4833  1300  083B               	movf	___flsub@b+3,w
  4834  1301  00A3               	movwf	___fladd@b+3
  4835  1302  083A               	movf	___flsub@b+2,w
  4836  1303  00A2               	movwf	___fladd@b+2
  4837  1304  0839               	movf	___flsub@b+1,w
  4838  1305  00A1               	movwf	___fladd@b+1
  4839  1306  0838               	movf	___flsub@b,w
  4840  1307  00A0               	movwf	___fladd@b
  4841  1308  0837               	movf	___flsub@a+3,w
  4842  1309  00A7               	movwf	___fladd@a+3
  4843  130A  0836               	movf	___flsub@a+2,w
  4844  130B  00A6               	movwf	___fladd@a+2
  4845  130C  0835               	movf	___flsub@a+1,w
  4846  130D  00A5               	movwf	___fladd@a+1
  4847  130E  0834               	movf	___flsub@a,w
  4848  130F  00A4               	movwf	___fladd@a
  4849  1310  120A  158A  2217  160A  118A  	fcall	___fladd
  4850  1315  1283               	bcf	3,5	;RP0=0, select bank0
  4851  1316  1303               	bcf	3,6	;RP1=0, select bank0
  4852  1317  0823               	movf	?___fladd+3,w
  4853  1318  00B7               	movwf	?___flsub+3
  4854  1319  0822               	movf	?___fladd+2,w
  4855  131A  00B6               	movwf	?___flsub+2
  4856  131B  0821               	movf	?___fladd+1,w
  4857  131C  00B5               	movwf	?___flsub+1
  4858  131D  0820               	movf	?___fladd,w
  4859  131E  00B4               	movwf	?___flsub
  4860  131F                     l565:
  4861  131F  0008               	return
  4862  1320                     __end_of___flsub:
  4863                           
  4864                           	psect	text17
  4865  0A17                     __ptext17:	
  4866 ;; *************** function ___fladd *****************
  4867 ;; Defined at:
  4868 ;;		line 10 in file "C:\Program Files\Microchip\xc8\v2.20\pic\sources\c90\common\sprcadd.c"
  4869 ;; Parameters:    Size  Location     Type
  4870 ;;  b               4    0[BANK0 ] unsigned char 
  4871 ;;  a               4    4[BANK0 ] unsigned char 
  4872 ;; Auto vars:     Size  Location     Type
  4873 ;;  grs             1   19[BANK0 ] unsigned char 
  4874 ;;  bexp            1   18[BANK0 ] unsigned char 
  4875 ;;  aexp            1   17[BANK0 ] unsigned char 
  4876 ;;  signs           1   16[BANK0 ] unsigned char 
  4877 ;; Return value:  Size  Location     Type
  4878 ;;                  4    0[BANK0 ] unsigned char 
  4879 ;; Registers used:
  4880 ;;		wreg, status,2, status,0, btemp+1
  4881 ;; Tracked objects:
  4882 ;;		On entry : 0/0
  4883 ;;		On exit  : 0/0
  4884 ;;		Unchanged: 0/0
  4885 ;; Data sizes:     COMMON   BANK0   BANK1   BANK3   BANK2
  4886 ;;      Params:         0       8       0       0       0
  4887 ;;      Locals:         0       4       0       0       0
  4888 ;;      Temps:          0       8       0       0       0
  4889 ;;      Totals:         0      20       0       0       0
  4890 ;;Total ram usage:       20 bytes
  4891 ;; Hardware stack levels used:    1
  4892 ;; Hardware stack levels required when called:    1
  4893 ;; This function calls:
  4894 ;;		Nothing
  4895 ;; This function is called by:
  4896 ;;		_conversion_newton
  4897 ;;		___flsub
  4898 ;; This function uses a non-reentrant model
  4899 ;;
  4900                           
  4901                           
  4902                           ;psect for function ___fladd
  4903  0A17                     ___fladd:
  4904  0A17                     l1738:	
  4905                           ;incstack = 0
  4906                           ; Regs used in ___fladd: [wreg+status,2+status,0+btemp+1]
  4907                           
  4908  0A17  1283               	bcf	3,5	;RP0=0, select bank0
  4909  0A18  1303               	bcf	3,6	;RP1=0, select bank0
  4910  0A19  0823               	movf	___fladd@b+3,w
  4911  0A1A  3980               	andlw	128
  4912  0A1B  00FF               	movwf	btemp+1
  4913  0A1C  087F               	movf	btemp+1,w
  4914  0A1D  00B0               	movwf	___fladd@signs
  4915  0A1E                     l1740:
  4916  0A1E  0823               	movf	___fladd@b+3,w
  4917  0A1F  00A8               	movwf	??___fladd
  4918  0A20  0728               	addwf	??___fladd,w
  4919  0A21  00FF               	movwf	btemp+1
  4920  0A22  087F               	movf	btemp+1,w
  4921  0A23  00B2               	movwf	___fladd@bexp
  4922  0A24                     l1742:
  4923  0A24  1FA2               	btfss	___fladd@b+2,7
  4924  0A25  2A27               	goto	u2041
  4925  0A26  2A28               	goto	u2040
  4926  0A27                     u2041:
  4927  0A27  2A29               	goto	l1746
  4928  0A28                     u2040:
  4929  0A28                     l1744:
  4930  0A28  1432               	bsf	___fladd@bexp,0
  4931  0A29                     l1746:
  4932  0A29  0832               	movf	___fladd@bexp,w
  4933  0A2A  1903               	btfsc	3,2
  4934  0A2B  2A2D               	goto	u2051
  4935  0A2C  2A2E               	goto	u2050
  4936  0A2D                     u2051:
  4937  0A2D  2A3E               	goto	l1756
  4938  0A2E                     u2050:
  4939  0A2E                     l1748:
  4940  0A2E  0A32               	incf	___fladd@bexp,w
  4941  0A2F  1D03               	btfss	3,2
  4942  0A30  2A32               	goto	u2061
  4943  0A31  2A33               	goto	u2060
  4944  0A32                     u2061:
  4945  0A32  2A3B               	goto	l1752
  4946  0A33                     u2060:
  4947  0A33                     l1750:
  4948  0A33  3000               	movlw	0
  4949  0A34  00A3               	movwf	___fladd@b+3
  4950  0A35  3000               	movlw	0
  4951  0A36  00A2               	movwf	___fladd@b+2
  4952  0A37  3000               	movlw	0
  4953  0A38  00A1               	movwf	___fladd@b+1
  4954  0A39  3000               	movlw	0
  4955  0A3A  00A0               	movwf	___fladd@b
  4956  0A3B                     l1752:
  4957  0A3B  17A2               	bsf	___fladd@b+2,7
  4958  0A3C                     l1754:
  4959  0A3C  01A3               	clrf	___fladd@b+3
  4960  0A3D  2A46               	goto	l1758
  4961  0A3E                     l1756:
  4962  0A3E  3000               	movlw	0
  4963  0A3F  00A3               	movwf	___fladd@b+3
  4964  0A40  3000               	movlw	0
  4965  0A41  00A2               	movwf	___fladd@b+2
  4966  0A42  3000               	movlw	0
  4967  0A43  00A1               	movwf	___fladd@b+1
  4968  0A44  3000               	movlw	0
  4969  0A45  00A0               	movwf	___fladd@b
  4970  0A46                     l1758:
  4971  0A46  0827               	movf	___fladd@a+3,w
  4972  0A47  3980               	andlw	128
  4973  0A48  00FF               	movwf	btemp+1
  4974  0A49  087F               	movf	btemp+1,w
  4975  0A4A  00B1               	movwf	___fladd@aexp
  4976  0A4B                     l1760:
  4977  0A4B  0831               	movf	___fladd@aexp,w
  4978  0A4C  0630               	xorwf	___fladd@signs,w
  4979  0A4D  1903               	skipnz
  4980  0A4E  2A50               	goto	u2071
  4981  0A4F  2A51               	goto	u2070
  4982  0A50                     u2071:
  4983  0A50  2A52               	goto	l1764
  4984  0A51                     u2070:
  4985  0A51                     l1762:
  4986  0A51  1730               	bsf	___fladd@signs,6
  4987  0A52                     l1764:
  4988  0A52  0827               	movf	___fladd@a+3,w
  4989  0A53  00A8               	movwf	??___fladd
  4990  0A54  0728               	addwf	??___fladd,w
  4991  0A55  00FF               	movwf	btemp+1
  4992  0A56  087F               	movf	btemp+1,w
  4993  0A57  00B1               	movwf	___fladd@aexp
  4994  0A58                     l1766:
  4995  0A58  1FA6               	btfss	___fladd@a+2,7
  4996  0A59  2A5B               	goto	u2081
  4997  0A5A  2A5C               	goto	u2080
  4998  0A5B                     u2081:
  4999  0A5B  2A5D               	goto	l1770
  5000  0A5C                     u2080:
  5001  0A5C                     l1768:
  5002  0A5C  1431               	bsf	___fladd@aexp,0
  5003  0A5D                     l1770:
  5004  0A5D  0831               	movf	___fladd@aexp,w
  5005  0A5E  1903               	btfsc	3,2
  5006  0A5F  2A61               	goto	u2091
  5007  0A60  2A62               	goto	u2090
  5008  0A61                     u2091:
  5009  0A61  2A72               	goto	l1780
  5010  0A62                     u2090:
  5011  0A62                     l1772:
  5012  0A62  0A31               	incf	___fladd@aexp,w
  5013  0A63  1D03               	btfss	3,2
  5014  0A64  2A66               	goto	u2101
  5015  0A65  2A67               	goto	u2100
  5016  0A66                     u2101:
  5017  0A66  2A6F               	goto	l1776
  5018  0A67                     u2100:
  5019  0A67                     l1774:
  5020  0A67  3000               	movlw	0
  5021  0A68  00A7               	movwf	___fladd@a+3
  5022  0A69  3000               	movlw	0
  5023  0A6A  00A6               	movwf	___fladd@a+2
  5024  0A6B  3000               	movlw	0
  5025  0A6C  00A5               	movwf	___fladd@a+1
  5026  0A6D  3000               	movlw	0
  5027  0A6E  00A4               	movwf	___fladd@a
  5028  0A6F                     l1776:
  5029  0A6F  17A6               	bsf	___fladd@a+2,7
  5030  0A70                     l1778:
  5031  0A70  01A7               	clrf	___fladd@a+3
  5032  0A71  2A7A               	goto	l519
  5033  0A72                     l1780:
  5034  0A72  3000               	movlw	0
  5035  0A73  00A7               	movwf	___fladd@a+3
  5036  0A74  3000               	movlw	0
  5037  0A75  00A6               	movwf	___fladd@a+2
  5038  0A76  3000               	movlw	0
  5039  0A77  00A5               	movwf	___fladd@a+1
  5040  0A78  3000               	movlw	0
  5041  0A79  00A4               	movwf	___fladd@a
  5042  0A7A                     l519:
  5043  0A7A  0832               	movf	___fladd@bexp,w
  5044  0A7B  0231               	subwf	___fladd@aexp,w
  5045  0A7C  1803               	skipnc
  5046  0A7D  2A7F               	goto	u2111
  5047  0A7E  2A80               	goto	u2110
  5048  0A7F                     u2111:
  5049  0A7F  2AC4               	goto	l1816
  5050  0A80                     u2110:
  5051  0A80                     l1782:
  5052  0A80  1F30               	btfss	___fladd@signs,6
  5053  0A81  2A83               	goto	u2121
  5054  0A82  2A84               	goto	u2120
  5055  0A83                     u2121:
  5056  0A83  2A88               	goto	l1786
  5057  0A84                     u2120:
  5058  0A84                     l1784:
  5059  0A84  3080               	movlw	128
  5060  0A85  00FF               	movwf	btemp+1
  5061  0A86  087F               	movf	btemp+1,w
  5062  0A87  06B0               	xorwf	___fladd@signs,f
  5063  0A88                     l1786:
  5064  0A88  0832               	movf	___fladd@bexp,w
  5065  0A89  00FF               	movwf	btemp+1
  5066  0A8A  087F               	movf	btemp+1,w
  5067  0A8B  00B3               	movwf	___fladd@grs
  5068  0A8C                     l1788:
  5069  0A8C  0831               	movf	___fladd@aexp,w
  5070  0A8D  00FF               	movwf	btemp+1
  5071  0A8E  087F               	movf	btemp+1,w
  5072  0A8F  00B2               	movwf	___fladd@bexp
  5073  0A90                     l1790:
  5074  0A90  0833               	movf	___fladd@grs,w
  5075  0A91  00FF               	movwf	btemp+1
  5076  0A92  087F               	movf	btemp+1,w
  5077  0A93  00B1               	movwf	___fladd@aexp
  5078  0A94                     l1792:
  5079  0A94  0820               	movf	___fladd@b,w
  5080  0A95  00FF               	movwf	btemp+1
  5081  0A96  087F               	movf	btemp+1,w
  5082  0A97  00B3               	movwf	___fladd@grs
  5083  0A98                     l1794:
  5084  0A98  0824               	movf	___fladd@a,w
  5085  0A99  00FF               	movwf	btemp+1
  5086  0A9A  087F               	movf	btemp+1,w
  5087  0A9B  00A0               	movwf	___fladd@b
  5088  0A9C                     l1796:
  5089  0A9C  0833               	movf	___fladd@grs,w
  5090  0A9D  00FF               	movwf	btemp+1
  5091  0A9E  087F               	movf	btemp+1,w
  5092  0A9F  00A4               	movwf	___fladd@a
  5093  0AA0                     l1798:
  5094  0AA0  0821               	movf	___fladd@b+1,w
  5095  0AA1  00FF               	movwf	btemp+1
  5096  0AA2  087F               	movf	btemp+1,w
  5097  0AA3  00B3               	movwf	___fladd@grs
  5098  0AA4                     l1800:
  5099  0AA4  0825               	movf	___fladd@a+1,w
  5100  0AA5  00FF               	movwf	btemp+1
  5101  0AA6  087F               	movf	btemp+1,w
  5102  0AA7  00A1               	movwf	___fladd@b+1
  5103  0AA8                     l1802:
  5104  0AA8  0833               	movf	___fladd@grs,w
  5105  0AA9  00FF               	movwf	btemp+1
  5106  0AAA  087F               	movf	btemp+1,w
  5107  0AAB  00A5               	movwf	___fladd@a+1
  5108  0AAC                     l1804:
  5109  0AAC  0822               	movf	___fladd@b+2,w
  5110  0AAD  00FF               	movwf	btemp+1
  5111  0AAE  087F               	movf	btemp+1,w
  5112  0AAF  00B3               	movwf	___fladd@grs
  5113  0AB0                     l1806:
  5114  0AB0  0826               	movf	___fladd@a+2,w
  5115  0AB1  00FF               	movwf	btemp+1
  5116  0AB2  087F               	movf	btemp+1,w
  5117  0AB3  00A2               	movwf	___fladd@b+2
  5118  0AB4                     l1808:
  5119  0AB4  0833               	movf	___fladd@grs,w
  5120  0AB5  00FF               	movwf	btemp+1
  5121  0AB6  087F               	movf	btemp+1,w
  5122  0AB7  00A6               	movwf	___fladd@a+2
  5123  0AB8                     l1810:
  5124  0AB8  0823               	movf	___fladd@b+3,w
  5125  0AB9  00FF               	movwf	btemp+1
  5126  0ABA  087F               	movf	btemp+1,w
  5127  0ABB  00B3               	movwf	___fladd@grs
  5128  0ABC                     l1812:
  5129  0ABC  0827               	movf	___fladd@a+3,w
  5130  0ABD  00FF               	movwf	btemp+1
  5131  0ABE  087F               	movf	btemp+1,w
  5132  0ABF  00A3               	movwf	___fladd@b+3
  5133  0AC0                     l1814:
  5134  0AC0  0833               	movf	___fladd@grs,w
  5135  0AC1  00FF               	movwf	btemp+1
  5136  0AC2  087F               	movf	btemp+1,w
  5137  0AC3  00A7               	movwf	___fladd@a+3
  5138  0AC4                     l1816:
  5139  0AC4  01B3               	clrf	___fladd@grs
  5140  0AC5                     l1818:
  5141  0AC5  0831               	movf	___fladd@aexp,w
  5142  0AC6  00A8               	movwf	??___fladd
  5143  0AC7  01A9               	clrf	??___fladd+1
  5144  0AC8  0829               	movf	??___fladd+1,w
  5145  0AC9  00AB               	movwf	??___fladd+3
  5146  0ACA  0832               	movf	___fladd@bexp,w
  5147  0ACB  0228               	subwf	??___fladd,w
  5148  0ACC  00AA               	movwf	??___fladd+2
  5149  0ACD  1C03               	skipc
  5150  0ACE  03AB               	decf	??___fladd+3,f
  5151  0ACF  082B               	movf	??___fladd+3,w
  5152  0AD0  3A80               	xorlw	128
  5153  0AD1  00FF               	movwf	btemp+1
  5154  0AD2  3080               	movlw	128
  5155  0AD3  027F               	subwf	btemp+1,w
  5156  0AD4  1D03               	skipz
  5157  0AD5  2AD8               	goto	u2135
  5158  0AD6  301A               	movlw	26
  5159  0AD7  022A               	subwf	??___fladd+2,w
  5160  0AD8                     u2135:
  5161  0AD8  1C03               	skipc
  5162  0AD9  2ADB               	goto	u2131
  5163  0ADA  2ADC               	goto	u2130
  5164  0ADB                     u2131:
  5165  0ADB  2B19               	goto	l1838
  5166  0ADC                     u2130:
  5167  0ADC                     l1820:
  5168  0ADC  1283               	bcf	3,5	;RP0=0, select bank0
  5169  0ADD  1303               	bcf	3,6	;RP1=0, select bank0
  5170  0ADE  0823               	movf	___fladd@b+3,w
  5171  0ADF  0422               	iorwf	___fladd@b+2,w
  5172  0AE0  0421               	iorwf	___fladd@b+1,w
  5173  0AE1  0420               	iorwf	___fladd@b,w
  5174  0AE2  1D03               	skipz
  5175  0AE3  2AE5               	goto	u2141
  5176  0AE4  2AE7               	goto	u2140
  5177  0AE5                     u2141:
  5178  0AE5  3001               	movlw	1
  5179  0AE6  2AE8               	goto	u2150
  5180  0AE7                     u2140:
  5181  0AE7  3000               	movlw	0
  5182  0AE8                     u2150:
  5183  0AE8  00FF               	movwf	btemp+1
  5184  0AE9  087F               	movf	btemp+1,w
  5185  0AEA  00B3               	movwf	___fladd@grs
  5186  0AEB                     l1822:
  5187  0AEB  3000               	movlw	0
  5188  0AEC  00A3               	movwf	___fladd@b+3
  5189  0AED  3000               	movlw	0
  5190  0AEE  00A2               	movwf	___fladd@b+2
  5191  0AEF  3000               	movlw	0
  5192  0AF0  00A1               	movwf	___fladd@b+1
  5193  0AF1  3000               	movlw	0
  5194  0AF2  00A0               	movwf	___fladd@b
  5195  0AF3                     l1824:
  5196  0AF3  0831               	movf	___fladd@aexp,w
  5197  0AF4  00FF               	movwf	btemp+1
  5198  0AF5  087F               	movf	btemp+1,w
  5199  0AF6  00B2               	movwf	___fladd@bexp
  5200  0AF7  2B21               	goto	l523
  5201  0AF8                     l525:
  5202  0AF8  1C33               	btfss	___fladd@grs,0
  5203  0AF9  2AFB               	goto	u2161
  5204  0AFA  2AFC               	goto	u2160
  5205  0AFB                     u2161:
  5206  0AFB  2B05               	goto	l1828
  5207  0AFC                     u2160:
  5208  0AFC                     l1826:
  5209  0AFC  0833               	movf	___fladd@grs,w
  5210  0AFD  00A8               	movwf	??___fladd
  5211  0AFE  1003               	clrc
  5212  0AFF  0C28               	rrf	??___fladd,w
  5213  0B00  3801               	iorlw	1
  5214  0B01  00FF               	movwf	btemp+1
  5215  0B02  087F               	movf	btemp+1,w
  5216  0B03  00B3               	movwf	___fladd@grs
  5217  0B04  2B07               	goto	l1830
  5218  0B05                     l1828:
  5219  0B05  1003               	clrc
  5220  0B06  0CB3               	rrf	___fladd@grs,f
  5221  0B07                     l1830:
  5222  0B07  1C20               	btfss	___fladd@b,0
  5223  0B08  2B0A               	goto	u2171
  5224  0B09  2B0B               	goto	u2170
  5225  0B0A                     u2171:
  5226  0B0A  2B0C               	goto	l1834
  5227  0B0B                     u2170:
  5228  0B0B                     l1832:
  5229  0B0B  17B3               	bsf	___fladd@grs,7
  5230  0B0C                     l1834:
  5231  0B0C  3001               	movlw	1
  5232  0B0D  00A8               	movwf	??___fladd
  5233  0B0E                     u2185:
  5234  0B0E  0D23               	rlf	___fladd@b+3,w
  5235  0B0F  0CA3               	rrf	___fladd@b+3,f
  5236  0B10  0CA2               	rrf	___fladd@b+2,f
  5237  0B11  0CA1               	rrf	___fladd@b+1,f
  5238  0B12  0CA0               	rrf	___fladd@b,f
  5239  0B13  0BA8               	decfsz	??___fladd& (0+127),f
  5240  0B14  2B0E               	goto	u2185
  5241  0B15                     l1836:
  5242  0B15  3001               	movlw	1
  5243  0B16  00FF               	movwf	btemp+1
  5244  0B17  087F               	movf	btemp+1,w
  5245  0B18  07B2               	addwf	___fladd@bexp,f
  5246  0B19                     l1838:
  5247  0B19  1283               	bcf	3,5	;RP0=0, select bank0
  5248  0B1A  1303               	bcf	3,6	;RP1=0, select bank0
  5249  0B1B  0831               	movf	___fladd@aexp,w
  5250  0B1C  0232               	subwf	___fladd@bexp,w
  5251  0B1D  1C03               	skipc
  5252  0B1E  2B20               	goto	u2191
  5253  0B1F  2B21               	goto	u2190
  5254  0B20                     u2191:
  5255  0B20  2AF8               	goto	l525
  5256  0B21                     u2190:
  5257  0B21                     l523:
  5258  0B21  1B30               	btfsc	___fladd@signs,6
  5259  0B22  2B24               	goto	u2201
  5260  0B23  2B25               	goto	u2200
  5261  0B24                     u2201:
  5262  0B24  2B70               	goto	l1864
  5263  0B25                     u2200:
  5264  0B25                     l1840:
  5265  0B25  0832               	movf	___fladd@bexp,w
  5266  0B26  1D03               	btfss	3,2
  5267  0B27  2B29               	goto	u2211
  5268  0B28  2B2A               	goto	u2210
  5269  0B29                     u2211:
  5270  0B29  2B33               	goto	l1846
  5271  0B2A                     u2210:
  5272  0B2A                     l1842:
  5273  0B2A  3000               	movlw	0
  5274  0B2B  00A3               	movwf	?___fladd+3
  5275  0B2C  3000               	movlw	0
  5276  0B2D  00A2               	movwf	?___fladd+2
  5277  0B2E  3000               	movlw	0
  5278  0B2F  00A1               	movwf	?___fladd+1
  5279  0B30  3000               	movlw	0
  5280  0B31  00A0               	movwf	?___fladd
  5281  0B32  2C9E               	goto	l532
  5282  0B33                     l1846:
  5283  0B33  0824               	movf	___fladd@a,w
  5284  0B34  07A0               	addwf	___fladd@b,f
  5285  0B35  0825               	movf	___fladd@a+1,w
  5286  0B36  1103               	clrz
  5287  0B37  1803               	skipnc
  5288  0B38  3E01               	addlw	1
  5289  0B39  1903               	skipnz
  5290  0B3A  2B3C               	goto	u2221
  5291  0B3B  07A1               	addwf	___fladd@b+1,f
  5292  0B3C                     u2221:
  5293  0B3C  0826               	movf	___fladd@a+2,w
  5294  0B3D  1103               	clrz
  5295  0B3E  1803               	skipnc
  5296  0B3F  3E01               	addlw	1
  5297  0B40  1903               	skipnz
  5298  0B41  2B43               	goto	u2222
  5299  0B42  07A2               	addwf	___fladd@b+2,f
  5300  0B43                     u2222:
  5301  0B43  0827               	movf	___fladd@a+3,w
  5302  0B44  1103               	clrz
  5303  0B45  1803               	skipnc
  5304  0B46  3E01               	addlw	1
  5305  0B47  1903               	skipnz
  5306  0B48  2B4A               	goto	u2223
  5307  0B49  07A3               	addwf	___fladd@b+3,f
  5308  0B4A                     u2223:
  5309  0B4A                     l1848:
  5310  0B4A  1C23               	btfss	___fladd@b+3,0
  5311  0B4B  2B4D               	goto	u2231
  5312  0B4C  2B4E               	goto	u2230
  5313  0B4D                     u2231:
  5314  0B4D  2C24               	goto	l1900
  5315  0B4E                     u2230:
  5316  0B4E                     l1850:
  5317  0B4E  1C33               	btfss	___fladd@grs,0
  5318  0B4F  2B51               	goto	u2241
  5319  0B50  2B52               	goto	u2240
  5320  0B51                     u2241:
  5321  0B51  2B5B               	goto	l1854
  5322  0B52                     u2240:
  5323  0B52                     l1852:
  5324  0B52  0833               	movf	___fladd@grs,w
  5325  0B53  00A8               	movwf	??___fladd
  5326  0B54  1003               	clrc
  5327  0B55  0C28               	rrf	??___fladd,w
  5328  0B56  3801               	iorlw	1
  5329  0B57  00FF               	movwf	btemp+1
  5330  0B58  087F               	movf	btemp+1,w
  5331  0B59  00B3               	movwf	___fladd@grs
  5332  0B5A  2B5D               	goto	l1856
  5333  0B5B                     l1854:
  5334  0B5B  1003               	clrc
  5335  0B5C  0CB3               	rrf	___fladd@grs,f
  5336  0B5D                     l1856:
  5337  0B5D  1C20               	btfss	___fladd@b,0
  5338  0B5E  2B60               	goto	u2251
  5339  0B5F  2B61               	goto	u2250
  5340  0B60                     u2251:
  5341  0B60  2B62               	goto	l1860
  5342  0B61                     u2250:
  5343  0B61                     l1858:
  5344  0B61  17B3               	bsf	___fladd@grs,7
  5345  0B62                     l1860:
  5346  0B62  3001               	movlw	1
  5347  0B63  00A8               	movwf	??___fladd
  5348  0B64                     u2265:
  5349  0B64  0D23               	rlf	___fladd@b+3,w
  5350  0B65  0CA3               	rrf	___fladd@b+3,f
  5351  0B66  0CA2               	rrf	___fladd@b+2,f
  5352  0B67  0CA1               	rrf	___fladd@b+1,f
  5353  0B68  0CA0               	rrf	___fladd@b,f
  5354  0B69  0BA8               	decfsz	??___fladd& (0+127),f
  5355  0B6A  2B64               	goto	u2265
  5356  0B6B                     l1862:
  5357  0B6B  3001               	movlw	1
  5358  0B6C  00FF               	movwf	btemp+1
  5359  0B6D  087F               	movf	btemp+1,w
  5360  0B6E  07B2               	addwf	___fladd@bexp,f
  5361  0B6F  2C24               	goto	l1900
  5362  0B70                     l1864:
  5363  0B70  0823               	movf	___fladd@b+3,w
  5364  0B71  3A80               	xorlw	128
  5365  0B72  00FF               	movwf	btemp+1
  5366  0B73  0827               	movf	___fladd@a+3,w
  5367  0B74  3A80               	xorlw	128
  5368  0B75  027F               	subwf	btemp+1,w
  5369  0B76  1D03               	skipz
  5370  0B77  2B82               	goto	u2273
  5371  0B78  0826               	movf	___fladd@a+2,w
  5372  0B79  0222               	subwf	___fladd@b+2,w
  5373  0B7A  1D03               	skipz
  5374  0B7B  2B82               	goto	u2273
  5375  0B7C  0825               	movf	___fladd@a+1,w
  5376  0B7D  0221               	subwf	___fladd@b+1,w
  5377  0B7E  1D03               	skipz
  5378  0B7F  2B82               	goto	u2273
  5379  0B80  0824               	movf	___fladd@a,w
  5380  0B81  0220               	subwf	___fladd@b,w
  5381  0B82                     u2273:
  5382  0B82  1803               	skipnc
  5383  0B83  2B85               	goto	u2271
  5384  0B84  2B86               	goto	u2270
  5385  0B85                     u2271:
  5386  0B85  2BDE               	goto	l1876
  5387  0B86                     u2270:
  5388  0B86                     l1866:
  5389  0B86  30FF               	movlw	255
  5390  0B87  00A8               	movwf	??___fladd
  5391  0B88  30FF               	movlw	255
  5392  0B89  00A9               	movwf	??___fladd+1
  5393  0B8A  30FF               	movlw	255
  5394  0B8B  00AA               	movwf	??___fladd+2
  5395  0B8C  30FF               	movlw	255
  5396  0B8D  00AB               	movwf	??___fladd+3
  5397  0B8E  0824               	movf	___fladd@a,w
  5398  0B8F  00AC               	movwf	??___fladd+4
  5399  0B90  0825               	movf	___fladd@a+1,w
  5400  0B91  00AD               	movwf	??___fladd+5
  5401  0B92  0826               	movf	___fladd@a+2,w
  5402  0B93  00AE               	movwf	??___fladd+6
  5403  0B94  0827               	movf	___fladd@a+3,w
  5404  0B95  00AF               	movwf	??___fladd+7
  5405  0B96  0820               	movf	___fladd@b,w
  5406  0B97  02AC               	subwf	??___fladd+4,f
  5407  0B98  0821               	movf	___fladd@b+1,w
  5408  0B99  1C03               	skipc
  5409  0B9A  0F21               	incfsz	___fladd@b+1,w
  5410  0B9B  2B9D               	goto	u2281
  5411  0B9C  2B9E               	goto	u2282
  5412  0B9D                     u2281:
  5413  0B9D  02AD               	subwf	??___fladd+5,f
  5414  0B9E                     u2282:
  5415  0B9E  0822               	movf	___fladd@b+2,w
  5416  0B9F  1C03               	skipc
  5417  0BA0  0F22               	incfsz	___fladd@b+2,w
  5418  0BA1  2BA3               	goto	u2283
  5419  0BA2  2BA4               	goto	u2284
  5420  0BA3                     u2283:
  5421  0BA3  02AE               	subwf	??___fladd+6,f
  5422  0BA4                     u2284:
  5423  0BA4  0823               	movf	___fladd@b+3,w
  5424  0BA5  1C03               	skipc
  5425  0BA6  0F23               	incfsz	___fladd@b+3,w
  5426  0BA7  2BA9               	goto	u2285
  5427  0BA8  2BAA               	goto	u2286
  5428  0BA9                     u2285:
  5429  0BA9  02AF               	subwf	??___fladd+7,f
  5430  0BAA                     u2286:
  5431  0BAA  082C               	movf	??___fladd+4,w
  5432  0BAB  07A8               	addwf	??___fladd,f
  5433  0BAC  082D               	movf	??___fladd+5,w
  5434  0BAD  1803               	skipnc
  5435  0BAE  0F2D               	incfsz	??___fladd+5,w
  5436  0BAF  2BB1               	goto	u2290
  5437  0BB0  2BB2               	goto	u2291
  5438  0BB1                     u2290:
  5439  0BB1  07A9               	addwf	??___fladd+1,f
  5440  0BB2                     u2291:
  5441  0BB2  082E               	movf	??___fladd+6,w
  5442  0BB3  1803               	skipnc
  5443  0BB4  0F2E               	incfsz	??___fladd+6,w
  5444  0BB5  2BB7               	goto	u2292
  5445  0BB6  2BB8               	goto	u2293
  5446  0BB7                     u2292:
  5447  0BB7  07AA               	addwf	??___fladd+2,f
  5448  0BB8                     u2293:
  5449  0BB8  082F               	movf	??___fladd+7,w
  5450  0BB9  1803               	skipnc
  5451  0BBA  0A2F               	incf	??___fladd+7,w
  5452  0BBB  07AB               	addwf	??___fladd+3,f
  5453  0BBC  082B               	movf	??___fladd+3,w
  5454  0BBD  00A3               	movwf	___fladd@b+3
  5455  0BBE  082A               	movf	??___fladd+2,w
  5456  0BBF  00A2               	movwf	___fladd@b+2
  5457  0BC0  0829               	movf	??___fladd+1,w
  5458  0BC1  00A1               	movwf	___fladd@b+1
  5459  0BC2  0828               	movf	??___fladd,w
  5460  0BC3  00A0               	movwf	___fladd@b
  5461  0BC4                     l1868:
  5462  0BC4  3080               	movlw	128
  5463  0BC5  00FF               	movwf	btemp+1
  5464  0BC6  087F               	movf	btemp+1,w
  5465  0BC7  06B0               	xorwf	___fladd@signs,f
  5466  0BC8                     l1870:
  5467  0BC8  09B3               	comf	___fladd@grs,f
  5468  0BC9  0AB3               	incf	___fladd@grs,f
  5469  0BCA                     l1872:
  5470  0BCA  0833               	movf	___fladd@grs,w
  5471  0BCB  1D03               	btfss	3,2
  5472  0BCC  2BCE               	goto	u2301
  5473  0BCD  2BCF               	goto	u2300
  5474  0BCE                     u2301:
  5475  0BCE  2BEC               	goto	l540
  5476  0BCF                     u2300:
  5477  0BCF                     l1874:
  5478  0BCF  3001               	movlw	1
  5479  0BD0  07A0               	addwf	___fladd@b,f
  5480  0BD1  3000               	movlw	0
  5481  0BD2  1803               	skipnc
  5482  0BD3  3001               	movlw	1
  5483  0BD4  07A1               	addwf	___fladd@b+1,f
  5484  0BD5  3000               	movlw	0
  5485  0BD6  1803               	skipnc
  5486  0BD7  3001               	movlw	1
  5487  0BD8  07A2               	addwf	___fladd@b+2,f
  5488  0BD9  3000               	movlw	0
  5489  0BDA  1803               	skipnc
  5490  0BDB  3001               	movlw	1
  5491  0BDC  07A3               	addwf	___fladd@b+3,f
  5492  0BDD  2BEC               	goto	l540
  5493  0BDE                     l1876:
  5494  0BDE  0824               	movf	___fladd@a,w
  5495  0BDF  02A0               	subwf	___fladd@b,f
  5496  0BE0  0825               	movf	___fladd@a+1,w
  5497  0BE1  1C03               	skipc
  5498  0BE2  0F25               	incfsz	___fladd@a+1,w
  5499  0BE3  02A1               	subwf	___fladd@b+1,f
  5500  0BE4  0826               	movf	___fladd@a+2,w
  5501  0BE5  1C03               	skipc
  5502  0BE6  0F26               	incfsz	___fladd@a+2,w
  5503  0BE7  02A2               	subwf	___fladd@b+2,f
  5504  0BE8  0827               	movf	___fladd@a+3,w
  5505  0BE9  1C03               	skipc
  5506  0BEA  0F27               	incfsz	___fladd@a+3,w
  5507  0BEB  02A3               	subwf	___fladd@b+3,f
  5508  0BEC                     l540:
  5509  0BEC  0823               	movf	___fladd@b+3,w
  5510  0BED  0422               	iorwf	___fladd@b+2,w
  5511  0BEE  0421               	iorwf	___fladd@b+1,w
  5512  0BEF  0420               	iorwf	___fladd@b,w
  5513  0BF0  1D03               	skipz
  5514  0BF1  2BF3               	goto	u2311
  5515  0BF2  2BF4               	goto	u2310
  5516  0BF3                     u2311:
  5517  0BF3  2C20               	goto	l1898
  5518  0BF4                     u2310:
  5519  0BF4                     l1878:
  5520  0BF4  0833               	movf	___fladd@grs,w
  5521  0BF5  1D03               	btfss	3,2
  5522  0BF6  2BF8               	goto	u2321
  5523  0BF7  2BF9               	goto	u2320
  5524  0BF8                     u2321:
  5525  0BF8  2C20               	goto	l1898
  5526  0BF9                     u2320:
  5527  0BF9                     l1880:
  5528  0BF9  3000               	movlw	0
  5529  0BFA  00A3               	movwf	?___fladd+3
  5530  0BFB  3000               	movlw	0
  5531  0BFC  00A2               	movwf	?___fladd+2
  5532  0BFD  3000               	movlw	0
  5533  0BFE  00A1               	movwf	?___fladd+1
  5534  0BFF  3000               	movlw	0
  5535  0C00  00A0               	movwf	?___fladd
  5536  0C01  2C9E               	goto	l532
  5537  0C02                     l1884:
  5538  0C02  3001               	movlw	1
  5539  0C03  00A8               	movwf	??___fladd
  5540  0C04                     u2335:
  5541  0C04  1003               	clrc
  5542  0C05  0DA0               	rlf	___fladd@b,f
  5543  0C06  0DA1               	rlf	___fladd@b+1,f
  5544  0C07  0DA2               	rlf	___fladd@b+2,f
  5545  0C08  0DA3               	rlf	___fladd@b+3,f
  5546  0C09  0BA8               	decfsz	??___fladd,f
  5547  0C0A  2C04               	goto	u2335
  5548  0C0B                     l1886:
  5549  0C0B  1FB3               	btfss	___fladd@grs,7
  5550  0C0C  2C0E               	goto	u2341
  5551  0C0D  2C0F               	goto	u2340
  5552  0C0E                     u2341:
  5553  0C0E  2C10               	goto	l544
  5554  0C0F                     u2340:
  5555  0C0F                     l1888:
  5556  0C0F  1420               	bsf	___fladd@b,0
  5557  0C10                     l544:
  5558  0C10  1C33               	btfss	___fladd@grs,0
  5559  0C11  2C13               	goto	u2351
  5560  0C12  2C14               	goto	u2350
  5561  0C13                     u2351:
  5562  0C13  2C17               	goto	l1892
  5563  0C14                     u2350:
  5564  0C14                     l1890:
  5565  0C14  1403               	setc
  5566  0C15  0DB3               	rlf	___fladd@grs,f
  5567  0C16  2C19               	goto	l1894
  5568  0C17                     l1892:
  5569  0C17  1003               	clrc
  5570  0C18  0DB3               	rlf	___fladd@grs,f
  5571  0C19                     l1894:
  5572  0C19  0832               	movf	___fladd@bexp,w
  5573  0C1A  1903               	btfsc	3,2
  5574  0C1B  2C1D               	goto	u2361
  5575  0C1C  2C1E               	goto	u2360
  5576  0C1D                     u2361:
  5577  0C1D  2C20               	goto	l1898
  5578  0C1E                     u2360:
  5579  0C1E                     l1896:
  5580  0C1E  3001               	movlw	1
  5581  0C1F  02B2               	subwf	___fladd@bexp,f
  5582  0C20                     l1898:
  5583  0C20  1FA2               	btfss	___fladd@b+2,7
  5584  0C21  2C23               	goto	u2371
  5585  0C22  2C24               	goto	u2370
  5586  0C23                     u2371:
  5587  0C23  2C02               	goto	l1884
  5588  0C24                     u2370:
  5589  0C24                     l1900:
  5590  0C24  01B1               	clrf	___fladd@aexp
  5591  0C25                     l1902:
  5592  0C25  1FB3               	btfss	___fladd@grs,7
  5593  0C26  2C28               	goto	u2381
  5594  0C27  2C29               	goto	u2380
  5595  0C28                     u2381:
  5596  0C28  2C37               	goto	l1910
  5597  0C29                     u2380:
  5598  0C29                     l1904:
  5599  0C29  0833               	movf	___fladd@grs,w
  5600  0C2A  397F               	andlw	127
  5601  0C2B  1903               	btfsc	3,2
  5602  0C2C  2C2E               	goto	u2391
  5603  0C2D  2C2F               	goto	u2390
  5604  0C2E                     u2391:
  5605  0C2E  2C32               	goto	l550
  5606  0C2F                     u2390:
  5607  0C2F                     l1906:
  5608  0C2F  01B1               	clrf	___fladd@aexp
  5609  0C30  0AB1               	incf	___fladd@aexp,f
  5610  0C31  2C37               	goto	l1910
  5611  0C32                     l550:
  5612  0C32  1C20               	btfss	___fladd@b,0
  5613  0C33  2C35               	goto	u2401
  5614  0C34  2C36               	goto	u2400
  5615  0C35                     u2401:
  5616  0C35  2C37               	goto	l1910
  5617  0C36                     u2400:
  5618  0C36  2C2F               	goto	l1906
  5619  0C37                     l1910:
  5620  0C37  0831               	movf	___fladd@aexp,w
  5621  0C38  1903               	btfsc	3,2
  5622  0C39  2C3B               	goto	u2411
  5623  0C3A  2C3C               	goto	u2410
  5624  0C3B                     u2411:
  5625  0C3B  2C70               	goto	l1920
  5626  0C3C                     u2410:
  5627  0C3C                     l1912:
  5628  0C3C  3001               	movlw	1
  5629  0C3D  07A0               	addwf	___fladd@b,f
  5630  0C3E  3000               	movlw	0
  5631  0C3F  1803               	skipnc
  5632  0C40  3001               	movlw	1
  5633  0C41  07A1               	addwf	___fladd@b+1,f
  5634  0C42  3000               	movlw	0
  5635  0C43  1803               	skipnc
  5636  0C44  3001               	movlw	1
  5637  0C45  07A2               	addwf	___fladd@b+2,f
  5638  0C46  3000               	movlw	0
  5639  0C47  1803               	skipnc
  5640  0C48  3001               	movlw	1
  5641  0C49  07A3               	addwf	___fladd@b+3,f
  5642  0C4A                     l1914:
  5643  0C4A  1C23               	btfss	___fladd@b+3,0
  5644  0C4B  2C4D               	goto	u2421
  5645  0C4C  2C4E               	goto	u2420
  5646  0C4D                     u2421:
  5647  0C4D  2C70               	goto	l1920
  5648  0C4E                     u2420:
  5649  0C4E                     l1916:
  5650  0C4E  0820               	movf	___fladd@b,w
  5651  0C4F  00A8               	movwf	??___fladd
  5652  0C50  0821               	movf	___fladd@b+1,w
  5653  0C51  00A9               	movwf	??___fladd+1
  5654  0C52  0822               	movf	___fladd@b+2,w
  5655  0C53  00AA               	movwf	??___fladd+2
  5656  0C54  0823               	movf	___fladd@b+3,w
  5657  0C55  00AB               	movwf	??___fladd+3
  5658  0C56  3001               	movlw	1
  5659  0C57  00AC               	movwf	??___fladd+4
  5660  0C58                     u2435:
  5661  0C58  0D2B               	rlf	??___fladd+3,w
  5662  0C59  0CAB               	rrf	??___fladd+3,f
  5663  0C5A  0CAA               	rrf	??___fladd+2,f
  5664  0C5B  0CA9               	rrf	??___fladd+1,f
  5665  0C5C  0CA8               	rrf	??___fladd,f
  5666  0C5D                     u2430:
  5667  0C5D  0BAC               	decfsz	??___fladd+4,f
  5668  0C5E  2C58               	goto	u2435
  5669  0C5F  082B               	movf	??___fladd+3,w
  5670  0C60  00A3               	movwf	___fladd@b+3
  5671  0C61  082A               	movf	??___fladd+2,w
  5672  0C62  00A2               	movwf	___fladd@b+2
  5673  0C63  0829               	movf	??___fladd+1,w
  5674  0C64  00A1               	movwf	___fladd@b+1
  5675  0C65  0828               	movf	??___fladd,w
  5676  0C66  00A0               	movwf	___fladd@b
  5677  0C67  0A32               	incf	___fladd@bexp,w
  5678  0C68  1903               	btfsc	3,2
  5679  0C69  2C6B               	goto	u2441
  5680  0C6A  2C6C               	goto	u2440
  5681  0C6B                     u2441:
  5682  0C6B  2C70               	goto	l1920
  5683  0C6C                     u2440:
  5684  0C6C                     l1918:
  5685  0C6C  3001               	movlw	1
  5686  0C6D  00FF               	movwf	btemp+1
  5687  0C6E  087F               	movf	btemp+1,w
  5688  0C6F  07B2               	addwf	___fladd@bexp,f
  5689  0C70                     l1920:
  5690  0C70  0A32               	incf	___fladd@bexp,w
  5691  0C71  1903               	btfsc	3,2
  5692  0C72  2C74               	goto	u2451
  5693  0C73  2C75               	goto	u2450
  5694  0C74                     u2451:
  5695  0C74  2C7A               	goto	l1924
  5696  0C75                     u2450:
  5697  0C75                     l1922:
  5698  0C75  0832               	movf	___fladd@bexp,w
  5699  0C76  1D03               	btfss	3,2
  5700  0C77  2C79               	goto	u2461
  5701  0C78  2C7A               	goto	u2460
  5702  0C79                     u2461:
  5703  0C79  2C88               	goto	l1930
  5704  0C7A                     u2460:
  5705  0C7A                     l1924:
  5706  0C7A  3000               	movlw	0
  5707  0C7B  00A3               	movwf	___fladd@b+3
  5708  0C7C  3000               	movlw	0
  5709  0C7D  00A2               	movwf	___fladd@b+2
  5710  0C7E  3000               	movlw	0
  5711  0C7F  00A1               	movwf	___fladd@b+1
  5712  0C80  3000               	movlw	0
  5713  0C81  00A0               	movwf	___fladd@b
  5714  0C82                     l1926:
  5715  0C82  0832               	movf	___fladd@bexp,w
  5716  0C83  1D03               	btfss	3,2
  5717  0C84  2C86               	goto	u2471
  5718  0C85  2C87               	goto	u2470
  5719  0C86                     u2471:
  5720  0C86  2C88               	goto	l1930
  5721  0C87                     u2470:
  5722  0C87                     l1928:
  5723  0C87  01B0               	clrf	___fladd@signs
  5724  0C88                     l1930:
  5725  0C88  1C32               	btfss	___fladd@bexp,0
  5726  0C89  2C8B               	goto	u2481
  5727  0C8A  2C8C               	goto	u2480
  5728  0C8B                     u2481:
  5729  0C8B  2C8E               	goto	l1934
  5730  0C8C                     u2480:
  5731  0C8C                     l1932:
  5732  0C8C  17A2               	bsf	___fladd@b+2,7
  5733  0C8D  2C92               	goto	l561
  5734  0C8E                     l1934:
  5735  0C8E  307F               	movlw	127
  5736  0C8F  00FF               	movwf	btemp+1
  5737  0C90  087F               	movf	btemp+1,w
  5738  0C91  05A2               	andwf	___fladd@b+2,f
  5739  0C92                     l561:
  5740  0C92  0832               	movf	___fladd@bexp,w
  5741  0C93  00A8               	movwf	??___fladd
  5742  0C94  1003               	clrc
  5743  0C95  0C28               	rrf	??___fladd,w
  5744  0C96  00FF               	movwf	btemp+1
  5745  0C97  087F               	movf	btemp+1,w
  5746  0C98  00A3               	movwf	___fladd@b+3
  5747  0C99                     l1936:
  5748  0C99  1FB0               	btfss	___fladd@signs,7
  5749  0C9A  2C9C               	goto	u2491
  5750  0C9B  2C9D               	goto	u2490
  5751  0C9C                     u2491:
  5752  0C9C  2C9E               	goto	l562
  5753  0C9D                     u2490:
  5754  0C9D                     l1938:
  5755  0C9D  17A3               	bsf	___fladd@b+3,7
  5756  0C9E                     l562:
  5757  0C9E                     l532:
  5758  0C9E  0008               	return
  5759  0C9F                     __end_of___fladd:
  5760                           
  5761                           	psect	text18
  5762  0C9F                     __ptext18:	
  5763 ;; *************** function ___flmul *****************
  5764 ;; Defined at:
  5765 ;;		line 8 in file "C:\Program Files\Microchip\xc8\v2.20\pic\sources\c90\common\sprcmul.c"
  5766 ;; Parameters:    Size  Location     Type
  5767 ;;  b               4   54[BANK0 ] unsigned char 
  5768 ;;  a               4   58[BANK0 ] unsigned char 
  5769 ;; Auto vars:     Size  Location     Type
  5770 ;;  prod            4   74[BANK0 ] struct .
  5771 ;;  grs             4   68[BANK0 ] unsigned long 
  5772 ;;  temp            2   78[BANK0 ] struct .
  5773 ;;  bexp            1   73[BANK0 ] unsigned char 
  5774 ;;  aexp            1   72[BANK0 ] unsigned char 
  5775 ;;  sign            1   67[BANK0 ] unsigned char 
  5776 ;; Return value:  Size  Location     Type
  5777 ;;                  4   54[BANK0 ] unsigned char 
  5778 ;; Registers used:
  5779 ;;		wreg, status,2, status,0, btemp+1, pclath, cstack
  5780 ;; Tracked objects:
  5781 ;;		On entry : 0/0
  5782 ;;		On exit  : 0/0
  5783 ;;		Unchanged: 0/0
  5784 ;; Data sizes:     COMMON   BANK0   BANK1   BANK3   BANK2
  5785 ;;      Params:         0       8       0       0       0
  5786 ;;      Locals:         0      13       0       0       0
  5787 ;;      Temps:          0       5       0       0       0
  5788 ;;      Totals:         0      26       0       0       0
  5789 ;;Total ram usage:       26 bytes
  5790 ;; Hardware stack levels used:    1
  5791 ;; Hardware stack levels required when called:    2
  5792 ;; This function calls:
  5793 ;;		__Umul8_16
  5794 ;; This function is called by:
  5795 ;;		_puts_Newton
  5796 ;;		_Voltage_Value
  5797 ;;		_Resistance_Value
  5798 ;;		_conversion_newton
  5799 ;;		_puts_float
  5800 ;; This function uses a non-reentrant model
  5801 ;;
  5802                           
  5803                           
  5804                           ;psect for function ___flmul
  5805  0C9F                     ___flmul:
  5806  0C9F                     l2224:	
  5807                           ;incstack = 0
  5808                           ; Regs used in ___flmul: [wreg+status,2+status,0+btemp+1+pclath+cstack]
  5809                           
  5810  0C9F  1283               	bcf	3,5	;RP0=0, select bank0
  5811  0CA0  1303               	bcf	3,6	;RP1=0, select bank0
  5812  0CA1  0859               	movf	___flmul@b+3,w
  5813  0CA2  3980               	andlw	128
  5814  0CA3  00FF               	movwf	btemp+1
  5815  0CA4  087F               	movf	btemp+1,w
  5816  0CA5  00E3               	movwf	___flmul@sign
  5817  0CA6                     l2226:
  5818  0CA6  0859               	movf	___flmul@b+3,w
  5819  0CA7  00DE               	movwf	??___flmul
  5820  0CA8  075E               	addwf	??___flmul,w
  5821  0CA9  00FF               	movwf	btemp+1
  5822  0CAA  087F               	movf	btemp+1,w
  5823  0CAB  00E9               	movwf	___flmul@bexp
  5824  0CAC                     l2228:
  5825  0CAC  1FD8               	btfss	___flmul@b+2,7
  5826  0CAD  2CAF               	goto	u3151
  5827  0CAE  2CB0               	goto	u3150
  5828  0CAF                     u3151:
  5829  0CAF  2CB1               	goto	l2232
  5830  0CB0                     u3150:
  5831  0CB0                     l2230:
  5832  0CB0  1469               	bsf	___flmul@bexp,0
  5833  0CB1                     l2232:
  5834  0CB1  0869               	movf	___flmul@bexp,w
  5835  0CB2  1903               	btfsc	3,2
  5836  0CB3  2CB5               	goto	u3161
  5837  0CB4  2CB6               	goto	u3160
  5838  0CB5                     u3161:
  5839  0CB5  2CC5               	goto	l2240
  5840  0CB6                     u3160:
  5841  0CB6                     l2234:
  5842  0CB6  0A69               	incf	___flmul@bexp,w
  5843  0CB7  1D03               	btfss	3,2
  5844  0CB8  2CBA               	goto	u3171
  5845  0CB9  2CBB               	goto	u3170
  5846  0CBA                     u3171:
  5847  0CBA  2CC3               	goto	l2238
  5848  0CBB                     u3170:
  5849  0CBB                     l2236:
  5850  0CBB  3000               	movlw	0
  5851  0CBC  00D9               	movwf	___flmul@b+3
  5852  0CBD  3000               	movlw	0
  5853  0CBE  00D8               	movwf	___flmul@b+2
  5854  0CBF  3000               	movlw	0
  5855  0CC0  00D7               	movwf	___flmul@b+1
  5856  0CC1  3000               	movlw	0
  5857  0CC2  00D6               	movwf	___flmul@b
  5858  0CC3                     l2238:
  5859  0CC3  17D8               	bsf	___flmul@b+2,7
  5860  0CC4  2CCD               	goto	l2242
  5861  0CC5                     l2240:
  5862  0CC5  3000               	movlw	0
  5863  0CC6  00D9               	movwf	___flmul@b+3
  5864  0CC7  3000               	movlw	0
  5865  0CC8  00D8               	movwf	___flmul@b+2
  5866  0CC9  3000               	movlw	0
  5867  0CCA  00D7               	movwf	___flmul@b+1
  5868  0CCB  3000               	movlw	0
  5869  0CCC  00D6               	movwf	___flmul@b
  5870  0CCD                     l2242:
  5871  0CCD  085D               	movf	___flmul@a+3,w
  5872  0CCE  3980               	andlw	128
  5873  0CCF  00FF               	movwf	btemp+1
  5874  0CD0  087F               	movf	btemp+1,w
  5875  0CD1  06E3               	xorwf	___flmul@sign,f
  5876  0CD2                     l2244:
  5877  0CD2  085D               	movf	___flmul@a+3,w
  5878  0CD3  00DE               	movwf	??___flmul
  5879  0CD4  075E               	addwf	??___flmul,w
  5880  0CD5  00FF               	movwf	btemp+1
  5881  0CD6  087F               	movf	btemp+1,w
  5882  0CD7  00E8               	movwf	___flmul@aexp
  5883  0CD8                     l2246:
  5884  0CD8  1FDC               	btfss	___flmul@a+2,7
  5885  0CD9  2CDB               	goto	u3181
  5886  0CDA  2CDC               	goto	u3180
  5887  0CDB                     u3181:
  5888  0CDB  2CDD               	goto	l2250
  5889  0CDC                     u3180:
  5890  0CDC                     l2248:
  5891  0CDC  1468               	bsf	___flmul@aexp,0
  5892  0CDD                     l2250:
  5893  0CDD  0868               	movf	___flmul@aexp,w
  5894  0CDE  1903               	btfsc	3,2
  5895  0CDF  2CE1               	goto	u3191
  5896  0CE0  2CE2               	goto	u3190
  5897  0CE1                     u3191:
  5898  0CE1  2CF1               	goto	l2258
  5899  0CE2                     u3190:
  5900  0CE2                     l2252:
  5901  0CE2  0A68               	incf	___flmul@aexp,w
  5902  0CE3  1D03               	btfss	3,2
  5903  0CE4  2CE6               	goto	u3201
  5904  0CE5  2CE7               	goto	u3200
  5905  0CE6                     u3201:
  5906  0CE6  2CEF               	goto	l2256
  5907  0CE7                     u3200:
  5908  0CE7                     l2254:
  5909  0CE7  3000               	movlw	0
  5910  0CE8  00DD               	movwf	___flmul@a+3
  5911  0CE9  3000               	movlw	0
  5912  0CEA  00DC               	movwf	___flmul@a+2
  5913  0CEB  3000               	movlw	0
  5914  0CEC  00DB               	movwf	___flmul@a+1
  5915  0CED  3000               	movlw	0
  5916  0CEE  00DA               	movwf	___flmul@a
  5917  0CEF                     l2256:
  5918  0CEF  17DC               	bsf	___flmul@a+2,7
  5919  0CF0  2CF9               	goto	l2260
  5920  0CF1                     l2258:
  5921  0CF1  3000               	movlw	0
  5922  0CF2  00DD               	movwf	___flmul@a+3
  5923  0CF3  3000               	movlw	0
  5924  0CF4  00DC               	movwf	___flmul@a+2
  5925  0CF5  3000               	movlw	0
  5926  0CF6  00DB               	movwf	___flmul@a+1
  5927  0CF7  3000               	movlw	0
  5928  0CF8  00DA               	movwf	___flmul@a
  5929  0CF9                     l2260:
  5930  0CF9  0868               	movf	___flmul@aexp,w
  5931  0CFA  1903               	btfsc	3,2
  5932  0CFB  2CFD               	goto	u3211
  5933  0CFC  2CFE               	goto	u3210
  5934  0CFD                     u3211:
  5935  0CFD  2D03               	goto	l2264
  5936  0CFE                     u3210:
  5937  0CFE                     l2262:
  5938  0CFE  0869               	movf	___flmul@bexp,w
  5939  0CFF  1D03               	btfss	3,2
  5940  0D00  2D02               	goto	u3221
  5941  0D01  2D03               	goto	u3220
  5942  0D02                     u3221:
  5943  0D02  2D0C               	goto	l2268
  5944  0D03                     u3220:
  5945  0D03                     l2264:
  5946  0D03  3000               	movlw	0
  5947  0D04  00D9               	movwf	?___flmul+3
  5948  0D05  3000               	movlw	0
  5949  0D06  00D8               	movwf	?___flmul+2
  5950  0D07  3000               	movlw	0
  5951  0D08  00D7               	movwf	?___flmul+1
  5952  0D09  3000               	movlw	0
  5953  0D0A  00D6               	movwf	?___flmul
  5954  0D0B  2FFF               	goto	l615
  5955  0D0C                     l2268:
  5956  0D0C  0856               	movf	___flmul@b,w
  5957  0D0D  00FF               	movwf	btemp+1
  5958  0D0E  087F               	movf	btemp+1,w
  5959  0D0F  00F2               	movwf	__Umul8_16@multiplicand
  5960  0D10  085C               	movf	___flmul@a+2,w
  5961  0D11  160A  118A  2345  120A  158A  	fcall	__Umul8_16
  5962  0D16  0873               	movf	?__Umul8_16+1,w
  5963  0D17  1283               	bcf	3,5	;RP0=0, select bank0
  5964  0D18  1303               	bcf	3,6	;RP1=0, select bank0
  5965  0D19  00EF               	movwf	___flmul@temp+1
  5966  0D1A  0872               	movf	?__Umul8_16,w
  5967  0D1B  00EE               	movwf	___flmul@temp
  5968  0D1C                     l2270:
  5969  0D1C  086E               	movf	___flmul@temp,w
  5970  0D1D  00DE               	movwf	??___flmul
  5971  0D1E  01DF               	clrf	??___flmul+1
  5972  0D1F  01E0               	clrf	??___flmul+2
  5973  0D20  01E1               	clrf	??___flmul+3
  5974  0D21  0861               	movf	??___flmul+3,w
  5975  0D22  00E7               	movwf	___flmul@grs+3
  5976  0D23  0860               	movf	??___flmul+2,w
  5977  0D24  00E6               	movwf	___flmul@grs+2
  5978  0D25  085F               	movf	??___flmul+1,w
  5979  0D26  00E5               	movwf	___flmul@grs+1
  5980  0D27  085E               	movf	??___flmul,w
  5981  0D28  00E4               	movwf	___flmul@grs
  5982  0D29                     l2272:
  5983  0D29  086F               	movf	___flmul@temp+1,w
  5984  0D2A  00DE               	movwf	??___flmul
  5985  0D2B  01DF               	clrf	??___flmul+1
  5986  0D2C  01E0               	clrf	??___flmul+2
  5987  0D2D  01E1               	clrf	??___flmul+3
  5988  0D2E  0861               	movf	??___flmul+3,w
  5989  0D2F  00ED               	movwf	___flmul@prod+3
  5990  0D30  0860               	movf	??___flmul+2,w
  5991  0D31  00EC               	movwf	___flmul@prod+2
  5992  0D32  085F               	movf	??___flmul+1,w
  5993  0D33  00EB               	movwf	___flmul@prod+1
  5994  0D34  085E               	movf	??___flmul,w
  5995  0D35  00EA               	movwf	___flmul@prod
  5996  0D36  0857               	movf	___flmul@b+1,w
  5997  0D37  00FF               	movwf	btemp+1
  5998  0D38  087F               	movf	btemp+1,w
  5999  0D39  00F2               	movwf	__Umul8_16@multiplicand
  6000  0D3A  085B               	movf	___flmul@a+1,w
  6001  0D3B  160A  118A  2345  120A  158A  	fcall	__Umul8_16
  6002  0D40  0873               	movf	?__Umul8_16+1,w
  6003  0D41  1283               	bcf	3,5	;RP0=0, select bank0
  6004  0D42  1303               	bcf	3,6	;RP1=0, select bank0
  6005  0D43  00EF               	movwf	___flmul@temp+1
  6006  0D44  0872               	movf	?__Umul8_16,w
  6007  0D45  00EE               	movwf	___flmul@temp
  6008  0D46                     l2274:
  6009  0D46  086E               	movf	___flmul@temp,w
  6010  0D47  00DE               	movwf	??___flmul
  6011  0D48  01DF               	clrf	??___flmul+1
  6012  0D49  01E0               	clrf	??___flmul+2
  6013  0D4A  01E1               	clrf	??___flmul+3
  6014  0D4B  085E               	movf	??___flmul,w
  6015  0D4C  07E4               	addwf	___flmul@grs,f
  6016  0D4D  085F               	movf	??___flmul+1,w
  6017  0D4E  1103               	clrz
  6018  0D4F  1803               	skipnc
  6019  0D50  3E01               	addlw	1
  6020  0D51  1903               	skipnz
  6021  0D52  2D54               	goto	u3231
  6022  0D53  07E5               	addwf	___flmul@grs+1,f
  6023  0D54                     u3231:
  6024  0D54  0860               	movf	??___flmul+2,w
  6025  0D55  1103               	clrz
  6026  0D56  1803               	skipnc
  6027  0D57  3E01               	addlw	1
  6028  0D58  1903               	skipnz
  6029  0D59  2D5B               	goto	u3232
  6030  0D5A  07E6               	addwf	___flmul@grs+2,f
  6031  0D5B                     u3232:
  6032  0D5B  0861               	movf	??___flmul+3,w
  6033  0D5C  1103               	clrz
  6034  0D5D  1803               	skipnc
  6035  0D5E  3E01               	addlw	1
  6036  0D5F  1903               	skipnz
  6037  0D60  2D62               	goto	u3233
  6038  0D61  07E7               	addwf	___flmul@grs+3,f
  6039  0D62                     u3233:
  6040  0D62                     l2276:
  6041  0D62  086F               	movf	___flmul@temp+1,w
  6042  0D63  00DE               	movwf	??___flmul
  6043  0D64  01DF               	clrf	??___flmul+1
  6044  0D65  01E0               	clrf	??___flmul+2
  6045  0D66  01E1               	clrf	??___flmul+3
  6046  0D67  085E               	movf	??___flmul,w
  6047  0D68  07EA               	addwf	___flmul@prod,f
  6048  0D69  085F               	movf	??___flmul+1,w
  6049  0D6A  1103               	clrz
  6050  0D6B  1803               	skipnc
  6051  0D6C  3E01               	addlw	1
  6052  0D6D  1903               	skipnz
  6053  0D6E  2D70               	goto	u3241
  6054  0D6F  07EB               	addwf	___flmul@prod+1,f
  6055  0D70                     u3241:
  6056  0D70  0860               	movf	??___flmul+2,w
  6057  0D71  1103               	clrz
  6058  0D72  1803               	skipnc
  6059  0D73  3E01               	addlw	1
  6060  0D74  1903               	skipnz
  6061  0D75  2D77               	goto	u3242
  6062  0D76  07EC               	addwf	___flmul@prod+2,f
  6063  0D77                     u3242:
  6064  0D77  0861               	movf	??___flmul+3,w
  6065  0D78  1103               	clrz
  6066  0D79  1803               	skipnc
  6067  0D7A  3E01               	addlw	1
  6068  0D7B  1903               	skipnz
  6069  0D7C  2D7E               	goto	u3243
  6070  0D7D  07ED               	addwf	___flmul@prod+3,f
  6071  0D7E                     u3243:
  6072  0D7E  0858               	movf	___flmul@b+2,w
  6073  0D7F  00FF               	movwf	btemp+1
  6074  0D80  087F               	movf	btemp+1,w
  6075  0D81  00F2               	movwf	__Umul8_16@multiplicand
  6076  0D82  085A               	movf	___flmul@a,w
  6077  0D83  160A  118A  2345  120A  158A  	fcall	__Umul8_16
  6078  0D88  0873               	movf	?__Umul8_16+1,w
  6079  0D89  1283               	bcf	3,5	;RP0=0, select bank0
  6080  0D8A  1303               	bcf	3,6	;RP1=0, select bank0
  6081  0D8B  00EF               	movwf	___flmul@temp+1
  6082  0D8C  0872               	movf	?__Umul8_16,w
  6083  0D8D  00EE               	movwf	___flmul@temp
  6084  0D8E                     l2278:
  6085  0D8E  086E               	movf	___flmul@temp,w
  6086  0D8F  00DE               	movwf	??___flmul
  6087  0D90  01DF               	clrf	??___flmul+1
  6088  0D91  01E0               	clrf	??___flmul+2
  6089  0D92  01E1               	clrf	??___flmul+3
  6090  0D93  085E               	movf	??___flmul,w
  6091  0D94  07E4               	addwf	___flmul@grs,f
  6092  0D95  085F               	movf	??___flmul+1,w
  6093  0D96  1103               	clrz
  6094  0D97  1803               	skipnc
  6095  0D98  3E01               	addlw	1
  6096  0D99  1903               	skipnz
  6097  0D9A  2D9C               	goto	u3251
  6098  0D9B  07E5               	addwf	___flmul@grs+1,f
  6099  0D9C                     u3251:
  6100  0D9C  0860               	movf	??___flmul+2,w
  6101  0D9D  1103               	clrz
  6102  0D9E  1803               	skipnc
  6103  0D9F  3E01               	addlw	1
  6104  0DA0  1903               	skipnz
  6105  0DA1  2DA3               	goto	u3252
  6106  0DA2  07E6               	addwf	___flmul@grs+2,f
  6107  0DA3                     u3252:
  6108  0DA3  0861               	movf	??___flmul+3,w
  6109  0DA4  1103               	clrz
  6110  0DA5  1803               	skipnc
  6111  0DA6  3E01               	addlw	1
  6112  0DA7  1903               	skipnz
  6113  0DA8  2DAA               	goto	u3253
  6114  0DA9  07E7               	addwf	___flmul@grs+3,f
  6115  0DAA                     u3253:
  6116  0DAA                     l2280:
  6117  0DAA  086F               	movf	___flmul@temp+1,w
  6118  0DAB  00DE               	movwf	??___flmul
  6119  0DAC  01DF               	clrf	??___flmul+1
  6120  0DAD  01E0               	clrf	??___flmul+2
  6121  0DAE  01E1               	clrf	??___flmul+3
  6122  0DAF  085E               	movf	??___flmul,w
  6123  0DB0  07EA               	addwf	___flmul@prod,f
  6124  0DB1  085F               	movf	??___flmul+1,w
  6125  0DB2  1103               	clrz
  6126  0DB3  1803               	skipnc
  6127  0DB4  3E01               	addlw	1
  6128  0DB5  1903               	skipnz
  6129  0DB6  2DB8               	goto	u3261
  6130  0DB7  07EB               	addwf	___flmul@prod+1,f
  6131  0DB8                     u3261:
  6132  0DB8  0860               	movf	??___flmul+2,w
  6133  0DB9  1103               	clrz
  6134  0DBA  1803               	skipnc
  6135  0DBB  3E01               	addlw	1
  6136  0DBC  1903               	skipnz
  6137  0DBD  2DBF               	goto	u3262
  6138  0DBE  07EC               	addwf	___flmul@prod+2,f
  6139  0DBF                     u3262:
  6140  0DBF  0861               	movf	??___flmul+3,w
  6141  0DC0  1103               	clrz
  6142  0DC1  1803               	skipnc
  6143  0DC2  3E01               	addlw	1
  6144  0DC3  1903               	skipnz
  6145  0DC4  2DC6               	goto	u3263
  6146  0DC5  07ED               	addwf	___flmul@prod+3,f
  6147  0DC6                     u3263:
  6148  0DC6                     l2282:
  6149  0DC6  3008               	movlw	8
  6150  0DC7  00DE               	movwf	??___flmul
  6151  0DC8                     u3275:
  6152  0DC8  1003               	clrc
  6153  0DC9  0DE4               	rlf	___flmul@grs,f
  6154  0DCA  0DE5               	rlf	___flmul@grs+1,f
  6155  0DCB  0DE6               	rlf	___flmul@grs+2,f
  6156  0DCC  0DE7               	rlf	___flmul@grs+3,f
  6157  0DCD  0BDE               	decfsz	??___flmul,f
  6158  0DCE  2DC8               	goto	u3275
  6159  0DCF                     l2284:
  6160  0DCF  0857               	movf	___flmul@b+1,w
  6161  0DD0  00FF               	movwf	btemp+1
  6162  0DD1  087F               	movf	btemp+1,w
  6163  0DD2  00F2               	movwf	__Umul8_16@multiplicand
  6164  0DD3  085A               	movf	___flmul@a,w
  6165  0DD4  160A  118A  2345  120A  158A  	fcall	__Umul8_16
  6166  0DD9  0873               	movf	?__Umul8_16+1,w
  6167  0DDA  1283               	bcf	3,5	;RP0=0, select bank0
  6168  0DDB  1303               	bcf	3,6	;RP1=0, select bank0
  6169  0DDC  00EF               	movwf	___flmul@temp+1
  6170  0DDD  0872               	movf	?__Umul8_16,w
  6171  0DDE  00EE               	movwf	___flmul@temp
  6172  0DDF                     l2286:
  6173  0DDF  086E               	movf	___flmul@temp,w
  6174  0DE0  00DE               	movwf	??___flmul
  6175  0DE1  086F               	movf	___flmul@temp+1,w
  6176  0DE2  00DF               	movwf	??___flmul+1
  6177  0DE3  01E0               	clrf	??___flmul+2
  6178  0DE4  01E1               	clrf	??___flmul+3
  6179  0DE5  085E               	movf	??___flmul,w
  6180  0DE6  07E4               	addwf	___flmul@grs,f
  6181  0DE7  085F               	movf	??___flmul+1,w
  6182  0DE8  1103               	clrz
  6183  0DE9  1803               	skipnc
  6184  0DEA  3E01               	addlw	1
  6185  0DEB  1903               	skipnz
  6186  0DEC  2DEE               	goto	u3281
  6187  0DED  07E5               	addwf	___flmul@grs+1,f
  6188  0DEE                     u3281:
  6189  0DEE  0860               	movf	??___flmul+2,w
  6190  0DEF  1103               	clrz
  6191  0DF0  1803               	skipnc
  6192  0DF1  3E01               	addlw	1
  6193  0DF2  1903               	skipnz
  6194  0DF3  2DF5               	goto	u3282
  6195  0DF4  07E6               	addwf	___flmul@grs+2,f
  6196  0DF5                     u3282:
  6197  0DF5  0861               	movf	??___flmul+3,w
  6198  0DF6  1103               	clrz
  6199  0DF7  1803               	skipnc
  6200  0DF8  3E01               	addlw	1
  6201  0DF9  1903               	skipnz
  6202  0DFA  2DFC               	goto	u3283
  6203  0DFB  07E7               	addwf	___flmul@grs+3,f
  6204  0DFC                     u3283:
  6205  0DFC                     l2288:
  6206  0DFC  0856               	movf	___flmul@b,w
  6207  0DFD  00FF               	movwf	btemp+1
  6208  0DFE  087F               	movf	btemp+1,w
  6209  0DFF  00F2               	movwf	__Umul8_16@multiplicand
  6210  0E00  085B               	movf	___flmul@a+1,w
  6211  0E01  160A  118A  2345  120A  158A  	fcall	__Umul8_16
  6212  0E06  0873               	movf	?__Umul8_16+1,w
  6213  0E07  1283               	bcf	3,5	;RP0=0, select bank0
  6214  0E08  1303               	bcf	3,6	;RP1=0, select bank0
  6215  0E09  00EF               	movwf	___flmul@temp+1
  6216  0E0A  0872               	movf	?__Umul8_16,w
  6217  0E0B  00EE               	movwf	___flmul@temp
  6218  0E0C                     l2290:
  6219  0E0C  086E               	movf	___flmul@temp,w
  6220  0E0D  00DE               	movwf	??___flmul
  6221  0E0E  086F               	movf	___flmul@temp+1,w
  6222  0E0F  00DF               	movwf	??___flmul+1
  6223  0E10  01E0               	clrf	??___flmul+2
  6224  0E11  01E1               	clrf	??___flmul+3
  6225  0E12  085E               	movf	??___flmul,w
  6226  0E13  07E4               	addwf	___flmul@grs,f
  6227  0E14  085F               	movf	??___flmul+1,w
  6228  0E15  1103               	clrz
  6229  0E16  1803               	skipnc
  6230  0E17  3E01               	addlw	1
  6231  0E18  1903               	skipnz
  6232  0E19  2E1B               	goto	u3291
  6233  0E1A  07E5               	addwf	___flmul@grs+1,f
  6234  0E1B                     u3291:
  6235  0E1B  0860               	movf	??___flmul+2,w
  6236  0E1C  1103               	clrz
  6237  0E1D  1803               	skipnc
  6238  0E1E  3E01               	addlw	1
  6239  0E1F  1903               	skipnz
  6240  0E20  2E22               	goto	u3292
  6241  0E21  07E6               	addwf	___flmul@grs+2,f
  6242  0E22                     u3292:
  6243  0E22  0861               	movf	??___flmul+3,w
  6244  0E23  1103               	clrz
  6245  0E24  1803               	skipnc
  6246  0E25  3E01               	addlw	1
  6247  0E26  1903               	skipnz
  6248  0E27  2E29               	goto	u3293
  6249  0E28  07E7               	addwf	___flmul@grs+3,f
  6250  0E29                     u3293:
  6251  0E29                     l2292:
  6252  0E29  3008               	movlw	8
  6253  0E2A  00DE               	movwf	??___flmul
  6254  0E2B                     u3305:
  6255  0E2B  1003               	clrc
  6256  0E2C  0DE4               	rlf	___flmul@grs,f
  6257  0E2D  0DE5               	rlf	___flmul@grs+1,f
  6258  0E2E  0DE6               	rlf	___flmul@grs+2,f
  6259  0E2F  0DE7               	rlf	___flmul@grs+3,f
  6260  0E30  0BDE               	decfsz	??___flmul,f
  6261  0E31  2E2B               	goto	u3305
  6262  0E32  0856               	movf	___flmul@b,w
  6263  0E33  00FF               	movwf	btemp+1
  6264  0E34  087F               	movf	btemp+1,w
  6265  0E35  00F2               	movwf	__Umul8_16@multiplicand
  6266  0E36  085A               	movf	___flmul@a,w
  6267  0E37  160A  118A  2345  120A  158A  	fcall	__Umul8_16
  6268  0E3C  0873               	movf	?__Umul8_16+1,w
  6269  0E3D  1283               	bcf	3,5	;RP0=0, select bank0
  6270  0E3E  1303               	bcf	3,6	;RP1=0, select bank0
  6271  0E3F  00EF               	movwf	___flmul@temp+1
  6272  0E40  0872               	movf	?__Umul8_16,w
  6273  0E41  00EE               	movwf	___flmul@temp
  6274  0E42                     l2294:
  6275  0E42  086E               	movf	___flmul@temp,w
  6276  0E43  00DE               	movwf	??___flmul
  6277  0E44  086F               	movf	___flmul@temp+1,w
  6278  0E45  00DF               	movwf	??___flmul+1
  6279  0E46  01E0               	clrf	??___flmul+2
  6280  0E47  01E1               	clrf	??___flmul+3
  6281  0E48  085E               	movf	??___flmul,w
  6282  0E49  07E4               	addwf	___flmul@grs,f
  6283  0E4A  085F               	movf	??___flmul+1,w
  6284  0E4B  1103               	clrz
  6285  0E4C  1803               	skipnc
  6286  0E4D  3E01               	addlw	1
  6287  0E4E  1903               	skipnz
  6288  0E4F  2E51               	goto	u3311
  6289  0E50  07E5               	addwf	___flmul@grs+1,f
  6290  0E51                     u3311:
  6291  0E51  0860               	movf	??___flmul+2,w
  6292  0E52  1103               	clrz
  6293  0E53  1803               	skipnc
  6294  0E54  3E01               	addlw	1
  6295  0E55  1903               	skipnz
  6296  0E56  2E58               	goto	u3312
  6297  0E57  07E6               	addwf	___flmul@grs+2,f
  6298  0E58                     u3312:
  6299  0E58  0861               	movf	??___flmul+3,w
  6300  0E59  1103               	clrz
  6301  0E5A  1803               	skipnc
  6302  0E5B  3E01               	addlw	1
  6303  0E5C  1903               	skipnz
  6304  0E5D  2E5F               	goto	u3313
  6305  0E5E  07E7               	addwf	___flmul@grs+3,f
  6306  0E5F                     u3313:
  6307  0E5F                     l2296:
  6308  0E5F  0857               	movf	___flmul@b+1,w
  6309  0E60  00FF               	movwf	btemp+1
  6310  0E61  087F               	movf	btemp+1,w
  6311  0E62  00F2               	movwf	__Umul8_16@multiplicand
  6312  0E63  085C               	movf	___flmul@a+2,w
  6313  0E64  160A  118A  2345  120A  158A  	fcall	__Umul8_16
  6314  0E69  0873               	movf	?__Umul8_16+1,w
  6315  0E6A  1283               	bcf	3,5	;RP0=0, select bank0
  6316  0E6B  1303               	bcf	3,6	;RP1=0, select bank0
  6317  0E6C  00EF               	movwf	___flmul@temp+1
  6318  0E6D  0872               	movf	?__Umul8_16,w
  6319  0E6E  00EE               	movwf	___flmul@temp
  6320  0E6F  086E               	movf	___flmul@temp,w
  6321  0E70  00DE               	movwf	??___flmul
  6322  0E71  086F               	movf	___flmul@temp+1,w
  6323  0E72  00DF               	movwf	??___flmul+1
  6324  0E73  01E0               	clrf	??___flmul+2
  6325  0E74  01E1               	clrf	??___flmul+3
  6326  0E75  085E               	movf	??___flmul,w
  6327  0E76  07EA               	addwf	___flmul@prod,f
  6328  0E77  085F               	movf	??___flmul+1,w
  6329  0E78  1103               	clrz
  6330  0E79  1803               	skipnc
  6331  0E7A  3E01               	addlw	1
  6332  0E7B  1903               	skipnz
  6333  0E7C  2E7E               	goto	u3321
  6334  0E7D  07EB               	addwf	___flmul@prod+1,f
  6335  0E7E                     u3321:
  6336  0E7E  0860               	movf	??___flmul+2,w
  6337  0E7F  1103               	clrz
  6338  0E80  1803               	skipnc
  6339  0E81  3E01               	addlw	1
  6340  0E82  1903               	skipnz
  6341  0E83  2E85               	goto	u3322
  6342  0E84  07EC               	addwf	___flmul@prod+2,f
  6343  0E85                     u3322:
  6344  0E85  0861               	movf	??___flmul+3,w
  6345  0E86  1103               	clrz
  6346  0E87  1803               	skipnc
  6347  0E88  3E01               	addlw	1
  6348  0E89  1903               	skipnz
  6349  0E8A  2E8C               	goto	u3323
  6350  0E8B  07ED               	addwf	___flmul@prod+3,f
  6351  0E8C                     u3323:
  6352  0E8C                     l2298:
  6353  0E8C  0858               	movf	___flmul@b+2,w
  6354  0E8D  00FF               	movwf	btemp+1
  6355  0E8E  087F               	movf	btemp+1,w
  6356  0E8F  00F2               	movwf	__Umul8_16@multiplicand
  6357  0E90  085B               	movf	___flmul@a+1,w
  6358  0E91  160A  118A  2345  120A  158A  	fcall	__Umul8_16
  6359  0E96  0873               	movf	?__Umul8_16+1,w
  6360  0E97  1283               	bcf	3,5	;RP0=0, select bank0
  6361  0E98  1303               	bcf	3,6	;RP1=0, select bank0
  6362  0E99  00EF               	movwf	___flmul@temp+1
  6363  0E9A  0872               	movf	?__Umul8_16,w
  6364  0E9B  00EE               	movwf	___flmul@temp
  6365  0E9C                     l2300:
  6366  0E9C  086E               	movf	___flmul@temp,w
  6367  0E9D  00DE               	movwf	??___flmul
  6368  0E9E  086F               	movf	___flmul@temp+1,w
  6369  0E9F  00DF               	movwf	??___flmul+1
  6370  0EA0  01E0               	clrf	??___flmul+2
  6371  0EA1  01E1               	clrf	??___flmul+3
  6372  0EA2  085E               	movf	??___flmul,w
  6373  0EA3  07EA               	addwf	___flmul@prod,f
  6374  0EA4  085F               	movf	??___flmul+1,w
  6375  0EA5  1103               	clrz
  6376  0EA6  1803               	skipnc
  6377  0EA7  3E01               	addlw	1
  6378  0EA8  1903               	skipnz
  6379  0EA9  2EAB               	goto	u3331
  6380  0EAA  07EB               	addwf	___flmul@prod+1,f
  6381  0EAB                     u3331:
  6382  0EAB  0860               	movf	??___flmul+2,w
  6383  0EAC  1103               	clrz
  6384  0EAD  1803               	skipnc
  6385  0EAE  3E01               	addlw	1
  6386  0EAF  1903               	skipnz
  6387  0EB0  2EB2               	goto	u3332
  6388  0EB1  07EC               	addwf	___flmul@prod+2,f
  6389  0EB2                     u3332:
  6390  0EB2  0861               	movf	??___flmul+3,w
  6391  0EB3  1103               	clrz
  6392  0EB4  1803               	skipnc
  6393  0EB5  3E01               	addlw	1
  6394  0EB6  1903               	skipnz
  6395  0EB7  2EB9               	goto	u3333
  6396  0EB8  07ED               	addwf	___flmul@prod+3,f
  6397  0EB9                     u3333:
  6398  0EB9  0858               	movf	___flmul@b+2,w
  6399  0EBA  00FF               	movwf	btemp+1
  6400  0EBB  087F               	movf	btemp+1,w
  6401  0EBC  00F2               	movwf	__Umul8_16@multiplicand
  6402  0EBD  085C               	movf	___flmul@a+2,w
  6403  0EBE  160A  118A  2345  120A  158A  	fcall	__Umul8_16
  6404  0EC3  0873               	movf	?__Umul8_16+1,w
  6405  0EC4  1283               	bcf	3,5	;RP0=0, select bank0
  6406  0EC5  1303               	bcf	3,6	;RP1=0, select bank0
  6407  0EC6  00EF               	movwf	___flmul@temp+1
  6408  0EC7  0872               	movf	?__Umul8_16,w
  6409  0EC8  00EE               	movwf	___flmul@temp
  6410  0EC9                     l2302:
  6411  0EC9  086E               	movf	___flmul@temp,w
  6412  0ECA  00DE               	movwf	??___flmul
  6413  0ECB  086F               	movf	___flmul@temp+1,w
  6414  0ECC  00DF               	movwf	??___flmul+1
  6415  0ECD  01E0               	clrf	??___flmul+2
  6416  0ECE  01E1               	clrf	??___flmul+3
  6417  0ECF  3008               	movlw	8
  6418  0ED0                     u3345:
  6419  0ED0  1003               	clrc
  6420  0ED1  0DDE               	rlf	??___flmul,f
  6421  0ED2  0DDF               	rlf	??___flmul+1,f
  6422  0ED3  0DE0               	rlf	??___flmul+2,f
  6423  0ED4  0DE1               	rlf	??___flmul+3,f
  6424  0ED5                     u3340:
  6425  0ED5  3EFF               	addlw	-1
  6426  0ED6  1D03               	skipz
  6427  0ED7  2ED0               	goto	u3345
  6428  0ED8  085E               	movf	??___flmul,w
  6429  0ED9  07EA               	addwf	___flmul@prod,f
  6430  0EDA  085F               	movf	??___flmul+1,w
  6431  0EDB  1103               	clrz
  6432  0EDC  1803               	skipnc
  6433  0EDD  3E01               	addlw	1
  6434  0EDE  1903               	skipnz
  6435  0EDF  2EE1               	goto	u3351
  6436  0EE0  07EB               	addwf	___flmul@prod+1,f
  6437  0EE1                     u3351:
  6438  0EE1  0860               	movf	??___flmul+2,w
  6439  0EE2  1103               	clrz
  6440  0EE3  1803               	skipnc
  6441  0EE4  3E01               	addlw	1
  6442  0EE5  1903               	skipnz
  6443  0EE6  2EE8               	goto	u3352
  6444  0EE7  07EC               	addwf	___flmul@prod+2,f
  6445  0EE8                     u3352:
  6446  0EE8  0861               	movf	??___flmul+3,w
  6447  0EE9  1103               	clrz
  6448  0EEA  1803               	skipnc
  6449  0EEB  3E01               	addlw	1
  6450  0EEC  1903               	skipnz
  6451  0EED  2EEF               	goto	u3353
  6452  0EEE  07ED               	addwf	___flmul@prod+3,f
  6453  0EEF                     u3353:
  6454  0EEF                     l2304:
  6455  0EEF  0864               	movf	___flmul@grs,w
  6456  0EF0  00DE               	movwf	??___flmul
  6457  0EF1  0865               	movf	___flmul@grs+1,w
  6458  0EF2  00DF               	movwf	??___flmul+1
  6459  0EF3  0866               	movf	___flmul@grs+2,w
  6460  0EF4  00E0               	movwf	??___flmul+2
  6461  0EF5  0867               	movf	___flmul@grs+3,w
  6462  0EF6  00E1               	movwf	??___flmul+3
  6463  0EF7  3018               	movlw	24
  6464  0EF8                     u3365:
  6465  0EF8  1003               	clrc
  6466  0EF9  0CE1               	rrf	??___flmul+3,f
  6467  0EFA  0CE0               	rrf	??___flmul+2,f
  6468  0EFB  0CDF               	rrf	??___flmul+1,f
  6469  0EFC  0CDE               	rrf	??___flmul,f
  6470  0EFD                     u3360:
  6471  0EFD  3EFF               	addlw	-1
  6472  0EFE  1D03               	skipz
  6473  0EFF  2EF8               	goto	u3365
  6474  0F00  085E               	movf	??___flmul,w
  6475  0F01  07EA               	addwf	___flmul@prod,f
  6476  0F02  085F               	movf	??___flmul+1,w
  6477  0F03  1103               	clrz
  6478  0F04  1803               	skipnc
  6479  0F05  3E01               	addlw	1
  6480  0F06  1903               	skipnz
  6481  0F07  2F09               	goto	u3371
  6482  0F08  07EB               	addwf	___flmul@prod+1,f
  6483  0F09                     u3371:
  6484  0F09  0860               	movf	??___flmul+2,w
  6485  0F0A  1103               	clrz
  6486  0F0B  1803               	skipnc
  6487  0F0C  3E01               	addlw	1
  6488  0F0D  1903               	skipnz
  6489  0F0E  2F10               	goto	u3372
  6490  0F0F  07EC               	addwf	___flmul@prod+2,f
  6491  0F10                     u3372:
  6492  0F10  0861               	movf	??___flmul+3,w
  6493  0F11  1103               	clrz
  6494  0F12  1803               	skipnc
  6495  0F13  3E01               	addlw	1
  6496  0F14  1903               	skipnz
  6497  0F15  2F17               	goto	u3373
  6498  0F16  07ED               	addwf	___flmul@prod+3,f
  6499  0F17                     u3373:
  6500  0F17                     l2306:
  6501  0F17  3008               	movlw	8
  6502  0F18  00DE               	movwf	??___flmul
  6503  0F19                     u3385:
  6504  0F19  1003               	clrc
  6505  0F1A  0DE4               	rlf	___flmul@grs,f
  6506  0F1B  0DE5               	rlf	___flmul@grs+1,f
  6507  0F1C  0DE6               	rlf	___flmul@grs+2,f
  6508  0F1D  0DE7               	rlf	___flmul@grs+3,f
  6509  0F1E  0BDE               	decfsz	??___flmul,f
  6510  0F1F  2F19               	goto	u3385
  6511  0F20                     l2308:
  6512  0F20  0869               	movf	___flmul@bexp,w
  6513  0F21  0768               	addwf	___flmul@aexp,w
  6514  0F22  00DE               	movwf	??___flmul
  6515  0F23  01DF               	clrf	??___flmul+1
  6516  0F24  0DDF               	rlf	??___flmul+1,f
  6517  0F25  085E               	movf	??___flmul,w
  6518  0F26  3E82               	addlw	130
  6519  0F27  00EE               	movwf	___flmul@temp
  6520  0F28  085F               	movf	??___flmul+1,w
  6521  0F29  1803               	skipnc
  6522  0F2A  3E01               	addlw	1
  6523  0F2B  3EFF               	addlw	255
  6524  0F2C  00EF               	movwf	___flmul@temp+1
  6525  0F2D  2F4B               	goto	l2320
  6526  0F2E                     l2310:
  6527  0F2E  3001               	movlw	1
  6528  0F2F  00DE               	movwf	??___flmul
  6529  0F30                     u3395:
  6530  0F30  1003               	clrc
  6531  0F31  0DEA               	rlf	___flmul@prod,f
  6532  0F32  0DEB               	rlf	___flmul@prod+1,f
  6533  0F33  0DEC               	rlf	___flmul@prod+2,f
  6534  0F34  0DED               	rlf	___flmul@prod+3,f
  6535  0F35  0BDE               	decfsz	??___flmul,f
  6536  0F36  2F30               	goto	u3395
  6537  0F37                     l2312:
  6538  0F37  1FE7               	btfss	___flmul@grs+3,7
  6539  0F38  2F3A               	goto	u3401
  6540  0F39  2F3B               	goto	u3400
  6541  0F3A                     u3401:
  6542  0F3A  2F3C               	goto	l2316
  6543  0F3B                     u3400:
  6544  0F3B                     l2314:
  6545  0F3B  146A               	bsf	___flmul@prod,0
  6546  0F3C                     l2316:
  6547  0F3C  3001               	movlw	1
  6548  0F3D  00DE               	movwf	??___flmul
  6549  0F3E                     u3415:
  6550  0F3E  1003               	clrc
  6551  0F3F  0DE4               	rlf	___flmul@grs,f
  6552  0F40  0DE5               	rlf	___flmul@grs+1,f
  6553  0F41  0DE6               	rlf	___flmul@grs+2,f
  6554  0F42  0DE7               	rlf	___flmul@grs+3,f
  6555  0F43  0BDE               	decfsz	??___flmul,f
  6556  0F44  2F3E               	goto	u3415
  6557  0F45                     l2318:
  6558  0F45  30FF               	movlw	255
  6559  0F46  07EE               	addwf	___flmul@temp,f
  6560  0F47  1803               	skipnc
  6561  0F48  0AEF               	incf	___flmul@temp+1,f
  6562  0F49  30FF               	movlw	255
  6563  0F4A  07EF               	addwf	___flmul@temp+1,f
  6564  0F4B                     l2320:
  6565  0F4B  1FEC               	btfss	___flmul@prod+2,7
  6566  0F4C  2F4E               	goto	u3421
  6567  0F4D  2F4F               	goto	u3420
  6568  0F4E                     u3421:
  6569  0F4E  2F2E               	goto	l2310
  6570  0F4F                     u3420:
  6571  0F4F                     l2322:
  6572  0F4F  01E8               	clrf	___flmul@aexp
  6573  0F50                     l2324:
  6574  0F50  1FE7               	btfss	___flmul@grs+3,7
  6575  0F51  2F53               	goto	u3431
  6576  0F52  2F54               	goto	u3430
  6577  0F53                     u3431:
  6578  0F53  2F70               	goto	l2332
  6579  0F54                     u3430:
  6580  0F54                     l2326:
  6581  0F54  30FF               	movlw	255
  6582  0F55  0564               	andwf	___flmul@grs,w
  6583  0F56  00DE               	movwf	??___flmul
  6584  0F57  30FF               	movlw	255
  6585  0F58  0565               	andwf	___flmul@grs+1,w
  6586  0F59  00DF               	movwf	??___flmul+1
  6587  0F5A  30FF               	movlw	255
  6588  0F5B  0566               	andwf	___flmul@grs+2,w
  6589  0F5C  00E0               	movwf	??___flmul+2
  6590  0F5D  307F               	movlw	127
  6591  0F5E  0567               	andwf	___flmul@grs+3,w
  6592  0F5F  00E1               	movwf	??___flmul+3
  6593  0F60  0861               	movf	??___flmul+3,w
  6594  0F61  0460               	iorwf	??___flmul+2,w
  6595  0F62  045F               	iorwf	??___flmul+1,w
  6596  0F63  045E               	iorwf	??___flmul,w
  6597  0F64  1903               	skipnz
  6598  0F65  2F67               	goto	u3441
  6599  0F66  2F68               	goto	u3440
  6600  0F67                     u3441:
  6601  0F67  2F6B               	goto	l621
  6602  0F68                     u3440:
  6603  0F68                     l2328:
  6604  0F68  01E8               	clrf	___flmul@aexp
  6605  0F69  0AE8               	incf	___flmul@aexp,f
  6606  0F6A  2F70               	goto	l2332
  6607  0F6B                     l621:
  6608  0F6B  1C6A               	btfss	___flmul@prod,0
  6609  0F6C  2F6E               	goto	u3451
  6610  0F6D  2F6F               	goto	u3450
  6611  0F6E                     u3451:
  6612  0F6E  2F70               	goto	l2332
  6613  0F6F                     u3450:
  6614  0F6F  2F68               	goto	l2328
  6615  0F70                     l2332:
  6616  0F70  0868               	movf	___flmul@aexp,w
  6617  0F71  1903               	btfsc	3,2
  6618  0F72  2F74               	goto	u3461
  6619  0F73  2F75               	goto	u3460
  6620  0F74                     u3461:
  6621  0F74  2FA6               	goto	l2342
  6622  0F75                     u3460:
  6623  0F75                     l2334:
  6624  0F75  3001               	movlw	1
  6625  0F76  07EA               	addwf	___flmul@prod,f
  6626  0F77  3000               	movlw	0
  6627  0F78  1803               	skipnc
  6628  0F79  3001               	movlw	1
  6629  0F7A  07EB               	addwf	___flmul@prod+1,f
  6630  0F7B  3000               	movlw	0
  6631  0F7C  1803               	skipnc
  6632  0F7D  3001               	movlw	1
  6633  0F7E  07EC               	addwf	___flmul@prod+2,f
  6634  0F7F  3000               	movlw	0
  6635  0F80  1803               	skipnc
  6636  0F81  3001               	movlw	1
  6637  0F82  07ED               	addwf	___flmul@prod+3,f
  6638  0F83                     l2336:
  6639  0F83  1C6D               	btfss	___flmul@prod+3,0
  6640  0F84  2F86               	goto	u3471
  6641  0F85  2F87               	goto	u3470
  6642  0F86                     u3471:
  6643  0F86  2FA6               	goto	l2342
  6644  0F87                     u3470:
  6645  0F87                     l2338:
  6646  0F87  086A               	movf	___flmul@prod,w
  6647  0F88  00DE               	movwf	??___flmul
  6648  0F89  086B               	movf	___flmul@prod+1,w
  6649  0F8A  00DF               	movwf	??___flmul+1
  6650  0F8B  086C               	movf	___flmul@prod+2,w
  6651  0F8C  00E0               	movwf	??___flmul+2
  6652  0F8D  086D               	movf	___flmul@prod+3,w
  6653  0F8E  00E1               	movwf	??___flmul+3
  6654  0F8F  3001               	movlw	1
  6655  0F90  00E2               	movwf	??___flmul+4
  6656  0F91                     u3485:
  6657  0F91  0D61               	rlf	??___flmul+3,w
  6658  0F92  0CE1               	rrf	??___flmul+3,f
  6659  0F93  0CE0               	rrf	??___flmul+2,f
  6660  0F94  0CDF               	rrf	??___flmul+1,f
  6661  0F95  0CDE               	rrf	??___flmul,f
  6662  0F96                     u3480:
  6663  0F96  0BE2               	decfsz	??___flmul+4,f
  6664  0F97  2F91               	goto	u3485
  6665  0F98  0861               	movf	??___flmul+3,w
  6666  0F99  00ED               	movwf	___flmul@prod+3
  6667  0F9A  0860               	movf	??___flmul+2,w
  6668  0F9B  00EC               	movwf	___flmul@prod+2
  6669  0F9C  085F               	movf	??___flmul+1,w
  6670  0F9D  00EB               	movwf	___flmul@prod+1
  6671  0F9E  085E               	movf	??___flmul,w
  6672  0F9F  00EA               	movwf	___flmul@prod
  6673  0FA0                     l2340:
  6674  0FA0  3001               	movlw	1
  6675  0FA1  07EE               	addwf	___flmul@temp,f
  6676  0FA2  1803               	skipnc
  6677  0FA3  0AEF               	incf	___flmul@temp+1,f
  6678  0FA4  3000               	movlw	0
  6679  0FA5  07EF               	addwf	___flmul@temp+1,f
  6680  0FA6                     l2342:
  6681  0FA6  086F               	movf	___flmul@temp+1,w
  6682  0FA7  3A80               	xorlw	128
  6683  0FA8  00FF               	movwf	btemp+1
  6684  0FA9  3080               	movlw	128
  6685  0FAA  027F               	subwf	btemp+1,w
  6686  0FAB  1D03               	skipz
  6687  0FAC  2FAF               	goto	u3495
  6688  0FAD  30FF               	movlw	255
  6689  0FAE  026E               	subwf	___flmul@temp,w
  6690  0FAF                     u3495:
  6691  0FAF  1C03               	skipc
  6692  0FB0  2FB2               	goto	u3491
  6693  0FB1  2FB3               	goto	u3490
  6694  0FB2                     u3491:
  6695  0FB2  2FBE               	goto	l2346
  6696  0FB3                     u3490:
  6697  0FB3                     l2344:
  6698  0FB3  307F               	movlw	127
  6699  0FB4  1283               	bcf	3,5	;RP0=0, select bank0
  6700  0FB5  1303               	bcf	3,6	;RP1=0, select bank0
  6701  0FB6  00ED               	movwf	___flmul@prod+3
  6702  0FB7  3080               	movlw	128
  6703  0FB8  00EC               	movwf	___flmul@prod+2
  6704  0FB9  3000               	movlw	0
  6705  0FBA  00EB               	movwf	___flmul@prod+1
  6706  0FBB  3000               	movlw	0
  6707  0FBC  00EA               	movwf	___flmul@prod
  6708  0FBD  2FF3               	goto	l627
  6709  0FBE                     l2346:
  6710  0FBE  1283               	bcf	3,5	;RP0=0, select bank0
  6711  0FBF  1303               	bcf	3,6	;RP1=0, select bank0
  6712  0FC0  086F               	movf	___flmul@temp+1,w
  6713  0FC1  3A80               	xorlw	128
  6714  0FC2  00FF               	movwf	btemp+1
  6715  0FC3  3080               	movlw	128
  6716  0FC4  027F               	subwf	btemp+1,w
  6717  0FC5  1D03               	skipz
  6718  0FC6  2FC9               	goto	u3505
  6719  0FC7  3001               	movlw	1
  6720  0FC8  026E               	subwf	___flmul@temp,w
  6721  0FC9                     u3505:
  6722  0FC9  1803               	skipnc
  6723  0FCA  2FCC               	goto	u3501
  6724  0FCB  2FCD               	goto	u3500
  6725  0FCC                     u3501:
  6726  0FCC  2FD9               	goto	l2352
  6727  0FCD                     u3500:
  6728  0FCD                     l2348:
  6729  0FCD  3000               	movlw	0
  6730  0FCE  1283               	bcf	3,5	;RP0=0, select bank0
  6731  0FCF  1303               	bcf	3,6	;RP1=0, select bank0
  6732  0FD0  00ED               	movwf	___flmul@prod+3
  6733  0FD1  3000               	movlw	0
  6734  0FD2  00EC               	movwf	___flmul@prod+2
  6735  0FD3  3000               	movlw	0
  6736  0FD4  00EB               	movwf	___flmul@prod+1
  6737  0FD5  3000               	movlw	0
  6738  0FD6  00EA               	movwf	___flmul@prod
  6739  0FD7                     l2350:
  6740  0FD7  01E3               	clrf	___flmul@sign
  6741  0FD8  2FF3               	goto	l627
  6742  0FD9                     l2352:
  6743  0FD9  1283               	bcf	3,5	;RP0=0, select bank0
  6744  0FDA  1303               	bcf	3,6	;RP1=0, select bank0
  6745  0FDB  086E               	movf	___flmul@temp,w
  6746  0FDC  00FF               	movwf	btemp+1
  6747  0FDD  087F               	movf	btemp+1,w
  6748  0FDE  00E9               	movwf	___flmul@bexp
  6749  0FDF                     l2354:
  6750  0FDF  30FF               	movlw	255
  6751  0FE0  05EA               	andwf	___flmul@prod,f
  6752  0FE1  30FF               	movlw	255
  6753  0FE2  05EB               	andwf	___flmul@prod+1,f
  6754  0FE3  307F               	movlw	127
  6755  0FE4  05EC               	andwf	___flmul@prod+2,f
  6756  0FE5  3000               	movlw	0
  6757  0FE6  05ED               	andwf	___flmul@prod+3,f
  6758  0FE7                     l2356:
  6759  0FE7  1C69               	btfss	___flmul@bexp,0
  6760  0FE8  2FEA               	goto	u3511
  6761  0FE9  2FEB               	goto	u3510
  6762  0FEA                     u3511:
  6763  0FEA  2FEC               	goto	l2360
  6764  0FEB                     u3510:
  6765  0FEB                     l2358:
  6766  0FEB  17EC               	bsf	___flmul@prod+2,7
  6767  0FEC                     l2360:
  6768  0FEC  0869               	movf	___flmul@bexp,w
  6769  0FED  00DE               	movwf	??___flmul
  6770  0FEE  1003               	clrc
  6771  0FEF  0C5E               	rrf	??___flmul,w
  6772  0FF0  00FF               	movwf	btemp+1
  6773  0FF1  087F               	movf	btemp+1,w
  6774  0FF2  00ED               	movwf	___flmul@prod+3
  6775  0FF3                     l627:
  6776  0FF3  0863               	movf	___flmul@sign,w
  6777  0FF4  00FF               	movwf	btemp+1
  6778  0FF5  087F               	movf	btemp+1,w
  6779  0FF6  04ED               	iorwf	___flmul@prod+3,f
  6780  0FF7                     l2362:
  6781  0FF7  086D               	movf	___flmul@prod+3,w
  6782  0FF8  00D9               	movwf	?___flmul+3
  6783  0FF9  086C               	movf	___flmul@prod+2,w
  6784  0FFA  00D8               	movwf	?___flmul+2
  6785  0FFB  086B               	movf	___flmul@prod+1,w
  6786  0FFC  00D7               	movwf	?___flmul+1
  6787  0FFD  086A               	movf	___flmul@prod,w
  6788  0FFE  00D6               	movwf	?___flmul
  6789  0FFF                     l615:
  6790  0FFF  0008               	return
  6791  1000                     __end_of___flmul:
  6792                           
  6793                           	psect	text19
  6794  1345                     __ptext19:	
  6795 ;; *************** function __Umul8_16 *****************
  6796 ;; Defined at:
  6797 ;;		line 4 in file "C:\Program Files\Microchip\xc8\v2.20\pic\sources\c90\common\Umul8_16.c"
  6798 ;; Parameters:    Size  Location     Type
  6799 ;;  multiplier      1    wreg     unsigned char 
  6800 ;;  multiplicand    1    2[COMMON] unsigned char 
  6801 ;; Auto vars:     Size  Location     Type
  6802 ;;  multiplier      1   10[COMMON] unsigned char 
  6803 ;;  word_mpld       2    8[COMMON] unsigned int 
  6804 ;;  product         2    6[COMMON] unsigned int 
  6805 ;; Return value:  Size  Location     Type
  6806 ;;                  2    2[COMMON] unsigned int 
  6807 ;; Registers used:
  6808 ;;		wreg, status,2, status,0
  6809 ;; Tracked objects:
  6810 ;;		On entry : 0/0
  6811 ;;		On exit  : 0/0
  6812 ;;		Unchanged: 0/0
  6813 ;; Data sizes:     COMMON   BANK0   BANK1   BANK3   BANK2
  6814 ;;      Params:         2       0       0       0       0
  6815 ;;      Locals:         5       0       0       0       0
  6816 ;;      Temps:          2       0       0       0       0
  6817 ;;      Totals:         9       0       0       0       0
  6818 ;;Total ram usage:        9 bytes
  6819 ;; Hardware stack levels used:    1
  6820 ;; Hardware stack levels required when called:    1
  6821 ;; This function calls:
  6822 ;;		Nothing
  6823 ;; This function is called by:
  6824 ;;		___flmul
  6825 ;; This function uses a non-reentrant model
  6826 ;;
  6827                           
  6828                           
  6829                           ;psect for function __Umul8_16
  6830  1345                     __Umul8_16:
  6831                           
  6832                           ;incstack = 0
  6833                           ; Regs used in __Umul8_16: [wreg+status,2+status,0]
  6834                           ;__Umul8_16@multiplier stored from wreg
  6835  1345  00FA               	movwf	__Umul8_16@multiplier
  6836  1346                     l1940:
  6837  1346  01F6               	clrf	__Umul8_16@product
  6838  1347  01F7               	clrf	__Umul8_16@product+1
  6839  1348                     l1942:
  6840  1348  0872               	movf	__Umul8_16@multiplicand,w
  6841  1349  00F4               	movwf	??__Umul8_16
  6842  134A  01F5               	clrf	??__Umul8_16+1
  6843  134B  0874               	movf	??__Umul8_16,w
  6844  134C  00F8               	movwf	__Umul8_16@word_mpld
  6845  134D  0875               	movf	??__Umul8_16+1,w
  6846  134E  00F9               	movwf	__Umul8_16@word_mpld+1
  6847  134F                     l1944:
  6848  134F  1C7A               	btfss	__Umul8_16@multiplier,0
  6849  1350  2B52               	goto	u2501
  6850  1351  2B53               	goto	u2500
  6851  1352                     u2501:
  6852  1352  2B59               	goto	l634
  6853  1353                     u2500:
  6854  1353                     l1946:
  6855  1353  0878               	movf	__Umul8_16@word_mpld,w
  6856  1354  07F6               	addwf	__Umul8_16@product,f
  6857  1355  1803               	skipnc
  6858  1356  0AF7               	incf	__Umul8_16@product+1,f
  6859  1357  0879               	movf	__Umul8_16@word_mpld+1,w
  6860  1358  07F7               	addwf	__Umul8_16@product+1,f
  6861  1359                     l634:
  6862  1359  3001               	movlw	1
  6863  135A                     u2515:
  6864  135A  1003               	clrc
  6865  135B  0DF8               	rlf	__Umul8_16@word_mpld,f
  6866  135C  0DF9               	rlf	__Umul8_16@word_mpld+1,f
  6867  135D  3EFF               	addlw	-1
  6868  135E  1D03               	skipz
  6869  135F  2B5A               	goto	u2515
  6870  1360  1003               	clrc
  6871  1361  0CFA               	rrf	__Umul8_16@multiplier,f
  6872  1362                     l1948:
  6873  1362  087A               	movf	__Umul8_16@multiplier,w
  6874  1363  1D03               	btfss	3,2
  6875  1364  2B66               	goto	u2521
  6876  1365  2B67               	goto	u2520
  6877  1366                     u2521:
  6878  1366  2B4F               	goto	l1944
  6879  1367                     u2520:
  6880  1367                     l1950:
  6881  1367  0877               	movf	__Umul8_16@product+1,w
  6882  1368  00F3               	movwf	?__Umul8_16+1
  6883  1369  0876               	movf	__Umul8_16@product,w
  6884  136A  00F2               	movwf	?__Umul8_16
  6885  136B                     l636:
  6886  136B  0008               	return
  6887  136C                     __end_of__Umul8_16:
  6888                           
  6889                           	psect	text20
  6890  083A                     __ptext20:	
  6891 ;; *************** function ___fldiv *****************
  6892 ;; Defined at:
  6893 ;;		line 8 in file "C:\Program Files\Microchip\xc8\v2.20\pic\sources\c90\common\sprcdiv.c"
  6894 ;; Parameters:    Size  Location     Type
  6895 ;;  a               4   28[BANK0 ] unsigned int 
  6896 ;;  b               4   32[BANK0 ] unsigned int 
  6897 ;; Auto vars:     Size  Location     Type
  6898 ;;  grs             4   48[BANK0 ] unsigned long 
  6899 ;;  rem             4   41[BANK0 ] unsigned long 
  6900 ;;  new_exp         2   46[BANK0 ] int 
  6901 ;;  aexp            1   53[BANK0 ] unsigned char 
  6902 ;;  bexp            1   52[BANK0 ] unsigned char 
  6903 ;;  sign            1   45[BANK0 ] unsigned char 
  6904 ;; Return value:  Size  Location     Type
  6905 ;;                  4   28[BANK0 ] unsigned char 
  6906 ;; Registers used:
  6907 ;;		wreg, status,2, status,0, btemp+1
  6908 ;; Tracked objects:
  6909 ;;		On entry : 0/0
  6910 ;;		On exit  : 0/0
  6911 ;;		Unchanged: 0/0
  6912 ;; Data sizes:     COMMON   BANK0   BANK1   BANK3   BANK2
  6913 ;;      Params:         0       8       0       0       0
  6914 ;;      Locals:         0      13       0       0       0
  6915 ;;      Temps:          0       5       0       0       0
  6916 ;;      Totals:         0      26       0       0       0
  6917 ;;Total ram usage:       26 bytes
  6918 ;; Hardware stack levels used:    1
  6919 ;; Hardware stack levels required when called:    1
  6920 ;; This function calls:
  6921 ;;		Nothing
  6922 ;; This function is called by:
  6923 ;;		_Voltage_Value
  6924 ;;		_Resistance_Value
  6925 ;;		_conversion_newton
  6926 ;; This function uses a non-reentrant model
  6927 ;;
  6928                           
  6929                           
  6930                           ;psect for function ___fldiv
  6931  083A                     ___fldiv:
  6932  083A                     l2080:	
  6933                           ;incstack = 0
  6934                           ; Regs used in ___fldiv: [wreg+status,2+status,0+btemp+1]
  6935                           
  6936  083A  1283               	bcf	3,5	;RP0=0, select bank0
  6937  083B  1303               	bcf	3,6	;RP1=0, select bank0
  6938  083C  0843               	movf	___fldiv@b+3,w
  6939  083D  3980               	andlw	128
  6940  083E  00FF               	movwf	btemp+1
  6941  083F  087F               	movf	btemp+1,w
  6942  0840  00CD               	movwf	___fldiv@sign
  6943  0841                     l2082:
  6944  0841  0843               	movf	___fldiv@b+3,w
  6945  0842  00C4               	movwf	??___fldiv
  6946  0843  0744               	addwf	??___fldiv,w
  6947  0844  00FF               	movwf	btemp+1
  6948  0845  087F               	movf	btemp+1,w
  6949  0846  00D4               	movwf	___fldiv@bexp
  6950  0847                     l2084:
  6951  0847  1FC2               	btfss	___fldiv@b+2,7
  6952  0848  284A               	goto	u2861
  6953  0849  284B               	goto	u2860
  6954  084A                     u2861:
  6955  084A  284C               	goto	l2088
  6956  084B                     u2860:
  6957  084B                     l2086:
  6958  084B  1454               	bsf	___fldiv@bexp,0
  6959  084C                     l2088:
  6960  084C  0854               	movf	___fldiv@bexp,w
  6961  084D  1903               	btfsc	3,2
  6962  084E  2850               	goto	u2871
  6963  084F  2851               	goto	u2870
  6964  0850                     u2871:
  6965  0850  2861               	goto	l2098
  6966  0851                     u2870:
  6967  0851                     l2090:
  6968  0851  0A54               	incf	___fldiv@bexp,w
  6969  0852  1D03               	btfss	3,2
  6970  0853  2855               	goto	u2881
  6971  0854  2856               	goto	u2880
  6972  0855                     u2881:
  6973  0855  285E               	goto	l2094
  6974  0856                     u2880:
  6975  0856                     l2092:
  6976  0856  3000               	movlw	0
  6977  0857  00C3               	movwf	___fldiv@b+3
  6978  0858  3000               	movlw	0
  6979  0859  00C2               	movwf	___fldiv@b+2
  6980  085A  3000               	movlw	0
  6981  085B  00C1               	movwf	___fldiv@b+1
  6982  085C  3000               	movlw	0
  6983  085D  00C0               	movwf	___fldiv@b
  6984  085E                     l2094:
  6985  085E  17C2               	bsf	___fldiv@b+2,7
  6986  085F                     l2096:
  6987  085F  01C3               	clrf	___fldiv@b+3
  6988  0860  2869               	goto	l2100
  6989  0861                     l2098:
  6990  0861  3000               	movlw	0
  6991  0862  00C3               	movwf	___fldiv@b+3
  6992  0863  3000               	movlw	0
  6993  0864  00C2               	movwf	___fldiv@b+2
  6994  0865  3000               	movlw	0
  6995  0866  00C1               	movwf	___fldiv@b+1
  6996  0867  3000               	movlw	0
  6997  0868  00C0               	movwf	___fldiv@b
  6998  0869                     l2100:
  6999  0869  083F               	movf	___fldiv@a+3,w
  7000  086A  3980               	andlw	128
  7001  086B  00FF               	movwf	btemp+1
  7002  086C  087F               	movf	btemp+1,w
  7003  086D  06CD               	xorwf	___fldiv@sign,f
  7004  086E                     l2102:
  7005  086E  083F               	movf	___fldiv@a+3,w
  7006  086F  00C4               	movwf	??___fldiv
  7007  0870  0744               	addwf	??___fldiv,w
  7008  0871  00FF               	movwf	btemp+1
  7009  0872  087F               	movf	btemp+1,w
  7010  0873  00D5               	movwf	___fldiv@aexp
  7011  0874                     l2104:
  7012  0874  1FBE               	btfss	___fldiv@a+2,7
  7013  0875  2877               	goto	u2891
  7014  0876  2878               	goto	u2890
  7015  0877                     u2891:
  7016  0877  2879               	goto	l2108
  7017  0878                     u2890:
  7018  0878                     l2106:
  7019  0878  1455               	bsf	___fldiv@aexp,0
  7020  0879                     l2108:
  7021  0879  0855               	movf	___fldiv@aexp,w
  7022  087A  1903               	btfsc	3,2
  7023  087B  287D               	goto	u2901
  7024  087C  287E               	goto	u2900
  7025  087D                     u2901:
  7026  087D  288E               	goto	l2118
  7027  087E                     u2900:
  7028  087E                     l2110:
  7029  087E  0A55               	incf	___fldiv@aexp,w
  7030  087F  1D03               	btfss	3,2
  7031  0880  2882               	goto	u2911
  7032  0881  2883               	goto	u2910
  7033  0882                     u2911:
  7034  0882  288B               	goto	l2114
  7035  0883                     u2910:
  7036  0883                     l2112:
  7037  0883  3000               	movlw	0
  7038  0884  00BF               	movwf	___fldiv@a+3
  7039  0885  3000               	movlw	0
  7040  0886  00BE               	movwf	___fldiv@a+2
  7041  0887  3000               	movlw	0
  7042  0888  00BD               	movwf	___fldiv@a+1
  7043  0889  3000               	movlw	0
  7044  088A  00BC               	movwf	___fldiv@a
  7045  088B                     l2114:
  7046  088B  17BE               	bsf	___fldiv@a+2,7
  7047  088C                     l2116:
  7048  088C  01BF               	clrf	___fldiv@a+3
  7049  088D  2896               	goto	l575
  7050  088E                     l2118:
  7051  088E  3000               	movlw	0
  7052  088F  00BF               	movwf	___fldiv@a+3
  7053  0890  3000               	movlw	0
  7054  0891  00BE               	movwf	___fldiv@a+2
  7055  0892  3000               	movlw	0
  7056  0893  00BD               	movwf	___fldiv@a+1
  7057  0894  3000               	movlw	0
  7058  0895  00BC               	movwf	___fldiv@a
  7059  0896                     l575:
  7060  0896  083F               	movf	___fldiv@a+3,w
  7061  0897  043E               	iorwf	___fldiv@a+2,w
  7062  0898  043D               	iorwf	___fldiv@a+1,w
  7063  0899  043C               	iorwf	___fldiv@a,w
  7064  089A  1D03               	skipz
  7065  089B  289D               	goto	u2921
  7066  089C  289E               	goto	u2920
  7067  089D                     u2921:
  7068  089D  28B7               	goto	l2128
  7069  089E                     u2920:
  7070  089E                     l2120:
  7071  089E  3000               	movlw	0
  7072  089F  00C3               	movwf	___fldiv@b+3
  7073  08A0  3000               	movlw	0
  7074  08A1  00C2               	movwf	___fldiv@b+2
  7075  08A2  3000               	movlw	0
  7076  08A3  00C1               	movwf	___fldiv@b+1
  7077  08A4  3000               	movlw	0
  7078  08A5  00C0               	movwf	___fldiv@b
  7079  08A6  3080               	movlw	128
  7080  08A7  04C2               	iorwf	___fldiv@b+2,f
  7081  08A8  307F               	movlw	127
  7082  08A9  04C3               	iorwf	___fldiv@b+3,f
  7083  08AA                     l2122:
  7084  08AA  084D               	movf	___fldiv@sign,w
  7085  08AB  00FF               	movwf	btemp+1
  7086  08AC  087F               	movf	btemp+1,w
  7087  08AD  04C3               	iorwf	___fldiv@b+3,f
  7088  08AE                     l2124:
  7089  08AE  0843               	movf	___fldiv@b+3,w
  7090  08AF  00BF               	movwf	?___fldiv+3
  7091  08B0  0842               	movf	___fldiv@b+2,w
  7092  08B1  00BE               	movwf	?___fldiv+2
  7093  08B2  0841               	movf	___fldiv@b+1,w
  7094  08B3  00BD               	movwf	?___fldiv+1
  7095  08B4  0840               	movf	___fldiv@b,w
  7096  08B5  00BC               	movwf	?___fldiv
  7097  08B6  2A16               	goto	l577
  7098  08B7                     l2128:
  7099  08B7  0854               	movf	___fldiv@bexp,w
  7100  08B8  1D03               	btfss	3,2
  7101  08B9  28BB               	goto	u2931
  7102  08BA  28BC               	goto	u2930
  7103  08BB                     u2931:
  7104  08BB  28C5               	goto	l2134
  7105  08BC                     u2930:
  7106  08BC                     l2130:
  7107  08BC  3000               	movlw	0
  7108  08BD  00BF               	movwf	?___fldiv+3
  7109  08BE  3000               	movlw	0
  7110  08BF  00BE               	movwf	?___fldiv+2
  7111  08C0  3000               	movlw	0
  7112  08C1  00BD               	movwf	?___fldiv+1
  7113  08C2  3000               	movlw	0
  7114  08C3  00BC               	movwf	?___fldiv
  7115  08C4  2A16               	goto	l577
  7116  08C5                     l2134:
  7117  08C5  0854               	movf	___fldiv@bexp,w
  7118  08C6  00C4               	movwf	??___fldiv
  7119  08C7  01C5               	clrf	??___fldiv+1
  7120  08C8  0845               	movf	??___fldiv+1,w
  7121  08C9  00C7               	movwf	??___fldiv+3
  7122  08CA  0855               	movf	___fldiv@aexp,w
  7123  08CB  0244               	subwf	??___fldiv,w
  7124  08CC  00C6               	movwf	??___fldiv+2
  7125  08CD  1C03               	skipc
  7126  08CE  03C7               	decf	??___fldiv+3,f
  7127  08CF  0846               	movf	??___fldiv+2,w
  7128  08D0  3E7F               	addlw	127
  7129  08D1  00CE               	movwf	___fldiv@new_exp
  7130  08D2  0847               	movf	??___fldiv+3,w
  7131  08D3  1803               	skipnc
  7132  08D4  3E01               	addlw	1
  7133  08D5  3E00               	addlw	0
  7134  08D6  00CF               	movwf	___fldiv@new_exp+1
  7135  08D7                     l2136:
  7136  08D7  0843               	movf	___fldiv@b+3,w
  7137  08D8  00CC               	movwf	___fldiv@rem+3
  7138  08D9  0842               	movf	___fldiv@b+2,w
  7139  08DA  00CB               	movwf	___fldiv@rem+2
  7140  08DB  0841               	movf	___fldiv@b+1,w
  7141  08DC  00CA               	movwf	___fldiv@rem+1
  7142  08DD  0840               	movf	___fldiv@b,w
  7143  08DE  00C9               	movwf	___fldiv@rem
  7144  08DF                     l2138:
  7145  08DF  3000               	movlw	0
  7146  08E0  00C3               	movwf	___fldiv@b+3
  7147  08E1  3000               	movlw	0
  7148  08E2  00C2               	movwf	___fldiv@b+2
  7149  08E3  3000               	movlw	0
  7150  08E4  00C1               	movwf	___fldiv@b+1
  7151  08E5  3000               	movlw	0
  7152  08E6  00C0               	movwf	___fldiv@b
  7153  08E7                     l2140:
  7154  08E7  3000               	movlw	0
  7155  08E8  00D3               	movwf	___fldiv@grs+3
  7156  08E9  3000               	movlw	0
  7157  08EA  00D2               	movwf	___fldiv@grs+2
  7158  08EB  3000               	movlw	0
  7159  08EC  00D1               	movwf	___fldiv@grs+1
  7160  08ED  3000               	movlw	0
  7161  08EE  00D0               	movwf	___fldiv@grs
  7162  08EF                     l2142:
  7163  08EF  01D5               	clrf	___fldiv@aexp
  7164  08F0  293B               	goto	l2162
  7165  08F1                     l2144:
  7166  08F1  0855               	movf	___fldiv@aexp,w
  7167  08F2  1903               	btfsc	3,2
  7168  08F3  28F5               	goto	u2941
  7169  08F4  28F6               	goto	u2940
  7170  08F5                     u2941:
  7171  08F5  2916               	goto	l2154
  7172  08F6                     u2940:
  7173  08F6                     l2146:
  7174  08F6  3001               	movlw	1
  7175  08F7  00C4               	movwf	??___fldiv
  7176  08F8                     u2955:
  7177  08F8  1003               	clrc
  7178  08F9  0DC9               	rlf	___fldiv@rem,f
  7179  08FA  0DCA               	rlf	___fldiv@rem+1,f
  7180  08FB  0DCB               	rlf	___fldiv@rem+2,f
  7181  08FC  0DCC               	rlf	___fldiv@rem+3,f
  7182  08FD  0BC4               	decfsz	??___fldiv,f
  7183  08FE  28F8               	goto	u2955
  7184  08FF  3001               	movlw	1
  7185  0900  00C4               	movwf	??___fldiv
  7186  0901                     u2965:
  7187  0901  1003               	clrc
  7188  0902  0DC0               	rlf	___fldiv@b,f
  7189  0903  0DC1               	rlf	___fldiv@b+1,f
  7190  0904  0DC2               	rlf	___fldiv@b+2,f
  7191  0905  0DC3               	rlf	___fldiv@b+3,f
  7192  0906  0BC4               	decfsz	??___fldiv,f
  7193  0907  2901               	goto	u2965
  7194  0908                     l2148:
  7195  0908  1FD3               	btfss	___fldiv@grs+3,7
  7196  0909  290B               	goto	u2971
  7197  090A  290C               	goto	u2970
  7198  090B                     u2971:
  7199  090B  290D               	goto	l2152
  7200  090C                     u2970:
  7201  090C                     l2150:
  7202  090C  1440               	bsf	___fldiv@b,0
  7203  090D                     l2152:
  7204  090D  3001               	movlw	1
  7205  090E  00C4               	movwf	??___fldiv
  7206  090F                     u2985:
  7207  090F  1003               	clrc
  7208  0910  0DD0               	rlf	___fldiv@grs,f
  7209  0911  0DD1               	rlf	___fldiv@grs+1,f
  7210  0912  0DD2               	rlf	___fldiv@grs+2,f
  7211  0913  0DD3               	rlf	___fldiv@grs+3,f
  7212  0914  0BC4               	decfsz	??___fldiv,f
  7213  0915  290F               	goto	u2985
  7214  0916                     l2154:
  7215  0916  083F               	movf	___fldiv@a+3,w
  7216  0917  024C               	subwf	___fldiv@rem+3,w
  7217  0918  1D03               	skipz
  7218  0919  2924               	goto	u2995
  7219  091A  083E               	movf	___fldiv@a+2,w
  7220  091B  024B               	subwf	___fldiv@rem+2,w
  7221  091C  1D03               	skipz
  7222  091D  2924               	goto	u2995
  7223  091E  083D               	movf	___fldiv@a+1,w
  7224  091F  024A               	subwf	___fldiv@rem+1,w
  7225  0920  1D03               	skipz
  7226  0921  2924               	goto	u2995
  7227  0922  083C               	movf	___fldiv@a,w
  7228  0923  0249               	subwf	___fldiv@rem,w
  7229  0924                     u2995:
  7230  0924  1C03               	skipc
  7231  0925  2927               	goto	u2991
  7232  0926  2928               	goto	u2990
  7233  0927                     u2991:
  7234  0927  2937               	goto	l2160
  7235  0928                     u2990:
  7236  0928                     l2156:
  7237  0928  1753               	bsf	___fldiv@grs+3,6
  7238  0929                     l2158:
  7239  0929  083C               	movf	___fldiv@a,w
  7240  092A  02C9               	subwf	___fldiv@rem,f
  7241  092B  083D               	movf	___fldiv@a+1,w
  7242  092C  1C03               	skipc
  7243  092D  0F3D               	incfsz	___fldiv@a+1,w
  7244  092E  02CA               	subwf	___fldiv@rem+1,f
  7245  092F  083E               	movf	___fldiv@a+2,w
  7246  0930  1C03               	skipc
  7247  0931  0F3E               	incfsz	___fldiv@a+2,w
  7248  0932  02CB               	subwf	___fldiv@rem+2,f
  7249  0933  083F               	movf	___fldiv@a+3,w
  7250  0934  1C03               	skipc
  7251  0935  0F3F               	incfsz	___fldiv@a+3,w
  7252  0936  02CC               	subwf	___fldiv@rem+3,f
  7253  0937                     l2160:
  7254  0937  3001               	movlw	1
  7255  0938  00FF               	movwf	btemp+1
  7256  0939  087F               	movf	btemp+1,w
  7257  093A  07D5               	addwf	___fldiv@aexp,f
  7258  093B                     l2162:
  7259  093B  301A               	movlw	26
  7260  093C  0255               	subwf	___fldiv@aexp,w
  7261  093D  1C03               	skipc
  7262  093E  2940               	goto	u3001
  7263  093F  2941               	goto	u3000
  7264  0940                     u3001:
  7265  0940  28F1               	goto	l2144
  7266  0941                     u3000:
  7267  0941                     l2164:
  7268  0941  084C               	movf	___fldiv@rem+3,w
  7269  0942  044B               	iorwf	___fldiv@rem+2,w
  7270  0943  044A               	iorwf	___fldiv@rem+1,w
  7271  0944  0449               	iorwf	___fldiv@rem,w
  7272  0945  1903               	skipnz
  7273  0946  2948               	goto	u3011
  7274  0947  2949               	goto	u3010
  7275  0948                     u3011:
  7276  0948  2968               	goto	l2178
  7277  0949                     u3010:
  7278  0949                     l2166:
  7279  0949  1450               	bsf	___fldiv@grs,0
  7280  094A  2968               	goto	l2178
  7281  094B                     l2168:
  7282  094B  3001               	movlw	1
  7283  094C  00C4               	movwf	??___fldiv
  7284  094D                     u3025:
  7285  094D  1003               	clrc
  7286  094E  0DC0               	rlf	___fldiv@b,f
  7287  094F  0DC1               	rlf	___fldiv@b+1,f
  7288  0950  0DC2               	rlf	___fldiv@b+2,f
  7289  0951  0DC3               	rlf	___fldiv@b+3,f
  7290  0952  0BC4               	decfsz	??___fldiv,f
  7291  0953  294D               	goto	u3025
  7292  0954                     l2170:
  7293  0954  1FD3               	btfss	___fldiv@grs+3,7
  7294  0955  2957               	goto	u3031
  7295  0956  2958               	goto	u3030
  7296  0957                     u3031:
  7297  0957  2959               	goto	l2174
  7298  0958                     u3030:
  7299  0958                     l2172:
  7300  0958  1440               	bsf	___fldiv@b,0
  7301  0959                     l2174:
  7302  0959  3001               	movlw	1
  7303  095A  00C4               	movwf	??___fldiv
  7304  095B                     u3045:
  7305  095B  1003               	clrc
  7306  095C  0DD0               	rlf	___fldiv@grs,f
  7307  095D  0DD1               	rlf	___fldiv@grs+1,f
  7308  095E  0DD2               	rlf	___fldiv@grs+2,f
  7309  095F  0DD3               	rlf	___fldiv@grs+3,f
  7310  0960  0BC4               	decfsz	??___fldiv,f
  7311  0961  295B               	goto	u3045
  7312  0962                     l2176:
  7313  0962  30FF               	movlw	255
  7314  0963  07CE               	addwf	___fldiv@new_exp,f
  7315  0964  1803               	skipnc
  7316  0965  0ACF               	incf	___fldiv@new_exp+1,f
  7317  0966  30FF               	movlw	255
  7318  0967  07CF               	addwf	___fldiv@new_exp+1,f
  7319  0968                     l2178:
  7320  0968  1FC2               	btfss	___fldiv@b+2,7
  7321  0969  296B               	goto	u3051
  7322  096A  296C               	goto	u3050
  7323  096B                     u3051:
  7324  096B  294B               	goto	l2168
  7325  096C                     u3050:
  7326  096C                     l2180:
  7327  096C  01D5               	clrf	___fldiv@aexp
  7328  096D                     l2182:
  7329  096D  1FD3               	btfss	___fldiv@grs+3,7
  7330  096E  2970               	goto	u3061
  7331  096F  2971               	goto	u3060
  7332  0970                     u3061:
  7333  0970  298D               	goto	l2190
  7334  0971                     u3060:
  7335  0971                     l2184:
  7336  0971  30FF               	movlw	255
  7337  0972  0550               	andwf	___fldiv@grs,w
  7338  0973  00C4               	movwf	??___fldiv
  7339  0974  30FF               	movlw	255
  7340  0975  0551               	andwf	___fldiv@grs+1,w
  7341  0976  00C5               	movwf	??___fldiv+1
  7342  0977  30FF               	movlw	255
  7343  0978  0552               	andwf	___fldiv@grs+2,w
  7344  0979  00C6               	movwf	??___fldiv+2
  7345  097A  307F               	movlw	127
  7346  097B  0553               	andwf	___fldiv@grs+3,w
  7347  097C  00C7               	movwf	??___fldiv+3
  7348  097D  0847               	movf	??___fldiv+3,w
  7349  097E  0446               	iorwf	??___fldiv+2,w
  7350  097F  0445               	iorwf	??___fldiv+1,w
  7351  0980  0444               	iorwf	??___fldiv,w
  7352  0981  1903               	skipnz
  7353  0982  2984               	goto	u3071
  7354  0983  2985               	goto	u3070
  7355  0984                     u3071:
  7356  0984  2988               	goto	l591
  7357  0985                     u3070:
  7358  0985                     l2186:
  7359  0985  01D5               	clrf	___fldiv@aexp
  7360  0986  0AD5               	incf	___fldiv@aexp,f
  7361  0987  298D               	goto	l2190
  7362  0988                     l591:
  7363  0988  1C40               	btfss	___fldiv@b,0
  7364  0989  298B               	goto	u3081
  7365  098A  298C               	goto	u3080
  7366  098B                     u3081:
  7367  098B  298D               	goto	l2190
  7368  098C                     u3080:
  7369  098C  2985               	goto	l2186
  7370  098D                     l2190:
  7371  098D  0855               	movf	___fldiv@aexp,w
  7372  098E  1903               	btfsc	3,2
  7373  098F  2991               	goto	u3091
  7374  0990  2992               	goto	u3090
  7375  0991                     u3091:
  7376  0991  29C3               	goto	l2200
  7377  0992                     u3090:
  7378  0992                     l2192:
  7379  0992  3001               	movlw	1
  7380  0993  07C0               	addwf	___fldiv@b,f
  7381  0994  3000               	movlw	0
  7382  0995  1803               	skipnc
  7383  0996  3001               	movlw	1
  7384  0997  07C1               	addwf	___fldiv@b+1,f
  7385  0998  3000               	movlw	0
  7386  0999  1803               	skipnc
  7387  099A  3001               	movlw	1
  7388  099B  07C2               	addwf	___fldiv@b+2,f
  7389  099C  3000               	movlw	0
  7390  099D  1803               	skipnc
  7391  099E  3001               	movlw	1
  7392  099F  07C3               	addwf	___fldiv@b+3,f
  7393  09A0                     l2194:
  7394  09A0  1C43               	btfss	___fldiv@b+3,0
  7395  09A1  29A3               	goto	u3101
  7396  09A2  29A4               	goto	u3100
  7397  09A3                     u3101:
  7398  09A3  29C3               	goto	l2200
  7399  09A4                     u3100:
  7400  09A4                     l2196:
  7401  09A4  0840               	movf	___fldiv@b,w
  7402  09A5  00C4               	movwf	??___fldiv
  7403  09A6  0841               	movf	___fldiv@b+1,w
  7404  09A7  00C5               	movwf	??___fldiv+1
  7405  09A8  0842               	movf	___fldiv@b+2,w
  7406  09A9  00C6               	movwf	??___fldiv+2
  7407  09AA  0843               	movf	___fldiv@b+3,w
  7408  09AB  00C7               	movwf	??___fldiv+3
  7409  09AC  3001               	movlw	1
  7410  09AD  00C8               	movwf	??___fldiv+4
  7411  09AE                     u3115:
  7412  09AE  0D47               	rlf	??___fldiv+3,w
  7413  09AF  0CC7               	rrf	??___fldiv+3,f
  7414  09B0  0CC6               	rrf	??___fldiv+2,f
  7415  09B1  0CC5               	rrf	??___fldiv+1,f
  7416  09B2  0CC4               	rrf	??___fldiv,f
  7417  09B3                     u3110:
  7418  09B3  0BC8               	decfsz	??___fldiv+4,f
  7419  09B4  29AE               	goto	u3115
  7420  09B5  0847               	movf	??___fldiv+3,w
  7421  09B6  00C3               	movwf	___fldiv@b+3
  7422  09B7  0846               	movf	??___fldiv+2,w
  7423  09B8  00C2               	movwf	___fldiv@b+2
  7424  09B9  0845               	movf	??___fldiv+1,w
  7425  09BA  00C1               	movwf	___fldiv@b+1
  7426  09BB  0844               	movf	??___fldiv,w
  7427  09BC  00C0               	movwf	___fldiv@b
  7428  09BD                     l2198:
  7429  09BD  3001               	movlw	1
  7430  09BE  07CE               	addwf	___fldiv@new_exp,f
  7431  09BF  1803               	skipnc
  7432  09C0  0ACF               	incf	___fldiv@new_exp+1,f
  7433  09C1  3000               	movlw	0
  7434  09C2  07CF               	addwf	___fldiv@new_exp+1,f
  7435  09C3                     l2200:
  7436  09C3  084F               	movf	___fldiv@new_exp+1,w
  7437  09C4  3A80               	xorlw	128
  7438  09C5  00FF               	movwf	btemp+1
  7439  09C6  3080               	movlw	128
  7440  09C7  027F               	subwf	btemp+1,w
  7441  09C8  1D03               	skipz
  7442  09C9  29CC               	goto	u3125
  7443  09CA  30FF               	movlw	255
  7444  09CB  024E               	subwf	___fldiv@new_exp,w
  7445  09CC                     u3125:
  7446  09CC  1C03               	skipc
  7447  09CD  29CF               	goto	u3121
  7448  09CE  29D0               	goto	u3120
  7449  09CF                     u3121:
  7450  09CF  29DE               	goto	l2204
  7451  09D0                     u3120:
  7452  09D0                     l2202:
  7453  09D0  30FF               	movlw	255
  7454  09D1  1283               	bcf	3,5	;RP0=0, select bank0
  7455  09D2  1303               	bcf	3,6	;RP1=0, select bank0
  7456  09D3  00CE               	movwf	___fldiv@new_exp
  7457  09D4  3000               	movlw	0
  7458  09D5  00CF               	movwf	___fldiv@new_exp+1
  7459  09D6  3000               	movlw	0
  7460  09D7  00C3               	movwf	___fldiv@b+3
  7461  09D8  3000               	movlw	0
  7462  09D9  00C2               	movwf	___fldiv@b+2
  7463  09DA  3000               	movlw	0
  7464  09DB  00C1               	movwf	___fldiv@b+1
  7465  09DC  3000               	movlw	0
  7466  09DD  00C0               	movwf	___fldiv@b
  7467  09DE                     l2204:
  7468  09DE  1283               	bcf	3,5	;RP0=0, select bank0
  7469  09DF  1303               	bcf	3,6	;RP1=0, select bank0
  7470  09E0  084F               	movf	___fldiv@new_exp+1,w
  7471  09E1  3A80               	xorlw	128
  7472  09E2  00FF               	movwf	btemp+1
  7473  09E3  3080               	movlw	128
  7474  09E4  027F               	subwf	btemp+1,w
  7475  09E5  1D03               	skipz
  7476  09E6  29E9               	goto	u3135
  7477  09E7  3001               	movlw	1
  7478  09E8  024E               	subwf	___fldiv@new_exp,w
  7479  09E9                     u3135:
  7480  09E9  1803               	skipnc
  7481  09EA  29EC               	goto	u3131
  7482  09EB  29ED               	goto	u3130
  7483  09EC                     u3131:
  7484  09EC  29FA               	goto	l2212
  7485  09ED                     u3130:
  7486  09ED                     l2206:
  7487  09ED  1283               	bcf	3,5	;RP0=0, select bank0
  7488  09EE  1303               	bcf	3,6	;RP1=0, select bank0
  7489  09EF  01CE               	clrf	___fldiv@new_exp
  7490  09F0  01CF               	clrf	___fldiv@new_exp+1
  7491  09F1                     l2208:
  7492  09F1  3000               	movlw	0
  7493  09F2  00C3               	movwf	___fldiv@b+3
  7494  09F3  3000               	movlw	0
  7495  09F4  00C2               	movwf	___fldiv@b+2
  7496  09F5  3000               	movlw	0
  7497  09F6  00C1               	movwf	___fldiv@b+1
  7498  09F7  3000               	movlw	0
  7499  09F8  00C0               	movwf	___fldiv@b
  7500  09F9                     l2210:
  7501  09F9  01CD               	clrf	___fldiv@sign
  7502  09FA                     l2212:
  7503  09FA  1283               	bcf	3,5	;RP0=0, select bank0
  7504  09FB  1303               	bcf	3,6	;RP1=0, select bank0
  7505  09FC  084E               	movf	___fldiv@new_exp,w
  7506  09FD  00FF               	movwf	btemp+1
  7507  09FE  087F               	movf	btemp+1,w
  7508  09FF  00D4               	movwf	___fldiv@bexp
  7509  0A00                     l2214:
  7510  0A00  1C54               	btfss	___fldiv@bexp,0
  7511  0A01  2A03               	goto	u3141
  7512  0A02  2A04               	goto	u3140
  7513  0A03                     u3141:
  7514  0A03  2A06               	goto	l2218
  7515  0A04                     u3140:
  7516  0A04                     l2216:
  7517  0A04  17C2               	bsf	___fldiv@b+2,7
  7518  0A05  2A0A               	goto	l599
  7519  0A06                     l2218:
  7520  0A06  307F               	movlw	127
  7521  0A07  00FF               	movwf	btemp+1
  7522  0A08  087F               	movf	btemp+1,w
  7523  0A09  05C2               	andwf	___fldiv@b+2,f
  7524  0A0A                     l599:
  7525  0A0A  0854               	movf	___fldiv@bexp,w
  7526  0A0B  00C4               	movwf	??___fldiv
  7527  0A0C  1003               	clrc
  7528  0A0D  0C44               	rrf	??___fldiv,w
  7529  0A0E  00FF               	movwf	btemp+1
  7530  0A0F  087F               	movf	btemp+1,w
  7531  0A10  00C3               	movwf	___fldiv@b+3
  7532  0A11  084D               	movf	___fldiv@sign,w
  7533  0A12  00FF               	movwf	btemp+1
  7534  0A13  087F               	movf	btemp+1,w
  7535  0A14  04C3               	iorwf	___fldiv@b+3,f
  7536  0A15  28AE               	goto	l2124
  7537  0A16                     l577:
  7538  0A16  0008               	return
  7539  0A17                     __end_of___fldiv:
  7540                           
  7541                           	psect	text21
  7542  1320                     __ptext21:	
  7543 ;; *************** function _PORT_putString *****************
  7544 ;; Defined at:
  7545 ;;		line 136 in file "port.c"
  7546 ;; Parameters:    Size  Location     Type
  7547 ;;  chaine          1    wreg     PTR unsigned char 
  7548 ;;		 -> STR_2(2), STR_1(4), 
  7549 ;; Auto vars:     Size  Location     Type
  7550 ;;  chaine          1    5[COMMON] PTR unsigned char 
  7551 ;;		 -> STR_2(2), STR_1(4), 
  7552 ;;  i               2    3[COMMON] int 
  7553 ;; Return value:  Size  Location     Type
  7554 ;;                  1    wreg      void 
  7555 ;; Registers used:
  7556 ;;		wreg, fsr0l, fsr0h, status,2, status,0, pclath, cstack
  7557 ;; Tracked objects:
  7558 ;;		On entry : 0/0
  7559 ;;		On exit  : 0/0
  7560 ;;		Unchanged: 0/0
  7561 ;; Data sizes:     COMMON   BANK0   BANK1   BANK3   BANK2
  7562 ;;      Params:         0       0       0       0       0
  7563 ;;      Locals:         3       0       0       0       0
  7564 ;;      Temps:          0       0       0       0       0
  7565 ;;      Totals:         3       0       0       0       0
  7566 ;;Total ram usage:        3 bytes
  7567 ;; Hardware stack levels used:    1
  7568 ;; Hardware stack levels required when called:    2
  7569 ;; This function calls:
  7570 ;;		_PORT_putchar
  7571 ;; This function is called by:
  7572 ;;		_Get_Newton
  7573 ;; This function uses a non-reentrant model
  7574 ;;
  7575                           
  7576                           
  7577                           ;psect for function _PORT_putString
  7578  1320                     _PORT_putString:
  7579                           
  7580                           ;incstack = 0
  7581                           ; Regs used in _PORT_putString: [wreg-fsr0h+status,2+status,0+pclath+cstack]
  7582                           ;PORT_putString@chaine stored from wreg
  7583  1320  00F5               	movwf	PORT_putString@chaine
  7584  1321                     l2558:
  7585                           
  7586                           ;port.c: 138:     int i;;port.c: 140:     for(i=0 ; chaine[i]!=0 ; i++)
  7587  1321  01F3               	clrf	PORT_putString@i
  7588  1322  01F4               	clrf	PORT_putString@i+1
  7589  1323  2B37               	goto	l2564
  7590  1324                     l2560:
  7591                           
  7592                           ;port.c: 141:     {;port.c: 142:         PORT_putchar(chaine[i]);
  7593  1324  0873               	movf	PORT_putString@i,w
  7594  1325  0775               	addwf	PORT_putString@chaine,w
  7595  1326  0084               	movwf	4
  7596  1327  160A  118A  2000  160A  118A  	fcall	stringdir
  7597  132C  160A  118A  2291  160A  118A  	fcall	_PORT_putchar
  7598  1331                     l2562:
  7599                           
  7600                           ;port.c: 143:     }
  7601  1331  3001               	movlw	1
  7602  1332  07F3               	addwf	PORT_putString@i,f
  7603  1333  1803               	skipnc
  7604  1334  0AF4               	incf	PORT_putString@i+1,f
  7605  1335  3000               	movlw	0
  7606  1336  07F4               	addwf	PORT_putString@i+1,f
  7607  1337                     l2564:
  7608  1337  0873               	movf	PORT_putString@i,w
  7609  1338  0775               	addwf	PORT_putString@chaine,w
  7610  1339  0084               	movwf	4
  7611  133A  160A  118A  2000  160A  118A  	fcall	stringdir
  7612  133F  3A00               	xorlw	0
  7613  1340  1D03               	skipz
  7614  1341  2B43               	goto	u4001
  7615  1342  2B44               	goto	u4000
  7616  1343                     u4001:
  7617  1343  2B24               	goto	l2560
  7618  1344                     u4000:
  7619  1344                     l172:
  7620  1344  0008               	return
  7621  1345                     __end_of_PORT_putString:
  7622                           
  7623                           	psect	text22
  7624  1291                     __ptext22:	
  7625 ;; *************** function _PORT_putchar *****************
  7626 ;; Defined at:
  7627 ;;		line 126 in file "port.c"
  7628 ;; Parameters:    Size  Location     Type
  7629 ;;  c               1    wreg     unsigned char 
  7630 ;; Auto vars:     Size  Location     Type
  7631 ;;  c               1    2[COMMON] unsigned char 
  7632 ;; Return value:  Size  Location     Type
  7633 ;;                  1    wreg      void 
  7634 ;; Registers used:
  7635 ;;		wreg
  7636 ;; Tracked objects:
  7637 ;;		On entry : 0/0
  7638 ;;		On exit  : 0/0
  7639 ;;		Unchanged: 0/0
  7640 ;; Data sizes:     COMMON   BANK0   BANK1   BANK3   BANK2
  7641 ;;      Params:         0       0       0       0       0
  7642 ;;      Locals:         1       0       0       0       0
  7643 ;;      Temps:          0       0       0       0       0
  7644 ;;      Totals:         1       0       0       0       0
  7645 ;;Total ram usage:        1 bytes
  7646 ;; Hardware stack levels used:    1
  7647 ;; Hardware stack levels required when called:    1
  7648 ;; This function calls:
  7649 ;;		Nothing
  7650 ;; This function is called by:
  7651 ;;		_puts_Newton
  7652 ;;		_PORT_putString
  7653 ;;		_Affichage_brut
  7654 ;;		_puts_float
  7655 ;; This function uses a non-reentrant model
  7656 ;;
  7657                           
  7658                           
  7659                           ;psect for function _PORT_putchar
  7660  1291                     _PORT_putchar:
  7661                           
  7662                           ;incstack = 0
  7663                           ; Regs used in _PORT_putchar: [wreg]
  7664                           ;PORT_putchar@c stored from wreg
  7665  1291  00F2               	movwf	PORT_putchar@c
  7666  1292                     l1954:
  7667  1292                     l163:	
  7668                           ;port.c: 128:     for(;(TXSTA&0x02)!=0x02;);
  7669                           
  7670  1292  1683               	bsf	3,5	;RP0=1, select bank1
  7671  1293  1303               	bcf	3,6	;RP1=0, select bank1
  7672  1294  1C98               	btfss	24,1	;volatile
  7673  1295  2A97               	goto	u2531
  7674  1296  2A98               	goto	u2530
  7675  1297                     u2531:
  7676  1297  2A92               	goto	l163
  7677  1298                     u2530:
  7678  1298                     l1956:
  7679                           
  7680                           ;port.c: 129:     TXREG = c;
  7681  1298  0872               	movf	PORT_putchar@c,w
  7682  1299  1283               	bcf	3,5	;RP0=0, select bank0
  7683  129A  1303               	bcf	3,6	;RP1=0, select bank0
  7684  129B  0099               	movwf	25	;volatile
  7685  129C                     l166:
  7686  129C  0008               	return
  7687  129D                     __end_of_PORT_putchar:
  7688                           
  7689                           	psect	text23
  7690  13D0                     __ptext23:	
  7691 ;; *************** function _PORT_Change_Gain *****************
  7692 ;; Defined at:
  7693 ;;		line 173 in file "port.c"
  7694 ;; Parameters:    Size  Location     Type
  7695 ;;  INTER0          1    wreg     unsigned char 
  7696 ;;  INTER1          1    2[COMMON] unsigned char 
  7697 ;; Auto vars:     Size  Location     Type
  7698 ;;  INTER0          1    5[COMMON] unsigned char 
  7699 ;; Return value:  Size  Location     Type
  7700 ;;                  2    2[COMMON] unsigned int 
  7701 ;; Registers used:
  7702 ;;		wreg, status,2, status,0
  7703 ;; Tracked objects:
  7704 ;;		On entry : 0/0
  7705 ;;		On exit  : 0/0
  7706 ;;		Unchanged: 0/0
  7707 ;; Data sizes:     COMMON   BANK0   BANK1   BANK3   BANK2
  7708 ;;      Params:         3       0       0       0       0
  7709 ;;      Locals:         1       0       0       0       0
  7710 ;;      Temps:          0       0       0       0       0
  7711 ;;      Totals:         4       0       0       0       0
  7712 ;;Total ram usage:        4 bytes
  7713 ;; Hardware stack levels used:    1
  7714 ;; Hardware stack levels required when called:    1
  7715 ;; This function calls:
  7716 ;;		Nothing
  7717 ;; This function is called by:
  7718 ;;		_Get_Newton
  7719 ;; This function uses a non-reentrant model
  7720 ;;
  7721                           
  7722                           
  7723                           ;psect for function _PORT_Change_Gain
  7724  13D0                     _PORT_Change_Gain:
  7725                           
  7726                           ;incstack = 0
  7727                           ; Regs used in _PORT_Change_Gain: [wreg+status,2+status,0]
  7728                           ;PORT_Change_Gain@INTER0 stored from wreg
  7729  13D0  00F5               	movwf	PORT_Change_Gain@INTER0
  7730  13D1                     l2520:
  7731                           
  7732                           ;port.c: 174:     PORTCbits.RC0 = INTER0;
  7733  13D1  0C75               	rrf	PORT_Change_Gain@INTER0,w
  7734  13D2  1283               	bcf	3,5	;RP0=0, select bank0
  7735  13D3  1303               	bcf	3,6	;RP1=0, select bank0
  7736  13D4  1C03               	skipc
  7737  13D5  1007               	bcf	7,0	;volatile
  7738  13D6  1803               	skipnc
  7739  13D7  1407               	bsf	7,0	;volatile
  7740                           
  7741                           ;port.c: 175:     PORTCbits.RC1 = INTER1;
  7742  13D8  0C72               	rrf	PORT_Change_Gain@INTER1,w
  7743  13D9  1C03               	skipc
  7744  13DA  1087               	bcf	7,1	;volatile
  7745  13DB  1803               	skipnc
  7746  13DC  1487               	bsf	7,1	;volatile
  7747  13DD                     l2522:
  7748                           
  7749                           ;port.c: 176:     if (INTER0 == 0 && INTER1 == 0)
  7750  13DD  0875               	movf	PORT_Change_Gain@INTER0,w
  7751  13DE  1D03               	btfss	3,2
  7752  13DF  2BE1               	goto	u3941
  7753  13E0  2BE2               	goto	u3940
  7754  13E1                     u3941:
  7755  13E1  2BEC               	goto	l2532
  7756  13E2                     u3940:
  7757  13E2                     l2524:
  7758  13E2  0872               	movf	PORT_Change_Gain@INTER1,w
  7759  13E3  1D03               	btfss	3,2
  7760  13E4  2BE6               	goto	u3951
  7761  13E5  2BE7               	goto	u3950
  7762  13E6                     u3951:
  7763  13E6  2BEC               	goto	l2532
  7764  13E7                     u3950:
  7765  13E7                     l2526:
  7766                           
  7767                           ;port.c: 177:         return 52000;
  7768  13E7  3020               	movlw	32
  7769  13E8  00F2               	movwf	?_PORT_Change_Gain
  7770  13E9  30CB               	movlw	203
  7771  13EA  00F3               	movwf	?_PORT_Change_Gain+1
  7772  13EB  2C09               	goto	l182
  7773  13EC                     l2532:
  7774  13EC  0875               	movf	PORT_Change_Gain@INTER0,w
  7775  13ED  1D03               	btfss	3,2
  7776  13EE  2BF0               	goto	u3961
  7777  13EF  2BF1               	goto	u3960
  7778  13F0                     u3961:
  7779  13F0  2BFB               	goto	l2542
  7780  13F1                     u3960:
  7781  13F1                     l2534:
  7782  13F1  0372               	decf	PORT_Change_Gain@INTER1,w
  7783  13F2  1D03               	btfss	3,2
  7784  13F3  2BF5               	goto	u3971
  7785  13F4  2BF6               	goto	u3970
  7786  13F5                     u3971:
  7787  13F5  2BFB               	goto	l2542
  7788  13F6                     u3970:
  7789  13F6                     l2536:
  7790                           
  7791                           ;port.c: 179:         return 2800;
  7792  13F6  30F0               	movlw	240
  7793  13F7  00F2               	movwf	?_PORT_Change_Gain
  7794  13F8  300A               	movlw	10
  7795  13F9  00F3               	movwf	?_PORT_Change_Gain+1
  7796  13FA  2C09               	goto	l182
  7797  13FB                     l2542:
  7798  13FB  0375               	decf	PORT_Change_Gain@INTER0,w
  7799  13FC  1D03               	btfss	3,2
  7800  13FD  2BFF               	goto	u3981
  7801  13FE  2C00               	goto	u3980
  7802  13FF                     u3981:
  7803  13FF  2C09               	goto	l182
  7804  1400                     u3980:
  7805  1400                     l2544:
  7806  1400  0872               	movf	PORT_Change_Gain@INTER1,w
  7807  1401  1D03               	btfss	3,2
  7808  1402  2C04               	goto	u3991
  7809  1403  2C05               	goto	u3990
  7810  1404                     u3991:
  7811  1404  2C09               	goto	l182
  7812  1405                     u3990:
  7813  1405                     l2546:
  7814                           
  7815                           ;port.c: 181:         return 8300;
  7816  1405  306C               	movlw	108
  7817  1406  00F2               	movwf	?_PORT_Change_Gain
  7818  1407  3020               	movlw	32
  7819  1408  00F3               	movwf	?_PORT_Change_Gain+1
  7820  1409                     l182:
  7821  1409  0008               	return
  7822  140A                     __end_of_PORT_Change_Gain:
  7823                           
  7824                           	psect	text24
  7825  12BF                     __ptext24:	
  7826 ;; *************** function _ADC_GetValue *****************
  7827 ;; Defined at:
  7828 ;;		line 16 in file "adc.c"
  7829 ;; Parameters:    Size  Location     Type
  7830 ;;  channel         1    wreg     unsigned char 
  7831 ;; Auto vars:     Size  Location     Type
  7832 ;;  channel         1    3[COMMON] unsigned char 
  7833 ;; Return value:  Size  Location     Type
  7834 ;;                  1    wreg      unsigned char 
  7835 ;; Registers used:
  7836 ;;		wreg, status,2, status,0, btemp+1, pclath, cstack
  7837 ;; Tracked objects:
  7838 ;;		On entry : 0/0
  7839 ;;		On exit  : 0/0
  7840 ;;		Unchanged: 0/0
  7841 ;; Data sizes:     COMMON   BANK0   BANK1   BANK3   BANK2
  7842 ;;      Params:         0       0       0       0       0
  7843 ;;      Locals:         1       0       0       0       0
  7844 ;;      Temps:          0       0       0       0       0
  7845 ;;      Totals:         1       0       0       0       0
  7846 ;;Total ram usage:        1 bytes
  7847 ;; Hardware stack levels used:    1
  7848 ;; Hardware stack levels required when called:    2
  7849 ;; This function calls:
  7850 ;;		_PORT_Choose_Mux
  7851 ;;		_PORT_Get_Value_Adc
  7852 ;;		_PORT_Start_ADC
  7853 ;; This function is called by:
  7854 ;;		_Get_Newton
  7855 ;; This function uses a non-reentrant model
  7856 ;;
  7857                           
  7858                           
  7859                           ;psect for function _ADC_GetValue
  7860  12BF                     _ADC_GetValue:
  7861                           
  7862                           ;incstack = 0
  7863                           ; Regs used in _ADC_GetValue: [wreg+status,2+status,0+btemp+1+pclath+cstack]
  7864                           ;ADC_GetValue@channel stored from wreg
  7865  12BF  00F3               	movwf	ADC_GetValue@channel
  7866  12C0                     l2550:
  7867                           
  7868                           ;adc.c: 18:     PORT_Choose_Mux(channel);
  7869  12C0  0873               	movf	ADC_GetValue@channel,w
  7870  12C1  160A  118A  22AD  160A  118A  	fcall	_PORT_Choose_Mux
  7871  12C6                     l2552:
  7872                           
  7873                           ;adc.c: 19:     PORT_Start_ADC();
  7874  12C6  160A  118A  2281  160A  118A  	fcall	_PORT_Start_ADC
  7875  12CB                     l2554:
  7876                           
  7877                           ;adc.c: 20:     return PORT_Get_Value_Adc();
  7878  12CB  160A  118A  227D  160A  118A  	fcall	_PORT_Get_Value_Adc
  7879  12D0                     l87:
  7880  12D0  0008               	return
  7881  12D1                     __end_of_ADC_GetValue:
  7882                           
  7883                           	psect	text25
  7884  1281                     __ptext25:	
  7885 ;; *************** function _PORT_Start_ADC *****************
  7886 ;; Defined at:
  7887 ;;		line 104 in file "port.c"
  7888 ;; Parameters:    Size  Location     Type
  7889 ;;		None
  7890 ;; Auto vars:     Size  Location     Type
  7891 ;;		None
  7892 ;; Return value:  Size  Location     Type
  7893 ;;                  1    wreg      void 
  7894 ;; Registers used:
  7895 ;;		None
  7896 ;; Tracked objects:
  7897 ;;		On entry : 0/0
  7898 ;;		On exit  : 0/0
  7899 ;;		Unchanged: 0/0
  7900 ;; Data sizes:     COMMON   BANK0   BANK1   BANK3   BANK2
  7901 ;;      Params:         0       0       0       0       0
  7902 ;;      Locals:         0       0       0       0       0
  7903 ;;      Temps:          0       0       0       0       0
  7904 ;;      Totals:         0       0       0       0       0
  7905 ;;Total ram usage:        0 bytes
  7906 ;; Hardware stack levels used:    1
  7907 ;; Hardware stack levels required when called:    1
  7908 ;; This function calls:
  7909 ;;		Nothing
  7910 ;; This function is called by:
  7911 ;;		_ADC_GetValue
  7912 ;; This function uses a non-reentrant model
  7913 ;;
  7914                           
  7915                           
  7916                           ;psect for function _PORT_Start_ADC
  7917  1281                     _PORT_Start_ADC:
  7918  1281                     l1962:	
  7919                           ;incstack = 0
  7920                           ; Regs used in _PORT_Start_ADC: []
  7921                           
  7922                           
  7923                           ;port.c: 105:     GO_nDONE=1;
  7924  1281  1283               	bcf	3,5	;RP0=0, select bank0
  7925  1282  1303               	bcf	3,6	;RP1=0, select bank0
  7926  1283  149F               	bsf	31,1	;volatile
  7927  1284                     l154:	
  7928                           ;port.c: 106:     while(GO_nDONE);
  7929                           
  7930  1284  189F               	btfsc	31,1	;volatile
  7931  1285  2A87               	goto	u2551
  7932  1286  2A88               	goto	u2550
  7933  1287                     u2551:
  7934  1287  2A84               	goto	l154
  7935  1288                     u2550:
  7936  1288                     l157:
  7937  1288  0008               	return
  7938  1289                     __end_of_PORT_Start_ADC:
  7939                           
  7940                           	psect	text26
  7941  127D                     __ptext26:	
  7942 ;; *************** function _PORT_Get_Value_Adc *****************
  7943 ;; Defined at:
  7944 ;;		line 118 in file "port.c"
  7945 ;; Parameters:    Size  Location     Type
  7946 ;;		None
  7947 ;; Auto vars:     Size  Location     Type
  7948 ;;		None
  7949 ;; Return value:  Size  Location     Type
  7950 ;;                  1    wreg      unsigned char 
  7951 ;; Registers used:
  7952 ;;		wreg
  7953 ;; Tracked objects:
  7954 ;;		On entry : 0/0
  7955 ;;		On exit  : 0/0
  7956 ;;		Unchanged: 0/0
  7957 ;; Data sizes:     COMMON   BANK0   BANK1   BANK3   BANK2
  7958 ;;      Params:         0       0       0       0       0
  7959 ;;      Locals:         0       0       0       0       0
  7960 ;;      Temps:          0       0       0       0       0
  7961 ;;      Totals:         0       0       0       0       0
  7962 ;;Total ram usage:        0 bytes
  7963 ;; Hardware stack levels used:    1
  7964 ;; Hardware stack levels required when called:    1
  7965 ;; This function calls:
  7966 ;;		Nothing
  7967 ;; This function is called by:
  7968 ;;		_ADC_GetValue
  7969 ;; This function uses a non-reentrant model
  7970 ;;
  7971                           
  7972                           
  7973                           ;psect for function _PORT_Get_Value_Adc
  7974  127D                     _PORT_Get_Value_Adc:
  7975  127D                     l1964:	
  7976                           ;incstack = 0
  7977                           ; Regs used in _PORT_Get_Value_Adc: [wreg]
  7978                           
  7979                           
  7980                           ;port.c: 119:     return ADRES;
  7981  127D  1283               	bcf	3,5	;RP0=0, select bank0
  7982  127E  1303               	bcf	3,6	;RP1=0, select bank0
  7983  127F  081E               	movf	30,w	;volatile
  7984  1280                     l160:
  7985  1280  0008               	return
  7986  1281                     __end_of_PORT_Get_Value_Adc:
  7987                           
  7988                           	psect	text27
  7989  12AD                     __ptext27:	
  7990 ;; *************** function _PORT_Choose_Mux *****************
  7991 ;; Defined at:
  7992 ;;		line 94 in file "port.c"
  7993 ;; Parameters:    Size  Location     Type
  7994 ;;  _value          1    wreg     unsigned char 
  7995 ;; Auto vars:     Size  Location     Type
  7996 ;;  _value          1    2[COMMON] unsigned char 
  7997 ;; Return value:  Size  Location     Type
  7998 ;;                  1    wreg      void 
  7999 ;; Registers used:
  8000 ;;		wreg, status,2, status,0, btemp+1
  8001 ;; Tracked objects:
  8002 ;;		On entry : 0/0
  8003 ;;		On exit  : 0/0
  8004 ;;		Unchanged: 0/0
  8005 ;; Data sizes:     COMMON   BANK0   BANK1   BANK3   BANK2
  8006 ;;      Params:         0       0       0       0       0
  8007 ;;      Locals:         1       0       0       0       0
  8008 ;;      Temps:          0       0       0       0       0
  8009 ;;      Totals:         1       0       0       0       0
  8010 ;;Total ram usage:        1 bytes
  8011 ;; Hardware stack levels used:    1
  8012 ;; Hardware stack levels required when called:    1
  8013 ;; This function calls:
  8014 ;;		Nothing
  8015 ;; This function is called by:
  8016 ;;		_ADC_GetValue
  8017 ;; This function uses a non-reentrant model
  8018 ;;
  8019                           
  8020                           
  8021                           ;psect for function _PORT_Choose_Mux
  8022  12AD                     _PORT_Choose_Mux:
  8023                           
  8024                           ;incstack = 0
  8025                           ; Regs used in _PORT_Choose_Mux: [wreg+status,2+status,0+btemp+1]
  8026                           ;PORT_Choose_Mux@_value stored from wreg
  8027  12AD  00F2               	movwf	PORT_Choose_Mux@_value
  8028  12AE                     l1958:
  8029                           
  8030                           ;port.c: 95:     if (_value <= 0x0F) {
  8031  12AE  3010               	movlw	16
  8032  12AF  0272               	subwf	PORT_Choose_Mux@_value,w
  8033  12B0  1803               	skipnc
  8034  12B1  2AB3               	goto	u2541
  8035  12B2  2AB4               	goto	u2540
  8036  12B3                     u2541:
  8037  12B3  2ABE               	goto	l151
  8038  12B4                     u2540:
  8039  12B4                     l1960:
  8040                           
  8041                           ;port.c: 96:         PORTD &= 0xF0;
  8042  12B4  30F0               	movlw	240
  8043  12B5  00FF               	movwf	btemp+1
  8044  12B6  087F               	movf	btemp+1,w
  8045  12B7  1283               	bcf	3,5	;RP0=0, select bank0
  8046  12B8  1303               	bcf	3,6	;RP1=0, select bank0
  8047  12B9  0588               	andwf	8,f	;volatile
  8048                           
  8049                           ;port.c: 97:         PORTD |= _value;
  8050  12BA  0872               	movf	PORT_Choose_Mux@_value,w	;volatile
  8051  12BB  00FF               	movwf	btemp+1
  8052  12BC  087F               	movf	btemp+1,w
  8053  12BD  0488               	iorwf	8,f	;volatile
  8054  12BE                     l151:
  8055  12BE  0008               	return
  8056  12BF                     __end_of_PORT_Choose_Mux:
  8057                           
  8058                           	psect	text28
  8059  12E3                     __ptext28:	
  8060 ;; *************** function _isr *****************
  8061 ;; Defined at:
  8062 ;;		line 78 in file "timer.c"
  8063 ;; Parameters:    Size  Location     Type
  8064 ;;		None
  8065 ;; Auto vars:     Size  Location     Type
  8066 ;;		None
  8067 ;; Return value:  Size  Location     Type
  8068 ;;                  1    wreg      void 
  8069 ;; Registers used:
  8070 ;;		None
  8071 ;; Tracked objects:
  8072 ;;		On entry : 0/0
  8073 ;;		On exit  : 0/0
  8074 ;;		Unchanged: 0/0
  8075 ;; Data sizes:     COMMON   BANK0   BANK1   BANK3   BANK2
  8076 ;;      Params:         0       0       0       0       0
  8077 ;;      Locals:         0       0       0       0       0
  8078 ;;      Temps:          2       0       0       0       0
  8079 ;;      Totals:         2       0       0       0       0
  8080 ;;Total ram usage:        2 bytes
  8081 ;; Hardware stack levels used:    1
  8082 ;; This function calls:
  8083 ;;		Nothing
  8084 ;; This function is called by:
  8085 ;;		Interrupt level 1
  8086 ;; This function uses a non-reentrant model
  8087 ;;
  8088                           
  8089                           
  8090                           ;psect for function _isr
  8091  12E3                     _isr:
  8092  12E3                     i1l2718:
  8093                           
  8094                           ;timer.c: 85: if (TMR1IF)
  8095  12E3  1283               	bcf	3,5	;RP0=0, select bank0
  8096  12E4  1303               	bcf	3,6	;RP1=0, select bank0
  8097  12E5  1C0C               	btfss	12,0	;volatile
  8098  12E6  2AE8               	goto	u405_21
  8099  12E7  2AE9               	goto	u405_20
  8100  12E8                     u405_21:
  8101  12E8  2AF0               	goto	i1l220
  8102  12E9                     u405_20:
  8103  12E9                     i1l2720:
  8104                           
  8105                           ;timer.c: 86:      {;timer.c: 88:      Fincompt1 = 1;
  8106  12E9  1683               	bsf	3,5	;RP0=1, select bank1
  8107  12EA  1303               	bcf	3,6	;RP1=0, select bank1
  8108  12EB  01DC               	clrf	_Fincompt1^(0+128)
  8109  12EC  0ADC               	incf	_Fincompt1^(0+128),f
  8110                           
  8111                           ;timer.c: 91:      TMR1IF=0;
  8112  12ED  1283               	bcf	3,5	;RP0=0, select bank0
  8113  12EE  1303               	bcf	3,6	;RP1=0, select bank0
  8114  12EF  100C               	bcf	12,0	;volatile
  8115  12F0                     i1l220:	
  8116                           ;timer.c: 92:      }
  8117                           
  8118                           
  8119                           ;timer.c: 94: if (TMRAIF)
  8120  12F0  1E0D               	btfss	13,4	;volatile
  8121  12F1  2AF3               	goto	u406_21
  8122  12F2  2AF4               	goto	u406_20
  8123  12F3                     u406_21:
  8124  12F3  2AF5               	goto	i1l222
  8125  12F4                     u406_20:
  8126  12F4                     i1l2722:
  8127                           
  8128                           ;timer.c: 95:      {;timer.c: 100:      TMRAIF=0;
  8129  12F4  120D               	bcf	13,4	;volatile
  8130  12F5                     i1l222:
  8131  12F5  0871               	movf	??_isr+1,w
  8132  12F6  008A               	movwf	10
  8133  12F7  0E70               	swapf	??_isr^(0+4294967168),w
  8134  12F8  0083               	movwf	3
  8135  12F9  0EFE               	swapf	btemp,f
  8136  12FA  0E7E               	swapf	btemp,w
  8137  12FB  0009               	retfie
  8138  12FC                     __end_of_isr:
  8139  007E                     btemp	set	126	;btemp
  8140  007E                     wtemp0	set	126
  8141                           
  8142                           	psect	intentry
  8143  0004                     __pintentry:	
  8144                           ;incstack = 0
  8145                           ; Regs used in _isr: []
  8146                           
  8147  0004                     interrupt_function:
  8148  007E                     saved_w	set	btemp
  8149  0004  00FE               	movwf	btemp
  8150  0005  0E03               	swapf	3,w
  8151  0006  00F0               	movwf	??_isr
  8152  0007  080A               	movf	10,w
  8153  0008  00F1               	movwf	??_isr+1
  8154  0009  160A  118A  2AE3   	ljmp	_isr
  8155                           
  8156                           	psect	config
  8157                           
  8158                           ;Config register CONFIG @ 0x2007
  8159                           ;	Oscillator Selection bits
  8160                           ;	FOSC = INTOSC, INTOSC oscillator: CLKOUT function on RA6/OSC2/CLKOUT pin, I/O function
      +                            on RA7/OSC1/CLKIN
  8161                           ;	Watchdog Timer Enable bit
  8162                           ;	WDTE = OFF, WDT disabled and can be enabled by SWDTEN bit of the WDTCON register
  8163                           ;	Power-up Timer Enable bit
  8164                           ;	PWRTE = OFF, PWRT disabled
  8165                           ;	RE3/MCLR Pin Function Select bit
  8166                           ;	MCLRE = ON, RE3/MCLR pin function is MCLR
  8167                           ;	Code Protection bit
  8168                           ;	CP = OFF, Program memory code protection is disabled
  8169                           ;	Brown-out Reset Selection bits
  8170                           ;	BOREN = ON, BOR enabled
  8171                           ;	Brown-out Reset Voltage Selection bit
  8172                           ;	BORV = 19, Brown-out Reset Voltage (VBOR) set to 1.9 V nominal
  8173                           ;	INTOSC PLLEN Enable Bit
  8174                           ;	PLLEN = ON, INTOSC Frequency is 16 MHz (32x)
  8175  2007                     	org	8199
  8176  2007  3FF5               	dw	16373
  8177                           
  8178                           ;Config register CONFIG2 @ 0x2008
  8179                           ;	Voltage Regulator Capacitor Enable bits
  8180                           ;	VCAPEN = OFF, All VCAP pin functions are disabled
  8181  2008                     	org	8200
  8182  2008  FFFF               	dw	65535

Data Sizes:
    Strings     6
    Constant    160
    Data        0
    BSS         1
    Persistent  0
    Stack       0

Auto Spaces:
    Space          Size  Autos    Used
    COMMON           14     12      12
    BANK0            80     80      80
    BANK1            80     64      65
    BANK3            96      0       0
    BANK2            91      0       0

Pointer List with Targets:

    PORT_putString@chaine	PTR unsigned char  size(1) Largest target is 4
		 -> STR_2(CODE[2]), STR_1(CODE[4]), 


Critical Paths under _main in COMMON

    _Get_Newton->_Voltage_Value
    _puts_Newton->___fltol
    ___flsub->__Umul8_16
    ___fladd->__Umul8_16
    ___flmul->__Umul8_16
    ___fldiv->__Umul8_16
    _PORT_putString->_PORT_putchar
    _ADC_GetValue->_PORT_Choose_Mux

Critical Paths under _isr in COMMON

    None.

Critical Paths under _main in BANK0

    _puts_Newton->___flmul
    _conversion_newton->___flmul
    _Voltage_Value->___flmul
    _Resistance_Value->___flmul
    ___flsub->___fladd
    ___flmul->___fldiv
    ___fldiv->___flsub

Critical Paths under _isr in BANK0

    None.

Critical Paths under _main in BANK1

    _main->_Get_Newton
    _Get_Newton->_conversion_newton

Critical Paths under _isr in BANK1

    None.

Critical Paths under _main in BANK3

    None.

Critical Paths under _isr in BANK3

    None.

Critical Paths under _main in BANK2

    None.

Critical Paths under _isr in BANK2

    None.

Call Graph Tables:

 ---------------------------------------------------------------------------------
 (Depth) Function   	        Calls       Base Space   Used Autos Params    Refs
 ---------------------------------------------------------------------------------
 (0) _main                                                 4     4      0   35443
                                             60 BANK1      4     4      0
                         _Get_Newton
                     _PORT_Blink_LED
                          _PORT_Init
                   _PORT_Select_Mux0
                  _TIMER_init_timer1
 ---------------------------------------------------------------------------------
 (1) _TIMER_init_timer1                                    0     0      0       0
 ---------------------------------------------------------------------------------
 (1) _PORT_Select_Mux0                                     0     0      0       0
 ---------------------------------------------------------------------------------
 (1) _PORT_Init                                            1     1      0       0
                                              2 COMMON     1     1      0
                   _PORT_Init_Serial
 ---------------------------------------------------------------------------------
 (2) _PORT_Init_Serial                                     0     0      0       0
 ---------------------------------------------------------------------------------
 (1) _PORT_Blink_LED                                       0     0      0       0
 ---------------------------------------------------------------------------------
 (1) _Get_Newton                                          21    16      5   35442
                                             39 BANK1     21    16      5
                       _ADC_GetValue
                   _PORT_Change_Gain
                     _PORT_putString
                   _Resistance_Value
                      _Voltage_Value
                  _conversion_newton
                        _puts_Newton
 ---------------------------------------------------------------------------------
 (2) _puts_Newton                                         12     8      4    6671
                                              0 BANK1     12     8      4
                       _PORT_putchar
                            ___flmul
                            ___fltol
                            ___lwdiv
                            ___lwmod
 ---------------------------------------------------------------------------------
 (3) ___lwmod                                              5     1      4    1375
                                              2 COMMON     5     1      4
 ---------------------------------------------------------------------------------
 (3) ___lwdiv                                              7     3      4    1226
                                              2 COMMON     7     3      4
 ---------------------------------------------------------------------------------
 (3) ___fltol                                             10     6      4     381
                                              2 COMMON    10     6      4
 ---------------------------------------------------------------------------------
 (2) _conversion_newton                                   39    35      4   14282
                                              0 BANK1     39    35      4
                            ___fladd
                            ___fldiv
                             ___flge
                            ___flmul
                            ___flsub
 ---------------------------------------------------------------------------------
 (3) ___flge                                              12     4      8    3526
                                              2 COMMON     8     0      8
                                              0 BANK0      4     4      0
 ---------------------------------------------------------------------------------
 (2) _Voltage_Value                                        9     5      4    5250
                                             11 COMMON     1     1      0
                                              0 BANK1      8     4      4
                            ___fldiv
                            ___flmul
                           ___xxtofl
 ---------------------------------------------------------------------------------
 (2) _Resistance_Value                                    10     4      6    8388
                                              0 BANK1     10     4      6
                            ___fldiv
                            ___flmul
                            ___flsub
                           ___xxtofl
 ---------------------------------------------------------------------------------
 (3) ___xxtofl                                            14    10      4     474
                                              2 COMMON     8     4      4
                                              0 BANK0      6     6      0
 ---------------------------------------------------------------------------------
 (3) ___flsub                                              8     0      8    2941
                                             20 BANK0      8     0      8
                          __Umul8_16 (ARG)
                            ___fladd
 ---------------------------------------------------------------------------------
 (4) ___fladd                                             20    12      8    2288
                                              0 BANK0     20    12      8
                          __Umul8_16 (ARG)
 ---------------------------------------------------------------------------------
 (3) ___flmul                                             26    18      8    3177
                                             54 BANK0     26    18      8
                          __Umul8_16
                            ___fladd (ARG)
                            ___fldiv (ARG)
                            ___flsub (ARG)
                           ___xxtofl (ARG)
 ---------------------------------------------------------------------------------
 (4) __Umul8_16                                            9     7      2     799
                                              2 COMMON     9     7      2
 ---------------------------------------------------------------------------------
 (3) ___fldiv                                             26    18      8    1577
                                             28 BANK0     26    18      8
                          __Umul8_16 (ARG)
                            ___fladd (ARG)
                            ___flsub (ARG)
                           ___xxtofl (ARG)
 ---------------------------------------------------------------------------------
 (2) _PORT_putString                                       3     3      0     178
                                              3 COMMON     3     3      0
                       _PORT_putchar
 ---------------------------------------------------------------------------------
 (3) _PORT_putchar                                         1     1      0      22
                                              2 COMMON     1     1      0
 ---------------------------------------------------------------------------------
 (2) _PORT_Change_Gain                                     4     1      3     252
                                              2 COMMON     4     1      3
 ---------------------------------------------------------------------------------
 (2) _ADC_GetValue                                         1     1      0      66
                                              3 COMMON     1     1      0
                    _PORT_Choose_Mux
                 _PORT_Get_Value_Adc
                     _PORT_Start_ADC
 ---------------------------------------------------------------------------------
 (3) _PORT_Start_ADC                                       0     0      0       0
 ---------------------------------------------------------------------------------
 (3) _PORT_Get_Value_Adc                                   0     0      0       0
 ---------------------------------------------------------------------------------
 (3) _PORT_Choose_Mux                                      1     1      0      44
                                              2 COMMON     1     1      0
 ---------------------------------------------------------------------------------
 Estimated maximum stack depth 4
 ---------------------------------------------------------------------------------
 (Depth) Function   	        Calls       Base Space   Used Autos Params    Refs
 ---------------------------------------------------------------------------------
 (5) _isr                                                  2     2      0       0
                                              0 COMMON     2     2      0
 ---------------------------------------------------------------------------------
 Estimated maximum stack depth 5
 ---------------------------------------------------------------------------------

 Call Graph Graphs:

 _main (ROOT)
   _Get_Newton
     _ADC_GetValue
       _PORT_Choose_Mux
       _PORT_Get_Value_Adc
       _PORT_Start_ADC
     _PORT_Change_Gain
     _PORT_putString
       _PORT_putchar
     _Resistance_Value
       ___fldiv
         __Umul8_16 (ARG)
         ___fladd (ARG)
           __Umul8_16 (ARG)
         ___flsub (ARG)
           __Umul8_16 (ARG)
           ___fladd (ARG)
             __Umul8_16 (ARG)
         ___xxtofl (ARG)
       ___flmul
         __Umul8_16
         ___fladd (ARG)
           __Umul8_16 (ARG)
         ___fldiv (ARG)
           __Umul8_16 (ARG)
           ___fladd (ARG)
             __Umul8_16 (ARG)
           ___flsub (ARG)
             __Umul8_16 (ARG)
             ___fladd (ARG)
               __Umul8_16 (ARG)
           ___xxtofl (ARG)
         ___flsub (ARG)
           __Umul8_16 (ARG)
           ___fladd (ARG)
             __Umul8_16 (ARG)
         ___xxtofl (ARG)
       ___flsub
         __Umul8_16 (ARG)
         ___fladd (ARG)
           __Umul8_16 (ARG)
       ___xxtofl
     _Voltage_Value
       ___fldiv
         __Umul8_16 (ARG)
         ___fladd (ARG)
           __Umul8_16 (ARG)
         ___flsub (ARG)
           __Umul8_16 (ARG)
           ___fladd (ARG)
             __Umul8_16 (ARG)
         ___xxtofl (ARG)
       ___flmul
         __Umul8_16
         ___fladd (ARG)
           __Umul8_16 (ARG)
         ___fldiv (ARG)
           __Umul8_16 (ARG)
           ___fladd (ARG)
             __Umul8_16 (ARG)
           ___flsub (ARG)
             __Umul8_16 (ARG)
             ___fladd (ARG)
               __Umul8_16 (ARG)
           ___xxtofl (ARG)
         ___flsub (ARG)
           __Umul8_16 (ARG)
           ___fladd (ARG)
             __Umul8_16 (ARG)
         ___xxtofl (ARG)
       ___xxtofl
     _conversion_newton
       ___fladd
         __Umul8_16 (ARG)
       ___fldiv
         __Umul8_16 (ARG)
         ___fladd (ARG)
           __Umul8_16 (ARG)
         ___flsub (ARG)
           __Umul8_16 (ARG)
           ___fladd (ARG)
             __Umul8_16 (ARG)
         ___xxtofl (ARG)
       ___flge
       ___flmul
         __Umul8_16
         ___fladd (ARG)
           __Umul8_16 (ARG)
         ___fldiv (ARG)
           __Umul8_16 (ARG)
           ___fladd (ARG)
             __Umul8_16 (ARG)
           ___flsub (ARG)
             __Umul8_16 (ARG)
             ___fladd (ARG)
               __Umul8_16 (ARG)
           ___xxtofl (ARG)
         ___flsub (ARG)
           __Umul8_16 (ARG)
           ___fladd (ARG)
             __Umul8_16 (ARG)
         ___xxtofl (ARG)
       ___flsub
         __Umul8_16 (ARG)
         ___fladd (ARG)
           __Umul8_16 (ARG)
     _puts_Newton
       _PORT_putchar
       ___flmul
         __Umul8_16
         ___fladd (ARG)
           __Umul8_16 (ARG)
         ___fldiv (ARG)
           __Umul8_16 (ARG)
           ___fladd (ARG)
             __Umul8_16 (ARG)
           ___flsub (ARG)
             __Umul8_16 (ARG)
             ___fladd (ARG)
               __Umul8_16 (ARG)
           ___xxtofl (ARG)
         ___flsub (ARG)
           __Umul8_16 (ARG)
           ___fladd (ARG)
             __Umul8_16 (ARG)
         ___xxtofl (ARG)
       ___fltol
       ___lwdiv
       ___lwmod
   _PORT_Blink_LED
   _PORT_Init
     _PORT_Init_Serial
   _PORT_Select_Mux0
   _TIMER_init_timer1

 _isr (ROOT)

 Address spaces:
Name               Size   Autos  Total    Cost      Usage
BITCOMMON            E      0       0       0        0.0%
NULL                 0      0       0       0        0.0%
CODE                 0      0       0       0        0.0%
COMMON               E      C       C       1       85.7%
BITSFR0              0      0       0       1        0.0%
SFR0                 0      0       0       1        0.0%
BITSFR1              0      0       0       2        0.0%
SFR1                 0      0       0       2        0.0%
STACK                0      0       0       2        0.0%
ABS                  0      0      9D       3        0.0%
BITBANK0            50      0       0       4        0.0%
BITSFR3              0      0       0       4        0.0%
SFR3                 0      0       0       4        0.0%
BANK0               50     50      50       5      100.0%
BITSFR2              0      0       0       5        0.0%
SFR2                 0      0       0       5        0.0%
DATA                 0      0      9D       6        0.0%
BITBANK1            50      0       0       7        0.0%
BANK1               50     40      41       8       81.2%
BITBANK3            60      0       0       9        0.0%
BANK3               60      0       0      10        0.0%
BITBANK2            5B      0       0      11        0.0%
BANK2               5B      0       0      12        0.0%


Microchip Technology PIC Macro Assembler V2.20 build 20200408173844 
Symbol Table                                                                                   Thu Jun 08 17:33:12 2023

                  ___fldiv@aexp 0055                    ___fldiv@bexp 0054                               pc 0002  
                  ___fldiv@sign 004D                              l40 17FF                              l43 14AC  
                            l46 16FB                              l74 070C                              l75 0716  
                            l67 0484                              l78 15AA                              l87 12D0  
                            fsr 0004             __Umul8_16@word_mpld 0078                ??_PORT_Blink_LED 0072  
                           l151 12BE                             l215 12E2                             l160 1280  
                           l400 15C9                             l144 13CF                             l154 1284  
                           l138 1396                             l163 1292                             l403 1635  
                           l147 12AC                             l172 1344                             l404 164E  
                           l412 1526                             l157 1288                             l182 1409  
                           l166 129C                             l422 1526                             l175 1290  
                           l523 0B21                             l419 1511                             l540 0BEC  
                           l532 0C9E                             l508 0839                             l621 0F6B  
                           l525 0AF8                             l550 0C32                             l615 0FFF  
                           l519 0A7A                             l544 0C10                             l561 0C92  
                           l634 1359                             l562 0C9E                             l627 0FF3  
                           l636 136B                             l565 131F                             l661 07D2  
                           l591 0988                             l575 0896                             l672 079C  
                           l577 0A16                             l673 07A8                             l498 144D  
                           l659 073B                             l599 0A0A       __end_of_TIMER_init_timer1 12E3  
                           _isr 12E3                             fsr0 0004               ?_PORT_Change_Gain 0072  
                  ___flmul@aexp 0068                    ___flmul@bexp 0069                    ___flmul@sign 0063  
                  ___flmul@temp 006E                    ___flmul@prod 006A                     _puts_Newton 16FC  
            ??_PORT_Change_Gain 0075        __end_of_PORT_Select_Mux0 1291                    ___fltol@exp1 007B  
                          l2000 14DF                            l2010 14ED                            l2002 14E1  
                          l2100 0869                            l2020 1506                            l2012 14F6  
                          l2004 14E5                            l2110 087E                            l2102 086E  
                          l2022 1516                            l2014 14FF                            l2030 1412  
                          l2200 09C3                            l2120 089E                            l2112 0883  
                          l2104 0874                            l2024 151B                            l2040 1435  
                          l2032 1415                            l2210 09F9                            l2202 09D0  
                          l2130 08BC                            l2122 08AA                            l2114 088B  
                          l2106 0878                            l2042 143B                            l2034 141C  
                          l2026 140A                            l2212 09FA                            l2204 09DE  
                          l2140 08E7                            l2124 08AE                            l2116 088C  
                          l2108 0879                            l2300 0E9C                            l2044 143C  
                          l2036 1420                            l2028 140C                            l2060 0814  
                          l2052 0800                            l2214 0A00                            l2206 09ED  
                          l2150 090C                            l2142 08EF                            l2134 08C5  
                          l2118 088E                            l2310 0F2E                            l2302 0EC9  
                          l2230 0CB0                            l2046 1443                            l2038 1424  
                          l2062 0818                            l2054 0806                            l2070 0835  
                          l2216 0A04                            l2208 09F1                            l2160 0937  
                          l2152 090D                            l2144 08F1                            l2136 08D7  
                          l2128 08B7                            l2080 083A                            l2312 0F37  
                          l2320 0F4B                            l2304 0EEF                            l2240 0CC5  
                          l2232 0CB1                            l2224 0C9F                            l2400 07A0  
                          l2048 1449                            l2064 0822                            l2056 0809  
                          l2218 0A06                            l2170 0954                            l2146 08F6  
                          l2154 0916                            l2162 093B                            l2138 08DF  
                          l2090 0851                            l2082 0841                            l2322 0F4F  
                          l2314 0F3B                            l2306 0F17                            l2250 0CDD  
                          l2242 0CCD                            l2234 0CB6                            l2226 0CA6  
                          l2074 12FC                            l2410 07CA                            l2402 07AA  
                          l2066 0828                            l2058 0810                            l2180 096C  
                          l2172 0958                            l2164 0941                            l2156 0928  
                          l2148 0908                            l2092 0856                            l2084 0847  
                          l2340 0FA0                            l2332 0F70                            l2324 0F50  
                          l2316 0F3C                            l2308 0F20                            l2260 0CF9  
                          l2252 0CE2                            l2244 0CD2                            l2236 0CBB  
                          l2228 0CAC                            l2076 1300                            l2404 07C0  
                          l2500 0441                            l2068 082F                            l2420 1790  
                          l2190 098D                            l2182 096D                            l2174 0959  
                          l2166 0949                            l2158 0929                            l2094 085E  
                          l2086 084B                            l2350 0FD7                            l2334 0F75  
                          l2342 0FA6                            l2326 0F54                            l2318 0F45  
                          l2270 0D1C                            l2262 0CFE                            l2254 0CE7  
                          l2246 0CD8                            l2238 0CC3                            l2406 07C5  
                          l2510 0690                            l2502 0448                            l2430 17D9  
                          l2422 17A4                            l2414 16FC                            l2520 13D1  
                          l2192 0992                            l2184 0971                            l2176 0962  
                          l2168 094B                            l2096 085F                            l2088 084C  
                          l2360 0FEC                            l2352 0FD9                            l2344 0FB3  
                          l2336 0F83                            l2328 0F68                            l2280 0DAA  
                          l2272 0D29                            l2264 0D03                            l2256 0CEF  
                          l2248 0CDC                            l1800 0AA4                            l2408 07C9  
                          l2440 164F                            l2512 06C3                            l2504 047D  
                          l2432 17F4                            l2424 17AA                            l2416 1775  
                          l2600 13B3                            l2522 13DD                            l2194 09A0  
                          l2186 0985                            l2178 0968                            l2098 0861  
                          l2362 0FF7                            l2354 0FDF                            l2346 0FBE  
                          l2338 0F87                            l2290 0E0C                            l2282 0DC6  
                          l2274 0D46                            l2258 0CF1                            l1810 0AB8  
                          l1802 0AA8                            l2370 0723                            l2514 06CD  
                          l2506 0484                            l2450 0084                            l2434 17F9  
                          l2426 17B0                            l2418 177B                            l2610 13C6  
                          l2602 13B5                            l2524 13E2                            l2532 13EC  
                          l2196 09A4                            l2356 0FE7                            l2348 0FCD  
                          l2292 0E29                            l2284 0DCF                            l2276 0D62  
                          l2268 0D0C                            l1900 0C24                            l1820 0ADC  
                          l1812 0ABC                            l1804 0AAC                            l1740 0A1E  
                          l2380 0751                            l2372 0733                            l2436 144F  
                          l2516 0702                            l2508 0621                            l2460 0131  
                          l2452 00B9                            l2444 0016                            l2428 17C5  
                          l2612 13C7                            l2604 13BA                            l2620 12D1  
                          l2550 12C0                            l2534 13F1                            l2542 13FB  
                          l2526 13E7                            l2198 09BD                            l2358 0FEB  
                          l2294 0E42                            l2286 0DDF                            l2278 0D8E  
                          l1910 0C37                            l1902 0C25                            l1830 0B07  
                          l1822 0AEB                            l1814 0AC0                            l1806 0AB0  
                          l1750 0A33                            l1742 0A24                            l2390 0777  
                          l2382 0755                            l2374 0743                            l2366 071A  
                          l2470 020C                            l2462 0166                            l2454 00C0  
                          l2446 004B                            l2614 13CA                            l2606 13BE  
                          l2630 12DB                            l2622 12D5                            l2552 12C6  
                          l2544 1400                            l2536 13F6                            l2560 1324  
                          l2296 0E5F                            l2288 0DFC                            l1912 0C3C  
                          l1920 0C70                            l1904 0C29                            l1840 0B25  
                          l1832 0B0B                            l1824 0AF3                            l1808 0AB4  
                          l1816 0AC4                            l1760 0A4B                            l1752 0A3B  
                          l1744 0A28                            l2392 0780                            l2384 075E  
                          l2368 071F                            l2480 02B9                            l2472 0213  
                          l2464 019B                            l2456 00F5                            l2448 004F  
                          l2616 13CC                            l2608 13C2                            l2640 1289  
                          l2632 12DC                            l2624 12D8                            l2554 12CB  
                          l2546 1405                            l2562 1331                            l2298 0E8C  
                          l1930 0C88                            l1922 0C75                            l1914 0C4A  
                          l1906 0C2F                            l1850 0B4E                            l1842 0B2A  
                          l1834 0B0C                            l1826 0AFC                            l1818 0AC5  
                          l1770 0A5D                            l1762 0A51                            l1754 0A3C  
                          l1746 0A29                            l1738 0A17                            l2394 0787  
                          l2386 0765                            l2378 074C                            l2490 0366  
                          l2482 02EE                            l2474 0248                            l2466 01A2  
                          l2458 012A                            l2650 1587                            l2570 1375  
                          l2618 13CD                            l2642 128C                            l2634 12DD  
                          l2626 12D9                            l2564 1337                            l1940 1346  
                          l1932 0C8C                            l1924 0C7A                            l1916 0C4E  
                          l1860 0B62                            l1852 0B52                            l1836 0B15  
                          l1828 0B05                            l1772 0A62                            l1780 0A72  
                          l1764 0A52                            l1748 0A2E                            l1756 0A3E  
                          l2396 0792                            l2388 0769                            l2492 039B  
                          l2484 02F5                            l2476 027D                            l2468 01D7  
                          l2652 1594                            l2644 129D                            l2580 1386  
                          l2572 1378                            l2636 12DE                            l2628 12DA  
                          l2660 07D3                            l2558 1321                            l1950 1367  
                          l1942 1348                            l1934 0C8E                            l1926 0C82  
                          l1918 0C6C                            l1870 0BC8                            l1862 0B6B  
                          l1854 0B5B                            l1846 0B33                            l1838 0B19  
                          l1790 0A90                            l1782 0A80                            l1774 0A67  
                          l1766 0A58                            l1758 0A46                            l2398 0796  
                          l2494 03D0                            l2486 032A                            l2478 0284  
                          l2654 159A                            l2646 152A                            l2582 1389  
                          l2574 137B                            l2566 136C                            l2590 139D  
                          l2638 12E1                            l2670 07EF                            l2662 07DD  
                          l1960 12B4                            l1944 134F                            l1936 0C99  
                          l1928 0C87                            l1880 0BF9                            l1872 0BCA  
                          l1856 0B5D                            l1848 0B4A                            l1864 0B70  
                          l1792 0A94                            l1784 0A84                            l1776 0A6F  
                          l1768 0A5C                            l2496 03D7                            l2488 035F  
                          l2656 15A0                            l2648 1570                            l2584 138E  
                          l2576 1380                            l2568 1372                            l2592 13A1  
                          l2664 07E2                            l1962 1281                            l1954 1292  
                          l1946 1353                            l1938 0C9D                            l1890 0C14  
                          l1874 0BCF                            l1866 0B86                            l1858 0B61  
                          l1794 0A98                            l1786 0A88                            l1778 0A70  
                          l1970 15C1                            l2498 040C                            l2586 1391  
                          l2578 1383                            l2594 13A3                            l2666 07E9  
                          l1964 127D                            l1956 1298                            l1948 1362  
                          l1892 0C17                            l1884 0C02                            l1868 0BC4  
                          l1876 0BDE                            l1796 0A9C                            l1788 0A8C  
                          l1980 1611                            l1972 15DD                            l2596 13AC  
                          l2588 1397                            l2668 07EA                            l1958 12AE  
                          l1894 0C19                            l1886 0C0B                            l1878 0BF4  
                          l1798 0AA0                            l1982 164B                            l1974 15E5  
                          l1990 14B8                            l2598 13AF                            l1896 0C1E  
                          l1888 0C0F                            l1984 164D                            l1976 15E9  
                          l1968 15AB                            l1898 0C20                            l1978 160D  
                          l1994 14C1                            l1996 14D6                            l1988 14AD  
                          l1998 14D7                            ?_isr 0070                            STR_1 10A6  
                          STR_2 10AA                            u2100 0A67                            u2101 0A66  
                          u2110 0A80                            u2111 0A7F                            u3000 0941  
                          u2200 0B25                            u2120 0A84                            u2040 0A28  
                          u3001 0940                            u2201 0B24                            u2121 0A83  
                          u2041 0A27                            u3010 0949                            u2210 0B2A  
                          u2130 0ADC                            u2050 0A2E                            u3011 0948  
                          u2211 0B29                            u2131 0ADB                            u2051 0A2D  
                          u3100 09A4                            u2300 0BCF                            u2140 0AE7  
                          u2060 0A33                            u3101 09A3                            u2301 0BCE  
                          u2221 0B3C                            u2141 0AE5                            u2061 0A32  
                          u3110 09B3                            u3030 0958                            u2310 0BF4  
                          u2230 0B4E                            u2222 0B43                            u2150 0AE8  
                          u2070 0A51                            u3031 0957                            u2311 0BF3  
                          u2231 0B4D                            u2223 0B4A                            u2135 0AD8  
                          u2071 0A50                            u4000 1344                            u3120 09D0  
                          u3200 0CE7                            u2400 0C36                            u2320 0BF9  
                          u2240 0B52                            u2160 0AFC                            u2080 0A5C  
                          u4001 1343                            u3121 09CF                            u3025 094D  
                          u3201 0CE6                            u2401 0C35                            u2321 0BF8  
                          u2241 0B51                            u2161 0AFB                            u2081 0A5B  
                          u3130 09ED                            u3050 096C                            u3210 0CFE  
                          u2410 0C3C                            u2250 0B61                            u2170 0B0B  
                          u2090 0A62                            u4010 13AC                            u3131 09EC  
                          u3115 09AE                            u3051 096B                            u3211 0CFD  
                          u2411 0C3B                            u2251 0B60                            u2171 0B0A  
                          u2091 0A61                            u4011 13AB                            u3140 0A04  
                          u3060 0971                            u2500 1353                            u3220 0D03  
                          u2420 0C4E                            u2340 0C0F                            u4020 12A9  
                          u3141 0A03                            u3125 09CC                            u3061 0970  
                          u3045 095B                            u2501 1352                            u3221 0D02  
                          u2421 0C4D                            u2341 0C0E                            u4021 12A5  
                          u3070 0985                            u3150 0CB0                            u2430 0C5D  
                          u2350 0C14                            u2270 0B86                            u2190 0B21  
                          u3135 09E9                            u3071 0984                            u3311 0E51  
                          u3231 0D54                            u3151 0CAF                            u2351 0C13  
                          u2335 0C04                            u2271 0B85                            u2191 0B20  
                          u3080 098C                            u2520 1367                            u3400 0F3B  
                          u3312 0E58                            u3232 0D5B                            u3160 0CB6  
                          u2440 0C6C                            u2360 0C1E                            u2600 1611  
                          u4040 07E9                            u3081 098B                            u2521 1366  
                          u3401 0F3A                            u3321 0E7E                            u3313 0E5F  
                          u3305 0E2B                            u3241 0D70                            u3233 0D62  
                          u3161 0CB5                            u2441 0C6B                            u2361 0C1D  
                          u2281 0B9D                            u2273 0B82                            u2265 0B64  
                          u2185 0B0E                            u2601 1610                            u4041 07E8  
                          u2530 1298                            u3090 0992                            u3322 0E85  
                          u3242 0D77                            u3170 0CBB                            u2450 0C75  
                          u2370 0C24                            u2290 0BB1                            u2282 0B9E  
                          u4034 12AC                            u2531 1297                            u3091 0991  
                          u2515 135A                            u3331 0EAB                            u3323 0E8C  
                          u3251 0D9C                            u3243 0D7E                            u3171 0CBA  
                          u2451 0C74                            u2435 0C58                            u2371 0C23  
                          u2291 0BB2                            u2283 0BA3                            u2611 1620  
                          u2540 12B4                            u3500 0FCD                            u3420 0F4F  
                          u3340 0ED5                            u3332 0EB2                            u3252 0DA3  
                          u3180 0CDC                            u2460 0C7A                            u2380 0C29  
                          u2292 0BB7                            u2284 0BA4                            u2620 164B  
                          u2612 1621                            u2541 12B3                            u3501 0FCC  
                          u3421 0F4E                            u3333 0EB9                            u3261 0DB8  
                          u3253 0DAA                            u3181 0CDB                            u2461 0C79  
                          u2381 0C28                            u2293 0BB8                            u2285 0BA9  
                          u2621 164A                            u2613 1626                            u2550 1288  
                          u3510 0FEB                            u3430 0F54                            u3262 0DBF  
                          u3190 0CE2                            u2470 0C87                            u2390 0C2F  
                          u2286 0BAA                            u2614 1627                            u2710 1516  
                          u2630 14B8                            u2551 1287                            u3511 0FEA  
                          u3431 0F53                            u3415 0F3E                            u3351 0EE1  
                          u3263 0DC6                            u3191 0CE1                            u2471 0C86  
                          u2391 0C2E                            u2615 162C                            u2711 1515  
                          u2631 14B7                            u3440 0F68                            u3360 0EFD  
                          u3352 0EE8                            u2480 0C8C                            u3600 0796  
                          u3520 071F                            u2616 162D                            u2560 15C1  
                          u2720 151B                            u2640 14CF                            u2800 0806  
                          u3505 0FC9                            u3441 0F67                            u3353 0EEF  
                          u3345 0ED0                            u3281 0DEE                            u2481 0C8B  
                          u3601 0795                            u3521 071E                            u2625 1647  
                          u2561 15C0                            u2721 151A                            u2705 1508  
                          u2801 0805                            u3450 0F6F                            u3282 0DF5  
                          u2490 0C9D                            u3610 079C                            u3530 0723  
                          u2570 15DD                            u2650 14E5                            u2730 1412  
                          u3451 0F6E                            u3371 0F09                            u3291 0E1B  
                          u3283 0DFC                            u3275 0DC8                            u2491 0C9C  
                          u3611 079B                            u3531 0722                            u2571 15DC  
                          u2651 14E4                            u2731 1411                            u2900 087E  
                          u3460 0F75                            u3372 0F10                            u3292 0E22  
                          u3620 07A0                            u3540 0743                            u2580 15E9  
                          u3700 012A                            u2660 14EC                            u2820 0818  
                          u2901 087D                            u3461 0F74                            u3373 0F17  
                          u3365 0EF8                            u3293 0E29                            u3621 079F  
                          u3541 0742                            u2581 15E8                            u3701 0129  
                          u2661 14EB                            u2645 14CA                            u2821 0817  
                          u2910 0883                            u3470 0F87                            u3630 07B5  
                          u3710 0166                            u2750 1424                            u2830 0822  
                          u2911 0882                            u3471 0F86                            u2591 15F8  
                          u3711 0165                            u2751 1423                            u2831 0821  
                          u2815 080A                            u2920 089E                            u3480 0F96  
                          u3640 07C5                            u3560 0764                            u2592 15F9  
                          u3800 035F                            u3720 019B                            u2680 14FE  
                          u2921 089D                            u3385 0F19                            u3641 07C4  
                          u3561 0763                            u2593 15FE                            u3801 035E  
                          u3721 019A                            u2681 14FD                            u2745 1416  
                          u2930 08BC                            u3490 0FB3                            u3650 07C9  
                          u2594 15FF                            u3810 039B                            u3730 01D7  
                          u2690 1505                            u2770 1435                            u2850 0835  
                          u2931 08BB                            u3491 0FB2                            u3395 0F30  
                          u3651 07C8                            u3635 07B0                            u3555 0756  
                          u2595 1604                            u3811 039A                            u3731 01D6  
                          u2691 1504                            u2675 14EE                            u2771 1434  
                          u2851 0834                            u2835 081E                            u2940 08F6  
                          u2860 084B                            u3580 0786                            u2596 1605  
                          u3820 03D0                            u3740 020C                            u3660 004B  
                          u2941 08F5                            u2861 084A                            u3485 0F91  
                          u3581 0785                            u3821 03CF                            u3741 020B  
                          u3661 004A                            u2765 1425                            u2845 0829  
                          u2870 0851                            u3830 040C                            u3750 0248  
                          u3670 0084                            u2790 1449                            u2871 0850  
                          u3495 0FAF                            u3575 0778                            u3831 040B  
                          u3751 0247                            u3671 0083                            u2791 1448  
                          u2775 1431                            u2880 0856                            u3920 06C3  
                          u3840 0441                            u3760 027D                            u3680 00B9  
                          u2881 0855                            u3921 06C2                            u3905 05AF  
                          u3841 0440                            u3761 027C                            u3681 00B8  
                          u2785 143D                            u2970 090C                            u2890 0878  
                          u3930 0702                            u3850 047D                            u3770 02B9  
                          u3690 00F5                            u2971 090B                            u2955 08F8  
                          u2891 0877                            u3595 078B                            u3931 0701  
                          u3915 0624                            u3851 047C                            u3771 02B8  
                          u3691 00F4                            u3940 13E2                            u3780 02EE  
                          u3941 13E1                            u2965 0901                            u3781 02ED  
                          u3950 13E7                            u2990 0928                            u3790 032A  
                          u3951 13E6                            u2991 0927                            u3791 0329  
                          u3960 13F1                            u3961 13F0                            u2985 090F  
                          u3865 0489                            u3970 13F6                            u3971 13F5  
                          u2995 0924                            u3875 04EC                            u3980 1400  
                          u3981 13FF                            u3885 0528                            u3990 1405  
                          u3991 1404                            u3895 0573                            _TMRA 0110  
                          _WPUB 0095                            _main 07D3                            btemp 007E  
             ??_PORT_Choose_Mux 0072                            start 000C                 ___fldiv@new_exp 004E  
             Resistance_Value@R 00A4           __size_of_ADC_GetValue 0012                           ??_isr 0070  
                    _Get_Newton 1527           _conversion_newton$791 00BD                   ___fltol@sign1 007A  
               __end_of___fladd 0C9F                           ?_main 0070                 __end_of___fldiv 0A17  
                         _ADRES 001E                 __end_of___flmul 1000                 __end_of___flsub 1320  
               __end_of___fltol 1527                 __end_of___lwdiv 144E                           i1l220 12F0  
                         i1l222 12F5                 __end_of___lwmod 083A                   _Voltage_Value 144E  
                         _RCSTA 0018                           _SPBRG 0099                           _PORTD 0008  
                         _TRISA 0085                           _TRISB 0086                           _TRISC 0087  
                         _TRISD 0088                           _TXREG 0019                           _TXSTA 0098  
              ??_PORT_Start_ADC 0072              __size_of_PORT_Init 0039                           pclath 000A  
                         status 0003                           wtemp0 007E                    _ADC_GetValue 12BF  
            Resistance_Value@fR 00A6      __end_of_PORT_Get_Value_Adc 1281                 __initialization 000F  
                 PORT_putchar@c 0072                    __end_of_main 07FE                          ??_main 007C  
                ?_Voltage_Value 00A0      __size_of_TIMER_init_timer1 0012        __end_of_Resistance_Value 16FC  
                        _ADCON0 001F                          _ADCON1 009F                          _ANSELA 0185  
                        _ANSELB 0186                          _ANSELD 0188                          i1l2720 12E9  
                        i1l2722 12F4                          i1l2718 12E3                          _T1SYNC 0082  
                        _FVRCON 009D                          u405_20 12E9                          u405_21 12E8  
                        u406_20 12F4                          u406_21 12F3                          _OSCCON 0090  
                        _TMR1GE 047F                          _TMR1IE 0460                          _TMR1IF 0060  
                        _TMR1ON 0080                          _TMRAIF 006C                          _TMRCS0 0086  
                        _TMRCS1 0087                __end_of___xxtofl 07D3                          ___flge 15AB  
                     ??___fladd 0028                       ??___fldiv 0044                       ??___flmul 005E  
                     ??___flsub 007B                       ??___fltol 0076                       ??___lwdiv 0076  
                     ??___lwmod 0076               __end_of_PORT_Init 13D0                     ?_Get_Newton 00C7  
             ?_PORT_Init_Serial 0070              ??_PORT_Init_Serial 0072              __size_of__Umul8_16 0027  
                        saved_w 007E                ??_PORT_putString 0073                      ___flge@ff1 0072  
                    ___flge@ff2 0076                    ___xxtofl@arg 0022                    ___xxtofl@exp 0021  
                  ___xxtofl@val 0072         __end_of__initialization 0012                      ___fltol@f1 0072  
                __pcstackCOMMON 0070                 ??_Voltage_Value 00A4                    ?_puts_Newton 00A0  
               _PORT_Choose_Mux 12AD               ?_PORT_Select_Mux0 0070                      __pbssBANK1 00DC  
            ??_PORT_Select_Mux0 0072             __size_of_Get_Newton 0084       __size_of_PORT_Change_Gain 003A  
             __end_of__Umul8_16 136C                      __pmaintext 07D3                         ?___flge 0072  
           ADC_GetValue@channel 0073                      __pintentry 0004                         _DACCON0 0113  
                       _DACCON1 0114                         _T1CKPS0 0084                         _T1CKPS1 0085  
                       _T1OSCEN 0083                       ?___xxtofl 0072                      __stringtab 1000  
               __size_of___flge 00A4                         ___fladd 0A17                         ___fldiv 083A  
                       ___flmul 0C9F                         ___flsub 12FC                         ___fltol 14AD  
                       ___lwdiv 140A                         ___lwmod 0800              conversion_newton@F 00C1  
            conversion_newton@n 00C5         __end_of_PORT_Choose_Mux 12BF                         __ptext1 12D1  
                       __ptext2 1289                         __ptext3 1397                         __ptext4 136C  
                       __ptext5 129D                         __ptext6 1527                         __ptext7 16FC  
                       __ptext8 0800                         __ptext9 140A              _PORT_Get_Value_Adc 127D  
                  __size_of_isr 0019                      ??___xxtofl 0076               ?_Resistance_Value 00A0  
           ?_PORT_Get_Value_Adc 0070               _conversion_newton 0016            end_of_initialization 0012  
       __size_of_PORT_Blink_LED 0010              ??_Resistance_Value 007B              ?_conversion_newton 00A0  
              Get_Newton@INTER0 00D6                Get_Newton@INTER1 00C7             ??_conversion_newton 00A4  
          ??_PORT_Get_Value_Adc 0072                    ??_Get_Newton 007C                       _PORTBbits 0006  
                     _PORTCbits 0007                       _PORT_Init 1397                     ___fladd@grs 0033  
                 ___xxtofl@sign 0020                   ?_PORT_putchar 0070       __end_of_conversion_newton 0717  
                   ___fldiv@grs 0050                     ___fldiv@rem 0049            __size_of_puts_Newton 0104  
     __size_of_PORT_Init_Serial 002B                     ___flmul@grs 0064              __end_of_Get_Newton 15AB  
              _PORT_Change_Gain 13D0         __size_of_PORT_Start_ADC 0008                 PORT_putString@i 0073  
                __end_of___flge 164F                       _Fincompt1 00DC                ?_PORT_Choose_Mux 0070  
                    ?_PORT_Init 0070                  ??_PORT_putchar 0072             start_initialization 000F  
                   __end_of_isr 12FC                        ??___flge 0020       __size_of_PORT_Select_Mux0 0008  
                     __Umul8_16 1345           __end_of_Voltage_Value 14AD                       ___fladd@a 0024  
                     ___fladd@b 0020                       ___fldiv@a 003C                       ___fldiv@b 0040  
                     ___flmul@a 005A                       ___flmul@b 0056                       ___flsub@a 0034  
                     ___flsub@b 0038                       ___latbits 0002                   __pcstackBANK0 0020  
                 __pcstackBANK1 00A0      __size_of_conversion_newton 0701          conversion_newton@F_tab 1056  
             __size_of___xxtofl 00BC          conversion_newton@R_tab 1006                  _PORT_Blink_LED 129D  
                 ?_ADC_GetValue 0070                ___lwdiv@dividend 0074         __size_of_PORT_putString 0025  
                      ?___fladd 0020                        ?___fldiv 003C                        ?___flmul 0056  
                      ?___flsub 0034                        ?___fltol 0072                      ?__Umul8_16 0072  
                      ?___lwdiv 0072                        ?___lwmod 0072          PORT_Change_Gain@INTER0 0075  
        PORT_Change_Gain@INTER1 0072                       __pstrings 1000                     ??_PORT_Init 0072  
            puts_Newton@affiche 00A4          __end_of_PORT_Blink_LED 12AD                ___lwdiv@quotient 0076  
        Get_Newton@sensor_value 00D7                _PORT_Init_Serial 136C                  ??_ADC_GetValue 0073  
             interrupt_function 0004                  _PORT_Start_ADC 1281            __end_of_PORT_putchar 129D  
         PORT_Choose_Mux@_value 0072                        _GO_nDONE 00F9       __size_of_Resistance_Value 00AD  
                   __stringbase 1005        __end_of_PORT_Change_Gain 140A                 ?_PORT_Blink_LED 0070  
                  Get_Newton@Rc 00D0                    Get_Newton@Vs 00CC          __end_of_PORT_Start_ADC 1289  
      Get_Newton@sensor_Channel 00C8                _PORT_Select_Mux0 1289                     ??__Umul8_16 0074  
   __size_of_PORT_Get_Value_Adc 0004                __size_of___fladd 0288                __size_of___fldiv 01DD  
              __size_of___flmul 0361                __size_of___flsub 0024                __size_of___fltol 007A  
              __size_of___lwdiv 0044                __size_of___lwmod 003A              __end_of__stringtab 1006  
                      ___xxtofl 0717             conversion_newton@Rc 00A0                   ??_puts_Newton 007C  
               ___lwdiv@divisor 0072                 ___lwdiv@counter 0078                        __ptext10 14AD  
                      __ptext11 0016                        __ptext20 083A                        __ptext12 15AB  
                      __ptext21 1320                        __ptext13 144E                        __ptext22 1291  
                      __ptext14 164F                        __ptext23 13D0                        __ptext15 0717  
                      __ptext24 12BF                        __ptext16 12FC                        __ptext25 1281  
                      __ptext17 0A17                        __ptext26 127D                        __ptext18 0C9F  
                      __ptext27 12AD                        __ptext19 1345                        __ptext28 12E3  
             puts_Newton@Valeur 00A0                 ?_PORT_Start_ADC 0070                   __size_of_main 002B  
                _PORT_putString 1320            __end_of_ADC_GetValue 12D1                     Get_Newton@F 00D8  
                   Get_Newton@R 00D4        __size_of_PORT_Choose_Mux 0012         puts_Newton@valueMetrics 00A6  
                      intlevel1 0000           __size_of_PORT_putchar 000C             __end_of_puts_Newton 1800  
              ___lwmod@dividend 0074          __end_of_PORT_putString 1345                       stringcode 1000  
              _Resistance_Value 164F        __end_of_PORT_Init_Serial 1397            PORT_putString@chaine 0075  
__end_ofconversion_newton@F_tab 10A6          __Umul8_16@multiplicand 0072  __end_ofconversion_newton@R_tab 1056  
           Voltage_Value@sensor 007B                 ___lwmod@divisor 0072                 ___lwmod@counter 0076  
                      stringdir 1000                        stringtab 1000                    _PORT_putchar 1291  
             _TIMER_init_timer1 12D1         Resistance_Value@Voltage 00A0                   ___fladd@signs 0030  
            ?_TIMER_init_timer1 0070                    ___fladd@aexp 0031                    ___fladd@bexp 0032  
               ?_PORT_putString 0070            __Umul8_16@multiplier 007A             ??_TIMER_init_timer1 0072  
        __size_of_Voltage_Value 005F               __Umul8_16@product 0076  
