

Microchip MPLAB XC8 Assembler V2.20 build 20200408173844 
                                                                                               Wed Jun 21 12:27:41 2023

Microchip MPLAB XC8 C Compiler v2.20 (Free license) build 20200408173844 Og1 
     1                           	processor	16F707
     2                           	pagewidth 120
     3                           	opt	flic
     4                           	psect	strings,global,class=STRING,delta=2,noexec
     5                           	psect	cinit,global,class=CODE,merge=1,delta=2
     6                           	psect	bssBANK3,global,class=BANK3,space=1,delta=1,noexec
     7                           	psect	cstackBANK1,global,class=BANK1,space=1,delta=1,noexec
     8                           	psect	cstackCOMMON,global,class=COMMON,space=1,delta=1,noexec
     9                           	psect	cstackBANK0,global,class=BANK0,space=1,delta=1,noexec
    10                           	psect	maintext,global,class=CODE,split=1,delta=2
    11                           	psect	text1,local,class=CODE,merge=1,delta=2
    12                           	psect	text2,local,class=CODE,merge=1,delta=2
    13                           	psect	text3,local,class=CODE,merge=1,delta=2
    14                           	psect	text4,local,class=CODE,merge=1,delta=2
    15                           	psect	text5,local,class=CODE,merge=1,delta=2
    16                           	psect	text6,local,class=CODE,merge=1,delta=2
    17                           	psect	text7,local,class=CODE,merge=1,delta=2,group=1
    18                           	psect	text8,local,class=CODE,merge=1,delta=2
    19                           	psect	text9,local,class=CODE,merge=1,delta=2
    20                           	psect	text10,local,class=CODE,merge=1,delta=2,group=1
    21                           	psect	text11,local,class=CODE,merge=1,delta=2,group=1
    22                           	psect	text12,local,class=CODE,merge=1,delta=2,group=1
    23                           	psect	text13,local,class=CODE,merge=1,delta=2,group=1
    24                           	psect	text14,local,class=CODE,merge=1,delta=2,group=1
    25                           	psect	text15,local,class=CODE,merge=1,delta=2
    26                           	psect	text16,local,class=CODE,merge=1,delta=2
    27                           	psect	text17,local,class=CODE,merge=1,delta=2,group=1
    28                           	psect	text18,local,class=CODE,merge=1,delta=2
    29                           	psect	text19,local,class=CODE,merge=1,delta=2,group=1
    30                           	psect	text20,local,class=CODE,merge=1,delta=2,group=1
    31                           	psect	text21,local,class=CODE,merge=1,delta=2,group=1
    32                           	psect	text22,local,class=CODE,merge=1,delta=2,group=1
    33                           	psect	text23,local,class=CODE,merge=1,delta=2,group=1
    34                           	psect	text24,local,class=CODE,merge=1,delta=2,group=1
    35                           	psect	text25,local,class=CODE,merge=1,delta=2
    36                           	psect	text26,local,class=CODE,merge=1,delta=2
    37                           	psect	text27,local,class=CODE,merge=1,delta=2
    38                           	psect	text28,local,class=CODE,merge=1,delta=2,group=1
    39                           	psect	text29,local,class=CODE,merge=1,delta=2,group=1
    40                           	psect	text30,local,class=CODE,merge=1,delta=2
    41                           	psect	text31,local,class=CODE,merge=1,delta=2
    42                           	psect	text32,local,class=CODE,merge=1,delta=2
    43                           	psect	text33,local,class=CODE,merge=1,delta=2
    44                           	psect	text34,local,class=CODE,merge=1,delta=2
    45                           	psect	text35,local,class=CODE,merge=1,delta=2
    46                           	psect	intentry,global,class=CODE,delta=2
    47                           	psect	config,global,abs,ovrld,class=CONFIG,space=4,delta=2,noexec
    48                           	psect	text15_split_1,local,class=CODE,merge=1,delta=2
    49                           	psect	text15_split_2,local,class=CODE,merge=1,delta=2
    50                           	psect	text15_split_3,local,class=CODE,merge=1,delta=2
    51                           	dabs	1,0x7E,2
    52  0000                     
    53                           ; Version 2.20
    54                           ; Generated 12/02/2020 GMT
    55                           ; 
    56                           ; Copyright © 2020, Microchip Technology Inc. and its subsidiaries ("Microchip")
    57                           ; All rights reserved.
    58                           ; 
    59                           ; This software is developed by Microchip Technology Inc. and its subsidiaries ("Microch
      +                          ip").
    60                           ; 
    61                           ; Redistribution and use in source and binary forms, with or without modification, are
    62                           ; permitted provided that the following conditions are met:
    63                           ; 
    64                           ;     1. Redistributions of source code must retain the above copyright notice, this lis
      +                          t of
    65                           ;        conditions and the following disclaimer.
    66                           ; 
    67                           ;     2. Redistributions in binary form must reproduce the above copyright notice, this 
      +                          list
    68                           ;        of conditions and the following disclaimer in the documentation and/or other
    69                           ;        materials provided with the distribution.
    70                           ; 
    71                           ;     3. Microchip's name may not be used to endorse or promote products derived from th
      +                          is
    72                           ;        software without specific prior written permission.
    73                           ; 
    74                           ; THIS SOFTWARE IS PROVIDED BY MICROCHIP "AS IS" AND ANY EXPRESS OR IMPLIED WARRANTIES,
    75                           ; INCLUDING, BUT NOT LIMITED TO, THE IMPLIED WARRANTIES OF MERCHANTABILITY AND FITNESS F
      +                          OR
    76                           ; PURPOSE ARE DISCLAIMED.  IN NO EVENT SHALL MICROCHIP BE LIABLE FOR ANY DIRECT, INDIREC
      +                          T,
    77                           ; INCIDENTAL, SPECIAL, EXEMPLARY, OR CONSEQUENTIAL DAMAGES (INCLUDING BUT NOT LIMITED TO
    78                           ; PROCUREMENT OF SUBSTITUTE GOODS OR SERVICES; LOSS OF USE, DATA OR PROFITS; OR BUSINESS
    79                           ; INTERRUPTION) HOWSOEVER CAUSED AND ON ANY THEORY OF LIABILITY, WHETHER IN CONTRACT, ST
      +                          RICT
    80                           ; LIABILITY, OR TORT (INCLUDING NEGLIGENCE OR OTHERWISE) ARISING IN ANY WAY OUT OF THE U
      +                          SE OF
    81                           ; THIS SOFTWARE, EVEN IF ADVISED OF THE POSSIBILITY OF SUCH DAMAGE.
    82                           ; 
    83                           ; 
    84                           ; Code-generator required, PIC16F707 Definitions
    85                           ; 
    86                           ; SFR Addresses
    87  0000                     	;# 
    88  0001                     	;# 
    89  0002                     	;# 
    90  0003                     	;# 
    91  0004                     	;# 
    92  0005                     	;# 
    93  0006                     	;# 
    94  0007                     	;# 
    95  0008                     	;# 
    96  0009                     	;# 
    97  000A                     	;# 
    98  000B                     	;# 
    99  000C                     	;# 
   100  000D                     	;# 
   101  000E                     	;# 
   102  000E                     	;# 
   103  000F                     	;# 
   104  0010                     	;# 
   105  0011                     	;# 
   106  0012                     	;# 
   107  0013                     	;# 
   108  0014                     	;# 
   109  0015                     	;# 
   110  0015                     	;# 
   111  0016                     	;# 
   112  0017                     	;# 
   113  0018                     	;# 
   114  0019                     	;# 
   115  001A                     	;# 
   116  001B                     	;# 
   117  001B                     	;# 
   118  001C                     	;# 
   119  001D                     	;# 
   120  001E                     	;# 
   121  001F                     	;# 
   122  0081                     	;# 
   123  0085                     	;# 
   124  0086                     	;# 
   125  0087                     	;# 
   126  0088                     	;# 
   127  0089                     	;# 
   128  008C                     	;# 
   129  008D                     	;# 
   130  008E                     	;# 
   131  008F                     	;# 
   132  0090                     	;# 
   133  0091                     	;# 
   134  0092                     	;# 
   135  0093                     	;# 
   136  0093                     	;# 
   137  0094                     	;# 
   138  0095                     	;# 
   139  0096                     	;# 
   140  0097                     	;# 
   141  0098                     	;# 
   142  0099                     	;# 
   143  009A                     	;# 
   144  009A                     	;# 
   145  009B                     	;# 
   146  009C                     	;# 
   147  009D                     	;# 
   148  009E                     	;# 
   149  009F                     	;# 
   150  0105                     	;# 
   151  0106                     	;# 
   152  0107                     	;# 
   153  0108                     	;# 
   154  0109                     	;# 
   155  010C                     	;# 
   156  010D                     	;# 
   157  010E                     	;# 
   158  010F                     	;# 
   159  0110                     	;# 
   160  0111                     	;# 
   161  0112                     	;# 
   162  0113                     	;# 
   163  0114                     	;# 
   164  0185                     	;# 
   165  0186                     	;# 
   166  0187                     	;# 
   167  0188                     	;# 
   168  0189                     	;# 
   169  018C                     	;# 
   170  0000                     	;# 
   171  0001                     	;# 
   172  0002                     	;# 
   173  0003                     	;# 
   174  0004                     	;# 
   175  0005                     	;# 
   176  0006                     	;# 
   177  0007                     	;# 
   178  0008                     	;# 
   179  0009                     	;# 
   180  000A                     	;# 
   181  000B                     	;# 
   182  000C                     	;# 
   183  000D                     	;# 
   184  000E                     	;# 
   185  000E                     	;# 
   186  000F                     	;# 
   187  0010                     	;# 
   188  0011                     	;# 
   189  0012                     	;# 
   190  0013                     	;# 
   191  0014                     	;# 
   192  0015                     	;# 
   193  0015                     	;# 
   194  0016                     	;# 
   195  0017                     	;# 
   196  0018                     	;# 
   197  0019                     	;# 
   198  001A                     	;# 
   199  001B                     	;# 
   200  001B                     	;# 
   201  001C                     	;# 
   202  001D                     	;# 
   203  001E                     	;# 
   204  001F                     	;# 
   205  0081                     	;# 
   206  0085                     	;# 
   207  0086                     	;# 
   208  0087                     	;# 
   209  0088                     	;# 
   210  0089                     	;# 
   211  008C                     	;# 
   212  008D                     	;# 
   213  008E                     	;# 
   214  008F                     	;# 
   215  0090                     	;# 
   216  0091                     	;# 
   217  0092                     	;# 
   218  0093                     	;# 
   219  0093                     	;# 
   220  0094                     	;# 
   221  0095                     	;# 
   222  0096                     	;# 
   223  0097                     	;# 
   224  0098                     	;# 
   225  0099                     	;# 
   226  009A                     	;# 
   227  009A                     	;# 
   228  009B                     	;# 
   229  009C                     	;# 
   230  009D                     	;# 
   231  009E                     	;# 
   232  009F                     	;# 
   233  0105                     	;# 
   234  0106                     	;# 
   235  0107                     	;# 
   236  0108                     	;# 
   237  0109                     	;# 
   238  010C                     	;# 
   239  010D                     	;# 
   240  010E                     	;# 
   241  010F                     	;# 
   242  0110                     	;# 
   243  0111                     	;# 
   244  0112                     	;# 
   245  0113                     	;# 
   246  0114                     	;# 
   247  0185                     	;# 
   248  0186                     	;# 
   249  0187                     	;# 
   250  0188                     	;# 
   251  0189                     	;# 
   252  018C                     	;# 
   253  0000                     	;# 
   254  0001                     	;# 
   255  0002                     	;# 
   256  0003                     	;# 
   257  0004                     	;# 
   258  0005                     	;# 
   259  0006                     	;# 
   260  0007                     	;# 
   261  0008                     	;# 
   262  0009                     	;# 
   263  000A                     	;# 
   264  000B                     	;# 
   265  000C                     	;# 
   266  000D                     	;# 
   267  000E                     	;# 
   268  000E                     	;# 
   269  000F                     	;# 
   270  0010                     	;# 
   271  0011                     	;# 
   272  0012                     	;# 
   273  0013                     	;# 
   274  0014                     	;# 
   275  0015                     	;# 
   276  0015                     	;# 
   277  0016                     	;# 
   278  0017                     	;# 
   279  0018                     	;# 
   280  0019                     	;# 
   281  001A                     	;# 
   282  001B                     	;# 
   283  001B                     	;# 
   284  001C                     	;# 
   285  001D                     	;# 
   286  001E                     	;# 
   287  001F                     	;# 
   288  0081                     	;# 
   289  0085                     	;# 
   290  0086                     	;# 
   291  0087                     	;# 
   292  0088                     	;# 
   293  0089                     	;# 
   294  008C                     	;# 
   295  008D                     	;# 
   296  008E                     	;# 
   297  008F                     	;# 
   298  0090                     	;# 
   299  0091                     	;# 
   300  0092                     	;# 
   301  0093                     	;# 
   302  0093                     	;# 
   303  0094                     	;# 
   304  0095                     	;# 
   305  0096                     	;# 
   306  0097                     	;# 
   307  0098                     	;# 
   308  0099                     	;# 
   309  009A                     	;# 
   310  009A                     	;# 
   311  009B                     	;# 
   312  009C                     	;# 
   313  009D                     	;# 
   314  009E                     	;# 
   315  009F                     	;# 
   316  0105                     	;# 
   317  0106                     	;# 
   318  0107                     	;# 
   319  0108                     	;# 
   320  0109                     	;# 
   321  010C                     	;# 
   322  010D                     	;# 
   323  010E                     	;# 
   324  010F                     	;# 
   325  0110                     	;# 
   326  0111                     	;# 
   327  0112                     	;# 
   328  0113                     	;# 
   329  0114                     	;# 
   330  0185                     	;# 
   331  0186                     	;# 
   332  0187                     	;# 
   333  0188                     	;# 
   334  0189                     	;# 
   335  018C                     	;# 
   336                           
   337                           	psect	strings
   338  1000                     __pstrings:
   339  1000                     stringtab:
   340  1000                     __stringtab:
   341  1000                     stringcode:	
   342                           ;	String table - string pointers are 1 byte each
   343                           
   344  1000                     stringdir:
   345  1000  3010               	movlw	high stringdir
   346  1001  008A               	movwf	10
   347  1002  0804               	movf	4,w
   348  1003  0A84               	incf	4,f
   349  1004  0782               	addwf	2,f
   350  1005                     __stringbase:
   351  1005  3400               	retlw	0
   352  1006                     __end_of__stringtab:
   353  1006                     conversion_newton@R_tab:
   354  1006  3400               	retlw	0
   355  1007  3400               	retlw	0
   356  1008  34FA               	retlw	250
   357  1009  3444               	retlw	68
   358  100A  3400               	retlw	0
   359  100B  3440               	retlw	64
   360  100C  341C               	retlw	28
   361  100D  3445               	retlw	69
   362  100E  3400               	retlw	0
   363  100F  3480               	retlw	128
   364  1010  3422               	retlw	34
   365  1011  3445               	retlw	69
   366  1012  3400               	retlw	0
   367  1013  34C0               	retlw	192
   368  1014  3428               	retlw	40
   369  1015  3445               	retlw	69
   370  1016  3400               	retlw	0
   371  1017  3440               	retlw	64
   372  1018  3435               	retlw	53
   373  1019  3445               	retlw	69
   374  101A  3400               	retlw	0
   375  101B  3400               	retlw	0
   376  101C  3448               	retlw	72
   377  101D  3445               	retlw	69
   378  101E  3400               	retlw	0
   379  101F  3480               	retlw	128
   380  1020  3454               	retlw	84
   381  1021  3445               	retlw	69
   382  1022  3400               	retlw	0
   383  1023  34C0               	retlw	192
   384  1024  345A               	retlw	90
   385  1025  3445               	retlw	69
   386  1026  3400               	retlw	0
   387  1027  34C0               	retlw	192
   388  1028  3473               	retlw	115
   389  1029  3445               	retlw	69
   390  102A  3400               	retlw	0
   391  102B  3460               	retlw	96
   392  102C  3486               	retlw	134
   393  102D  3445               	retlw	69
   394  102E  3400               	retlw	0
   395  102F  3400               	retlw	0
   396  1030  3496               	retlw	150
   397  1031  3445               	retlw	69
   398  1032  3400               	retlw	0
   399  1033  34E0               	retlw	224
   400  1034  34AB               	retlw	171
   401  1035  3445               	retlw	69
   402  1036  3400               	retlw	0
   403  1037  3480               	retlw	128
   404  1038  34D4               	retlw	212
   405  1039  3445               	retlw	69
   406  103A  3400               	retlw	0
   407  103B  34D0               	retlw	208
   408  103C  3404               	retlw	4
   409  103D  3446               	retlw	70
   410  103E  3400               	retlw	0
   411  103F  34E0               	retlw	224
   412  1040  342B               	retlw	43
   413  1041  3446               	retlw	70
   414  1042  3400               	retlw	0
   415  1043  3400               	retlw	0
   416  1044  347A               	retlw	122
   417  1045  3446               	retlw	70
   418  1046  3400               	retlw	0
   419  1047  34F0               	retlw	240
   420  1048  34D2               	retlw	210
   421  1049  3446               	retlw	70
   422  104A  3400               	retlw	0
   423  104B  34C8               	retlw	200
   424  104C  342F               	retlw	47
   425  104D  3447               	retlw	71
   426  104E  3400               	retlw	0
   427  104F  34E8               	retlw	232
   428  1050  347D               	retlw	125
   429  1051  3447               	retlw	71
   430  1052  3400               	retlw	0
   431  1053  348C               	retlw	140
   432  1054  34B9               	retlw	185
   433  1055  3447               	retlw	71
   434  1056                     __end_ofconversion_newton@R_tab:
   435  1056                     conversion_newton@F_tab:
   436  1056  3400               	retlw	0
   437  1057  3400               	retlw	0
   438  1058  348C               	retlw	140
   439  1059  3442               	retlw	66
   440  105A  3400               	retlw	0
   441  105B  3400               	retlw	0
   442  105C  340C               	retlw	12
   443  105D  3442               	retlw	66
   444  105E  3400               	retlw	0
   445  105F  3400               	retlw	0
   446  1060  34F0               	retlw	240
   447  1061  3441               	retlw	65
   448  1062  3400               	retlw	0
   449  1063  3400               	retlw	0
   450  1064  34E0               	retlw	224
   451  1065  3441               	retlw	65
   452  1066  3400               	retlw	0
   453  1067  3400               	retlw	0
   454  1068  34C8               	retlw	200
   455  1069  3441               	retlw	65
   456  106A  3400               	retlw	0
   457  106B  3400               	retlw	0
   458  106C  34A0               	retlw	160
   459  106D  3441               	retlw	65
   460  106E  3400               	retlw	0
   461  106F  3400               	retlw	0
   462  1070  3498               	retlw	152
   463  1071  3441               	retlw	65
   464  1072  3400               	retlw	0
   465  1073  3400               	retlw	0
   466  1074  3490               	retlw	144
   467  1075  3441               	retlw	65
   468  1076  3400               	retlw	0
   469  1077  3400               	retlw	0
   470  1078  3470               	retlw	112
   471  1079  3441               	retlw	65
   472  107A  3400               	retlw	0
   473  107B  3400               	retlw	0
   474  107C  3450               	retlw	80
   475  107D  3441               	retlw	65
   476  107E  3400               	retlw	0
   477  107F  3400               	retlw	0
   478  1080  3420               	retlw	32
   479  1081  3441               	retlw	65
   480  1082  3400               	retlw	0
   481  1083  3400               	retlw	0
   482  1084  34E0               	retlw	224
   483  1085  3440               	retlw	64
   484  1086  34CD               	retlw	205
   485  1087  34CC               	retlw	204
   486  1088  34AC               	retlw	172
   487  1089  3440               	retlw	64
   488  108A  3400               	retlw	0
   489  108B  3400               	retlw	0
   490  108C  3480               	retlw	128
   491  108D  3440               	retlw	64
   492  108E  3400               	retlw	0
   493  108F  3400               	retlw	0
   494  1090  3440               	retlw	64
   495  1091  3440               	retlw	64
   496  1092  34CD               	retlw	205
   497  1093  34CC               	retlw	204
   498  1094  340C               	retlw	12
   499  1095  3440               	retlw	64
   500  1096  3400               	retlw	0
   501  1097  3400               	retlw	0
   502  1098  34C0               	retlw	192
   503  1099  343F               	retlw	63
   504  109A  3466               	retlw	102
   505  109B  3466               	retlw	102
   506  109C  3466               	retlw	102
   507  109D  343F               	retlw	63
   508  109E  3466               	retlw	102
   509  109F  3466               	retlw	102
   510  10A0  34E6               	retlw	230
   511  10A1  343E               	retlw	62
   512  10A2  348F               	retlw	143
   513  10A3  34C2               	retlw	194
   514  10A4  34F5               	retlw	245
   515  10A5  343D               	retlw	61
   516  10A6                     __end_ofconversion_newton@F_tab:
   517  0007                     _PORTCbits	set	7
   518  0019                     _TXREG	set	25
   519  001E                     _ADRES	set	30
   520  0008                     _PORTD	set	8
   521  0006                     _PORTBbits	set	6
   522  001F                     _ADCON0	set	31
   523  0018                     _RCSTA	set	24
   524  006C                     _TMRAIF	set	108
   525  0060                     _TMR1IF	set	96
   526  0080                     _TMR1ON	set	128
   527  0082                     _T1SYNC	set	130
   528  0085                     _T1CKPS1	set	133
   529  0084                     _T1CKPS0	set	132
   530  0086                     _TMRCS0	set	134
   531  0087                     _TMRCS1	set	135
   532  0083                     _T1OSCEN	set	131
   533  00F9                     _GO_nDONE	set	249
   534  009D                     _FVRCON	set	157
   535  009F                     _ADCON1	set	159
   536  0088                     _TRISD	set	136
   537  0085                     _TRISA	set	133
   538  0090                     _OSCCON	set	144
   539  0086                     _TRISB	set	134
   540  0095                     _WPUB	set	149
   541  0098                     _TXSTA	set	152
   542  0099                     _SPBRG	set	153
   543  0087                     _TRISC	set	135
   544  0460                     _TMR1IE	set	1120
   545  047F                     _TMR1GE	set	1151
   546  0110                     _TMRA	set	272
   547  0114                     _DACCON1	set	276
   548  0113                     _DACCON0	set	275
   549  0185                     _ANSELA	set	389
   550  0188                     _ANSELD	set	392
   551  0186                     _ANSELB	set	390
   552  10A6                     STR_2:
   553  10A6  3420               	retlw	32	;' '
   554  10A7  344E               	retlw	78	;'N'
   555  10A8  3475               	retlw	117	;'u'
   556  10A9  346D               	retlw	109	;'m'
   557  10AA  3465               	retlw	101	;'e'
   558  10AB  3472               	retlw	114	;'r'
   559  10AC  3469               	retlw	105	;'i'
   560  10AD  3471               	retlw	113	;'q'
   561  10AE  3475               	retlw	117	;'u'
   562  10AF  3465               	retlw	101	;'e'
   563  10B0  3420               	retlw	32	;' '
   564  10B1  3400               	retlw	0
   565  10B2                     STR_5:
   566  10B2  3420               	retlw	32	;' '
   567  10B3  344E               	retlw	78	;'N'
   568  10B4  3420               	retlw	32	;' '
   569  10B5  340A               	retlw	10
   570  10B6  3400               	retlw	0
   571  10B7                     STR_4:
   572  10B7  3420               	retlw	32	;' '
   573  10B8  3452               	retlw	82	;'R'
   574  10B9  3463               	retlw	99	;'c'
   575  10BA  3420               	retlw	32	;' '
   576  10BB  3400               	retlw	0
   577  10BC                     STR_1:
   578  10BC  3420               	retlw	32	;' '
   579  10BD  3452               	retlw	82	;'R'
   580  10BE  3420               	retlw	32	;' '
   581  10BF  3400               	retlw	0
   582  10C0                     STR_3:
   583  10C0  3420               	retlw	32	;' '
   584  10C1  3456               	retlw	86	;'V'
   585  10C2  3420               	retlw	32	;' '
   586  10C3  3400               	retlw	0
   587                           
   588                           	psect	cinit
   589  07F9                     start_initialization:	
   590                           ; #config settings
   591                           
   592  07F9                     __initialization:
   593                           
   594                           ; Clear objects allocated to BANK3
   595  07F9  1683               	bsf	3,5	;RP0=1, select bank3
   596  07FA  1703               	bsf	3,6	;RP1=1, select bank3
   597  07FB  0190               	clrf	__pbssBANK3& (0+127)
   598  07FC                     end_of_initialization:	
   599                           ;End of C runtime variable initialization code
   600                           
   601  07FC                     __end_of__initialization:
   602  07FC  0183               	clrf	3
   603  07FD  160A  158A  28B9   	ljmp	_main	;jump to C main() function
   604                           
   605                           	psect	bssBANK3
   606  0190                     __pbssBANK3:
   607  0190                     _Fincompt1:
   608  0190                     	ds	1
   609                           
   610                           	psect	cstackBANK1
   611  00A0                     __pcstackBANK1:
   612  00A0                     ?_puts_float:
   613  00A0                     ?_Voltage_Value:	
   614                           ; 1 bytes @ 0x0
   615                           
   616  00A0                     ?_Resistance_Value:	
   617                           ; 4 bytes @ 0x0
   618                           
   619  00A0                     ?_conversion_newton:	
   620                           ; 4 bytes @ 0x0
   621                           
   622  00A0                     puts_float@Valeur:	
   623                           ; 4 bytes @ 0x0
   624                           
   625  00A0                     Resistance_Value@Voltage:	
   626                           ; 4 bytes @ 0x0
   627                           
   628  00A0                     conversion_newton@Rc:	
   629                           ; 4 bytes @ 0x0
   630                           
   631                           
   632                           ; 4 bytes @ 0x0
   633  00A0                     	ds	4
   634  00A4                     ??_Voltage_Value:
   635  00A4                     ??_conversion_newton:	
   636                           ; 1 bytes @ 0x4
   637                           
   638  00A4                     puts_float@affiche:	
   639                           ; 1 bytes @ 0x4
   640                           
   641  00A4                     Resistance_Value@R:	
   642                           ; 2 bytes @ 0x4
   643                           
   644                           
   645                           ; 2 bytes @ 0x4
   646  00A4                     	ds	2
   647  00A6                     Resistance_Value@resultat:
   648  00A6                     puts_float@valueMetrics:	
   649                           ; 4 bytes @ 0x6
   650                           
   651                           
   652                           ; 6 bytes @ 0x6
   653  00A6                     	ds	2
   654  00A8                     Voltage_Value@sensor:
   655                           
   656                           ; 1 bytes @ 0x8
   657  00A8                     	ds	1
   658  00A9                     Voltage_Value@voltage_result:
   659                           
   660                           ; 4 bytes @ 0x9
   661  00A9                     	ds	1
   662  00AA                     Resistance_Value@fR:
   663                           
   664                           ; 4 bytes @ 0xA
   665  00AA                     	ds	19
   666  00BD                     _conversion_newton$800:
   667                           
   668                           ; 4 bytes @ 0x1D
   669  00BD                     	ds	4
   670  00C1                     conversion_newton@F:
   671                           
   672                           ; 4 bytes @ 0x21
   673  00C1                     	ds	4
   674  00C5                     conversion_newton@n:
   675                           
   676                           ; 2 bytes @ 0x25
   677  00C5                     	ds	2
   678  00C7                     ?_Get_Newton:
   679  00C7                     Get_Newton@INTER1:	
   680                           ; 4 bytes @ 0x27
   681                           
   682                           
   683                           ; 1 bytes @ 0x27
   684  00C7                     	ds	1
   685  00C8                     Get_Newton@sensor_Channel:
   686                           
   687                           ; 1 bytes @ 0x28
   688  00C8                     	ds	3
   689  00CB                     ??_Get_Newton:
   690                           
   691                           ; 1 bytes @ 0x2B
   692  00CB                     	ds	2
   693  00CD                     Get_Newton@INTER0:
   694                           
   695                           ; 1 bytes @ 0x2D
   696  00CD                     	ds	1
   697  00CE                     Get_Newton@Vs:
   698                           
   699                           ; 4 bytes @ 0x2E
   700  00CE                     	ds	4
   701  00D2                     Get_Newton@F:
   702                           
   703                           ; 4 bytes @ 0x32
   704  00D2                     	ds	4
   705  00D6                     Get_Newton@Rc:
   706                           
   707                           ; 4 bytes @ 0x36
   708  00D6                     	ds	4
   709  00DA                     Get_Newton@R:
   710                           
   711                           ; 2 bytes @ 0x3A
   712  00DA                     	ds	2
   713  00DC                     Get_Newton@sensor_value:
   714                           
   715                           ; 1 bytes @ 0x3C
   716  00DC                     	ds	1
   717  00DD                     ?_Get_Better_Newton_Value:
   718                           
   719                           ; 4 bytes @ 0x3D
   720  00DD                     	ds	5
   721  00E2                     Get_Better_Newton_Value@channel_sensor:
   722                           
   723                           ; 1 bytes @ 0x42
   724  00E2                     	ds	1
   725  00E3                     Get_Better_Newton_Value@F1:
   726                           
   727                           ; 4 bytes @ 0x43
   728  00E3                     	ds	4
   729  00E7                     Get_Better_Newton_Value@F2:
   730                           
   731                           ; 4 bytes @ 0x47
   732  00E7                     	ds	4
   733  00EB                     Get_Better_Newton_Value@F3:
   734                           
   735                           ; 4 bytes @ 0x4B
   736  00EB                     	ds	4
   737                           
   738                           	psect	cstackCOMMON
   739  0071                     __pcstackCOMMON:
   740  0071                     ?_PORT_Init:
   741  0071                     ?_TIMER_init_timer1:	
   742                           ; 1 bytes @ 0x0
   743                           
   744  0071                     ?_PORT_Select_Mux0:	
   745                           ; 1 bytes @ 0x0
   746                           
   747  0071                     ?_PORT_Blink_LED:	
   748                           ; 1 bytes @ 0x0
   749                           
   750  0071                     ?_PORT_putchar:	
   751                           ; 1 bytes @ 0x0
   752                           
   753  0071                     ?_PORT_putString:	
   754                           ; 1 bytes @ 0x0
   755                           
   756  0071                     ?_ADC_GetValue:	
   757                           ; 1 bytes @ 0x0
   758                           
   759  0071                     ?_PORT_Choose_Mux:	
   760                           ; 1 bytes @ 0x0
   761                           
   762  0071                     ?_PORT_Start_ADC:	
   763                           ; 1 bytes @ 0x0
   764                           
   765  0071                     ?_PORT_Get_Value_Adc:	
   766                           ; 1 bytes @ 0x0
   767                           
   768  0071                     ?_main:	
   769                           ; 1 bytes @ 0x0
   770                           
   771  0071                     ?_PORT_Init_Serial:	
   772                           ; 1 bytes @ 0x0
   773                           
   774  0071                     ?_isr:	
   775                           ; 1 bytes @ 0x0
   776                           
   777  0071                     ??_isr:	
   778                           ; 1 bytes @ 0x0
   779                           
   780                           
   781                           ; 1 bytes @ 0x0
   782  0071                     	ds	2
   783  0073                     ?___fleq:
   784  0073                     ?___flge:	
   785                           ; 1 bit 
   786                           
   787  0073                     ??_PORT_Init:	
   788                           ; 1 bit 
   789                           
   790  0073                     ??_TIMER_init_timer1:	
   791                           ; 1 bytes @ 0x2
   792                           
   793  0073                     ??_PORT_Select_Mux0:	
   794                           ; 1 bytes @ 0x2
   795                           
   796  0073                     ??_PORT_Blink_LED:	
   797                           ; 1 bytes @ 0x2
   798                           
   799  0073                     ??_PORT_putchar:	
   800                           ; 1 bytes @ 0x2
   801                           
   802  0073                     ??_PORT_Choose_Mux:	
   803                           ; 1 bytes @ 0x2
   804                           
   805  0073                     ??_PORT_Start_ADC:	
   806                           ; 1 bytes @ 0x2
   807                           
   808  0073                     ??_PORT_Get_Value_Adc:	
   809                           ; 1 bytes @ 0x2
   810                           
   811  0073                     ??_PORT_Init_Serial:	
   812                           ; 1 bytes @ 0x2
   813                           
   814  0073                     ?_PORT_Change_Gain:	
   815                           ; 1 bytes @ 0x2
   816                           
   817  0073                     ?__Umul8_16:	
   818                           ; 2 bytes @ 0x2
   819                           
   820  0073                     ?___awdiv:	
   821                           ; 2 bytes @ 0x2
   822                           
   823  0073                     ?___awmod:	
   824                           ; 2 bytes @ 0x2
   825                           
   826  0073                     ?___lwdiv:	
   827                           ; 2 bytes @ 0x2
   828                           
   829  0073                     ?___lwmod:	
   830                           ; 2 bytes @ 0x2
   831                           
   832  0073                     ?___aldiv:	
   833                           ; 2 bytes @ 0x2
   834                           
   835  0073                     ?___almod:	
   836                           ; 4 bytes @ 0x2
   837                           
   838  0073                     ?___fltol:	
   839                           ; 4 bytes @ 0x2
   840                           
   841  0073                     ?___xxtofl:	
   842                           ; 4 bytes @ 0x2
   843                           
   844  0073                     PORT_Choose_Mux@_value:	
   845                           ; 4 bytes @ 0x2
   846                           
   847  0073                     PORT_putchar@c:	
   848                           ; 1 bytes @ 0x2
   849                           
   850  0073                     PORT_Change_Gain@INTER1:	
   851                           ; 1 bytes @ 0x2
   852                           
   853  0073                     __Umul8_16@multiplicand:	
   854                           ; 1 bytes @ 0x2
   855                           
   856  0073                     ___awdiv@divisor:	
   857                           ; 1 bytes @ 0x2
   858                           
   859  0073                     ___awmod@divisor:	
   860                           ; 2 bytes @ 0x2
   861                           
   862  0073                     ___lwdiv@divisor:	
   863                           ; 2 bytes @ 0x2
   864                           
   865  0073                     ___lwmod@divisor:	
   866                           ; 2 bytes @ 0x2
   867                           
   868  0073                     ___aldiv@divisor:	
   869                           ; 2 bytes @ 0x2
   870                           
   871  0073                     ___almod@divisor:	
   872                           ; 4 bytes @ 0x2
   873                           
   874  0073                     ___fleq@ff1:	
   875                           ; 4 bytes @ 0x2
   876                           
   877  0073                     ___flge@ff1:	
   878                           ; 4 bytes @ 0x2
   879                           
   880  0073                     ___fltol@f1:	
   881                           ; 4 bytes @ 0x2
   882                           
   883  0073                     ___xxtofl@val:	
   884                           ; 4 bytes @ 0x2
   885                           
   886                           
   887                           ; 4 bytes @ 0x2
   888  0073                     	ds	1
   889  0074                     ??_PORT_putString:
   890  0074                     ??_ADC_GetValue:	
   891                           ; 1 bytes @ 0x3
   892                           
   893  0074                     ADC_GetValue@channel:	
   894                           ; 1 bytes @ 0x3
   895                           
   896  0074                     PORT_putString@i:	
   897                           ; 1 bytes @ 0x3
   898                           
   899                           
   900                           ; 2 bytes @ 0x3
   901  0074                     	ds	1
   902  0075                     ??__Umul8_16:
   903  0075                     ADC_GetValue@sensor_value:	
   904                           ; 1 bytes @ 0x4
   905                           
   906  0075                     ___awdiv@dividend:	
   907                           ; 1 bytes @ 0x4
   908                           
   909  0075                     ___awmod@dividend:	
   910                           ; 2 bytes @ 0x4
   911                           
   912  0075                     ___lwdiv@dividend:	
   913                           ; 2 bytes @ 0x4
   914                           
   915  0075                     ___lwmod@dividend:	
   916                           ; 2 bytes @ 0x4
   917                           
   918                           
   919                           ; 2 bytes @ 0x4
   920  0075                     	ds	1
   921  0076                     ??_PORT_Change_Gain:
   922  0076                     PORT_putString@chaine:	
   923                           ; 1 bytes @ 0x5
   924                           
   925  0076                     PORT_Change_Gain@INTER0:	
   926                           ; 1 bytes @ 0x5
   927                           
   928                           
   929                           ; 1 bytes @ 0x5
   930  0076                     	ds	1
   931  0077                     ??___awdiv:
   932  0077                     ??___awmod:	
   933                           ; 1 bytes @ 0x6
   934                           
   935  0077                     ??___fltol:	
   936                           ; 1 bytes @ 0x6
   937                           
   938  0077                     ??___lwdiv:	
   939                           ; 1 bytes @ 0x6
   940                           
   941  0077                     ??___lwmod:	
   942                           ; 1 bytes @ 0x6
   943                           
   944  0077                     ??___xxtofl:	
   945                           ; 1 bytes @ 0x6
   946                           
   947  0077                     ___awdiv@counter:	
   948                           ; 1 bytes @ 0x6
   949                           
   950  0077                     ___awmod@counter:	
   951                           ; 1 bytes @ 0x6
   952                           
   953  0077                     ___lwmod@counter:	
   954                           ; 1 bytes @ 0x6
   955                           
   956  0077                     ___lwdiv@quotient:	
   957                           ; 1 bytes @ 0x6
   958                           
   959  0077                     __Umul8_16@product:	
   960                           ; 2 bytes @ 0x6
   961                           
   962  0077                     ___aldiv@dividend:	
   963                           ; 2 bytes @ 0x6
   964                           
   965  0077                     ___almod@dividend:	
   966                           ; 4 bytes @ 0x6
   967                           
   968  0077                     ___fleq@ff2:	
   969                           ; 4 bytes @ 0x6
   970                           
   971  0077                     ___flge@ff2:	
   972                           ; 4 bytes @ 0x6
   973                           
   974                           
   975                           ; 4 bytes @ 0x6
   976  0077                     	ds	1
   977  0078                     ___awdiv@sign:
   978  0078                     ___awmod@sign:	
   979                           ; 1 bytes @ 0x7
   980                           
   981                           
   982                           ; 1 bytes @ 0x7
   983  0078                     	ds	1
   984  0079                     ___lwdiv@counter:
   985  0079                     ___awdiv@quotient:	
   986                           ; 1 bytes @ 0x8
   987                           
   988  0079                     __Umul8_16@word_mpld:	
   989                           ; 2 bytes @ 0x8
   990                           
   991                           
   992                           ; 2 bytes @ 0x8
   993  0079                     	ds	2
   994  007B                     ??___aldiv:
   995  007B                     ??___almod:	
   996                           ; 1 bytes @ 0xA
   997                           
   998  007B                     __Umul8_16@multiplier:	
   999                           ; 1 bytes @ 0xA
  1000                           
  1001                           
  1002                           ; 1 bytes @ 0xA
  1003  007B                     	ds	1
  1004  007C                     ??_Get_Better_Newton_Value:
  1005  007C                     ??_main:	
  1006                           ; 1 bytes @ 0xB
  1007                           
  1008  007C                     ??_puts_float:	
  1009                           ; 1 bytes @ 0xB
  1010                           
  1011  007C                     ??_Resistance_Value:	
  1012                           ; 1 bytes @ 0xB
  1013                           
  1014  007C                     ??___flsub:	
  1015                           ; 1 bytes @ 0xB
  1016                           
  1017                           
  1018                           	psect	cstackBANK0
  1019  0020                     __pcstackBANK0:	
  1020                           ; 1 bytes @ 0xB
  1021                           
  1022  0020                     ??___fleq:
  1023  0020                     ??___flge:	
  1024                           ; 1 bytes @ 0x0
  1025                           
  1026  0020                     ?___fladd:	
  1027                           ; 1 bytes @ 0x0
  1028                           
  1029  0020                     ___aldiv@counter:	
  1030                           ; 4 bytes @ 0x0
  1031                           
  1032  0020                     ___almod@counter:	
  1033                           ; 1 bytes @ 0x0
  1034                           
  1035  0020                     ___fltol@sign1:	
  1036                           ; 1 bytes @ 0x0
  1037                           
  1038  0020                     ___xxtofl@sign:	
  1039                           ; 1 bytes @ 0x0
  1040                           
  1041  0020                     ___fladd@b:	
  1042                           ; 1 bytes @ 0x0
  1043                           
  1044                           
  1045                           ; 4 bytes @ 0x0
  1046  0020                     	ds	1
  1047  0021                     ___aldiv@sign:
  1048  0021                     ___almod@sign:	
  1049                           ; 1 bytes @ 0x1
  1050                           
  1051  0021                     ___fltol@exp1:	
  1052                           ; 1 bytes @ 0x1
  1053                           
  1054  0021                     ___xxtofl@exp:	
  1055                           ; 1 bytes @ 0x1
  1056                           
  1057                           
  1058                           ; 1 bytes @ 0x1
  1059  0021                     	ds	1
  1060  0022                     ?_Affichage_brut:
  1061  0022                     Affichage_brut@valeur_a_afficher:	
  1062                           ; 1 bytes @ 0x2
  1063                           
  1064  0022                     ___aldiv@quotient:	
  1065                           ; 2 bytes @ 0x2
  1066                           
  1067  0022                     ___xxtofl@arg:	
  1068                           ; 4 bytes @ 0x2
  1069                           
  1070                           
  1071                           ; 4 bytes @ 0x2
  1072  0022                     	ds	2
  1073  0024                     ??_Affichage_brut:
  1074  0024                     ___fladd@a:	
  1075                           ; 1 bytes @ 0x4
  1076                           
  1077                           
  1078                           ; 4 bytes @ 0x4
  1079  0024                     	ds	2
  1080  0026                     Affichage_brut@affiche:
  1081                           
  1082                           ; 1 bytes @ 0x6
  1083  0026                     	ds	1
  1084  0027                     Affichage_brut@valueMetrics:
  1085                           
  1086                           ; 6 bytes @ 0x7
  1087  0027                     	ds	1
  1088  0028                     ??___fladd:
  1089                           
  1090                           ; 1 bytes @ 0x8
  1091  0028                     	ds	8
  1092  0030                     ___fladd@signs:
  1093                           
  1094                           ; 1 bytes @ 0x10
  1095  0030                     	ds	1
  1096  0031                     ___fladd@aexp:
  1097                           
  1098                           ; 1 bytes @ 0x11
  1099  0031                     	ds	1
  1100  0032                     ___fladd@bexp:
  1101                           
  1102                           ; 1 bytes @ 0x12
  1103  0032                     	ds	1
  1104  0033                     ___fladd@grs:
  1105                           
  1106                           ; 1 bytes @ 0x13
  1107  0033                     	ds	1
  1108  0034                     ?___flsub:
  1109  0034                     ___flsub@a:	
  1110                           ; 4 bytes @ 0x14
  1111                           
  1112                           
  1113                           ; 4 bytes @ 0x14
  1114  0034                     	ds	4
  1115  0038                     ___flsub@b:
  1116                           
  1117                           ; 4 bytes @ 0x18
  1118  0038                     	ds	4
  1119  003C                     ?___fldiv:
  1120  003C                     ___fldiv@a:	
  1121                           ; 4 bytes @ 0x1C
  1122                           
  1123                           
  1124                           ; 4 bytes @ 0x1C
  1125  003C                     	ds	4
  1126  0040                     ___fldiv@b:
  1127                           
  1128                           ; 4 bytes @ 0x20
  1129  0040                     	ds	4
  1130  0044                     ??___fldiv:
  1131                           
  1132                           ; 1 bytes @ 0x24
  1133  0044                     	ds	5
  1134  0049                     ___fldiv@rem:
  1135                           
  1136                           ; 4 bytes @ 0x29
  1137  0049                     	ds	4
  1138  004D                     ___fldiv@sign:
  1139                           
  1140                           ; 1 bytes @ 0x2D
  1141  004D                     	ds	1
  1142  004E                     ___fldiv@new_exp:
  1143                           
  1144                           ; 2 bytes @ 0x2E
  1145  004E                     	ds	2
  1146  0050                     ___fldiv@grs:
  1147                           
  1148                           ; 4 bytes @ 0x30
  1149  0050                     	ds	4
  1150  0054                     ___fldiv@bexp:
  1151                           
  1152                           ; 1 bytes @ 0x34
  1153  0054                     	ds	1
  1154  0055                     ___fldiv@aexp:
  1155                           
  1156                           ; 1 bytes @ 0x35
  1157  0055                     	ds	1
  1158  0056                     ?___flmul:
  1159  0056                     ___flmul@b:	
  1160                           ; 4 bytes @ 0x36
  1161                           
  1162                           
  1163                           ; 4 bytes @ 0x36
  1164  0056                     	ds	4
  1165  005A                     ___flmul@a:
  1166                           
  1167                           ; 4 bytes @ 0x3A
  1168  005A                     	ds	4
  1169  005E                     ??___flmul:
  1170                           
  1171                           ; 1 bytes @ 0x3E
  1172  005E                     	ds	5
  1173  0063                     ___flmul@sign:
  1174                           
  1175                           ; 1 bytes @ 0x43
  1176  0063                     	ds	1
  1177  0064                     ___flmul@grs:
  1178                           
  1179                           ; 4 bytes @ 0x44
  1180  0064                     	ds	4
  1181  0068                     ___flmul@aexp:
  1182                           
  1183                           ; 1 bytes @ 0x48
  1184  0068                     	ds	1
  1185  0069                     ___flmul@bexp:
  1186                           
  1187                           ; 1 bytes @ 0x49
  1188  0069                     	ds	1
  1189  006A                     ___flmul@prod:
  1190                           
  1191                           ; 4 bytes @ 0x4A
  1192  006A                     	ds	4
  1193  006E                     ___flmul@temp:
  1194                           
  1195                           ; 2 bytes @ 0x4E
  1196  006E                     	ds	2
  1197                           
  1198                           	psect	maintext
  1199  18B9                     __pmaintext:	
  1200 ;;
  1201 ;;Main: autosize = 0, tempsize = 0, incstack = 0, save=0
  1202 ;;
  1203 ;; *************** function _main *****************
  1204 ;; Defined at:
  1205 ;;		line 26 in file "main.c"
  1206 ;; Parameters:    Size  Location     Type
  1207 ;;		None
  1208 ;; Auto vars:     Size  Location     Type
  1209 ;;  F               4    0        float 
  1210 ;; Return value:  Size  Location     Type
  1211 ;;                  1    wreg      void 
  1212 ;; Registers used:
  1213 ;;		wreg, fsr0l, fsr0h, status,2, status,0, btemp+1, pclath, cstack
  1214 ;; Tracked objects:
  1215 ;;		On entry : B00/0
  1216 ;;		On exit  : 0/0
  1217 ;;		Unchanged: 0/0
  1218 ;; Data sizes:     COMMON   BANK0   BANK1   BANK3   BANK2
  1219 ;;      Params:         0       0       0       0       0
  1220 ;;      Locals:         0       0       0       4       0
  1221 ;;      Temps:          0       0       0       0       0
  1222 ;;      Totals:         0       0       0       4       0
  1223 ;;Total ram usage:        4 bytes
  1224 ;; Hardware stack levels required when called:    6
  1225 ;; This function calls:
  1226 ;;		_Get_Better_Newton_Value
  1227 ;;		_PORT_Blink_LED
  1228 ;;		_PORT_Init
  1229 ;;		_PORT_Select_Mux0
  1230 ;;		_TIMER_init_timer1
  1231 ;; This function is called by:
  1232 ;;		Startup code after reset
  1233 ;; This function uses a non-reentrant model
  1234 ;;
  1235                           
  1236                           
  1237                           ;psect for function _main
  1238  18B9                     _main:
  1239  18B9                     l3304:	
  1240                           ;incstack = 0
  1241                           ; Regs used in _main: [wreg-fsr0h+status,2+status,0+btemp+1+pclath+cstack]
  1242                           
  1243                           
  1244                           ;main.c: 28:     PORT_Init();
  1245  18B9  160A  158A  2131  160A  158A  	fcall	_PORT_Init
  1246                           
  1247                           ;main.c: 29:     TIMER_init_timer1();
  1248  18BE  160A  158A  203E  160A  158A  	fcall	_TIMER_init_timer1
  1249  18C3                     l3306:
  1250                           
  1251                           ;main.c: 31:     PORT_Select_Mux0();
  1252  18C3  160A  158A  2014  160A  158A  	fcall	_PORT_Select_Mux0
  1253  18C8                     l3308:
  1254  18C8  1683               	bsf	3,5	;RP0=1, select bank3
  1255  18C9  1703               	bsf	3,6	;RP1=1, select bank3
  1256  18CA  0810               	movf	_Fincompt1^(0+384),w
  1257  18CB  1D03               	btfss	3,2
  1258  18CC  28CE               	goto	u5421
  1259  18CD  28CF               	goto	u5420
  1260  18CE                     u5421:
  1261  18CE  28C8               	goto	l3308
  1262  18CF                     u5420:
  1263  18CF                     l3310:
  1264                           
  1265                           ;main.c: 36:         Fincompt1 = 0;
  1266  18CF  0190               	clrf	_Fincompt1^(0+384)
  1267  18D0                     l3312:
  1268                           
  1269                           ;main.c: 37:         PORT_Blink_LED();
  1270  18D0  160A  158A  201C  160A  158A  	fcall	_PORT_Blink_LED
  1271  18D5                     l3314:
  1272  18D5  3000               	movlw	0
  1273  18D6  120A  118A  2029  160A  158A  	fcall	_Get_Better_Newton_Value
  1274  18DB  28C8               	goto	l3308
  1275  18DC  120A  118A  280C   	ljmp	start
  1276  18DF                     __end_of_main:
  1277                           
  1278                           	psect	text1
  1279  183E                     __ptext1:	
  1280 ;; *************** function _TIMER_init_timer1 *****************
  1281 ;; Defined at:
  1282 ;;		line 8 in file "timer.c"
  1283 ;; Parameters:    Size  Location     Type
  1284 ;;		None
  1285 ;; Auto vars:     Size  Location     Type
  1286 ;;		None
  1287 ;; Return value:  Size  Location     Type
  1288 ;;                  1    wreg      void 
  1289 ;; Registers used:
  1290 ;;		wreg
  1291 ;; Tracked objects:
  1292 ;;		On entry : 0/0
  1293 ;;		On exit  : 0/0
  1294 ;;		Unchanged: 0/0
  1295 ;; Data sizes:     COMMON   BANK0   BANK1   BANK3   BANK2
  1296 ;;      Params:         0       0       0       0       0
  1297 ;;      Locals:         0       0       0       0       0
  1298 ;;      Temps:          0       0       0       0       0
  1299 ;;      Totals:         0       0       0       0       0
  1300 ;;Total ram usage:        0 bytes
  1301 ;; Hardware stack levels used:    1
  1302 ;; Hardware stack levels required when called:    1
  1303 ;; This function calls:
  1304 ;;		Nothing
  1305 ;; This function is called by:
  1306 ;;		_main
  1307 ;; This function uses a non-reentrant model
  1308 ;;
  1309                           
  1310                           
  1311                           ;psect for function _TIMER_init_timer1
  1312  183E                     _TIMER_init_timer1:
  1313  183E                     l3236:	
  1314                           ;incstack = 0
  1315                           ; Regs used in _TIMER_init_timer1: [wreg]
  1316                           
  1317                           
  1318                           ;timer.c: 10:     TMRA = 65535-5000;
  1319  183E  3077               	movlw	119
  1320  183F  1283               	bcf	3,5	;RP0=0, select bank2
  1321  1840  1703               	bsf	3,6	;RP1=1, select bank2
  1322  1841  0090               	movwf	16	;volatile
  1323  1842                     l3238:
  1324                           
  1325                           ;timer.c: 24:     T1OSCEN=0;
  1326  1842  1283               	bcf	3,5	;RP0=0, select bank0
  1327  1843  1303               	bcf	3,6	;RP1=0, select bank0
  1328  1844  1190               	bcf	16,3	;volatile
  1329  1845                     l3240:
  1330                           
  1331                           ;timer.c: 36:     TMRCS1=0;
  1332  1845  1390               	bcf	16,7	;volatile
  1333  1846                     l3242:
  1334                           
  1335                           ;timer.c: 37:     TMRCS0=0;
  1336  1846  1310               	bcf	16,6	;volatile
  1337  1847                     l3244:
  1338                           
  1339                           ;timer.c: 46:     T1CKPS0=1;
  1340  1847  1610               	bsf	16,4	;volatile
  1341  1848                     l3246:
  1342                           
  1343                           ;timer.c: 47:     T1CKPS1=1;
  1344  1848  1690               	bsf	16,5	;volatile
  1345  1849                     l3248:
  1346                           
  1347                           ;timer.c: 56:     T1SYNC=1;
  1348  1849  1510               	bsf	16,2	;volatile
  1349  184A                     l3250:
  1350                           
  1351                           ;timer.c: 62:     TMR1ON=1;
  1352  184A  1410               	bsf	16,0	;volatile
  1353  184B                     l3252:
  1354                           
  1355                           ;timer.c: 71:     TMR1GE=0;
  1356  184B  1683               	bsf	3,5	;RP0=1, select bank1
  1357  184C  1303               	bcf	3,6	;RP1=0, select bank1
  1358  184D  138F               	bcf	15,7	;volatile
  1359  184E                     l3254:
  1360                           
  1361                           ;timer.c: 75:     TMR1IE=1;
  1362  184E  140C               	bsf	12,0	;volatile
  1363  184F                     l249:
  1364  184F  0008               	return
  1365  1850                     __end_of_TIMER_init_timer1:
  1366                           
  1367                           	psect	text2
  1368  1814                     __ptext2:	
  1369 ;; *************** function _PORT_Select_Mux0 *****************
  1370 ;; Defined at:
  1371 ;;		line 149 in file "port.c"
  1372 ;; Parameters:    Size  Location     Type
  1373 ;;		None
  1374 ;; Auto vars:     Size  Location     Type
  1375 ;;		None
  1376 ;; Return value:  Size  Location     Type
  1377 ;;                  1    wreg      void 
  1378 ;; Registers used:
  1379 ;;		wreg, status,2, status,0, btemp+1
  1380 ;; Tracked objects:
  1381 ;;		On entry : 0/0
  1382 ;;		On exit  : 0/0
  1383 ;;		Unchanged: 0/0
  1384 ;; Data sizes:     COMMON   BANK0   BANK1   BANK3   BANK2
  1385 ;;      Params:         0       0       0       0       0
  1386 ;;      Locals:         0       0       0       0       0
  1387 ;;      Temps:          0       0       0       0       0
  1388 ;;      Totals:         0       0       0       0       0
  1389 ;;Total ram usage:        0 bytes
  1390 ;; Hardware stack levels used:    1
  1391 ;; Hardware stack levels required when called:    1
  1392 ;; This function calls:
  1393 ;;		Nothing
  1394 ;; This function is called by:
  1395 ;;		_main
  1396 ;; This function uses a non-reentrant model
  1397 ;;
  1398                           
  1399                           
  1400                           ;psect for function _PORT_Select_Mux0
  1401  1814                     _PORT_Select_Mux0:
  1402  1814                     l3256:	
  1403                           ;incstack = 0
  1404                           ; Regs used in _PORT_Select_Mux0: [wreg+status,2+status,0+btemp+1]
  1405                           
  1406                           
  1407                           ;port.c: 150:     PORTD |= 0x20;
  1408  1814  1283               	bcf	3,5	;RP0=0, select bank0
  1409  1815  1303               	bcf	3,6	;RP1=0, select bank0
  1410  1816  1688               	bsf	8,5	;volatile
  1411  1817                     l3258:
  1412                           
  1413                           ;port.c: 151:     PORTD &= 0xEF;
  1414  1817  30EF               	movlw	239
  1415  1818  00FF               	movwf	btemp+1
  1416  1819  087F               	movf	btemp+1,w
  1417  181A  0588               	andwf	8,f	;volatile
  1418  181B                     l208:
  1419  181B  0008               	return
  1420  181C                     __end_of_PORT_Select_Mux0:
  1421                           
  1422                           	psect	text3
  1423  1931                     __ptext3:	
  1424 ;; *************** function _PORT_Init *****************
  1425 ;; Defined at:
  1426 ;;		line 44 in file "port.c"
  1427 ;; Parameters:    Size  Location     Type
  1428 ;;		None
  1429 ;; Auto vars:     Size  Location     Type
  1430 ;;		None
  1431 ;; Return value:  Size  Location     Type
  1432 ;;                  1    wreg      void 
  1433 ;; Registers used:
  1434 ;;		wreg, status,2, status,0, pclath, cstack
  1435 ;; Tracked objects:
  1436 ;;		On entry : 0/0
  1437 ;;		On exit  : 0/0
  1438 ;;		Unchanged: 0/0
  1439 ;; Data sizes:     COMMON   BANK0   BANK1   BANK3   BANK2
  1440 ;;      Params:         0       0       0       0       0
  1441 ;;      Locals:         0       0       0       0       0
  1442 ;;      Temps:          1       0       0       0       0
  1443 ;;      Totals:         1       0       0       0       0
  1444 ;;Total ram usage:        1 bytes
  1445 ;; Hardware stack levels used:    1
  1446 ;; Hardware stack levels required when called:    2
  1447 ;; This function calls:
  1448 ;;		_PORT_Init_Serial
  1449 ;; This function is called by:
  1450 ;;		_main
  1451 ;; This function uses a non-reentrant model
  1452 ;;
  1453                           
  1454                           
  1455                           ;psect for function _PORT_Init
  1456  1931                     _PORT_Init:
  1457  1931                     l3204:	
  1458                           ;incstack = 0
  1459                           ; Regs used in _PORT_Init: [wreg+status,2+status,0+pclath+cstack]
  1460                           
  1461                           
  1462                           ;port.c: 47:     WPUB=0;
  1463  1931  1683               	bsf	3,5	;RP0=1, select bank1
  1464  1932  1303               	bcf	3,6	;RP1=0, select bank1
  1465  1933  0195               	clrf	21	;volatile
  1466                           
  1467                           ;port.c: 48:     ANSELB = 0;
  1468  1934  1683               	bsf	3,5	;RP0=1, select bank3
  1469  1935  1703               	bsf	3,6	;RP1=1, select bank3
  1470  1936  0186               	clrf	6	;volatile
  1471  1937                     l3206:
  1472                           
  1473                           ;port.c: 51:     TRISB = 0xFE;
  1474  1937  30FE               	movlw	254
  1475  1938  1683               	bsf	3,5	;RP0=1, select bank1
  1476  1939  1303               	bcf	3,6	;RP1=0, select bank1
  1477  193A  0086               	movwf	6	;volatile
  1478  193B                     l3208:
  1479                           
  1480                           ;port.c: 54:     OSCCON = 0x30;
  1481  193B  3030               	movlw	48
  1482  193C  0090               	movwf	16	;volatile
  1483  193D                     l3210:	
  1484                           ;port.c: 55:     for( ; (OSCCON & 0xC) != 0xC ; );
  1485                           
  1486  193D  300C               	movlw	12
  1487  193E  0510               	andwf	16,w	;volatile
  1488  193F  00F3               	movwf	??_PORT_Init
  1489  1940  300C               	movlw	12
  1490  1941  0673               	xorwf	??_PORT_Init,w
  1491  1942  1D03               	btfss	3,2
  1492  1943  2945               	goto	u5301
  1493  1944  2946               	goto	u5300
  1494  1945                     u5301:
  1495  1945  293D               	goto	l3210
  1496  1946                     u5300:
  1497  1946                     l3212:
  1498                           
  1499                           ;port.c: 59:     ANSELD = 0x00;
  1500  1946  1683               	bsf	3,5	;RP0=1, select bank3
  1501  1947  1703               	bsf	3,6	;RP1=1, select bank3
  1502  1948  0188               	clrf	8	;volatile
  1503  1949                     l3214:
  1504                           
  1505                           ;port.c: 62:     TRISA = 0xFF;
  1506  1949  30FF               	movlw	255
  1507  194A  1683               	bsf	3,5	;RP0=1, select bank1
  1508  194B  1303               	bcf	3,6	;RP1=0, select bank1
  1509  194C  0085               	movwf	5	;volatile
  1510  194D                     l3216:
  1511                           
  1512                           ;port.c: 64:     TRISD = 0xC0;
  1513  194D  30C0               	movlw	192
  1514  194E  0088               	movwf	8	;volatile
  1515  194F                     l3218:
  1516                           
  1517                           ;port.c: 66:     PORT_Init_Serial();
  1518  194F  160A  158A  2106  160A  158A  	fcall	_PORT_Init_Serial
  1519  1954                     l3220:
  1520                           
  1521                           ;port.c: 68:     ANSELA = 0x01;
  1522  1954  3001               	movlw	1
  1523  1955  1683               	bsf	3,5	;RP0=1, select bank3
  1524  1956  1703               	bsf	3,6	;RP1=1, select bank3
  1525  1957  0085               	movwf	5	;volatile
  1526  1958                     l3222:
  1527                           
  1528                           ;port.c: 70:     ADCON0=0x01;
  1529  1958  3001               	movlw	1
  1530  1959  1283               	bcf	3,5	;RP0=0, select bank0
  1531  195A  1303               	bcf	3,6	;RP1=0, select bank0
  1532  195B  009F               	movwf	31	;volatile
  1533  195C                     l3224:
  1534                           
  1535                           ;port.c: 71:     ADCON1=0x60;
  1536  195C  3060               	movlw	96
  1537  195D  1683               	bsf	3,5	;RP0=1, select bank1
  1538  195E  1303               	bcf	3,6	;RP1=0, select bank1
  1539  195F  009F               	movwf	31	;volatile
  1540  1960                     l3226:
  1541                           
  1542                           ;port.c: 73:     FVRCON=0;
  1543  1960  019D               	clrf	29	;volatile
  1544  1961                     l3228:
  1545                           
  1546                           ;port.c: 74:     DACCON0=0x0;
  1547  1961  1283               	bcf	3,5	;RP0=0, select bank2
  1548  1962  1703               	bsf	3,6	;RP1=1, select bank2
  1549  1963  0193               	clrf	19	;volatile
  1550  1964                     l3230:
  1551                           
  1552                           ;port.c: 75:     DACCON0=0x60;
  1553  1964  3060               	movlw	96
  1554  1965  0093               	movwf	19	;volatile
  1555  1966                     l3232:
  1556                           
  1557                           ;port.c: 76:     DACCON0|=0x80;
  1558  1966  1793               	bsf	19,7	;volatile
  1559  1967                     l3234:
  1560                           
  1561                           ;port.c: 78:     DACCON1=0x18;
  1562  1967  3018               	movlw	24
  1563  1968  0094               	movwf	20	;volatile
  1564  1969                     l177:
  1565  1969  0008               	return
  1566  196A                     __end_of_PORT_Init:
  1567                           
  1568                           	psect	text4
  1569  1906                     __ptext4:	
  1570 ;; *************** function _PORT_Init_Serial *****************
  1571 ;; Defined at:
  1572 ;;		line 15 in file "port.c"
  1573 ;; Parameters:    Size  Location     Type
  1574 ;;		None
  1575 ;; Auto vars:     Size  Location     Type
  1576 ;;		None
  1577 ;; Return value:  Size  Location     Type
  1578 ;;                  1    wreg      void 
  1579 ;; Registers used:
  1580 ;;		wreg, status,2
  1581 ;; Tracked objects:
  1582 ;;		On entry : 0/0
  1583 ;;		On exit  : 0/0
  1584 ;;		Unchanged: 0/0
  1585 ;; Data sizes:     COMMON   BANK0   BANK1   BANK3   BANK2
  1586 ;;      Params:         0       0       0       0       0
  1587 ;;      Locals:         0       0       0       0       0
  1588 ;;      Temps:          0       0       0       0       0
  1589 ;;      Totals:         0       0       0       0       0
  1590 ;;Total ram usage:        0 bytes
  1591 ;; Hardware stack levels used:    1
  1592 ;; Hardware stack levels required when called:    1
  1593 ;; This function calls:
  1594 ;;		Nothing
  1595 ;; This function is called by:
  1596 ;;		_PORT_Init
  1597 ;; This function uses a non-reentrant model
  1598 ;;
  1599                           
  1600                           
  1601                           ;psect for function _PORT_Init_Serial
  1602  1906                     _PORT_Init_Serial:
  1603  1906                     l3170:	
  1604                           ;incstack = 0
  1605                           ; Regs used in _PORT_Init_Serial: [wreg+status,2]
  1606                           
  1607                           
  1608                           ;port.c: 18:     TRISC = 0xFC;
  1609  1906  30FC               	movlw	252
  1610  1907  1683               	bsf	3,5	;RP0=1, select bank1
  1611  1908  1303               	bcf	3,6	;RP1=0, select bank1
  1612  1909  0087               	movwf	7	;volatile
  1613                           
  1614                           ;port.c: 21:     SPBRG = 25;
  1615  190A  3019               	movlw	25
  1616  190B  0099               	movwf	25	;volatile
  1617  190C                     l3172:
  1618                           
  1619                           ;port.c: 25:     TXSTA = TXSTA & 0xDF;
  1620  190C  0818               	movf	24,w	;volatile
  1621  190D  39DF               	andlw	223
  1622  190E  0098               	movwf	24	;volatile
  1623  190F                     l3174:
  1624                           
  1625                           ;port.c: 26:     TXSTA = TXSTA | 1;
  1626  190F  0818               	movf	24,w	;volatile
  1627  1910  3801               	iorlw	1
  1628  1911  0098               	movwf	24	;volatile
  1629  1912                     l3176:
  1630                           
  1631                           ;port.c: 27:     TXSTA = TXSTA & 0xFB;
  1632  1912  0818               	movf	24,w	;volatile
  1633  1913  39FB               	andlw	251
  1634  1914  0098               	movwf	24	;volatile
  1635  1915                     l3178:
  1636                           
  1637                           ;port.c: 30:     RCSTA = RCSTA | 0x20;
  1638  1915  1283               	bcf	3,5	;RP0=0, select bank0
  1639  1916  1303               	bcf	3,6	;RP1=0, select bank0
  1640  1917  0818               	movf	24,w	;volatile
  1641  1918  3820               	iorlw	32
  1642  1919  0098               	movwf	24	;volatile
  1643  191A                     l3180:
  1644                           
  1645                           ;port.c: 31:     RCSTA = RCSTA & 0xDF;
  1646  191A  0818               	movf	24,w	;volatile
  1647  191B  39DF               	andlw	223
  1648  191C  0098               	movwf	24	;volatile
  1649  191D                     l3182:
  1650                           
  1651                           ;port.c: 32:     RCSTA = RCSTA | 0x04;
  1652  191D  0818               	movf	24,w	;volatile
  1653  191E  3804               	iorlw	4
  1654  191F  0098               	movwf	24	;volatile
  1655  1920                     l3184:
  1656                           
  1657                           ;port.c: 33:     RCSTA = RCSTA | 0x02;
  1658  1920  0818               	movf	24,w	;volatile
  1659  1921  3802               	iorlw	2
  1660  1922  0098               	movwf	24	;volatile
  1661  1923                     l3186:
  1662                           
  1663                           ;port.c: 35:     TXSTA = TXSTA & 0xEF;
  1664  1923  1683               	bsf	3,5	;RP0=1, select bank1
  1665  1924  1303               	bcf	3,6	;RP1=0, select bank1
  1666  1925  0818               	movf	24,w	;volatile
  1667  1926  39EF               	andlw	239
  1668  1927  0098               	movwf	24	;volatile
  1669  1928                     l3188:
  1670                           
  1671                           ;port.c: 36:     TXSTA = TXSTA | 0x20;
  1672  1928  0818               	movf	24,w	;volatile
  1673  1929  3820               	iorlw	32
  1674  192A  0098               	movwf	24	;volatile
  1675  192B                     l3190:
  1676                           
  1677                           ;port.c: 37:     RCSTA = RCSTA | 0x80;
  1678  192B  1283               	bcf	3,5	;RP0=0, select bank0
  1679  192C  1303               	bcf	3,6	;RP1=0, select bank0
  1680  192D  0818               	movf	24,w	;volatile
  1681  192E  3880               	iorlw	128
  1682  192F  0098               	movwf	24	;volatile
  1683  1930                     l171:
  1684  1930  0008               	return
  1685  1931                     __end_of_PORT_Init_Serial:
  1686                           
  1687                           	psect	text5
  1688  181C                     __ptext5:	
  1689 ;; *************** function _PORT_Blink_LED *****************
  1690 ;; Defined at:
  1691 ;;		line 84 in file "port.c"
  1692 ;; Parameters:    Size  Location     Type
  1693 ;;		None
  1694 ;; Auto vars:     Size  Location     Type
  1695 ;;		None
  1696 ;; Return value:  Size  Location     Type
  1697 ;;                  1    wreg      void 
  1698 ;; Registers used:
  1699 ;;		status,0
  1700 ;; Tracked objects:
  1701 ;;		On entry : 0/0
  1702 ;;		On exit  : 0/0
  1703 ;;		Unchanged: 0/0
  1704 ;; Data sizes:     COMMON   BANK0   BANK1   BANK3   BANK2
  1705 ;;      Params:         0       0       0       0       0
  1706 ;;      Locals:         0       0       0       0       0
  1707 ;;      Temps:          0       0       0       0       0
  1708 ;;      Totals:         0       0       0       0       0
  1709 ;;Total ram usage:        0 bytes
  1710 ;; Hardware stack levels used:    1
  1711 ;; Hardware stack levels required when called:    1
  1712 ;; This function calls:
  1713 ;;		Nothing
  1714 ;; This function is called by:
  1715 ;;		_main
  1716 ;; This function uses a non-reentrant model
  1717 ;;
  1718                           
  1719                           
  1720                           ;psect for function _PORT_Blink_LED
  1721  181C                     _PORT_Blink_LED:
  1722  181C                     l3260:	
  1723                           ;incstack = 0
  1724                           ; Regs used in _PORT_Blink_LED: [status,0]
  1725                           
  1726                           
  1727                           ;port.c: 85:     PORTBbits.RB0 = !PORTBbits.RB0;
  1728  181C  1003               	clrc
  1729  181D  1283               	bcf	3,5	;RP0=0, select bank0
  1730  181E  1303               	bcf	3,6	;RP1=0, select bank0
  1731  181F  1C06               	btfss	6,0	;volatile
  1732  1820  1403               	setc
  1733  1821  1803               	btfsc	3,0
  1734  1822  2824               	goto	u5311
  1735  1823  2828               	goto	u5310
  1736  1824                     u5311:
  1737  1824  1283               	bcf	3,5	;RP0=0, select bank0
  1738  1825  1303               	bcf	3,6	;RP1=0, select bank0
  1739  1826  1406               	bsf	6,0	;volatile
  1740  1827  282B               	goto	u5324
  1741  1828                     u5310:
  1742  1828  1283               	bcf	3,5	;RP0=0, select bank0
  1743  1829  1303               	bcf	3,6	;RP1=0, select bank0
  1744  182A  1006               	bcf	6,0	;volatile
  1745  182B                     u5324:
  1746  182B                     l180:
  1747  182B  0008               	return
  1748  182C                     __end_of_PORT_Blink_LED:
  1749                           
  1750                           	psect	text6
  1751  0029                     __ptext6:	
  1752 ;; *************** function _Get_Better_Newton_Value *****************
  1753 ;; Defined at:
  1754 ;;		line 59 in file "main.c"
  1755 ;; Parameters:    Size  Location     Type
  1756 ;;  channel_sens    1    wreg     unsigned char 
  1757 ;; Auto vars:     Size  Location     Type
  1758 ;;  channel_sens    1   66[BANK1 ] unsigned char 
  1759 ;;  F3              4   75[BANK1 ] float 
  1760 ;;  F2              4   71[BANK1 ] float 
  1761 ;;  F1              4   67[BANK1 ] float 
  1762 ;; Return value:  Size  Location     Type
  1763 ;;                  4   61[BANK1 ] float 
  1764 ;; Registers used:
  1765 ;;		wreg, fsr0l, fsr0h, status,2, status,0, btemp+1, pclath, cstack
  1766 ;; Tracked objects:
  1767 ;;		On entry : 0/0
  1768 ;;		On exit  : 0/0
  1769 ;;		Unchanged: 0/0
  1770 ;; Data sizes:     COMMON   BANK0   BANK1   BANK3   BANK2
  1771 ;;      Params:         0       0       5       0       0
  1772 ;;      Locals:         0       0      13       0       0
  1773 ;;      Temps:          0       0       0       0       0
  1774 ;;      Totals:         0       0      18       0       0
  1775 ;;Total ram usage:       18 bytes
  1776 ;; Hardware stack levels used:    1
  1777 ;; Hardware stack levels required when called:    5
  1778 ;; This function calls:
  1779 ;;		_Get_Newton
  1780 ;;		___fleq
  1781 ;;		___flge
  1782 ;; This function is called by:
  1783 ;;		_main
  1784 ;; This function uses a non-reentrant model
  1785 ;;
  1786                           
  1787                           
  1788                           ;psect for function _Get_Better_Newton_Value
  1789  0029                     _Get_Better_Newton_Value:
  1790                           
  1791                           ;incstack = 0
  1792                           ; Regs used in _Get_Better_Newton_Value: [wreg-fsr0h+status,2+status,0+btemp+1+pclath+cs
      +                          tack]
  1793                           ;Get_Better_Newton_Value@channel_sensor stored from wreg
  1794  0029  1683               	bsf	3,5	;RP0=1, select bank1
  1795  002A  1303               	bcf	3,6	;RP1=0, select bank1
  1796  002B  00E2               	movwf	Get_Better_Newton_Value@channel_sensor^(0+128)
  1797  002C                     l3262:
  1798                           
  1799                           ;main.c: 61:     float F1,F2,F3;;main.c: 63:     F1 = Get_Newton(0,0,channel_sensor);
  1800  002C  01C7               	clrf	Get_Newton@INTER1^(0+128)
  1801  002D  0862               	movf	Get_Better_Newton_Value@channel_sensor^(0+128),w
  1802  002E  00FF               	movwf	btemp+1
  1803  002F  087F               	movf	btemp+1,w
  1804  0030  00C8               	movwf	Get_Newton@sensor_Channel^(0+128)
  1805  0031  3000               	movlw	0
  1806  0032  160A  118A  218D  120A  118A  	fcall	_Get_Newton
  1807  0037  1683               	bsf	3,5	;RP0=1, select bank1
  1808  0038  1303               	bcf	3,6	;RP1=0, select bank1
  1809  0039  084A               	movf	(?_Get_Newton+3)^(0+128),w
  1810  003A  00E6               	movwf	(Get_Better_Newton_Value@F1+3)^(0+128)
  1811  003B  0849               	movf	(?_Get_Newton+2)^(0+128),w
  1812  003C  00E5               	movwf	(Get_Better_Newton_Value@F1+2)^(0+128)
  1813  003D  0848               	movf	(?_Get_Newton+1)^(0+128),w
  1814  003E  00E4               	movwf	(Get_Better_Newton_Value@F1+1)^(0+128)
  1815  003F  0847               	movf	?_Get_Newton^(0+128),w
  1816  0040  00E3               	movwf	Get_Better_Newton_Value@F1^(0+128)
  1817                           
  1818                           ;main.c: 64:     F2 = Get_Newton(0,1,channel_sensor);
  1819  0041  01C7               	clrf	Get_Newton@INTER1^(0+128)
  1820  0042  0AC7               	incf	Get_Newton@INTER1^(0+128),f
  1821  0043  0862               	movf	Get_Better_Newton_Value@channel_sensor^(0+128),w
  1822  0044  00FF               	movwf	btemp+1
  1823  0045  087F               	movf	btemp+1,w
  1824  0046  00C8               	movwf	Get_Newton@sensor_Channel^(0+128)
  1825  0047  3000               	movlw	0
  1826  0048  160A  118A  218D  120A  118A  	fcall	_Get_Newton
  1827  004D  1683               	bsf	3,5	;RP0=1, select bank1
  1828  004E  1303               	bcf	3,6	;RP1=0, select bank1
  1829  004F  084A               	movf	(?_Get_Newton+3)^(0+128),w
  1830  0050  00EA               	movwf	(Get_Better_Newton_Value@F2+3)^(0+128)
  1831  0051  0849               	movf	(?_Get_Newton+2)^(0+128),w
  1832  0052  00E9               	movwf	(Get_Better_Newton_Value@F2+2)^(0+128)
  1833  0053  0848               	movf	(?_Get_Newton+1)^(0+128),w
  1834  0054  00E8               	movwf	(Get_Better_Newton_Value@F2+1)^(0+128)
  1835  0055  0847               	movf	?_Get_Newton^(0+128),w
  1836  0056  00E7               	movwf	Get_Better_Newton_Value@F2^(0+128)
  1837                           
  1838                           ;main.c: 65:     F3 = Get_Newton(1,0,channel_sensor);
  1839  0057  01C7               	clrf	Get_Newton@INTER1^(0+128)
  1840  0058  0862               	movf	Get_Better_Newton_Value@channel_sensor^(0+128),w
  1841  0059  00FF               	movwf	btemp+1
  1842  005A  087F               	movf	btemp+1,w
  1843  005B  00C8               	movwf	Get_Newton@sensor_Channel^(0+128)
  1844  005C  3001               	movlw	1
  1845  005D  160A  118A  218D  120A  118A  	fcall	_Get_Newton
  1846  0062  1683               	bsf	3,5	;RP0=1, select bank1
  1847  0063  1303               	bcf	3,6	;RP1=0, select bank1
  1848  0064  084A               	movf	(?_Get_Newton+3)^(0+128),w
  1849  0065  00EE               	movwf	(Get_Better_Newton_Value@F3+3)^(0+128)
  1850  0066  0849               	movf	(?_Get_Newton+2)^(0+128),w
  1851  0067  00ED               	movwf	(Get_Better_Newton_Value@F3+2)^(0+128)
  1852  0068  0848               	movf	(?_Get_Newton+1)^(0+128),w
  1853  0069  00EC               	movwf	(Get_Better_Newton_Value@F3+1)^(0+128)
  1854  006A  0847               	movf	?_Get_Newton^(0+128),w
  1855  006B  00EB               	movwf	Get_Better_Newton_Value@F3^(0+128)
  1856  006C                     l3264:
  1857                           
  1858                           ;main.c: 67:     if (F1 == 70.0)
  1859  006C  0866               	movf	(Get_Better_Newton_Value@F1+3)^(0+128),w
  1860  006D  00F6               	movwf	___fleq@ff1+3
  1861  006E  0865               	movf	(Get_Better_Newton_Value@F1+2)^(0+128),w
  1862  006F  00F5               	movwf	___fleq@ff1+2
  1863  0070  0864               	movf	(Get_Better_Newton_Value@F1+1)^(0+128),w
  1864  0071  00F4               	movwf	___fleq@ff1+1
  1865  0072  0863               	movf	Get_Better_Newton_Value@F1^(0+128),w
  1866  0073  00F3               	movwf	___fleq@ff1
  1867  0074  3042               	movlw	66
  1868  0075  00FA               	movwf	___fleq@ff2+3
  1869  0076  308C               	movlw	140
  1870  0077  00F9               	movwf	___fleq@ff2+2
  1871  0078  3000               	movlw	0
  1872  0079  00F8               	movwf	___fleq@ff2+1
  1873  007A  3000               	movlw	0
  1874  007B  00F7               	movwf	___fleq@ff2
  1875  007C  160A  158A  21ED  120A  118A  	fcall	___fleq
  1876  0081  1C03               	btfss	3,0
  1877  0082  2884               	goto	u5331
  1878  0083  2885               	goto	u5330
  1879  0084                     u5331:
  1880  0084  288F               	goto	l3268
  1881  0085                     u5330:
  1882  0085                     l3266:
  1883                           
  1884                           ;main.c: 68:         F1=0;
  1885  0085  3000               	movlw	0
  1886  0086  1683               	bsf	3,5	;RP0=1, select bank1
  1887  0087  1303               	bcf	3,6	;RP1=0, select bank1
  1888  0088  00E6               	movwf	(Get_Better_Newton_Value@F1+3)^(0+128)
  1889  0089  3000               	movlw	0
  1890  008A  00E5               	movwf	(Get_Better_Newton_Value@F1+2)^(0+128)
  1891  008B  3000               	movlw	0
  1892  008C  00E4               	movwf	(Get_Better_Newton_Value@F1+1)^(0+128)
  1893  008D  3000               	movlw	0
  1894  008E  00E3               	movwf	Get_Better_Newton_Value@F1^(0+128)
  1895  008F                     l3268:
  1896                           
  1897                           ;main.c: 69:     if (F2 == 70.0)
  1898  008F  1683               	bsf	3,5	;RP0=1, select bank1
  1899  0090  1303               	bcf	3,6	;RP1=0, select bank1
  1900  0091  086A               	movf	(Get_Better_Newton_Value@F2+3)^(0+128),w
  1901  0092  00F6               	movwf	___fleq@ff1+3
  1902  0093  0869               	movf	(Get_Better_Newton_Value@F2+2)^(0+128),w
  1903  0094  00F5               	movwf	___fleq@ff1+2
  1904  0095  0868               	movf	(Get_Better_Newton_Value@F2+1)^(0+128),w
  1905  0096  00F4               	movwf	___fleq@ff1+1
  1906  0097  0867               	movf	Get_Better_Newton_Value@F2^(0+128),w
  1907  0098  00F3               	movwf	___fleq@ff1
  1908  0099  3042               	movlw	66
  1909  009A  00FA               	movwf	___fleq@ff2+3
  1910  009B  308C               	movlw	140
  1911  009C  00F9               	movwf	___fleq@ff2+2
  1912  009D  3000               	movlw	0
  1913  009E  00F8               	movwf	___fleq@ff2+1
  1914  009F  3000               	movlw	0
  1915  00A0  00F7               	movwf	___fleq@ff2
  1916  00A1  160A  158A  21ED  120A  118A  	fcall	___fleq
  1917  00A6  1C03               	btfss	3,0
  1918  00A7  28A9               	goto	u5341
  1919  00A8  28AA               	goto	u5340
  1920  00A9                     u5341:
  1921  00A9  28B4               	goto	l3272
  1922  00AA                     u5340:
  1923  00AA                     l3270:
  1924                           
  1925                           ;main.c: 70:         F2=0;
  1926  00AA  3000               	movlw	0
  1927  00AB  1683               	bsf	3,5	;RP0=1, select bank1
  1928  00AC  1303               	bcf	3,6	;RP1=0, select bank1
  1929  00AD  00EA               	movwf	(Get_Better_Newton_Value@F2+3)^(0+128)
  1930  00AE  3000               	movlw	0
  1931  00AF  00E9               	movwf	(Get_Better_Newton_Value@F2+2)^(0+128)
  1932  00B0  3000               	movlw	0
  1933  00B1  00E8               	movwf	(Get_Better_Newton_Value@F2+1)^(0+128)
  1934  00B2  3000               	movlw	0
  1935  00B3  00E7               	movwf	Get_Better_Newton_Value@F2^(0+128)
  1936  00B4                     l3272:
  1937                           
  1938                           ;main.c: 71:     if (F3 == 70.0)
  1939  00B4  1683               	bsf	3,5	;RP0=1, select bank1
  1940  00B5  1303               	bcf	3,6	;RP1=0, select bank1
  1941  00B6  086E               	movf	(Get_Better_Newton_Value@F3+3)^(0+128),w
  1942  00B7  00F6               	movwf	___fleq@ff1+3
  1943  00B8  086D               	movf	(Get_Better_Newton_Value@F3+2)^(0+128),w
  1944  00B9  00F5               	movwf	___fleq@ff1+2
  1945  00BA  086C               	movf	(Get_Better_Newton_Value@F3+1)^(0+128),w
  1946  00BB  00F4               	movwf	___fleq@ff1+1
  1947  00BC  086B               	movf	Get_Better_Newton_Value@F3^(0+128),w
  1948  00BD  00F3               	movwf	___fleq@ff1
  1949  00BE  3042               	movlw	66
  1950  00BF  00FA               	movwf	___fleq@ff2+3
  1951  00C0  308C               	movlw	140
  1952  00C1  00F9               	movwf	___fleq@ff2+2
  1953  00C2  3000               	movlw	0
  1954  00C3  00F8               	movwf	___fleq@ff2+1
  1955  00C4  3000               	movlw	0
  1956  00C5  00F7               	movwf	___fleq@ff2
  1957  00C6  160A  158A  21ED  120A  118A  	fcall	___fleq
  1958  00CB  1C03               	btfss	3,0
  1959  00CC  28CE               	goto	u5351
  1960  00CD  28CF               	goto	u5350
  1961  00CE                     u5351:
  1962  00CE  28D9               	goto	l3276
  1963  00CF                     u5350:
  1964  00CF                     l3274:
  1965                           
  1966                           ;main.c: 72:         F3=0;
  1967  00CF  3000               	movlw	0
  1968  00D0  1683               	bsf	3,5	;RP0=1, select bank1
  1969  00D1  1303               	bcf	3,6	;RP1=0, select bank1
  1970  00D2  00EE               	movwf	(Get_Better_Newton_Value@F3+3)^(0+128)
  1971  00D3  3000               	movlw	0
  1972  00D4  00ED               	movwf	(Get_Better_Newton_Value@F3+2)^(0+128)
  1973  00D5  3000               	movlw	0
  1974  00D6  00EC               	movwf	(Get_Better_Newton_Value@F3+1)^(0+128)
  1975  00D7  3000               	movlw	0
  1976  00D8  00EB               	movwf	Get_Better_Newton_Value@F3^(0+128)
  1977  00D9                     l3276:
  1978                           
  1979                           ;main.c: 87:     if ((F1 > F2) && (F1 > F3))
  1980  00D9  1683               	bsf	3,5	;RP0=1, select bank1
  1981  00DA  1303               	bcf	3,6	;RP1=0, select bank1
  1982  00DB  086A               	movf	(Get_Better_Newton_Value@F2+3)^(0+128),w
  1983  00DC  00F6               	movwf	___flge@ff1+3
  1984  00DD  0869               	movf	(Get_Better_Newton_Value@F2+2)^(0+128),w
  1985  00DE  00F5               	movwf	___flge@ff1+2
  1986  00DF  0868               	movf	(Get_Better_Newton_Value@F2+1)^(0+128),w
  1987  00E0  00F4               	movwf	___flge@ff1+1
  1988  00E1  0867               	movf	Get_Better_Newton_Value@F2^(0+128),w
  1989  00E2  00F3               	movwf	___flge@ff1
  1990  00E3  0866               	movf	(Get_Better_Newton_Value@F1+3)^(0+128),w
  1991  00E4  00FA               	movwf	___flge@ff2+3
  1992  00E5  0865               	movf	(Get_Better_Newton_Value@F1+2)^(0+128),w
  1993  00E6  00F9               	movwf	___flge@ff2+2
  1994  00E7  0864               	movf	(Get_Better_Newton_Value@F1+1)^(0+128),w
  1995  00E8  00F8               	movwf	___flge@ff2+1
  1996  00E9  0863               	movf	Get_Better_Newton_Value@F1^(0+128),w
  1997  00EA  00F7               	movwf	___flge@ff2
  1998  00EB  160A  158A  25A7  120A  118A  	fcall	___flge
  1999  00F0  1803               	btfsc	3,0
  2000  00F1  28F3               	goto	u5361
  2001  00F2  28F4               	goto	u5360
  2002  00F3                     u5361:
  2003  00F3  291A               	goto	l3286
  2004  00F4                     u5360:
  2005  00F4                     l3278:
  2006  00F4  1683               	bsf	3,5	;RP0=1, select bank1
  2007  00F5  1303               	bcf	3,6	;RP1=0, select bank1
  2008  00F6  086E               	movf	(Get_Better_Newton_Value@F3+3)^(0+128),w
  2009  00F7  00F6               	movwf	___flge@ff1+3
  2010  00F8  086D               	movf	(Get_Better_Newton_Value@F3+2)^(0+128),w
  2011  00F9  00F5               	movwf	___flge@ff1+2
  2012  00FA  086C               	movf	(Get_Better_Newton_Value@F3+1)^(0+128),w
  2013  00FB  00F4               	movwf	___flge@ff1+1
  2014  00FC  086B               	movf	Get_Better_Newton_Value@F3^(0+128),w
  2015  00FD  00F3               	movwf	___flge@ff1
  2016  00FE  0866               	movf	(Get_Better_Newton_Value@F1+3)^(0+128),w
  2017  00FF  00FA               	movwf	___flge@ff2+3
  2018  0100  0865               	movf	(Get_Better_Newton_Value@F1+2)^(0+128),w
  2019  0101  00F9               	movwf	___flge@ff2+2
  2020  0102  0864               	movf	(Get_Better_Newton_Value@F1+1)^(0+128),w
  2021  0103  00F8               	movwf	___flge@ff2+1
  2022  0104  0863               	movf	Get_Better_Newton_Value@F1^(0+128),w
  2023  0105  00F7               	movwf	___flge@ff2
  2024  0106  160A  158A  25A7  120A  118A  	fcall	___flge
  2025  010B  1803               	btfsc	3,0
  2026  010C  290E               	goto	u5371
  2027  010D  290F               	goto	u5370
  2028  010E                     u5371:
  2029  010E  291A               	goto	l3286
  2030  010F                     u5370:
  2031  010F                     l3280:
  2032                           
  2033                           ;main.c: 88:         return F1;
  2034  010F  1683               	bsf	3,5	;RP0=1, select bank1
  2035  0110  1303               	bcf	3,6	;RP1=0, select bank1
  2036  0111  0866               	movf	(Get_Better_Newton_Value@F1+3)^(0+128),w
  2037  0112  00E0               	movwf	(?_Get_Better_Newton_Value+3)^(0+128)
  2038  0113  0865               	movf	(Get_Better_Newton_Value@F1+2)^(0+128),w
  2039  0114  00DF               	movwf	(?_Get_Better_Newton_Value+2)^(0+128)
  2040  0115  0864               	movf	(Get_Better_Newton_Value@F1+1)^(0+128),w
  2041  0116  00DE               	movwf	(?_Get_Better_Newton_Value+1)^(0+128)
  2042  0117  0863               	movf	Get_Better_Newton_Value@F1^(0+128),w
  2043  0118  00DD               	movwf	?_Get_Better_Newton_Value^(0+128)
  2044  0119  299B               	goto	l40
  2045  011A                     l3286:
  2046  011A  1683               	bsf	3,5	;RP0=1, select bank1
  2047  011B  1303               	bcf	3,6	;RP1=0, select bank1
  2048  011C  086E               	movf	(Get_Better_Newton_Value@F3+3)^(0+128),w
  2049  011D  00F6               	movwf	___flge@ff1+3
  2050  011E  086D               	movf	(Get_Better_Newton_Value@F3+2)^(0+128),w
  2051  011F  00F5               	movwf	___flge@ff1+2
  2052  0120  086C               	movf	(Get_Better_Newton_Value@F3+1)^(0+128),w
  2053  0121  00F4               	movwf	___flge@ff1+1
  2054  0122  086B               	movf	Get_Better_Newton_Value@F3^(0+128),w
  2055  0123  00F3               	movwf	___flge@ff1
  2056  0124  086A               	movf	(Get_Better_Newton_Value@F2+3)^(0+128),w
  2057  0125  00FA               	movwf	___flge@ff2+3
  2058  0126  0869               	movf	(Get_Better_Newton_Value@F2+2)^(0+128),w
  2059  0127  00F9               	movwf	___flge@ff2+2
  2060  0128  0868               	movf	(Get_Better_Newton_Value@F2+1)^(0+128),w
  2061  0129  00F8               	movwf	___flge@ff2+1
  2062  012A  0867               	movf	Get_Better_Newton_Value@F2^(0+128),w
  2063  012B  00F7               	movwf	___flge@ff2
  2064  012C  160A  158A  25A7  120A  118A  	fcall	___flge
  2065  0131  1803               	btfsc	3,0
  2066  0132  2934               	goto	u5381
  2067  0133  2935               	goto	u5380
  2068  0134                     u5381:
  2069  0134  295B               	goto	l3296
  2070  0135                     u5380:
  2071  0135                     l3288:
  2072  0135  1683               	bsf	3,5	;RP0=1, select bank1
  2073  0136  1303               	bcf	3,6	;RP1=0, select bank1
  2074  0137  0866               	movf	(Get_Better_Newton_Value@F1+3)^(0+128),w
  2075  0138  00F6               	movwf	___flge@ff1+3
  2076  0139  0865               	movf	(Get_Better_Newton_Value@F1+2)^(0+128),w
  2077  013A  00F5               	movwf	___flge@ff1+2
  2078  013B  0864               	movf	(Get_Better_Newton_Value@F1+1)^(0+128),w
  2079  013C  00F4               	movwf	___flge@ff1+1
  2080  013D  0863               	movf	Get_Better_Newton_Value@F1^(0+128),w
  2081  013E  00F3               	movwf	___flge@ff1
  2082  013F  086A               	movf	(Get_Better_Newton_Value@F2+3)^(0+128),w
  2083  0140  00FA               	movwf	___flge@ff2+3
  2084  0141  0869               	movf	(Get_Better_Newton_Value@F2+2)^(0+128),w
  2085  0142  00F9               	movwf	___flge@ff2+2
  2086  0143  0868               	movf	(Get_Better_Newton_Value@F2+1)^(0+128),w
  2087  0144  00F8               	movwf	___flge@ff2+1
  2088  0145  0867               	movf	Get_Better_Newton_Value@F2^(0+128),w
  2089  0146  00F7               	movwf	___flge@ff2
  2090  0147  160A  158A  25A7  120A  118A  	fcall	___flge
  2091  014C  1803               	btfsc	3,0
  2092  014D  294F               	goto	u5391
  2093  014E  2950               	goto	u5390
  2094  014F                     u5391:
  2095  014F  295B               	goto	l3296
  2096  0150                     u5390:
  2097  0150                     l3290:
  2098                           
  2099                           ;main.c: 90:         return F2;
  2100  0150  1683               	bsf	3,5	;RP0=1, select bank1
  2101  0151  1303               	bcf	3,6	;RP1=0, select bank1
  2102  0152  086A               	movf	(Get_Better_Newton_Value@F2+3)^(0+128),w
  2103  0153  00E0               	movwf	(?_Get_Better_Newton_Value+3)^(0+128)
  2104  0154  0869               	movf	(Get_Better_Newton_Value@F2+2)^(0+128),w
  2105  0155  00DF               	movwf	(?_Get_Better_Newton_Value+2)^(0+128)
  2106  0156  0868               	movf	(Get_Better_Newton_Value@F2+1)^(0+128),w
  2107  0157  00DE               	movwf	(?_Get_Better_Newton_Value+1)^(0+128)
  2108  0158  0867               	movf	Get_Better_Newton_Value@F2^(0+128),w
  2109  0159  00DD               	movwf	?_Get_Better_Newton_Value^(0+128)
  2110  015A  299B               	goto	l40
  2111  015B                     l3296:
  2112  015B  1683               	bsf	3,5	;RP0=1, select bank1
  2113  015C  1303               	bcf	3,6	;RP1=0, select bank1
  2114  015D  086A               	movf	(Get_Better_Newton_Value@F2+3)^(0+128),w
  2115  015E  00F6               	movwf	___flge@ff1+3
  2116  015F  0869               	movf	(Get_Better_Newton_Value@F2+2)^(0+128),w
  2117  0160  00F5               	movwf	___flge@ff1+2
  2118  0161  0868               	movf	(Get_Better_Newton_Value@F2+1)^(0+128),w
  2119  0162  00F4               	movwf	___flge@ff1+1
  2120  0163  0867               	movf	Get_Better_Newton_Value@F2^(0+128),w
  2121  0164  00F3               	movwf	___flge@ff1
  2122  0165  086E               	movf	(Get_Better_Newton_Value@F3+3)^(0+128),w
  2123  0166  00FA               	movwf	___flge@ff2+3
  2124  0167  086D               	movf	(Get_Better_Newton_Value@F3+2)^(0+128),w
  2125  0168  00F9               	movwf	___flge@ff2+2
  2126  0169  086C               	movf	(Get_Better_Newton_Value@F3+1)^(0+128),w
  2127  016A  00F8               	movwf	___flge@ff2+1
  2128  016B  086B               	movf	Get_Better_Newton_Value@F3^(0+128),w
  2129  016C  00F7               	movwf	___flge@ff2
  2130  016D  160A  158A  25A7  120A  118A  	fcall	___flge
  2131  0172  1803               	btfsc	3,0
  2132  0173  2975               	goto	u5401
  2133  0174  2976               	goto	u5400
  2134  0175                     u5401:
  2135  0175  299B               	goto	l40
  2136  0176                     u5400:
  2137  0176                     l3298:
  2138  0176  1683               	bsf	3,5	;RP0=1, select bank1
  2139  0177  1303               	bcf	3,6	;RP1=0, select bank1
  2140  0178  0866               	movf	(Get_Better_Newton_Value@F1+3)^(0+128),w
  2141  0179  00F6               	movwf	___flge@ff1+3
  2142  017A  0865               	movf	(Get_Better_Newton_Value@F1+2)^(0+128),w
  2143  017B  00F5               	movwf	___flge@ff1+2
  2144  017C  0864               	movf	(Get_Better_Newton_Value@F1+1)^(0+128),w
  2145  017D  00F4               	movwf	___flge@ff1+1
  2146  017E  0863               	movf	Get_Better_Newton_Value@F1^(0+128),w
  2147  017F  00F3               	movwf	___flge@ff1
  2148  0180  086E               	movf	(Get_Better_Newton_Value@F3+3)^(0+128),w
  2149  0181  00FA               	movwf	___flge@ff2+3
  2150  0182  086D               	movf	(Get_Better_Newton_Value@F3+2)^(0+128),w
  2151  0183  00F9               	movwf	___flge@ff2+2
  2152  0184  086C               	movf	(Get_Better_Newton_Value@F3+1)^(0+128),w
  2153  0185  00F8               	movwf	___flge@ff2+1
  2154  0186  086B               	movf	Get_Better_Newton_Value@F3^(0+128),w
  2155  0187  00F7               	movwf	___flge@ff2
  2156  0188  160A  158A  25A7  120A  118A  	fcall	___flge
  2157  018D  1803               	btfsc	3,0
  2158  018E  2990               	goto	u5411
  2159  018F  2991               	goto	u5410
  2160  0190                     u5411:
  2161  0190  299B               	goto	l40
  2162  0191                     u5410:
  2163  0191                     l3300:
  2164                           
  2165                           ;main.c: 92:         return F3;
  2166  0191  1683               	bsf	3,5	;RP0=1, select bank1
  2167  0192  1303               	bcf	3,6	;RP1=0, select bank1
  2168  0193  086E               	movf	(Get_Better_Newton_Value@F3+3)^(0+128),w
  2169  0194  00E0               	movwf	(?_Get_Better_Newton_Value+3)^(0+128)
  2170  0195  086D               	movf	(Get_Better_Newton_Value@F3+2)^(0+128),w
  2171  0196  00DF               	movwf	(?_Get_Better_Newton_Value+2)^(0+128)
  2172  0197  086C               	movf	(Get_Better_Newton_Value@F3+1)^(0+128),w
  2173  0198  00DE               	movwf	(?_Get_Better_Newton_Value+1)^(0+128)
  2174  0199  086B               	movf	Get_Better_Newton_Value@F3^(0+128),w
  2175  019A  00DD               	movwf	?_Get_Better_Newton_Value^(0+128)
  2176  019B                     l40:
  2177  019B  0008               	return
  2178  019C                     __end_of_Get_Better_Newton_Value:
  2179                           
  2180                           	psect	text7
  2181  19ED                     __ptext7:	
  2182 ;; *************** function ___fleq *****************
  2183 ;; Defined at:
  2184 ;;		line 4 in file "C:\Program Files\Microchip\xc8\v2.20\pic\sources\c90\common\fleq.c"
  2185 ;; Parameters:    Size  Location     Type
  2186 ;;  ff1             4    2[COMMON] float 
  2187 ;;  ff2             4    6[COMMON] float 
  2188 ;; Auto vars:     Size  Location     Type
  2189 ;;		None
  2190 ;; Return value:  Size  Location     Type
  2191 ;;		None               void
  2192 ;; Registers used:
  2193 ;;		wreg, status,2, status,0
  2194 ;; Tracked objects:
  2195 ;;		On entry : 0/0
  2196 ;;		On exit  : 0/0
  2197 ;;		Unchanged: 0/0
  2198 ;; Data sizes:     COMMON   BANK0   BANK1   BANK3   BANK2
  2199 ;;      Params:         8       0       0       0       0
  2200 ;;      Locals:         0       0       0       0       0
  2201 ;;      Temps:          0       4       0       0       0
  2202 ;;      Totals:         8       4       0       0       0
  2203 ;;Total ram usage:       12 bytes
  2204 ;; Hardware stack levels used:    1
  2205 ;; Hardware stack levels required when called:    1
  2206 ;; This function calls:
  2207 ;;		Nothing
  2208 ;; This function is called by:
  2209 ;;		_Get_Better_Newton_Value
  2210 ;; This function uses a non-reentrant model
  2211 ;;
  2212                           
  2213                           
  2214                           ;psect for function ___fleq
  2215  19ED                     ___fleq:
  2216  19ED                     l3192:	
  2217                           ;incstack = 0
  2218                           ; Regs used in ___fleq: [wreg+status,2+status,0]
  2219                           
  2220  19ED  3000               	movlw	0
  2221  19EE  0573               	andwf	___fleq@ff1,w
  2222  19EF  1283               	bcf	3,5	;RP0=0, select bank0
  2223  19F0  1303               	bcf	3,6	;RP1=0, select bank0
  2224  19F1  00A0               	movwf	??___fleq
  2225  19F2  3000               	movlw	0
  2226  19F3  0574               	andwf	___fleq@ff1+1,w
  2227  19F4  00A1               	movwf	??___fleq+1
  2228  19F5  3080               	movlw	128
  2229  19F6  0575               	andwf	___fleq@ff1+2,w
  2230  19F7  00A2               	movwf	??___fleq+2
  2231  19F8  307F               	movlw	127
  2232  19F9  0576               	andwf	___fleq@ff1+3,w
  2233  19FA  00A3               	movwf	??___fleq+3
  2234  19FB  0823               	movf	??___fleq+3,w
  2235  19FC  0422               	iorwf	??___fleq+2,w
  2236  19FD  0421               	iorwf	??___fleq+1,w
  2237  19FE  0420               	iorwf	??___fleq,w
  2238  19FF  1D03               	skipz
  2239  1A00  2A02               	goto	u5271
  2240  1A01  2A03               	goto	u5270
  2241  1A02                     u5271:
  2242  1A02  2A0B               	goto	l429
  2243  1A03                     u5270:
  2244  1A03                     l3194:
  2245  1A03  3000               	movlw	0
  2246  1A04  00F6               	movwf	___fleq@ff1+3
  2247  1A05  3000               	movlw	0
  2248  1A06  00F5               	movwf	___fleq@ff1+2
  2249  1A07  3000               	movlw	0
  2250  1A08  00F4               	movwf	___fleq@ff1+1
  2251  1A09  3000               	movlw	0
  2252  1A0A  00F3               	movwf	___fleq@ff1
  2253  1A0B                     l429:
  2254  1A0B  3000               	movlw	0
  2255  1A0C  0577               	andwf	___fleq@ff2,w
  2256  1A0D  00A0               	movwf	??___fleq
  2257  1A0E  3000               	movlw	0
  2258  1A0F  0578               	andwf	___fleq@ff2+1,w
  2259  1A10  00A1               	movwf	??___fleq+1
  2260  1A11  3080               	movlw	128
  2261  1A12  0579               	andwf	___fleq@ff2+2,w
  2262  1A13  00A2               	movwf	??___fleq+2
  2263  1A14  307F               	movlw	127
  2264  1A15  057A               	andwf	___fleq@ff2+3,w
  2265  1A16  00A3               	movwf	??___fleq+3
  2266  1A17  0823               	movf	??___fleq+3,w
  2267  1A18  0422               	iorwf	??___fleq+2,w
  2268  1A19  0421               	iorwf	??___fleq+1,w
  2269  1A1A  0420               	iorwf	??___fleq,w
  2270  1A1B  1D03               	skipz
  2271  1A1C  2A1E               	goto	u5281
  2272  1A1D  2A1F               	goto	u5280
  2273  1A1E                     u5281:
  2274  1A1E  2A27               	goto	l430
  2275  1A1F                     u5280:
  2276  1A1F                     l3196:
  2277  1A1F  3000               	movlw	0
  2278  1A20  00FA               	movwf	___fleq@ff2+3
  2279  1A21  3000               	movlw	0
  2280  1A22  00F9               	movwf	___fleq@ff2+2
  2281  1A23  3000               	movlw	0
  2282  1A24  00F8               	movwf	___fleq@ff2+1
  2283  1A25  3000               	movlw	0
  2284  1A26  00F7               	movwf	___fleq@ff2
  2285  1A27                     l430:
  2286  1A27  087A               	movf	___fleq@ff2+3,w
  2287  1A28  0676               	xorwf	___fleq@ff1+3,w
  2288  1A29  1D03               	skipz
  2289  1A2A  2A35               	goto	u5295
  2290  1A2B  0879               	movf	___fleq@ff2+2,w
  2291  1A2C  0675               	xorwf	___fleq@ff1+2,w
  2292  1A2D  1D03               	skipz
  2293  1A2E  2A35               	goto	u5295
  2294  1A2F  0878               	movf	___fleq@ff2+1,w
  2295  1A30  0674               	xorwf	___fleq@ff1+1,w
  2296  1A31  1D03               	skipz
  2297  1A32  2A35               	goto	u5295
  2298  1A33  0877               	movf	___fleq@ff2,w
  2299  1A34  0673               	xorwf	___fleq@ff1,w
  2300  1A35                     u5295:
  2301  1A35  1903               	skipnz
  2302  1A36  2A38               	goto	u5291
  2303  1A37  2A39               	goto	u5290
  2304  1A38                     u5291:
  2305  1A38  2A3B               	goto	l3200
  2306  1A39                     u5290:
  2307  1A39                     l3198:
  2308  1A39  1003               	clrc
  2309  1A3A  2A3C               	goto	l431
  2310  1A3B                     l3200:
  2311  1A3B  1403               	setc
  2312  1A3C                     l431:
  2313  1A3C  0008               	return
  2314  1A3D                     __end_of___fleq:
  2315                           
  2316                           	psect	text8
  2317  118D                     __ptext8:	
  2318 ;; *************** function _Get_Newton *****************
  2319 ;; Defined at:
  2320 ;;		line 301 in file "main.c"
  2321 ;; Parameters:    Size  Location     Type
  2322 ;;  INTER0          1    wreg     unsigned char 
  2323 ;;  INTER1          1   39[BANK1 ] unsigned char 
  2324 ;;  sensor_Chann    1   40[BANK1 ] unsigned char 
  2325 ;; Auto vars:     Size  Location     Type
  2326 ;;  INTER0          1   45[BANK1 ] unsigned char 
  2327 ;;  Rc              4   54[BANK1 ] float 
  2328 ;;  F               4   50[BANK1 ] float 
  2329 ;;  Vs              4   46[BANK1 ] float 
  2330 ;;  R               2   58[BANK1 ] unsigned int 
  2331 ;;  sensor_value    1   60[BANK1 ] unsigned char 
  2332 ;; Return value:  Size  Location     Type
  2333 ;;                  4   39[BANK1 ] float 
  2334 ;; Registers used:
  2335 ;;		wreg, fsr0l, fsr0h, status,2, status,0, btemp+1, pclath, cstack
  2336 ;; Tracked objects:
  2337 ;;		On entry : 0/0
  2338 ;;		On exit  : 0/0
  2339 ;;		Unchanged: 0/0
  2340 ;; Data sizes:     COMMON   BANK0   BANK1   BANK3   BANK2
  2341 ;;      Params:         0       0       4       0       0
  2342 ;;      Locals:         0       0      16       0       0
  2343 ;;      Temps:          0       0       2       0       0
  2344 ;;      Totals:         0       0      22       0       0
  2345 ;;Total ram usage:       22 bytes
  2346 ;; Hardware stack levels used:    1
  2347 ;; Hardware stack levels required when called:    4
  2348 ;; This function calls:
  2349 ;;		_ADC_GetValue
  2350 ;;		_Affichage_brut
  2351 ;;		_PORT_Change_Gain
  2352 ;;		_PORT_putString
  2353 ;;		_Resistance_Value
  2354 ;;		_Voltage_Value
  2355 ;;		___fltol
  2356 ;;		_conversion_newton
  2357 ;;		_puts_float
  2358 ;; This function is called by:
  2359 ;;		_Get_Better_Newton_Value
  2360 ;; This function uses a non-reentrant model
  2361 ;;
  2362                           
  2363                           
  2364                           ;psect for function _Get_Newton
  2365  118D                     _Get_Newton:
  2366                           
  2367                           ;incstack = 0
  2368                           ; Regs used in _Get_Newton: [wreg-fsr0h+status,2+status,0+btemp+1+pclath+cstack]
  2369                           ;Get_Newton@INTER0 stored from wreg
  2370  118D  1683               	bsf	3,5	;RP0=1, select bank1
  2371  118E  1303               	bcf	3,6	;RP1=0, select bank1
  2372  118F  00CD               	movwf	Get_Newton@INTER0^(0+128)
  2373  1190                     l3142:
  2374                           
  2375                           ;main.c: 303:     unsigned char sensor_value;;main.c: 304:     unsigned int R;;main.c: 3
      +                          05:     float Vs,F,Rc;;main.c: 307:     R = PORT_Change_Gain(INTER0,INTER1);
  2376  1190  0847               	movf	Get_Newton@INTER1^(0+128),w
  2377  1191  00FF               	movwf	btemp+1
  2378  1192  087F               	movf	btemp+1,w
  2379  1193  00F3               	movwf	PORT_Change_Gain@INTER1
  2380  1194  084D               	movf	Get_Newton@INTER0^(0+128),w
  2381  1195  160A  158A  216A  160A  118A  	fcall	_PORT_Change_Gain
  2382  119A  0874               	movf	?_PORT_Change_Gain+1,w
  2383  119B  1683               	bsf	3,5	;RP0=1, select bank1
  2384  119C  1303               	bcf	3,6	;RP1=0, select bank1
  2385  119D  00DB               	movwf	(Get_Newton@R+1)^(0+128)
  2386  119E  0873               	movf	?_PORT_Change_Gain,w
  2387  119F  00DA               	movwf	Get_Newton@R^(0+128)
  2388                           
  2389                           ;main.c: 309:     Affichage_brut(R);
  2390  11A0  085B               	movf	(Get_Newton@R+1)^(0+128),w
  2391  11A1  1283               	bcf	3,5	;RP0=0, select bank0
  2392  11A2  1303               	bcf	3,6	;RP1=0, select bank0
  2393  11A3  00A3               	movwf	Affichage_brut@valeur_a_afficher+1
  2394  11A4  1683               	bsf	3,5	;RP0=1, select bank1
  2395  11A5  1303               	bcf	3,6	;RP1=0, select bank1
  2396  11A6  085A               	movf	Get_Newton@R^(0+128),w
  2397  11A7  1283               	bcf	3,5	;RP0=0, select bank0
  2398  11A8  1303               	bcf	3,6	;RP1=0, select bank0
  2399  11A9  00A2               	movwf	Affichage_brut@valeur_a_afficher
  2400  11AA  160A  158A  22FD  160A  118A  	fcall	_Affichage_brut
  2401  11AF                     l3144:
  2402                           
  2403                           ;main.c: 310:     PORT_putString(" R ");
  2404  11AF  30B7               	movlw	(low ((STR_1-__stringbase)| (0+32768)))& (0+255)
  2405  11B0  160A  158A  2094  160A  118A  	fcall	_PORT_putString
  2406  11B5                     l3146:
  2407                           
  2408                           ;main.c: 313:     sensor_value = ADC_GetValue(sensor_Channel);
  2409  11B5  1683               	bsf	3,5	;RP0=1, select bank1
  2410  11B6  1303               	bcf	3,6	;RP1=0, select bank1
  2411  11B7  0848               	movf	Get_Newton@sensor_Channel^(0+128),w
  2412  11B8  160A  158A  2050  160A  118A  	fcall	_ADC_GetValue
  2413  11BD  00FF               	movwf	btemp+1
  2414  11BE  087F               	movf	btemp+1,w
  2415  11BF  1683               	bsf	3,5	;RP0=1, select bank1
  2416  11C0  1303               	bcf	3,6	;RP1=0, select bank1
  2417  11C1  00DC               	movwf	Get_Newton@sensor_value^(0+128)
  2418  11C2                     l3148:
  2419                           
  2420                           ;main.c: 315:     Affichage_brut(sensor_value);
  2421  11C2  085C               	movf	Get_Newton@sensor_value^(0+128),w
  2422  11C3  00CB               	movwf	??_Get_Newton^(0+128)
  2423  11C4  01CC               	clrf	(??_Get_Newton^(0+128)+1)
  2424  11C5  084B               	movf	??_Get_Newton^(0+128),w
  2425  11C6  1283               	bcf	3,5	;RP0=0, select bank0
  2426  11C7  1303               	bcf	3,6	;RP1=0, select bank0
  2427  11C8  00A2               	movwf	Affichage_brut@valeur_a_afficher
  2428  11C9  1683               	bsf	3,5	;RP0=1, select bank1
  2429  11CA  1303               	bcf	3,6	;RP1=0, select bank1
  2430  11CB  084C               	movf	(??_Get_Newton+1)^(0+128),w
  2431  11CC  1283               	bcf	3,5	;RP0=0, select bank0
  2432  11CD  1303               	bcf	3,6	;RP1=0, select bank0
  2433  11CE  00A3               	movwf	Affichage_brut@valeur_a_afficher+1
  2434  11CF  160A  158A  22FD  160A  118A  	fcall	_Affichage_brut
  2435  11D4                     l3150:
  2436                           
  2437                           ;main.c: 316:     PORT_putString(" Numerique ");
  2438  11D4  30A1               	movlw	(low ((STR_2-__stringbase)| (0+32768)))& (0+255)
  2439  11D5  160A  158A  2094  160A  118A  	fcall	_PORT_putString
  2440                           
  2441                           ;main.c: 318:     Vs = Voltage_Value(sensor_value);
  2442  11DA  1683               	bsf	3,5	;RP0=1, select bank1
  2443  11DB  1303               	bcf	3,6	;RP1=0, select bank1
  2444  11DC  085C               	movf	Get_Newton@sensor_value^(0+128),w
  2445  11DD  160A  158A  247C  160A  118A  	fcall	_Voltage_Value
  2446  11E2  1683               	bsf	3,5	;RP0=1, select bank1
  2447  11E3  1303               	bcf	3,6	;RP1=0, select bank1
  2448  11E4  0823               	movf	(?_Voltage_Value+3)^(0+128),w
  2449  11E5  00D1               	movwf	(Get_Newton@Vs+3)^(0+128)
  2450  11E6  0822               	movf	(?_Voltage_Value+2)^(0+128),w
  2451  11E7  00D0               	movwf	(Get_Newton@Vs+2)^(0+128)
  2452  11E8  0821               	movf	(?_Voltage_Value+1)^(0+128),w
  2453  11E9  00CF               	movwf	(Get_Newton@Vs+1)^(0+128)
  2454  11EA  0820               	movf	?_Voltage_Value^(0+128),w
  2455  11EB  00CE               	movwf	Get_Newton@Vs^(0+128)
  2456                           
  2457                           ;main.c: 320:     puts_float(Vs);
  2458  11EC  0851               	movf	(Get_Newton@Vs+3)^(0+128),w
  2459  11ED  00A3               	movwf	(puts_float@Valeur+3)^(0+128)
  2460  11EE  0850               	movf	(Get_Newton@Vs+2)^(0+128),w
  2461  11EF  00A2               	movwf	(puts_float@Valeur+2)^(0+128)
  2462  11F0  084F               	movf	(Get_Newton@Vs+1)^(0+128),w
  2463  11F1  00A1               	movwf	(puts_float@Valeur+1)^(0+128)
  2464  11F2  084E               	movf	Get_Newton@Vs^(0+128),w
  2465  11F3  00A0               	movwf	puts_float@Valeur^(0+128)
  2466  11F4  160A  118A  243D  160A  118A  	fcall	_puts_float
  2467  11F9                     l3152:
  2468                           
  2469                           ;main.c: 321:     PORT_putString(" V ");
  2470  11F9  30BB               	movlw	(low ((STR_3-__stringbase)| (0+32768)))& (0+255)
  2471  11FA  160A  158A  2094  160A  118A  	fcall	_PORT_putString
  2472  11FF                     l3154:
  2473                           
  2474                           ;main.c: 323:     Rc = Resistance_Value(Vs, R);
  2475  11FF  1683               	bsf	3,5	;RP0=1, select bank1
  2476  1200  1303               	bcf	3,6	;RP1=0, select bank1
  2477  1201  0851               	movf	(Get_Newton@Vs+3)^(0+128),w
  2478  1202  00A3               	movwf	(Resistance_Value@Voltage+3)^(0+128)
  2479  1203  0850               	movf	(Get_Newton@Vs+2)^(0+128),w
  2480  1204  00A2               	movwf	(Resistance_Value@Voltage+2)^(0+128)
  2481  1205  084F               	movf	(Get_Newton@Vs+1)^(0+128),w
  2482  1206  00A1               	movwf	(Resistance_Value@Voltage+1)^(0+128)
  2483  1207  084E               	movf	Get_Newton@Vs^(0+128),w
  2484  1208  00A0               	movwf	Resistance_Value@Voltage^(0+128)
  2485  1209  085B               	movf	(Get_Newton@R+1)^(0+128),w
  2486  120A  00A5               	movwf	(Resistance_Value@R+1)^(0+128)
  2487  120B  085A               	movf	Get_Newton@R^(0+128),w
  2488  120C  00A4               	movwf	Resistance_Value@R^(0+128)
  2489  120D  160A  158A  264B  160A  118A  	fcall	_Resistance_Value
  2490  1212  1683               	bsf	3,5	;RP0=1, select bank1
  2491  1213  1303               	bcf	3,6	;RP1=0, select bank1
  2492  1214  0823               	movf	(?_Resistance_Value+3)^(0+128),w
  2493  1215  00D9               	movwf	(Get_Newton@Rc+3)^(0+128)
  2494  1216  0822               	movf	(?_Resistance_Value+2)^(0+128),w
  2495  1217  00D8               	movwf	(Get_Newton@Rc+2)^(0+128)
  2496  1218  0821               	movf	(?_Resistance_Value+1)^(0+128),w
  2497  1219  00D7               	movwf	(Get_Newton@Rc+1)^(0+128)
  2498  121A  0820               	movf	?_Resistance_Value^(0+128),w
  2499  121B  00D6               	movwf	Get_Newton@Rc^(0+128)
  2500  121C                     l3156:
  2501                           
  2502                           ;main.c: 325:     puts_float(Rc);
  2503  121C  0859               	movf	(Get_Newton@Rc+3)^(0+128),w
  2504  121D  00A3               	movwf	(puts_float@Valeur+3)^(0+128)
  2505  121E  0858               	movf	(Get_Newton@Rc+2)^(0+128),w
  2506  121F  00A2               	movwf	(puts_float@Valeur+2)^(0+128)
  2507  1220  0857               	movf	(Get_Newton@Rc+1)^(0+128),w
  2508  1221  00A1               	movwf	(puts_float@Valeur+1)^(0+128)
  2509  1222  0856               	movf	Get_Newton@Rc^(0+128),w
  2510  1223  00A0               	movwf	puts_float@Valeur^(0+128)
  2511  1224  160A  118A  243D  160A  118A  	fcall	_puts_float
  2512  1229                     l3158:
  2513                           
  2514                           ;main.c: 326:     PORT_putString(" Rc ");
  2515  1229  30B2               	movlw	(low ((STR_4-__stringbase)| (0+32768)))& (0+255)
  2516  122A  160A  158A  2094  160A  118A  	fcall	_PORT_putString
  2517  122F                     l3160:
  2518                           
  2519                           ;main.c: 329:     F = conversion_newton(Rc);
  2520  122F  1683               	bsf	3,5	;RP0=1, select bank1
  2521  1230  1303               	bcf	3,6	;RP1=0, select bank1
  2522  1231  0859               	movf	(Get_Newton@Rc+3)^(0+128),w
  2523  1232  00A3               	movwf	(conversion_newton@Rc+3)^(0+128)
  2524  1233  0858               	movf	(Get_Newton@Rc+2)^(0+128),w
  2525  1234  00A2               	movwf	(conversion_newton@Rc+2)^(0+128)
  2526  1235  0857               	movf	(Get_Newton@Rc+1)^(0+128),w
  2527  1236  00A1               	movwf	(conversion_newton@Rc+1)^(0+128)
  2528  1237  0856               	movf	Get_Newton@Rc^(0+128),w
  2529  1238  00A0               	movwf	conversion_newton@Rc^(0+128)
  2530  1239  160A  118A  2592  160A  118A  	fcall	_conversion_newton
  2531  123E  1683               	bsf	3,5	;RP0=1, select bank1
  2532  123F  1303               	bcf	3,6	;RP1=0, select bank1
  2533  1240  0823               	movf	(?_conversion_newton+3)^(0+128),w
  2534  1241  00D5               	movwf	(Get_Newton@F+3)^(0+128)
  2535  1242  0822               	movf	(?_conversion_newton+2)^(0+128),w
  2536  1243  00D4               	movwf	(Get_Newton@F+2)^(0+128)
  2537  1244  0821               	movf	(?_conversion_newton+1)^(0+128),w
  2538  1245  00D3               	movwf	(Get_Newton@F+1)^(0+128)
  2539  1246  0820               	movf	?_conversion_newton^(0+128),w
  2540  1247  00D2               	movwf	Get_Newton@F^(0+128)
  2541  1248                     l3162:
  2542                           
  2543                           ;main.c: 332:     Affichage_brut(F);
  2544  1248  0855               	movf	(Get_Newton@F+3)^(0+128),w
  2545  1249  00F6               	movwf	___fltol@f1+3
  2546  124A  0854               	movf	(Get_Newton@F+2)^(0+128),w
  2547  124B  00F5               	movwf	___fltol@f1+2
  2548  124C  0853               	movf	(Get_Newton@F+1)^(0+128),w
  2549  124D  00F4               	movwf	___fltol@f1+1
  2550  124E  0852               	movf	Get_Newton@F^(0+128),w
  2551  124F  00F3               	movwf	___fltol@f1
  2552  1250  160A  158A  2379  160A  118A  	fcall	___fltol
  2553  1255  0874               	movf	?___fltol+1,w
  2554  1256  1283               	bcf	3,5	;RP0=0, select bank0
  2555  1257  1303               	bcf	3,6	;RP1=0, select bank0
  2556  1258  00A3               	movwf	Affichage_brut@valeur_a_afficher+1
  2557  1259  0873               	movf	?___fltol,w
  2558  125A  00A2               	movwf	Affichage_brut@valeur_a_afficher
  2559  125B  160A  158A  22FD  160A  118A  	fcall	_Affichage_brut
  2560  1260                     l3164:
  2561                           
  2562                           ;main.c: 333:     PORT_putString(" N \n");
  2563  1260  30AD               	movlw	(low ((STR_5-__stringbase)| (0+32768)))& (0+255)
  2564  1261  160A  158A  2094  160A  118A  	fcall	_PORT_putString
  2565  1266                     l3166:
  2566                           
  2567                           ;main.c: 336:     return F;
  2568  1266  1683               	bsf	3,5	;RP0=1, select bank1
  2569  1267  1303               	bcf	3,6	;RP1=0, select bank1
  2570  1268  0855               	movf	(Get_Newton@F+3)^(0+128),w
  2571  1269  00CA               	movwf	(?_Get_Newton+3)^(0+128)
  2572  126A  0854               	movf	(Get_Newton@F+2)^(0+128),w
  2573  126B  00C9               	movwf	(?_Get_Newton+2)^(0+128)
  2574  126C  0853               	movf	(Get_Newton@F+1)^(0+128),w
  2575  126D  00C8               	movwf	(?_Get_Newton+1)^(0+128)
  2576  126E  0852               	movf	Get_Newton@F^(0+128),w
  2577  126F  00C7               	movwf	?_Get_Newton^(0+128)
  2578  1270                     l110:
  2579  1270  0008               	return
  2580  1271                     __end_of_Get_Newton:
  2581                           
  2582                           	psect	text9
  2583  143D                     __ptext9:	
  2584 ;; *************** function _puts_float *****************
  2585 ;; Defined at:
  2586 ;;		line 121 in file "main.c"
  2587 ;; Parameters:    Size  Location     Type
  2588 ;;  Valeur          4    0[BANK1 ] float 
  2589 ;; Auto vars:     Size  Location     Type
  2590 ;;  valueMetrics    6    6[BANK1 ] struct .
  2591 ;;  affiche         2    4[BANK1 ] unsigned int 
  2592 ;; Return value:  Size  Location     Type
  2593 ;;                  1    wreg      void 
  2594 ;; Registers used:
  2595 ;;		wreg, status,2, status,0, btemp+1, pclath, cstack
  2596 ;; Tracked objects:
  2597 ;;		On entry : 0/0
  2598 ;;		On exit  : 0/0
  2599 ;;		Unchanged: 0/0
  2600 ;; Data sizes:     COMMON   BANK0   BANK1   BANK3   BANK2
  2601 ;;      Params:         0       0       4       0       0
  2602 ;;      Locals:         0       0       8       0       0
  2603 ;;      Temps:          0       0       0       0       0
  2604 ;;      Totals:         0       0      12       0       0
  2605 ;;Total ram usage:       12 bytes
  2606 ;; Hardware stack levels used:    1
  2607 ;; Hardware stack levels required when called:    3
  2608 ;; This function calls:
  2609 ;;		_PORT_putchar
  2610 ;;		___aldiv
  2611 ;;		___almod
  2612 ;;		___flmul
  2613 ;;		___fltol
  2614 ;;		___lwdiv
  2615 ;;		___lwmod
  2616 ;; This function is called by:
  2617 ;;		_Get_Newton
  2618 ;; This function uses a non-reentrant model
  2619 ;;
  2620                           
  2621                           
  2622                           ;psect for function _puts_float
  2623  143D                     _puts_float:
  2624  143D                     l2916:	
  2625                           ;incstack = 0
  2626                           ; Regs used in _puts_float: [wreg+status,2+status,0+btemp+1+pclath+cstack]
  2627                           
  2628                           
  2629                           ;main.c: 123:     unsigned int affiche;;main.c: 124:     ValueMetrics valueMetrics;;main
      +                          .c: 126:     Valeur = Valeur * 100;
  2630  143D  3042               	movlw	66
  2631  143E  1283               	bcf	3,5	;RP0=0, select bank0
  2632  143F  1303               	bcf	3,6	;RP1=0, select bank0
  2633  1440  00D9               	movwf	___flmul@b+3
  2634  1441  30C8               	movlw	200
  2635  1442  00D8               	movwf	___flmul@b+2
  2636  1443  3000               	movlw	0
  2637  1444  00D7               	movwf	___flmul@b+1
  2638  1445  3000               	movlw	0
  2639  1446  00D6               	movwf	___flmul@b
  2640  1447  1683               	bsf	3,5	;RP0=1, select bank1
  2641  1448  1303               	bcf	3,6	;RP1=0, select bank1
  2642  1449  0823               	movf	(puts_float@Valeur+3)^(0+128),w
  2643  144A  1283               	bcf	3,5	;RP0=0, select bank0
  2644  144B  1303               	bcf	3,6	;RP1=0, select bank0
  2645  144C  00DD               	movwf	___flmul@a+3
  2646  144D  1683               	bsf	3,5	;RP0=1, select bank1
  2647  144E  1303               	bcf	3,6	;RP1=0, select bank1
  2648  144F  0822               	movf	(puts_float@Valeur+2)^(0+128),w
  2649  1450  1283               	bcf	3,5	;RP0=0, select bank0
  2650  1451  1303               	bcf	3,6	;RP1=0, select bank0
  2651  1452  00DC               	movwf	___flmul@a+2
  2652  1453  1683               	bsf	3,5	;RP0=1, select bank1
  2653  1454  1303               	bcf	3,6	;RP1=0, select bank1
  2654  1455  0821               	movf	(puts_float@Valeur+1)^(0+128),w
  2655  1456  1283               	bcf	3,5	;RP0=0, select bank0
  2656  1457  1303               	bcf	3,6	;RP1=0, select bank0
  2657  1458  00DB               	movwf	___flmul@a+1
  2658  1459  1683               	bsf	3,5	;RP0=1, select bank1
  2659  145A  1303               	bcf	3,6	;RP1=0, select bank1
  2660  145B  0820               	movf	puts_float@Valeur^(0+128),w
  2661  145C  1283               	bcf	3,5	;RP0=0, select bank0
  2662  145D  1303               	bcf	3,6	;RP1=0, select bank0
  2663  145E  00DA               	movwf	___flmul@a
  2664  145F  120A  158A  249F  160A  118A  	fcall	___flmul
  2665  1464  1283               	bcf	3,5	;RP0=0, select bank0
  2666  1465  1303               	bcf	3,6	;RP1=0, select bank0
  2667  1466  0859               	movf	?___flmul+3,w
  2668  1467  1683               	bsf	3,5	;RP0=1, select bank1
  2669  1468  1303               	bcf	3,6	;RP1=0, select bank1
  2670  1469  00A3               	movwf	(puts_float@Valeur+3)^(0+128)
  2671  146A  1283               	bcf	3,5	;RP0=0, select bank0
  2672  146B  1303               	bcf	3,6	;RP1=0, select bank0
  2673  146C  0858               	movf	?___flmul+2,w
  2674  146D  1683               	bsf	3,5	;RP0=1, select bank1
  2675  146E  1303               	bcf	3,6	;RP1=0, select bank1
  2676  146F  00A2               	movwf	(puts_float@Valeur+2)^(0+128)
  2677  1470  1283               	bcf	3,5	;RP0=0, select bank0
  2678  1471  1303               	bcf	3,6	;RP1=0, select bank0
  2679  1472  0857               	movf	?___flmul+1,w
  2680  1473  1683               	bsf	3,5	;RP0=1, select bank1
  2681  1474  1303               	bcf	3,6	;RP1=0, select bank1
  2682  1475  00A1               	movwf	(puts_float@Valeur+1)^(0+128)
  2683  1476  1283               	bcf	3,5	;RP0=0, select bank0
  2684  1477  1303               	bcf	3,6	;RP1=0, select bank0
  2685  1478  0856               	movf	?___flmul,w
  2686  1479  1683               	bsf	3,5	;RP0=1, select bank1
  2687  147A  1303               	bcf	3,6	;RP1=0, select bank1
  2688  147B  00A0               	movwf	puts_float@Valeur^(0+128)
  2689                           
  2690                           ;main.c: 127:     affiche = (int) Valeur ;
  2691  147C  0823               	movf	(puts_float@Valeur+3)^(0+128),w
  2692  147D  00F6               	movwf	___fltol@f1+3
  2693  147E  0822               	movf	(puts_float@Valeur+2)^(0+128),w
  2694  147F  00F5               	movwf	___fltol@f1+2
  2695  1480  0821               	movf	(puts_float@Valeur+1)^(0+128),w
  2696  1481  00F4               	movwf	___fltol@f1+1
  2697  1482  0820               	movf	puts_float@Valeur^(0+128),w
  2698  1483  00F3               	movwf	___fltol@f1
  2699  1484  160A  158A  2379  160A  118A  	fcall	___fltol
  2700  1489  0874               	movf	?___fltol+1,w
  2701  148A  1683               	bsf	3,5	;RP0=1, select bank1
  2702  148B  1303               	bcf	3,6	;RP1=0, select bank1
  2703  148C  00A5               	movwf	(puts_float@affiche+1)^(0+128)
  2704  148D  0873               	movf	?___fltol,w
  2705  148E  00A4               	movwf	puts_float@affiche^(0+128)
  2706                           
  2707                           ;main.c: 129:     valueMetrics.mil = ((char)(affiche/100000))+0x30;
  2708  148F  3000               	movlw	0
  2709  1490  00F6               	movwf	___aldiv@divisor+3
  2710  1491  3001               	movlw	1
  2711  1492  00F5               	movwf	___aldiv@divisor+2
  2712  1493  3086               	movlw	134
  2713  1494  00F4               	movwf	___aldiv@divisor+1
  2714  1495  30A0               	movlw	160
  2715  1496  00F3               	movwf	___aldiv@divisor
  2716  1497  0824               	movf	puts_float@affiche^(0+128),w
  2717  1498  00F7               	movwf	___aldiv@dividend
  2718  1499  0825               	movf	(puts_float@affiche+1)^(0+128),w
  2719  149A  00F8               	movwf	___aldiv@dividend+1
  2720  149B  01F9               	clrf	___aldiv@dividend+2
  2721  149C  01FA               	clrf	___aldiv@dividend+3
  2722  149D  160A  158A  250A  160A  118A  	fcall	___aldiv
  2723  14A2  0873               	movf	?___aldiv,w
  2724  14A3  3E30               	addlw	48
  2725  14A4  00FF               	movwf	btemp+1
  2726  14A5  087F               	movf	btemp+1,w
  2727  14A6  1683               	bsf	3,5	;RP0=1, select bank1
  2728  14A7  1303               	bcf	3,6	;RP1=0, select bank1
  2729  14A8  00A6               	movwf	puts_float@valueMetrics^(0+128)
  2730  14A9                     l2918:
  2731                           
  2732                           ;main.c: 130:     PORT_putchar(valueMetrics.mil);
  2733  14A9  0826               	movf	puts_float@valueMetrics^(0+128),w
  2734  14AA  160A  118A  20C5  160A  118A  	fcall	_PORT_putchar
  2735  14AF                     l2920:
  2736                           
  2737                           ;main.c: 131:     affiche = affiche % 100000 ;
  2738  14AF  3000               	movlw	0
  2739  14B0  00F6               	movwf	___almod@divisor+3
  2740  14B1  3001               	movlw	1
  2741  14B2  00F5               	movwf	___almod@divisor+2
  2742  14B3  3086               	movlw	134
  2743  14B4  00F4               	movwf	___almod@divisor+1
  2744  14B5  30A0               	movlw	160
  2745  14B6  00F3               	movwf	___almod@divisor
  2746  14B7  1683               	bsf	3,5	;RP0=1, select bank1
  2747  14B8  1303               	bcf	3,6	;RP1=0, select bank1
  2748  14B9  0824               	movf	puts_float@affiche^(0+128),w
  2749  14BA  00F7               	movwf	___almod@dividend
  2750  14BB  0825               	movf	(puts_float@affiche+1)^(0+128),w
  2751  14BC  00F8               	movwf	___almod@dividend+1
  2752  14BD  01F9               	clrf	___almod@dividend+2
  2753  14BE  01FA               	clrf	___almod@dividend+3
  2754  14BF  160A  158A  23F5  160A  118A  	fcall	___almod
  2755  14C4  0874               	movf	?___almod+1,w
  2756  14C5  1683               	bsf	3,5	;RP0=1, select bank1
  2757  14C6  1303               	bcf	3,6	;RP1=0, select bank1
  2758  14C7  00A5               	movwf	(puts_float@affiche+1)^(0+128)
  2759  14C8  0873               	movf	?___almod,w
  2760  14C9  00A4               	movwf	puts_float@affiche^(0+128)
  2761  14CA                     l2922:
  2762                           
  2763                           ;main.c: 132:     valueMetrics.cent = ((char)(affiche/10000))+0x30;
  2764  14CA  3010               	movlw	16
  2765  14CB  00F3               	movwf	___lwdiv@divisor
  2766  14CC  3027               	movlw	39
  2767  14CD  00F4               	movwf	___lwdiv@divisor+1
  2768  14CE  0825               	movf	(puts_float@affiche+1)^(0+128),w
  2769  14CF  00F6               	movwf	___lwdiv@dividend+1
  2770  14D0  0824               	movf	puts_float@affiche^(0+128),w
  2771  14D1  00F5               	movwf	___lwdiv@dividend
  2772  14D2  160A  158A  21A9  160A  118A  	fcall	___lwdiv
  2773  14D7  0873               	movf	?___lwdiv,w
  2774  14D8  3E30               	addlw	48
  2775  14D9  00FF               	movwf	btemp+1
  2776  14DA  087F               	movf	btemp+1,w
  2777  14DB  1683               	bsf	3,5	;RP0=1, select bank1
  2778  14DC  1303               	bcf	3,6	;RP1=0, select bank1
  2779  14DD  00A7               	movwf	(puts_float@valueMetrics^(0+128)+1)
  2780  14DE                     l2924:
  2781                           
  2782                           ;main.c: 133:     PORT_putchar(valueMetrics.cent);
  2783  14DE  0827               	movf	(puts_float@valueMetrics^(0+128)+1),w
  2784  14DF  160A  118A  20C5  160A  118A  	fcall	_PORT_putchar
  2785                           
  2786                           ;main.c: 134:     affiche = affiche % 10000 ;
  2787  14E4  3010               	movlw	16
  2788  14E5  00F3               	movwf	___lwmod@divisor
  2789  14E6  3027               	movlw	39
  2790  14E7  00F4               	movwf	___lwmod@divisor+1
  2791  14E8  1683               	bsf	3,5	;RP0=1, select bank1
  2792  14E9  1303               	bcf	3,6	;RP1=0, select bank1
  2793  14EA  0825               	movf	(puts_float@affiche+1)^(0+128),w
  2794  14EB  00F6               	movwf	___lwmod@dividend+1
  2795  14EC  0824               	movf	puts_float@affiche^(0+128),w
  2796  14ED  00F5               	movwf	___lwmod@dividend
  2797  14EE  120A  158A  2000  160A  118A  	fcall	___lwmod
  2798  14F3  0874               	movf	?___lwmod+1,w
  2799  14F4  1683               	bsf	3,5	;RP0=1, select bank1
  2800  14F5  1303               	bcf	3,6	;RP1=0, select bank1
  2801  14F6  00A5               	movwf	(puts_float@affiche+1)^(0+128)
  2802  14F7  0873               	movf	?___lwmod,w
  2803  14F8  00A4               	movwf	puts_float@affiche^(0+128)
  2804                           
  2805                           ;main.c: 135:     valueMetrics.diz = ((char)(affiche/1000))+0x30;
  2806  14F9  30E8               	movlw	232
  2807  14FA  00F3               	movwf	___lwdiv@divisor
  2808  14FB  3003               	movlw	3
  2809  14FC  00F4               	movwf	___lwdiv@divisor+1
  2810  14FD  0825               	movf	(puts_float@affiche+1)^(0+128),w
  2811  14FE  00F6               	movwf	___lwdiv@dividend+1
  2812  14FF  0824               	movf	puts_float@affiche^(0+128),w
  2813  1500  00F5               	movwf	___lwdiv@dividend
  2814  1501  160A  158A  21A9  160A  118A  	fcall	___lwdiv
  2815  1506  0873               	movf	?___lwdiv,w
  2816  1507  3E30               	addlw	48
  2817  1508  00FF               	movwf	btemp+1
  2818  1509  087F               	movf	btemp+1,w
  2819  150A  1683               	bsf	3,5	;RP0=1, select bank1
  2820  150B  1303               	bcf	3,6	;RP1=0, select bank1
  2821  150C  00A8               	movwf	(puts_float@valueMetrics^(0+128)+2)
  2822  150D                     l2926:
  2823                           
  2824                           ;main.c: 136:     PORT_putchar(valueMetrics.diz);
  2825  150D  0828               	movf	(puts_float@valueMetrics^(0+128)+2),w
  2826  150E  160A  118A  20C5  160A  118A  	fcall	_PORT_putchar
  2827  1513                     l2928:
  2828                           
  2829                           ;main.c: 137:     affiche = affiche % 1000 ;
  2830  1513  30E8               	movlw	232
  2831  1514  00F3               	movwf	___lwmod@divisor
  2832  1515  3003               	movlw	3
  2833  1516  00F4               	movwf	___lwmod@divisor+1
  2834  1517  1683               	bsf	3,5	;RP0=1, select bank1
  2835  1518  1303               	bcf	3,6	;RP1=0, select bank1
  2836  1519  0825               	movf	(puts_float@affiche+1)^(0+128),w
  2837  151A  00F6               	movwf	___lwmod@dividend+1
  2838  151B  0824               	movf	puts_float@affiche^(0+128),w
  2839  151C  00F5               	movwf	___lwmod@dividend
  2840  151D  120A  158A  2000  160A  118A  	fcall	___lwmod
  2841  1522  0874               	movf	?___lwmod+1,w
  2842  1523  1683               	bsf	3,5	;RP0=1, select bank1
  2843  1524  1303               	bcf	3,6	;RP1=0, select bank1
  2844  1525  00A5               	movwf	(puts_float@affiche+1)^(0+128)
  2845  1526  0873               	movf	?___lwmod,w
  2846  1527  00A4               	movwf	puts_float@affiche^(0+128)
  2847  1528                     l2930:
  2848                           
  2849                           ;main.c: 138:     valueMetrics.unit = ((char)(affiche/100))+0x30;
  2850  1528  3064               	movlw	100
  2851  1529  00F3               	movwf	___lwdiv@divisor
  2852  152A  3000               	movlw	0
  2853  152B  00F4               	movwf	___lwdiv@divisor+1
  2854  152C  0825               	movf	(puts_float@affiche+1)^(0+128),w
  2855  152D  00F6               	movwf	___lwdiv@dividend+1
  2856  152E  0824               	movf	puts_float@affiche^(0+128),w
  2857  152F  00F5               	movwf	___lwdiv@dividend
  2858  1530  160A  158A  21A9  160A  118A  	fcall	___lwdiv
  2859  1535  0873               	movf	?___lwdiv,w
  2860  1536  3E30               	addlw	48
  2861  1537  00FF               	movwf	btemp+1
  2862  1538  087F               	movf	btemp+1,w
  2863  1539  1683               	bsf	3,5	;RP0=1, select bank1
  2864  153A  1303               	bcf	3,6	;RP1=0, select bank1
  2865  153B  00A9               	movwf	(puts_float@valueMetrics^(0+128)+3)
  2866  153C                     l2932:
  2867                           
  2868                           ;main.c: 140:     PORT_putchar(valueMetrics.unit);
  2869  153C  0829               	movf	(puts_float@valueMetrics^(0+128)+3),w
  2870  153D  160A  118A  20C5  160A  118A  	fcall	_PORT_putchar
  2871                           
  2872                           ;main.c: 142:     affiche = affiche % 100 ;
  2873  1542  3064               	movlw	100
  2874  1543  00F3               	movwf	___lwmod@divisor
  2875  1544  3000               	movlw	0
  2876  1545  00F4               	movwf	___lwmod@divisor+1
  2877  1546  1683               	bsf	3,5	;RP0=1, select bank1
  2878  1547  1303               	bcf	3,6	;RP1=0, select bank1
  2879  1548  0825               	movf	(puts_float@affiche+1)^(0+128),w
  2880  1549  00F6               	movwf	___lwmod@dividend+1
  2881  154A  0824               	movf	puts_float@affiche^(0+128),w
  2882  154B  00F5               	movwf	___lwmod@dividend
  2883  154C  120A  158A  2000  160A  118A  	fcall	___lwmod
  2884  1551  0874               	movf	?___lwmod+1,w
  2885  1552  1683               	bsf	3,5	;RP0=1, select bank1
  2886  1553  1303               	bcf	3,6	;RP1=0, select bank1
  2887  1554  00A5               	movwf	(puts_float@affiche+1)^(0+128)
  2888  1555  0873               	movf	?___lwmod,w
  2889  1556  00A4               	movwf	puts_float@affiche^(0+128)
  2890                           
  2891                           ;main.c: 143:     valueMetrics.dizi = ((char)(affiche/10))+0x30;
  2892  1557  300A               	movlw	10
  2893  1558  00F3               	movwf	___lwdiv@divisor
  2894  1559  3000               	movlw	0
  2895  155A  00F4               	movwf	___lwdiv@divisor+1
  2896  155B  0825               	movf	(puts_float@affiche+1)^(0+128),w
  2897  155C  00F6               	movwf	___lwdiv@dividend+1
  2898  155D  0824               	movf	puts_float@affiche^(0+128),w
  2899  155E  00F5               	movwf	___lwdiv@dividend
  2900  155F  160A  158A  21A9  160A  118A  	fcall	___lwdiv
  2901  1564  0873               	movf	?___lwdiv,w
  2902  1565  3E30               	addlw	48
  2903  1566  00FF               	movwf	btemp+1
  2904  1567  087F               	movf	btemp+1,w
  2905  1568  1683               	bsf	3,5	;RP0=1, select bank1
  2906  1569  1303               	bcf	3,6	;RP1=0, select bank1
  2907  156A  00AA               	movwf	(puts_float@valueMetrics^(0+128)+4)
  2908  156B                     l2934:
  2909                           
  2910                           ;main.c: 144:     PORT_putchar(valueMetrics.dizi);
  2911  156B  082A               	movf	(puts_float@valueMetrics^(0+128)+4),w
  2912  156C  160A  118A  20C5  160A  118A  	fcall	_PORT_putchar
  2913  1571                     l2936:
  2914                           
  2915                           ;main.c: 145:     affiche = affiche % 10 ;
  2916  1571  300A               	movlw	10
  2917  1572  00F3               	movwf	___lwmod@divisor
  2918  1573  3000               	movlw	0
  2919  1574  00F4               	movwf	___lwmod@divisor+1
  2920  1575  1683               	bsf	3,5	;RP0=1, select bank1
  2921  1576  1303               	bcf	3,6	;RP1=0, select bank1
  2922  1577  0825               	movf	(puts_float@affiche+1)^(0+128),w
  2923  1578  00F6               	movwf	___lwmod@dividend+1
  2924  1579  0824               	movf	puts_float@affiche^(0+128),w
  2925  157A  00F5               	movwf	___lwmod@dividend
  2926  157B  120A  158A  2000  160A  118A  	fcall	___lwmod
  2927  1580  0874               	movf	?___lwmod+1,w
  2928  1581  1683               	bsf	3,5	;RP0=1, select bank1
  2929  1582  1303               	bcf	3,6	;RP1=0, select bank1
  2930  1583  00A5               	movwf	(puts_float@affiche+1)^(0+128)
  2931  1584  0873               	movf	?___lwmod,w
  2932  1585  00A4               	movwf	puts_float@affiche^(0+128)
  2933  1586                     l2938:
  2934                           
  2935                           ;main.c: 146:     valueMetrics.centi = ((char)(affiche))+0x30;
  2936  1586  0824               	movf	puts_float@affiche^(0+128),w
  2937  1587  3E30               	addlw	48
  2938  1588  00FF               	movwf	btemp+1
  2939  1589  087F               	movf	btemp+1,w
  2940  158A  00AB               	movwf	(puts_float@valueMetrics^(0+128)+5)
  2941  158B                     l2940:
  2942                           
  2943                           ;main.c: 147:     PORT_putchar(valueMetrics.centi);
  2944  158B  082B               	movf	(puts_float@valueMetrics^(0+128)+5),w
  2945  158C  160A  118A  20C5  160A  118A  	fcall	_PORT_putchar
  2946  1591                     l50:
  2947  1591  0008               	return
  2948  1592                     __end_of_puts_float:
  2949                           
  2950                           	psect	text10
  2951  0800                     __ptext10:	
  2952 ;; *************** function ___lwmod *****************
  2953 ;; Defined at:
  2954 ;;		line 5 in file "C:\Program Files\Microchip\xc8\v2.20\pic\sources\c90\common\lwmod.c"
  2955 ;; Parameters:    Size  Location     Type
  2956 ;;  divisor         2    2[COMMON] unsigned int 
  2957 ;;  dividend        2    4[COMMON] unsigned int 
  2958 ;; Auto vars:     Size  Location     Type
  2959 ;;  counter         1    6[COMMON] unsigned char 
  2960 ;; Return value:  Size  Location     Type
  2961 ;;                  2    2[COMMON] unsigned int 
  2962 ;; Registers used:
  2963 ;;		wreg, status,2, status,0, btemp+1
  2964 ;; Tracked objects:
  2965 ;;		On entry : 0/0
  2966 ;;		On exit  : 0/0
  2967 ;;		Unchanged: 0/0
  2968 ;; Data sizes:     COMMON   BANK0   BANK1   BANK3   BANK2
  2969 ;;      Params:         4       0       0       0       0
  2970 ;;      Locals:         1       0       0       0       0
  2971 ;;      Temps:          0       0       0       0       0
  2972 ;;      Totals:         5       0       0       0       0
  2973 ;;Total ram usage:        5 bytes
  2974 ;; Hardware stack levels used:    1
  2975 ;; Hardware stack levels required when called:    1
  2976 ;; This function calls:
  2977 ;;		Nothing
  2978 ;; This function is called by:
  2979 ;;		_puts_float
  2980 ;; This function uses a non-reentrant model
  2981 ;;
  2982                           
  2983                           
  2984                           ;psect for function ___lwmod
  2985  0800                     ___lwmod:
  2986  0800                     l2536:	
  2987                           ;incstack = 0
  2988                           ; Regs used in ___lwmod: [wreg+status,2+status,0+btemp+1]
  2989                           
  2990  0800  0873               	movf	___lwmod@divisor,w
  2991  0801  0474               	iorwf	___lwmod@divisor+1,w
  2992  0802  1903               	btfsc	3,2
  2993  0803  2805               	goto	u3871
  2994  0804  2806               	goto	u3870
  2995  0805                     u3871:
  2996  0805  2835               	goto	l2554
  2997  0806                     u3870:
  2998  0806                     l2538:
  2999  0806  01F7               	clrf	___lwmod@counter
  3000  0807  0AF7               	incf	___lwmod@counter,f
  3001  0808  2814               	goto	l2544
  3002  0809                     l2540:
  3003  0809  3001               	movlw	1
  3004  080A                     u3885:
  3005  080A  1003               	clrc
  3006  080B  0DF3               	rlf	___lwmod@divisor,f
  3007  080C  0DF4               	rlf	___lwmod@divisor+1,f
  3008  080D  3EFF               	addlw	-1
  3009  080E  1D03               	skipz
  3010  080F  280A               	goto	u3885
  3011  0810                     l2542:
  3012  0810  3001               	movlw	1
  3013  0811  00FF               	movwf	btemp+1
  3014  0812  087F               	movf	btemp+1,w
  3015  0813  07F7               	addwf	___lwmod@counter,f
  3016  0814                     l2544:
  3017  0814  1FF4               	btfss	___lwmod@divisor+1,7
  3018  0815  2817               	goto	u3891
  3019  0816  2818               	goto	u3890
  3020  0817                     u3891:
  3021  0817  2809               	goto	l2540
  3022  0818                     u3890:
  3023  0818                     l2546:
  3024  0818  0874               	movf	___lwmod@divisor+1,w
  3025  0819  0276               	subwf	___lwmod@dividend+1,w
  3026  081A  1D03               	skipz
  3027  081B  281E               	goto	u3905
  3028  081C  0873               	movf	___lwmod@divisor,w
  3029  081D  0275               	subwf	___lwmod@dividend,w
  3030  081E                     u3905:
  3031  081E  1C03               	skipc
  3032  081F  2821               	goto	u3901
  3033  0820  2822               	goto	u3900
  3034  0821                     u3901:
  3035  0821  2828               	goto	l2550
  3036  0822                     u3900:
  3037  0822                     l2548:
  3038  0822  0873               	movf	___lwmod@divisor,w
  3039  0823  02F5               	subwf	___lwmod@dividend,f
  3040  0824  0874               	movf	___lwmod@divisor+1,w
  3041  0825  1C03               	skipc
  3042  0826  03F6               	decf	___lwmod@dividend+1,f
  3043  0827  02F6               	subwf	___lwmod@dividend+1,f
  3044  0828                     l2550:
  3045  0828  3001               	movlw	1
  3046  0829                     u3915:
  3047  0829  1003               	clrc
  3048  082A  0CF4               	rrf	___lwmod@divisor+1,f
  3049  082B  0CF3               	rrf	___lwmod@divisor,f
  3050  082C  3EFF               	addlw	-1
  3051  082D  1D03               	skipz
  3052  082E  2829               	goto	u3915
  3053  082F                     l2552:
  3054  082F  3001               	movlw	1
  3055  0830  02F7               	subwf	___lwmod@counter,f
  3056  0831  1D03               	btfss	3,2
  3057  0832  2834               	goto	u3921
  3058  0833  2835               	goto	u3920
  3059  0834                     u3921:
  3060  0834  2818               	goto	l2546
  3061  0835                     u3920:
  3062  0835                     l2554:
  3063  0835  0876               	movf	___lwmod@dividend+1,w
  3064  0836  00F4               	movwf	?___lwmod+1
  3065  0837  0875               	movf	___lwmod@dividend,w
  3066  0838  00F3               	movwf	?___lwmod
  3067  0839                     l542:
  3068  0839  0008               	return
  3069  083A                     __end_of___lwmod:
  3070                           
  3071                           	psect	text11
  3072  19A9                     __ptext11:	
  3073 ;; *************** function ___lwdiv *****************
  3074 ;; Defined at:
  3075 ;;		line 5 in file "C:\Program Files\Microchip\xc8\v2.20\pic\sources\c90\common\lwdiv.c"
  3076 ;; Parameters:    Size  Location     Type
  3077 ;;  divisor         2    2[COMMON] unsigned int 
  3078 ;;  dividend        2    4[COMMON] unsigned int 
  3079 ;; Auto vars:     Size  Location     Type
  3080 ;;  quotient        2    6[COMMON] unsigned int 
  3081 ;;  counter         1    8[COMMON] unsigned char 
  3082 ;; Return value:  Size  Location     Type
  3083 ;;                  2    2[COMMON] unsigned int 
  3084 ;; Registers used:
  3085 ;;		wreg, status,2, status,0, btemp+1
  3086 ;; Tracked objects:
  3087 ;;		On entry : 0/0
  3088 ;;		On exit  : 0/0
  3089 ;;		Unchanged: 0/0
  3090 ;; Data sizes:     COMMON   BANK0   BANK1   BANK3   BANK2
  3091 ;;      Params:         4       0       0       0       0
  3092 ;;      Locals:         3       0       0       0       0
  3093 ;;      Temps:          0       0       0       0       0
  3094 ;;      Totals:         7       0       0       0       0
  3095 ;;Total ram usage:        7 bytes
  3096 ;; Hardware stack levels used:    1
  3097 ;; Hardware stack levels required when called:    1
  3098 ;; This function calls:
  3099 ;;		Nothing
  3100 ;; This function is called by:
  3101 ;;		_puts_float
  3102 ;; This function uses a non-reentrant model
  3103 ;;
  3104                           
  3105                           
  3106                           ;psect for function ___lwdiv
  3107  19A9                     ___lwdiv:
  3108  19A9                     l2510:	
  3109                           ;incstack = 0
  3110                           ; Regs used in ___lwdiv: [wreg+status,2+status,0+btemp+1]
  3111                           
  3112  19A9  01F7               	clrf	___lwdiv@quotient
  3113  19AA  01F8               	clrf	___lwdiv@quotient+1
  3114  19AB                     l2512:
  3115  19AB  0873               	movf	___lwdiv@divisor,w
  3116  19AC  0474               	iorwf	___lwdiv@divisor+1,w
  3117  19AD  1903               	btfsc	3,2
  3118  19AE  29B0               	goto	u3801
  3119  19AF  29B1               	goto	u3800
  3120  19B0                     u3801:
  3121  19B0  29E8               	goto	l2532
  3122  19B1                     u3800:
  3123  19B1                     l2514:
  3124  19B1  01F9               	clrf	___lwdiv@counter
  3125  19B2  0AF9               	incf	___lwdiv@counter,f
  3126  19B3  29BF               	goto	l2520
  3127  19B4                     l2516:
  3128  19B4  3001               	movlw	1
  3129  19B5                     u3815:
  3130  19B5  1003               	clrc
  3131  19B6  0DF3               	rlf	___lwdiv@divisor,f
  3132  19B7  0DF4               	rlf	___lwdiv@divisor+1,f
  3133  19B8  3EFF               	addlw	-1
  3134  19B9  1D03               	skipz
  3135  19BA  29B5               	goto	u3815
  3136  19BB                     l2518:
  3137  19BB  3001               	movlw	1
  3138  19BC  00FF               	movwf	btemp+1
  3139  19BD  087F               	movf	btemp+1,w
  3140  19BE  07F9               	addwf	___lwdiv@counter,f
  3141  19BF                     l2520:
  3142  19BF  1FF4               	btfss	___lwdiv@divisor+1,7
  3143  19C0  29C2               	goto	u3821
  3144  19C1  29C3               	goto	u3820
  3145  19C2                     u3821:
  3146  19C2  29B4               	goto	l2516
  3147  19C3                     u3820:
  3148  19C3                     l2522:
  3149  19C3  3001               	movlw	1
  3150  19C4                     u3835:
  3151  19C4  1003               	clrc
  3152  19C5  0DF7               	rlf	___lwdiv@quotient,f
  3153  19C6  0DF8               	rlf	___lwdiv@quotient+1,f
  3154  19C7  3EFF               	addlw	-1
  3155  19C8  1D03               	skipz
  3156  19C9  29C4               	goto	u3835
  3157  19CA  0874               	movf	___lwdiv@divisor+1,w
  3158  19CB  0276               	subwf	___lwdiv@dividend+1,w
  3159  19CC  1D03               	skipz
  3160  19CD  29D0               	goto	u3845
  3161  19CE  0873               	movf	___lwdiv@divisor,w
  3162  19CF  0275               	subwf	___lwdiv@dividend,w
  3163  19D0                     u3845:
  3164  19D0  1C03               	skipc
  3165  19D1  29D3               	goto	u3841
  3166  19D2  29D4               	goto	u3840
  3167  19D3                     u3841:
  3168  19D3  29DB               	goto	l2528
  3169  19D4                     u3840:
  3170  19D4                     l2524:
  3171  19D4  0873               	movf	___lwdiv@divisor,w
  3172  19D5  02F5               	subwf	___lwdiv@dividend,f
  3173  19D6  0874               	movf	___lwdiv@divisor+1,w
  3174  19D7  1C03               	skipc
  3175  19D8  03F6               	decf	___lwdiv@dividend+1,f
  3176  19D9  02F6               	subwf	___lwdiv@dividend+1,f
  3177  19DA                     l2526:
  3178  19DA  1477               	bsf	___lwdiv@quotient,0
  3179  19DB                     l2528:
  3180  19DB  3001               	movlw	1
  3181  19DC                     u3855:
  3182  19DC  1003               	clrc
  3183  19DD  0CF4               	rrf	___lwdiv@divisor+1,f
  3184  19DE  0CF3               	rrf	___lwdiv@divisor,f
  3185  19DF  3EFF               	addlw	-1
  3186  19E0  1D03               	skipz
  3187  19E1  29DC               	goto	u3855
  3188  19E2                     l2530:
  3189  19E2  3001               	movlw	1
  3190  19E3  02F9               	subwf	___lwdiv@counter,f
  3191  19E4  1D03               	btfss	3,2
  3192  19E5  29E7               	goto	u3861
  3193  19E6  29E8               	goto	u3860
  3194  19E7                     u3861:
  3195  19E7  29C3               	goto	l2522
  3196  19E8                     u3860:
  3197  19E8                     l2532:
  3198  19E8  0878               	movf	___lwdiv@quotient+1,w
  3199  19E9  00F4               	movwf	?___lwdiv+1
  3200  19EA  0877               	movf	___lwdiv@quotient,w
  3201  19EB  00F3               	movwf	?___lwdiv
  3202  19EC                     l532:
  3203  19EC  0008               	return
  3204  19ED                     __end_of___lwdiv:
  3205                           
  3206                           	psect	text12
  3207  1B79                     __ptext12:	
  3208 ;; *************** function ___fltol *****************
  3209 ;; Defined at:
  3210 ;;		line 43 in file "C:\Program Files\Microchip\xc8\v2.20\pic\sources\c90\common\fltol.c"
  3211 ;; Parameters:    Size  Location     Type
  3212 ;;  f1              4    2[COMMON] unsigned int 
  3213 ;; Auto vars:     Size  Location     Type
  3214 ;;  exp1            1    1[BANK0 ] unsigned char 
  3215 ;;  sign1           1    0[BANK0 ] unsigned char 
  3216 ;; Return value:  Size  Location     Type
  3217 ;;                  4    2[COMMON] long 
  3218 ;; Registers used:
  3219 ;;		wreg, status,2, status,0, btemp+1
  3220 ;; Tracked objects:
  3221 ;;		On entry : 0/0
  3222 ;;		On exit  : 0/0
  3223 ;;		Unchanged: 0/0
  3224 ;; Data sizes:     COMMON   BANK0   BANK1   BANK3   BANK2
  3225 ;;      Params:         4       0       0       0       0
  3226 ;;      Locals:         0       2       0       0       0
  3227 ;;      Temps:          4       0       0       0       0
  3228 ;;      Totals:         8       2       0       0       0
  3229 ;;Total ram usage:       10 bytes
  3230 ;; Hardware stack levels used:    1
  3231 ;; Hardware stack levels required when called:    1
  3232 ;; This function calls:
  3233 ;;		Nothing
  3234 ;; This function is called by:
  3235 ;;		_puts_float
  3236 ;;		_Get_Newton
  3237 ;;		_puts_Newton
  3238 ;; This function uses a non-reentrant model
  3239 ;;
  3240                           
  3241                           
  3242                           ;psect for function ___fltol
  3243  1B79                     ___fltol:
  3244  1B79                     l2472:	
  3245                           ;incstack = 0
  3246                           ; Regs used in ___fltol: [wreg+status,2+status,0+btemp+1]
  3247                           
  3248  1B79  1003               	clrc
  3249  1B7A  0D75               	rlf	___fltol@f1+2,w
  3250  1B7B  0D76               	rlf	___fltol@f1+3,w
  3251  1B7C  00FF               	movwf	btemp+1
  3252  1B7D  087F               	movf	btemp+1,w
  3253  1B7E  1283               	bcf	3,5	;RP0=0, select bank0
  3254  1B7F  1303               	bcf	3,6	;RP1=0, select bank0
  3255  1B80  00A1               	movwf	___fltol@exp1
  3256  1B81  0821               	movf	___fltol@exp1,w
  3257  1B82  1D03               	btfss	3,2
  3258  1B83  2B85               	goto	u3701
  3259  1B84  2B86               	goto	u3700
  3260  1B85                     u3701:
  3261  1B85  2B8F               	goto	l2478
  3262  1B86                     u3700:
  3263  1B86                     l2474:
  3264  1B86  3000               	movlw	0
  3265  1B87  00F6               	movwf	?___fltol+3
  3266  1B88  3000               	movlw	0
  3267  1B89  00F5               	movwf	?___fltol+2
  3268  1B8A  3000               	movlw	0
  3269  1B8B  00F4               	movwf	?___fltol+1
  3270  1B8C  3000               	movlw	0
  3271  1B8D  00F3               	movwf	?___fltol
  3272  1B8E  2BF4               	goto	l446
  3273  1B8F                     l2478:
  3274  1B8F  0873               	movf	___fltol@f1,w
  3275  1B90  00F7               	movwf	??___fltol
  3276  1B91  0874               	movf	___fltol@f1+1,w
  3277  1B92  00F8               	movwf	??___fltol+1
  3278  1B93  0875               	movf	___fltol@f1+2,w
  3279  1B94  00F9               	movwf	??___fltol+2
  3280  1B95  0876               	movf	___fltol@f1+3,w
  3281  1B96  00FA               	movwf	??___fltol+3
  3282  1B97  301F               	movlw	31
  3283  1B98                     u3715:
  3284  1B98  1003               	clrc
  3285  1B99  0CFA               	rrf	??___fltol+3,f
  3286  1B9A  0CF9               	rrf	??___fltol+2,f
  3287  1B9B  0CF8               	rrf	??___fltol+1,f
  3288  1B9C  0CF7               	rrf	??___fltol,f
  3289  1B9D                     u3710:
  3290  1B9D  3EFF               	addlw	-1
  3291  1B9E  1D03               	skipz
  3292  1B9F  2B98               	goto	u3715
  3293  1BA0  0877               	movf	??___fltol,w
  3294  1BA1  00FF               	movwf	btemp+1
  3295  1BA2  087F               	movf	btemp+1,w
  3296  1BA3  00A0               	movwf	___fltol@sign1
  3297  1BA4                     l2480:
  3298  1BA4  17F5               	bsf	___fltol@f1+2,7
  3299  1BA5                     l2482:
  3300  1BA5  30FF               	movlw	255
  3301  1BA6  05F3               	andwf	___fltol@f1,f
  3302  1BA7  30FF               	movlw	255
  3303  1BA8  05F4               	andwf	___fltol@f1+1,f
  3304  1BA9  30FF               	movlw	255
  3305  1BAA  05F5               	andwf	___fltol@f1+2,f
  3306  1BAB  3000               	movlw	0
  3307  1BAC  05F6               	andwf	___fltol@f1+3,f
  3308  1BAD                     l2484:
  3309  1BAD  3096               	movlw	150
  3310  1BAE  02A1               	subwf	___fltol@exp1,f
  3311  1BAF                     l2486:
  3312  1BAF  1FA1               	btfss	___fltol@exp1,7
  3313  1BB0  2BB2               	goto	u3721
  3314  1BB1  2BB3               	goto	u3720
  3315  1BB2                     u3721:
  3316  1BB2  2BCD               	goto	l2498
  3317  1BB3                     u3720:
  3318  1BB3                     l2488:
  3319  1BB3  0821               	movf	___fltol@exp1,w
  3320  1BB4  3A80               	xorlw	128
  3321  1BB5  3E97               	addlw	151
  3322  1BB6  1803               	skipnc
  3323  1BB7  2BB9               	goto	u3731
  3324  1BB8  2BBA               	goto	u3730
  3325  1BB9                     u3731:
  3326  1BB9  2BBB               	goto	l2494
  3327  1BBA                     u3730:
  3328  1BBA  2B86               	goto	l2474
  3329  1BBB                     l2494:
  3330  1BBB  3001               	movlw	1
  3331  1BBC                     u3745:
  3332  1BBC  1003               	clrc
  3333  1BBD  0CF6               	rrf	___fltol@f1+3,f
  3334  1BBE  0CF5               	rrf	___fltol@f1+2,f
  3335  1BBF  0CF4               	rrf	___fltol@f1+1,f
  3336  1BC0  0CF3               	rrf	___fltol@f1,f
  3337  1BC1  3EFF               	addlw	-1
  3338  1BC2  1D03               	skipz
  3339  1BC3  2BBC               	goto	u3745
  3340  1BC4                     l2496:
  3341  1BC4  3001               	movlw	1
  3342  1BC5  00FF               	movwf	btemp+1
  3343  1BC6  087F               	movf	btemp+1,w
  3344  1BC7  07A1               	addwf	___fltol@exp1,f
  3345  1BC8  1D03               	btfss	3,2
  3346  1BC9  2BCB               	goto	u3751
  3347  1BCA  2BCC               	goto	u3750
  3348  1BCB                     u3751:
  3349  1BCB  2BBB               	goto	l2494
  3350  1BCC                     u3750:
  3351  1BCC  2BE4               	goto	l2506
  3352  1BCD                     l2498:
  3353  1BCD  3020               	movlw	32
  3354  1BCE  0221               	subwf	___fltol@exp1,w
  3355  1BCF  1C03               	skipc
  3356  1BD0  2BD2               	goto	u3761
  3357  1BD1  2BD3               	goto	u3760
  3358  1BD2                     u3761:
  3359  1BD2  2BDF               	goto	l453
  3360  1BD3                     u3760:
  3361  1BD3  2B86               	goto	l2474
  3362  1BD4                     l2504:
  3363  1BD4  3001               	movlw	1
  3364  1BD5  00F7               	movwf	??___fltol
  3365  1BD6                     u3775:
  3366  1BD6  1003               	clrc
  3367  1BD7  0DF3               	rlf	___fltol@f1,f
  3368  1BD8  0DF4               	rlf	___fltol@f1+1,f
  3369  1BD9  0DF5               	rlf	___fltol@f1+2,f
  3370  1BDA  0DF6               	rlf	___fltol@f1+3,f
  3371  1BDB  0BF7               	decfsz	??___fltol,f
  3372  1BDC  2BD6               	goto	u3775
  3373  1BDD  3001               	movlw	1
  3374  1BDE  02A1               	subwf	___fltol@exp1,f
  3375  1BDF                     l453:
  3376  1BDF  0821               	movf	___fltol@exp1,w
  3377  1BE0  1D03               	btfss	3,2
  3378  1BE1  2BE3               	goto	u3781
  3379  1BE2  2BE4               	goto	u3780
  3380  1BE3                     u3781:
  3381  1BE3  2BD4               	goto	l2504
  3382  1BE4                     u3780:
  3383  1BE4                     l2506:
  3384  1BE4  0820               	movf	___fltol@sign1,w
  3385  1BE5  1903               	btfsc	3,2
  3386  1BE6  2BE8               	goto	u3791
  3387  1BE7  2BE9               	goto	u3790
  3388  1BE8                     u3791:
  3389  1BE8  2BF4               	goto	l456
  3390  1BE9                     u3790:
  3391  1BE9                     l2508:
  3392  1BE9  09F3               	comf	___fltol@f1,f
  3393  1BEA  09F4               	comf	___fltol@f1+1,f
  3394  1BEB  09F5               	comf	___fltol@f1+2,f
  3395  1BEC  09F6               	comf	___fltol@f1+3,f
  3396  1BED  0AF3               	incf	___fltol@f1,f
  3397  1BEE  1903               	skipnz
  3398  1BEF  0AF4               	incf	___fltol@f1+1,f
  3399  1BF0  1903               	skipnz
  3400  1BF1  0AF5               	incf	___fltol@f1+2,f
  3401  1BF2  1903               	skipnz
  3402  1BF3  0AF6               	incf	___fltol@f1+3,f
  3403  1BF4                     l456:
  3404  1BF4                     l446:
  3405  1BF4  0008               	return
  3406  1BF5                     __end_of___fltol:
  3407                           
  3408                           	psect	text13
  3409  1BF5                     __ptext13:	
  3410 ;; *************** function ___almod *****************
  3411 ;; Defined at:
  3412 ;;		line 5 in file "C:\Program Files\Microchip\xc8\v2.20\pic\sources\c90\common\almod.c"
  3413 ;; Parameters:    Size  Location     Type
  3414 ;;  divisor         4    2[COMMON] long 
  3415 ;;  dividend        4    6[COMMON] long 
  3416 ;; Auto vars:     Size  Location     Type
  3417 ;;  sign            1    1[BANK0 ] unsigned char 
  3418 ;;  counter         1    0[BANK0 ] unsigned char 
  3419 ;; Return value:  Size  Location     Type
  3420 ;;                  4    2[COMMON] long 
  3421 ;; Registers used:
  3422 ;;		wreg, status,2, status,0, btemp+1
  3423 ;; Tracked objects:
  3424 ;;		On entry : 0/0
  3425 ;;		On exit  : 0/0
  3426 ;;		Unchanged: 0/0
  3427 ;; Data sizes:     COMMON   BANK0   BANK1   BANK3   BANK2
  3428 ;;      Params:         8       0       0       0       0
  3429 ;;      Locals:         0       2       0       0       0
  3430 ;;      Temps:          1       0       0       0       0
  3431 ;;      Totals:         9       2       0       0       0
  3432 ;;Total ram usage:       11 bytes
  3433 ;; Hardware stack levels used:    1
  3434 ;; Hardware stack levels required when called:    1
  3435 ;; This function calls:
  3436 ;;		Nothing
  3437 ;; This function is called by:
  3438 ;;		_puts_float
  3439 ;; This function uses a non-reentrant model
  3440 ;;
  3441                           
  3442                           
  3443                           ;psect for function ___almod
  3444  1BF5                     ___almod:
  3445  1BF5                     l2336:	
  3446                           ;incstack = 0
  3447                           ; Regs used in ___almod: [wreg+status,2+status,0+btemp+1]
  3448                           
  3449  1BF5  1283               	bcf	3,5	;RP0=0, select bank0
  3450  1BF6  1303               	bcf	3,6	;RP1=0, select bank0
  3451  1BF7  01A1               	clrf	___almod@sign
  3452  1BF8                     l2338:
  3453  1BF8  1FFA               	btfss	___almod@dividend+3,7
  3454  1BF9  2BFB               	goto	u3351
  3455  1BFA  2BFC               	goto	u3350
  3456  1BFB                     u3351:
  3457  1BFB  2C09               	goto	l338
  3458  1BFC                     u3350:
  3459  1BFC                     l2340:
  3460  1BFC  09F7               	comf	___almod@dividend,f
  3461  1BFD  09F8               	comf	___almod@dividend+1,f
  3462  1BFE  09F9               	comf	___almod@dividend+2,f
  3463  1BFF  09FA               	comf	___almod@dividend+3,f
  3464  1C00  0AF7               	incf	___almod@dividend,f
  3465  1C01  1903               	skipnz
  3466  1C02  0AF8               	incf	___almod@dividend+1,f
  3467  1C03  1903               	skipnz
  3468  1C04  0AF9               	incf	___almod@dividend+2,f
  3469  1C05  1903               	skipnz
  3470  1C06  0AFA               	incf	___almod@dividend+3,f
  3471  1C07  01A1               	clrf	___almod@sign
  3472  1C08  0AA1               	incf	___almod@sign,f
  3473  1C09                     l338:
  3474  1C09  1FF6               	btfss	___almod@divisor+3,7
  3475  1C0A  2C0C               	goto	u3361
  3476  1C0B  2C0D               	goto	u3360
  3477  1C0C                     u3361:
  3478  1C0C  2C18               	goto	l2344
  3479  1C0D                     u3360:
  3480  1C0D                     l2342:
  3481  1C0D  09F3               	comf	___almod@divisor,f
  3482  1C0E  09F4               	comf	___almod@divisor+1,f
  3483  1C0F  09F5               	comf	___almod@divisor+2,f
  3484  1C10  09F6               	comf	___almod@divisor+3,f
  3485  1C11  0AF3               	incf	___almod@divisor,f
  3486  1C12  1903               	skipnz
  3487  1C13  0AF4               	incf	___almod@divisor+1,f
  3488  1C14  1903               	skipnz
  3489  1C15  0AF5               	incf	___almod@divisor+2,f
  3490  1C16  1903               	skipnz
  3491  1C17  0AF6               	incf	___almod@divisor+3,f
  3492  1C18                     l2344:
  3493  1C18  0876               	movf	___almod@divisor+3,w
  3494  1C19  0475               	iorwf	___almod@divisor+2,w
  3495  1C1A  0474               	iorwf	___almod@divisor+1,w
  3496  1C1B  0473               	iorwf	___almod@divisor,w
  3497  1C1C  1903               	skipnz
  3498  1C1D  2C1F               	goto	u3371
  3499  1C1E  2C20               	goto	u3370
  3500  1C1F                     u3371:
  3501  1C1F  2C63               	goto	l2362
  3502  1C20                     u3370:
  3503  1C20                     l2346:
  3504  1C20  01A0               	clrf	___almod@counter
  3505  1C21  0AA0               	incf	___almod@counter,f
  3506  1C22  2C30               	goto	l2352
  3507  1C23                     l2348:
  3508  1C23  3001               	movlw	1
  3509  1C24  00FB               	movwf	??___almod
  3510  1C25                     u3385:
  3511  1C25  1003               	clrc
  3512  1C26  0DF3               	rlf	___almod@divisor,f
  3513  1C27  0DF4               	rlf	___almod@divisor+1,f
  3514  1C28  0DF5               	rlf	___almod@divisor+2,f
  3515  1C29  0DF6               	rlf	___almod@divisor+3,f
  3516  1C2A  0BFB               	decfsz	??___almod,f
  3517  1C2B  2C25               	goto	u3385
  3518  1C2C                     l2350:
  3519  1C2C  3001               	movlw	1
  3520  1C2D  00FF               	movwf	btemp+1
  3521  1C2E  087F               	movf	btemp+1,w
  3522  1C2F  07A0               	addwf	___almod@counter,f
  3523  1C30                     l2352:
  3524  1C30  1FF6               	btfss	___almod@divisor+3,7
  3525  1C31  2C33               	goto	u3391
  3526  1C32  2C34               	goto	u3390
  3527  1C33                     u3391:
  3528  1C33  2C23               	goto	l2348
  3529  1C34                     u3390:
  3530  1C34                     l2354:
  3531  1C34  0876               	movf	___almod@divisor+3,w
  3532  1C35  027A               	subwf	___almod@dividend+3,w
  3533  1C36  1D03               	skipz
  3534  1C37  2C42               	goto	u3405
  3535  1C38  0875               	movf	___almod@divisor+2,w
  3536  1C39  0279               	subwf	___almod@dividend+2,w
  3537  1C3A  1D03               	skipz
  3538  1C3B  2C42               	goto	u3405
  3539  1C3C  0874               	movf	___almod@divisor+1,w
  3540  1C3D  0278               	subwf	___almod@dividend+1,w
  3541  1C3E  1D03               	skipz
  3542  1C3F  2C42               	goto	u3405
  3543  1C40  0873               	movf	___almod@divisor,w
  3544  1C41  0277               	subwf	___almod@dividend,w
  3545  1C42                     u3405:
  3546  1C42  1C03               	skipc
  3547  1C43  2C45               	goto	u3401
  3548  1C44  2C46               	goto	u3400
  3549  1C45                     u3401:
  3550  1C45  2C54               	goto	l2358
  3551  1C46                     u3400:
  3552  1C46                     l2356:
  3553  1C46  0873               	movf	___almod@divisor,w
  3554  1C47  02F7               	subwf	___almod@dividend,f
  3555  1C48  0874               	movf	___almod@divisor+1,w
  3556  1C49  1C03               	skipc
  3557  1C4A  0F74               	incfsz	___almod@divisor+1,w
  3558  1C4B  02F8               	subwf	___almod@dividend+1,f
  3559  1C4C  0875               	movf	___almod@divisor+2,w
  3560  1C4D  1C03               	skipc
  3561  1C4E  0F75               	incfsz	___almod@divisor+2,w
  3562  1C4F  02F9               	subwf	___almod@dividend+2,f
  3563  1C50  0876               	movf	___almod@divisor+3,w
  3564  1C51  1C03               	skipc
  3565  1C52  0F76               	incfsz	___almod@divisor+3,w
  3566  1C53  02FA               	subwf	___almod@dividend+3,f
  3567  1C54                     l2358:
  3568  1C54  3001               	movlw	1
  3569  1C55                     u3415:
  3570  1C55  1003               	clrc
  3571  1C56  0CF6               	rrf	___almod@divisor+3,f
  3572  1C57  0CF5               	rrf	___almod@divisor+2,f
  3573  1C58  0CF4               	rrf	___almod@divisor+1,f
  3574  1C59  0CF3               	rrf	___almod@divisor,f
  3575  1C5A  3EFF               	addlw	-1
  3576  1C5B  1D03               	skipz
  3577  1C5C  2C55               	goto	u3415
  3578  1C5D                     l2360:
  3579  1C5D  3001               	movlw	1
  3580  1C5E  02A0               	subwf	___almod@counter,f
  3581  1C5F  1D03               	btfss	3,2
  3582  1C60  2C62               	goto	u3421
  3583  1C61  2C63               	goto	u3420
  3584  1C62                     u3421:
  3585  1C62  2C34               	goto	l2354
  3586  1C63                     u3420:
  3587  1C63                     l2362:
  3588  1C63  0821               	movf	___almod@sign,w
  3589  1C64  1903               	btfsc	3,2
  3590  1C65  2C67               	goto	u3431
  3591  1C66  2C68               	goto	u3430
  3592  1C67                     u3431:
  3593  1C67  2C73               	goto	l2366
  3594  1C68                     u3430:
  3595  1C68                     l2364:
  3596  1C68  09F7               	comf	___almod@dividend,f
  3597  1C69  09F8               	comf	___almod@dividend+1,f
  3598  1C6A  09F9               	comf	___almod@dividend+2,f
  3599  1C6B  09FA               	comf	___almod@dividend+3,f
  3600  1C6C  0AF7               	incf	___almod@dividend,f
  3601  1C6D  1903               	skipnz
  3602  1C6E  0AF8               	incf	___almod@dividend+1,f
  3603  1C6F  1903               	skipnz
  3604  1C70  0AF9               	incf	___almod@dividend+2,f
  3605  1C71  1903               	skipnz
  3606  1C72  0AFA               	incf	___almod@dividend+3,f
  3607  1C73                     l2366:
  3608  1C73  087A               	movf	___almod@dividend+3,w
  3609  1C74  00F6               	movwf	?___almod+3
  3610  1C75  0879               	movf	___almod@dividend+2,w
  3611  1C76  00F5               	movwf	?___almod+2
  3612  1C77  0878               	movf	___almod@dividend+1,w
  3613  1C78  00F4               	movwf	?___almod+1
  3614  1C79  0877               	movf	___almod@dividend,w
  3615  1C7A  00F3               	movwf	?___almod
  3616  1C7B                     l348:
  3617  1C7B  0008               	return
  3618  1C7C                     __end_of___almod:
  3619                           
  3620                           	psect	text14
  3621  1D0A                     __ptext14:	
  3622 ;; *************** function ___aldiv *****************
  3623 ;; Defined at:
  3624 ;;		line 5 in file "C:\Program Files\Microchip\xc8\v2.20\pic\sources\c90\common\aldiv.c"
  3625 ;; Parameters:    Size  Location     Type
  3626 ;;  divisor         4    2[COMMON] long 
  3627 ;;  dividend        4    6[COMMON] long 
  3628 ;; Auto vars:     Size  Location     Type
  3629 ;;  quotient        4    2[BANK0 ] long 
  3630 ;;  sign            1    1[BANK0 ] unsigned char 
  3631 ;;  counter         1    0[BANK0 ] unsigned char 
  3632 ;; Return value:  Size  Location     Type
  3633 ;;                  4    2[COMMON] long 
  3634 ;; Registers used:
  3635 ;;		wreg, status,2, status,0, btemp+1
  3636 ;; Tracked objects:
  3637 ;;		On entry : 0/0
  3638 ;;		On exit  : 0/0
  3639 ;;		Unchanged: 0/0
  3640 ;; Data sizes:     COMMON   BANK0   BANK1   BANK3   BANK2
  3641 ;;      Params:         8       0       0       0       0
  3642 ;;      Locals:         0       6       0       0       0
  3643 ;;      Temps:          1       0       0       0       0
  3644 ;;      Totals:         9       6       0       0       0
  3645 ;;Total ram usage:       15 bytes
  3646 ;; Hardware stack levels used:    1
  3647 ;; Hardware stack levels required when called:    1
  3648 ;; This function calls:
  3649 ;;		Nothing
  3650 ;; This function is called by:
  3651 ;;		_puts_float
  3652 ;; This function uses a non-reentrant model
  3653 ;;
  3654                           
  3655                           
  3656                           ;psect for function ___aldiv
  3657  1D0A                     ___aldiv:
  3658  1D0A                     l2294:	
  3659                           ;incstack = 0
  3660                           ; Regs used in ___aldiv: [wreg+status,2+status,0+btemp+1]
  3661                           
  3662  1D0A  1283               	bcf	3,5	;RP0=0, select bank0
  3663  1D0B  1303               	bcf	3,6	;RP1=0, select bank0
  3664  1D0C  01A1               	clrf	___aldiv@sign
  3665  1D0D                     l2296:
  3666  1D0D  1FF6               	btfss	___aldiv@divisor+3,7
  3667  1D0E  2D10               	goto	u3251
  3668  1D0F  2D11               	goto	u3250
  3669  1D10                     u3251:
  3670  1D10  2D1E               	goto	l325
  3671  1D11                     u3250:
  3672  1D11                     l2298:
  3673  1D11  09F3               	comf	___aldiv@divisor,f
  3674  1D12  09F4               	comf	___aldiv@divisor+1,f
  3675  1D13  09F5               	comf	___aldiv@divisor+2,f
  3676  1D14  09F6               	comf	___aldiv@divisor+3,f
  3677  1D15  0AF3               	incf	___aldiv@divisor,f
  3678  1D16  1903               	skipnz
  3679  1D17  0AF4               	incf	___aldiv@divisor+1,f
  3680  1D18  1903               	skipnz
  3681  1D19  0AF5               	incf	___aldiv@divisor+2,f
  3682  1D1A  1903               	skipnz
  3683  1D1B  0AF6               	incf	___aldiv@divisor+3,f
  3684  1D1C  01A1               	clrf	___aldiv@sign
  3685  1D1D  0AA1               	incf	___aldiv@sign,f
  3686  1D1E                     l325:
  3687  1D1E  1FFA               	btfss	___aldiv@dividend+3,7
  3688  1D1F  2D21               	goto	u3261
  3689  1D20  2D22               	goto	u3260
  3690  1D21                     u3261:
  3691  1D21  2D31               	goto	l2304
  3692  1D22                     u3260:
  3693  1D22                     l2300:
  3694  1D22  09F7               	comf	___aldiv@dividend,f
  3695  1D23  09F8               	comf	___aldiv@dividend+1,f
  3696  1D24  09F9               	comf	___aldiv@dividend+2,f
  3697  1D25  09FA               	comf	___aldiv@dividend+3,f
  3698  1D26  0AF7               	incf	___aldiv@dividend,f
  3699  1D27  1903               	skipnz
  3700  1D28  0AF8               	incf	___aldiv@dividend+1,f
  3701  1D29  1903               	skipnz
  3702  1D2A  0AF9               	incf	___aldiv@dividend+2,f
  3703  1D2B  1903               	skipnz
  3704  1D2C  0AFA               	incf	___aldiv@dividend+3,f
  3705  1D2D                     l2302:
  3706  1D2D  3001               	movlw	1
  3707  1D2E  00FF               	movwf	btemp+1
  3708  1D2F  087F               	movf	btemp+1,w
  3709  1D30  06A1               	xorwf	___aldiv@sign,f
  3710  1D31                     l2304:
  3711  1D31  3000               	movlw	0
  3712  1D32  00A5               	movwf	___aldiv@quotient+3
  3713  1D33  3000               	movlw	0
  3714  1D34  00A4               	movwf	___aldiv@quotient+2
  3715  1D35  3000               	movlw	0
  3716  1D36  00A3               	movwf	___aldiv@quotient+1
  3717  1D37  3000               	movlw	0
  3718  1D38  00A2               	movwf	___aldiv@quotient
  3719  1D39                     l2306:
  3720  1D39  0876               	movf	___aldiv@divisor+3,w
  3721  1D3A  0475               	iorwf	___aldiv@divisor+2,w
  3722  1D3B  0474               	iorwf	___aldiv@divisor+1,w
  3723  1D3C  0473               	iorwf	___aldiv@divisor,w
  3724  1D3D  1903               	skipnz
  3725  1D3E  2D40               	goto	u3271
  3726  1D3F  2D41               	goto	u3270
  3727  1D40                     u3271:
  3728  1D40  2D8E               	goto	l2328
  3729  1D41                     u3270:
  3730  1D41                     l2308:
  3731  1D41  01A0               	clrf	___aldiv@counter
  3732  1D42  0AA0               	incf	___aldiv@counter,f
  3733  1D43  2D51               	goto	l2314
  3734  1D44                     l2310:
  3735  1D44  3001               	movlw	1
  3736  1D45  00FB               	movwf	??___aldiv
  3737  1D46                     u3285:
  3738  1D46  1003               	clrc
  3739  1D47  0DF3               	rlf	___aldiv@divisor,f
  3740  1D48  0DF4               	rlf	___aldiv@divisor+1,f
  3741  1D49  0DF5               	rlf	___aldiv@divisor+2,f
  3742  1D4A  0DF6               	rlf	___aldiv@divisor+3,f
  3743  1D4B  0BFB               	decfsz	??___aldiv,f
  3744  1D4C  2D46               	goto	u3285
  3745  1D4D                     l2312:
  3746  1D4D  3001               	movlw	1
  3747  1D4E  00FF               	movwf	btemp+1
  3748  1D4F  087F               	movf	btemp+1,w
  3749  1D50  07A0               	addwf	___aldiv@counter,f
  3750  1D51                     l2314:
  3751  1D51  1FF6               	btfss	___aldiv@divisor+3,7
  3752  1D52  2D54               	goto	u3291
  3753  1D53  2D55               	goto	u3290
  3754  1D54                     u3291:
  3755  1D54  2D44               	goto	l2310
  3756  1D55                     u3290:
  3757  1D55                     l2316:
  3758  1D55  3001               	movlw	1
  3759  1D56  00FB               	movwf	??___aldiv
  3760  1D57                     u3305:
  3761  1D57  1003               	clrc
  3762  1D58  0DA2               	rlf	___aldiv@quotient,f
  3763  1D59  0DA3               	rlf	___aldiv@quotient+1,f
  3764  1D5A  0DA4               	rlf	___aldiv@quotient+2,f
  3765  1D5B  0DA5               	rlf	___aldiv@quotient+3,f
  3766  1D5C  0BFB               	decfsz	??___aldiv,f
  3767  1D5D  2D57               	goto	u3305
  3768  1D5E                     l2318:
  3769  1D5E  0876               	movf	___aldiv@divisor+3,w
  3770  1D5F  027A               	subwf	___aldiv@dividend+3,w
  3771  1D60  1D03               	skipz
  3772  1D61  2D6C               	goto	u3315
  3773  1D62  0875               	movf	___aldiv@divisor+2,w
  3774  1D63  0279               	subwf	___aldiv@dividend+2,w
  3775  1D64  1D03               	skipz
  3776  1D65  2D6C               	goto	u3315
  3777  1D66  0874               	movf	___aldiv@divisor+1,w
  3778  1D67  0278               	subwf	___aldiv@dividend+1,w
  3779  1D68  1D03               	skipz
  3780  1D69  2D6C               	goto	u3315
  3781  1D6A  0873               	movf	___aldiv@divisor,w
  3782  1D6B  0277               	subwf	___aldiv@dividend,w
  3783  1D6C                     u3315:
  3784  1D6C  1C03               	skipc
  3785  1D6D  2D6F               	goto	u3311
  3786  1D6E  2D70               	goto	u3310
  3787  1D6F                     u3311:
  3788  1D6F  2D7F               	goto	l2324
  3789  1D70                     u3310:
  3790  1D70                     l2320:
  3791  1D70  0873               	movf	___aldiv@divisor,w
  3792  1D71  02F7               	subwf	___aldiv@dividend,f
  3793  1D72  0874               	movf	___aldiv@divisor+1,w
  3794  1D73  1C03               	skipc
  3795  1D74  0F74               	incfsz	___aldiv@divisor+1,w
  3796  1D75  02F8               	subwf	___aldiv@dividend+1,f
  3797  1D76  0875               	movf	___aldiv@divisor+2,w
  3798  1D77  1C03               	skipc
  3799  1D78  0F75               	incfsz	___aldiv@divisor+2,w
  3800  1D79  02F9               	subwf	___aldiv@dividend+2,f
  3801  1D7A  0876               	movf	___aldiv@divisor+3,w
  3802  1D7B  1C03               	skipc
  3803  1D7C  0F76               	incfsz	___aldiv@divisor+3,w
  3804  1D7D  02FA               	subwf	___aldiv@dividend+3,f
  3805  1D7E                     l2322:
  3806  1D7E  1422               	bsf	___aldiv@quotient,0
  3807  1D7F                     l2324:
  3808  1D7F  3001               	movlw	1
  3809  1D80                     u3325:
  3810  1D80  1003               	clrc
  3811  1D81  0CF6               	rrf	___aldiv@divisor+3,f
  3812  1D82  0CF5               	rrf	___aldiv@divisor+2,f
  3813  1D83  0CF4               	rrf	___aldiv@divisor+1,f
  3814  1D84  0CF3               	rrf	___aldiv@divisor,f
  3815  1D85  3EFF               	addlw	-1
  3816  1D86  1D03               	skipz
  3817  1D87  2D80               	goto	u3325
  3818  1D88                     l2326:
  3819  1D88  3001               	movlw	1
  3820  1D89  02A0               	subwf	___aldiv@counter,f
  3821  1D8A  1D03               	btfss	3,2
  3822  1D8B  2D8D               	goto	u3331
  3823  1D8C  2D8E               	goto	u3330
  3824  1D8D                     u3331:
  3825  1D8D  2D55               	goto	l2316
  3826  1D8E                     u3330:
  3827  1D8E                     l2328:
  3828  1D8E  0821               	movf	___aldiv@sign,w
  3829  1D8F  1903               	btfsc	3,2
  3830  1D90  2D92               	goto	u3341
  3831  1D91  2D93               	goto	u3340
  3832  1D92                     u3341:
  3833  1D92  2D9E               	goto	l2332
  3834  1D93                     u3340:
  3835  1D93                     l2330:
  3836  1D93  09A2               	comf	___aldiv@quotient,f
  3837  1D94  09A3               	comf	___aldiv@quotient+1,f
  3838  1D95  09A4               	comf	___aldiv@quotient+2,f
  3839  1D96  09A5               	comf	___aldiv@quotient+3,f
  3840  1D97  0AA2               	incf	___aldiv@quotient,f
  3841  1D98  1903               	skipnz
  3842  1D99  0AA3               	incf	___aldiv@quotient+1,f
  3843  1D9A  1903               	skipnz
  3844  1D9B  0AA4               	incf	___aldiv@quotient+2,f
  3845  1D9C  1903               	skipnz
  3846  1D9D  0AA5               	incf	___aldiv@quotient+3,f
  3847  1D9E                     l2332:
  3848  1D9E  0825               	movf	___aldiv@quotient+3,w
  3849  1D9F  00F6               	movwf	?___aldiv+3
  3850  1DA0  0824               	movf	___aldiv@quotient+2,w
  3851  1DA1  00F5               	movwf	?___aldiv+2
  3852  1DA2  0823               	movf	___aldiv@quotient+1,w
  3853  1DA3  00F4               	movwf	?___aldiv+1
  3854  1DA4  0822               	movf	___aldiv@quotient,w
  3855  1DA5  00F3               	movwf	?___aldiv
  3856  1DA6                     l335:
  3857  1DA6  0008               	return
  3858  1DA7                     __end_of___aldiv:
  3859                           
  3860                           	psect	text15
  3861  1592                     __ptext15:	
  3862 ;; *************** function _conversion_newton *****************
  3863 ;; Defined at:
  3864 ;;		line 196 in file "main.c"
  3865 ;; Parameters:    Size  Location     Type
  3866 ;;  Rc              4    0[BANK1 ] float 
  3867 ;; Auto vars:     Size  Location     Type
  3868 ;;  F               4   33[BANK1 ] float 
  3869 ;;  n               2   37[BANK1 ] int 
  3870 ;; Return value:  Size  Location     Type
  3871 ;;                  4    0[BANK1 ] float 
  3872 ;; Registers used:
  3873 ;;		wreg, fsr0l, fsr0h, status,2, status,0, btemp+1, pclath, cstack
  3874 ;; Tracked objects:
  3875 ;;		On entry : 0/0
  3876 ;;		On exit  : 0/0
  3877 ;;		Unchanged: 0/0
  3878 ;; Data sizes:     COMMON   BANK0   BANK1   BANK3   BANK2
  3879 ;;      Params:         0       0       4       0       0
  3880 ;;      Locals:         0       0      10       0       0
  3881 ;;      Temps:          0       0      25       0       0
  3882 ;;      Totals:         0       0      39       0       0
  3883 ;;Total ram usage:       39 bytes
  3884 ;; Hardware stack levels used:    1
  3885 ;; Hardware stack levels required when called:    3
  3886 ;; This function calls:
  3887 ;;		___fladd
  3888 ;;		___fldiv
  3889 ;;		___flge
  3890 ;;		___flmul
  3891 ;;		___flsub
  3892 ;; This function is called by:
  3893 ;;		_Get_Newton
  3894 ;; This function uses a non-reentrant model
  3895 ;;
  3896                           
  3897                           
  3898                           ;psect for function _conversion_newton
  3899  1592                     _conversion_newton:
  3900  1592                     l2956:	
  3901                           ;incstack = 0
  3902                           ; Regs used in _conversion_newton: [wreg-fsr0h+status,2+status,0+btemp+1+pclath+cstack]
  3903                           
  3904                           
  3905                           ;main.c: 197:      float F;;main.c: 198:      int n;;main.c: 199:      const float F_tab
      +                          [20]={70,35,30,28,25,20,19,18,15,13,10,7, 5.4, 4, 3, 2.2, 1.5, 0.9, 0.45, 0.12};;main.c:
      +                           200:      const float R_tab[20]={2000,2500,2600,2700,2900,3200,3400,3500,3900,4300,4800
      +                          ,5500,6800,8500,11000,16000,27000,45000,65000,95000};;main.c: 203:      if (Rc <= R_tab[
      +                          1])
  3906  1592  3005               	movlw	low (((conversion_newton@R_tab+4)-__stringbase)| (0+32768))
  3907  1593  0084               	movwf	4
  3908  1594  160A  118A  2000  160A  118A  	fcall	stringdir
  3909  1599  1683               	bsf	3,5	;RP0=1, select bank1
  3910  159A  1303               	bcf	3,6	;RP1=0, select bank1
  3911  159B  00A4               	movwf	??_conversion_newton^(0+128)
  3912  159C  160A  118A  2000  160A  118A  	fcall	stringdir
  3913  15A1  00A5               	movwf	(??_conversion_newton^(0+128)+1)
  3914  15A2  160A  118A  2000  160A  118A  	fcall	stringdir
  3915  15A7  00A6               	movwf	(??_conversion_newton^(0+128)+2)
  3916  15A8  160A  118A  2000  160A  118A  	fcall	stringdir
  3917  15AD  00A7               	movwf	(??_conversion_newton^(0+128)+3)
  3918  15AE  0827               	movf	(??_conversion_newton+3)^(0+128),w
  3919  15AF  00F6               	movwf	___flge@ff1+3
  3920  15B0  0826               	movf	(??_conversion_newton+2)^(0+128),w
  3921  15B1  00F5               	movwf	___flge@ff1+2
  3922  15B2  0825               	movf	(??_conversion_newton+1)^(0+128),w
  3923  15B3  00F4               	movwf	___flge@ff1+1
  3924  15B4  0824               	movf	??_conversion_newton^(0+128),w
  3925  15B5  00F3               	movwf	___flge@ff1
  3926  15B6  0823               	movf	(conversion_newton@Rc+3)^(0+128),w
  3927  15B7  00FA               	movwf	___flge@ff2+3
  3928  15B8  0822               	movf	(conversion_newton@Rc+2)^(0+128),w
  3929  15B9  00F9               	movwf	___flge@ff2+2
  3930  15BA  0821               	movf	(conversion_newton@Rc+1)^(0+128),w
  3931  15BB  00F8               	movwf	___flge@ff2+1
  3932  15BC  0820               	movf	conversion_newton@Rc^(0+128),w
  3933  15BD  00F7               	movwf	___flge@ff2
  3934  15BE  160A  158A  25A7  160A  118A  	fcall	___flge
  3935  15C3  1C03               	btfss	3,0
  3936  15C4  2DC6               	goto	u4741
  3937  15C5  2DC7               	goto	u4740
  3938  15C6                     u4741:
  3939  15C6  2DC7               	goto	l2960
  3940  15C7                     u4740:
  3941  15C7                     l2958:
  3942  15C7                     l2960:
  3943                           
  3944                           ;main.c: 207:      if ((Rc <= R_tab[2]) && (Rc > R_tab[1]))
  3945  15C7  3009               	movlw	low (((conversion_newton@R_tab+8)-__stringbase)| (0+32768))
  3946  15C8  0084               	movwf	4
  3947  15C9  160A  118A  2000  160A  118A  	fcall	stringdir
  3948  15CE  1683               	bsf	3,5	;RP0=1, select bank1
  3949  15CF  1303               	bcf	3,6	;RP1=0, select bank1
  3950  15D0  00A4               	movwf	??_conversion_newton^(0+128)
  3951  15D1  160A  118A  2000  160A  118A  	fcall	stringdir
  3952  15D6  00A5               	movwf	(??_conversion_newton^(0+128)+1)
  3953  15D7  160A  118A  2000  160A  118A  	fcall	stringdir
  3954  15DC  00A6               	movwf	(??_conversion_newton^(0+128)+2)
  3955  15DD  160A  118A  2000  160A  118A  	fcall	stringdir
  3956  15E2  00A7               	movwf	(??_conversion_newton^(0+128)+3)
  3957  15E3  0827               	movf	(??_conversion_newton+3)^(0+128),w
  3958  15E4  00F6               	movwf	___flge@ff1+3
  3959  15E5  0826               	movf	(??_conversion_newton+2)^(0+128),w
  3960  15E6  00F5               	movwf	___flge@ff1+2
  3961  15E7  0825               	movf	(??_conversion_newton+1)^(0+128),w
  3962  15E8  00F4               	movwf	___flge@ff1+1
  3963  15E9  0824               	movf	??_conversion_newton^(0+128),w
  3964  15EA  00F3               	movwf	___flge@ff1
  3965  15EB  0823               	movf	(conversion_newton@Rc+3)^(0+128),w
  3966  15EC  00FA               	movwf	___flge@ff2+3
  3967  15ED  0822               	movf	(conversion_newton@Rc+2)^(0+128),w
  3968  15EE  00F9               	movwf	___flge@ff2+2
  3969  15EF  0821               	movf	(conversion_newton@Rc+1)^(0+128),w
  3970  15F0  00F8               	movwf	___flge@ff2+1
  3971  15F1  0820               	movf	conversion_newton@Rc^(0+128),w
  3972  15F2  00F7               	movwf	___flge@ff2
  3973  15F3  160A  158A  25A7  160A  118A  	fcall	___flge
  3974  15F8  1C03               	btfss	3,0
  3975  15F9  2DFB               	goto	u4751
  3976  15FA  2DFC               	goto	u4750
  3977  15FB                     u4751:
  3978  15FB  2E3A               	goto	l2966
  3979  15FC                     u4750:
  3980  15FC                     l2962:
  3981  15FC  3005               	movlw	low (((conversion_newton@R_tab+4)-__stringbase)| (0+32768))
  3982  15FD  0084               	movwf	4
  3983  15FE  160A  118A  2000  160A  118A  	fcall	stringdir
  3984  1603  1683               	bsf	3,5	;RP0=1, select bank1
  3985  1604  1303               	bcf	3,6	;RP1=0, select bank1
  3986  1605  00A4               	movwf	??_conversion_newton^(0+128)
  3987  1606  160A  118A  2000  160A  118A  	fcall	stringdir
  3988  160B  00A5               	movwf	(??_conversion_newton^(0+128)+1)
  3989  160C  160A  118A  2000  160A  118A  	fcall	stringdir
  3990  1611  00A6               	movwf	(??_conversion_newton^(0+128)+2)
  3991  1612  160A  118A  2000  160A  118A  	fcall	stringdir
  3992  1617  00A7               	movwf	(??_conversion_newton^(0+128)+3)
  3993  1618  0827               	movf	(??_conversion_newton+3)^(0+128),w
  3994  1619  00F6               	movwf	___flge@ff1+3
  3995  161A  0826               	movf	(??_conversion_newton+2)^(0+128),w
  3996  161B  00F5               	movwf	___flge@ff1+2
  3997  161C  0825               	movf	(??_conversion_newton+1)^(0+128),w
  3998  161D  00F4               	movwf	___flge@ff1+1
  3999  161E  0824               	movf	??_conversion_newton^(0+128),w
  4000  161F  00F3               	movwf	___flge@ff1
  4001  1620  0823               	movf	(conversion_newton@Rc+3)^(0+128),w
  4002  1621  00FA               	movwf	___flge@ff2+3
  4003  1622  0822               	movf	(conversion_newton@Rc+2)^(0+128),w
  4004  1623  00F9               	movwf	___flge@ff2+2
  4005  1624  0821               	movf	(conversion_newton@Rc+1)^(0+128),w
  4006  1625  00F8               	movwf	___flge@ff2+1
  4007  1626  0820               	movf	conversion_newton@Rc^(0+128),w
  4008  1627  00F7               	movwf	___flge@ff2
  4009  1628  160A  158A  25A7  160A  118A  	fcall	___flge
  4010  162D  1803               	btfsc	3,0
  4011  162E  2E30               	goto	u4761
  4012  162F  2E31               	goto	u4760
  4013  1630                     u4761:
  4014  1630  2E3A               	goto	l2966
  4015  1631                     u4760:
  4016  1631                     l2964:
  4017                           
  4018                           ;main.c: 208:          {;main.c: 209:          n = 1;
  4019  1631  3001               	movlw	1
  4020  1632  1683               	bsf	3,5	;RP0=1, select bank1
  4021  1633  1303               	bcf	3,6	;RP1=0, select bank1
  4022  1634  00C5               	movwf	conversion_newton@n^(0+128)
  4023  1635  3000               	movlw	0
  4024  1636  00C6               	movwf	(conversion_newton@n^(0+128)+1)
  4025  1637                     L1:
  4026                           
  4027                           ;main.c: 210:          }
  4028  1637  120A  118A  2D9B   	goto	l3070
  4029  163A                     l2966:
  4030  163A  300D               	movlw	low (((conversion_newton@R_tab+12)-__stringbase)| (0+32768))
  4031  163B  0084               	movwf	4
  4032  163C  160A  118A  2000  160A  118A  	fcall	stringdir
  4033  1641  1683               	bsf	3,5	;RP0=1, select bank1
  4034  1642  1303               	bcf	3,6	;RP1=0, select bank1
  4035  1643  00A4               	movwf	??_conversion_newton^(0+128)
  4036  1644  160A  118A  2000  160A  118A  	fcall	stringdir
  4037  1649  00A5               	movwf	(??_conversion_newton^(0+128)+1)
  4038  164A  160A  118A  2000  160A  118A  	fcall	stringdir
  4039  164F  00A6               	movwf	(??_conversion_newton^(0+128)+2)
  4040  1650  160A  118A  2000  160A  118A  	fcall	stringdir
  4041  1655  00A7               	movwf	(??_conversion_newton^(0+128)+3)
  4042  1656  0827               	movf	(??_conversion_newton+3)^(0+128),w
  4043  1657  00F6               	movwf	___flge@ff1+3
  4044  1658  0826               	movf	(??_conversion_newton+2)^(0+128),w
  4045  1659  00F5               	movwf	___flge@ff1+2
  4046  165A  0825               	movf	(??_conversion_newton+1)^(0+128),w
  4047  165B  00F4               	movwf	___flge@ff1+1
  4048  165C  0824               	movf	??_conversion_newton^(0+128),w
  4049  165D  00F3               	movwf	___flge@ff1
  4050  165E  0823               	movf	(conversion_newton@Rc+3)^(0+128),w
  4051  165F  00FA               	movwf	___flge@ff2+3
  4052  1660  0822               	movf	(conversion_newton@Rc+2)^(0+128),w
  4053  1661  00F9               	movwf	___flge@ff2+2
  4054  1662  0821               	movf	(conversion_newton@Rc+1)^(0+128),w
  4055  1663  00F8               	movwf	___flge@ff2+1
  4056  1664  0820               	movf	conversion_newton@Rc^(0+128),w
  4057  1665  00F7               	movwf	___flge@ff2
  4058  1666  160A  158A  25A7  160A  118A  	fcall	___flge
  4059  166B  1C03               	btfss	3,0
  4060  166C  2E6E               	goto	u4771
  4061  166D  2E6F               	goto	u4770
  4062  166E                     u4771:
  4063  166E  2EAB               	goto	l2972
  4064  166F                     u4770:
  4065  166F                     l2968:
  4066  166F  3009               	movlw	low (((conversion_newton@R_tab+8)-__stringbase)| (0+32768))
  4067  1670  0084               	movwf	4
  4068  1671  160A  118A  2000  160A  118A  	fcall	stringdir
  4069  1676  1683               	bsf	3,5	;RP0=1, select bank1
  4070  1677  1303               	bcf	3,6	;RP1=0, select bank1
  4071  1678  00A4               	movwf	??_conversion_newton^(0+128)
  4072  1679  160A  118A  2000  160A  118A  	fcall	stringdir
  4073  167E  00A5               	movwf	(??_conversion_newton^(0+128)+1)
  4074  167F  160A  118A  2000  160A  118A  	fcall	stringdir
  4075  1684  00A6               	movwf	(??_conversion_newton^(0+128)+2)
  4076  1685  160A  118A  2000  160A  118A  	fcall	stringdir
  4077  168A  00A7               	movwf	(??_conversion_newton^(0+128)+3)
  4078  168B  0827               	movf	(??_conversion_newton+3)^(0+128),w
  4079  168C  00F6               	movwf	___flge@ff1+3
  4080  168D  0826               	movf	(??_conversion_newton+2)^(0+128),w
  4081  168E  00F5               	movwf	___flge@ff1+2
  4082  168F  0825               	movf	(??_conversion_newton+1)^(0+128),w
  4083  1690  00F4               	movwf	___flge@ff1+1
  4084  1691  0824               	movf	??_conversion_newton^(0+128),w
  4085  1692  00F3               	movwf	___flge@ff1
  4086  1693  0823               	movf	(conversion_newton@Rc+3)^(0+128),w
  4087  1694  00FA               	movwf	___flge@ff2+3
  4088  1695  0822               	movf	(conversion_newton@Rc+2)^(0+128),w
  4089  1696  00F9               	movwf	___flge@ff2+2
  4090  1697  0821               	movf	(conversion_newton@Rc+1)^(0+128),w
  4091  1698  00F8               	movwf	___flge@ff2+1
  4092  1699  0820               	movf	conversion_newton@Rc^(0+128),w
  4093  169A  00F7               	movwf	___flge@ff2
  4094  169B  160A  158A  25A7  160A  118A  	fcall	___flge
  4095  16A0  1803               	btfsc	3,0
  4096  16A1  2EA3               	goto	u4781
  4097  16A2  2EA4               	goto	u4780
  4098  16A3                     u4781:
  4099  16A3  2EAB               	goto	l2972
  4100  16A4                     u4780:
  4101  16A4                     l2970:
  4102                           
  4103                           ;main.c: 212:          {;main.c: 213:          n = 2;
  4104  16A4  3002               	movlw	2
  4105  16A5  1683               	bsf	3,5	;RP0=1, select bank1
  4106  16A6  1303               	bcf	3,6	;RP1=0, select bank1
  4107  16A7  00C5               	movwf	conversion_newton@n^(0+128)
  4108  16A8  3000               	movlw	0
  4109  16A9  00C6               	movwf	(conversion_newton@n^(0+128)+1)
  4110                           
  4111                           ;main.c: 214:          }
  4112  16AA  2E37               	goto	L1
  4113  16AB                     l2972:
  4114  16AB  3011               	movlw	low (((conversion_newton@R_tab+16)-__stringbase)| (0+32768))
  4115  16AC  0084               	movwf	4
  4116  16AD  160A  118A  2000  160A  118A  	fcall	stringdir
  4117  16B2  1683               	bsf	3,5	;RP0=1, select bank1
  4118  16B3  1303               	bcf	3,6	;RP1=0, select bank1
  4119  16B4  00A4               	movwf	??_conversion_newton^(0+128)
  4120  16B5  160A  118A  2000  160A  118A  	fcall	stringdir
  4121  16BA  00A5               	movwf	(??_conversion_newton^(0+128)+1)
  4122  16BB  160A  118A  2000  160A  118A  	fcall	stringdir
  4123  16C0  00A6               	movwf	(??_conversion_newton^(0+128)+2)
  4124  16C1  160A  118A  2000  160A  118A  	fcall	stringdir
  4125  16C6  00A7               	movwf	(??_conversion_newton^(0+128)+3)
  4126  16C7  0827               	movf	(??_conversion_newton+3)^(0+128),w
  4127  16C8  00F6               	movwf	___flge@ff1+3
  4128  16C9  0826               	movf	(??_conversion_newton+2)^(0+128),w
  4129  16CA  00F5               	movwf	___flge@ff1+2
  4130  16CB  0825               	movf	(??_conversion_newton+1)^(0+128),w
  4131  16CC  00F4               	movwf	___flge@ff1+1
  4132  16CD  0824               	movf	??_conversion_newton^(0+128),w
  4133  16CE  00F3               	movwf	___flge@ff1
  4134  16CF  0823               	movf	(conversion_newton@Rc+3)^(0+128),w
  4135  16D0  00FA               	movwf	___flge@ff2+3
  4136  16D1  0822               	movf	(conversion_newton@Rc+2)^(0+128),w
  4137  16D2  00F9               	movwf	___flge@ff2+2
  4138  16D3  0821               	movf	(conversion_newton@Rc+1)^(0+128),w
  4139  16D4  00F8               	movwf	___flge@ff2+1
  4140  16D5  0820               	movf	conversion_newton@Rc^(0+128),w
  4141  16D6  00F7               	movwf	___flge@ff2
  4142  16D7  160A  158A  25A7  160A  118A  	fcall	___flge
  4143  16DC  1C03               	btfss	3,0
  4144  16DD  2EDF               	goto	u4791
  4145  16DE  2EE0               	goto	u4790
  4146  16DF                     u4791:
  4147  16DF  2F1C               	goto	l2978
  4148  16E0                     u4790:
  4149  16E0                     l2974:
  4150  16E0  300D               	movlw	low (((conversion_newton@R_tab+12)-__stringbase)| (0+32768))
  4151  16E1  0084               	movwf	4
  4152  16E2  160A  118A  2000  160A  118A  	fcall	stringdir
  4153  16E7  1683               	bsf	3,5	;RP0=1, select bank1
  4154  16E8  1303               	bcf	3,6	;RP1=0, select bank1
  4155  16E9  00A4               	movwf	??_conversion_newton^(0+128)
  4156  16EA  160A  118A  2000  160A  118A  	fcall	stringdir
  4157  16EF  00A5               	movwf	(??_conversion_newton^(0+128)+1)
  4158  16F0  160A  118A  2000  160A  118A  	fcall	stringdir
  4159  16F5  00A6               	movwf	(??_conversion_newton^(0+128)+2)
  4160  16F6  160A  118A  2000  160A  118A  	fcall	stringdir
  4161  16FB  00A7               	movwf	(??_conversion_newton^(0+128)+3)
  4162  16FC  0827               	movf	(??_conversion_newton+3)^(0+128),w
  4163  16FD  00F6               	movwf	___flge@ff1+3
  4164  16FE  0826               	movf	(??_conversion_newton+2)^(0+128),w
  4165  16FF  00F5               	movwf	___flge@ff1+2
  4166  1700  0825               	movf	(??_conversion_newton+1)^(0+128),w
  4167  1701  00F4               	movwf	___flge@ff1+1
  4168  1702  0824               	movf	??_conversion_newton^(0+128),w
  4169  1703  00F3               	movwf	___flge@ff1
  4170  1704  0823               	movf	(conversion_newton@Rc+3)^(0+128),w
  4171  1705  00FA               	movwf	___flge@ff2+3
  4172  1706  0822               	movf	(conversion_newton@Rc+2)^(0+128),w
  4173  1707  00F9               	movwf	___flge@ff2+2
  4174  1708  0821               	movf	(conversion_newton@Rc+1)^(0+128),w
  4175  1709  00F8               	movwf	___flge@ff2+1
  4176  170A  0820               	movf	conversion_newton@Rc^(0+128),w
  4177  170B  00F7               	movwf	___flge@ff2
  4178  170C  160A  158A  25A7  160A  118A  	fcall	___flge
  4179  1711  1803               	btfsc	3,0
  4180  1712  2F14               	goto	u4801
  4181  1713  2F15               	goto	u4800
  4182  1714                     u4801:
  4183  1714  2F1C               	goto	l2978
  4184  1715                     u4800:
  4185  1715                     l2976:
  4186                           
  4187                           ;main.c: 216:          {;main.c: 217:          n = 3;
  4188  1715  3003               	movlw	3
  4189  1716  1683               	bsf	3,5	;RP0=1, select bank1
  4190  1717  1303               	bcf	3,6	;RP1=0, select bank1
  4191  1718  00C5               	movwf	conversion_newton@n^(0+128)
  4192  1719  3000               	movlw	0
  4193  171A  00C6               	movwf	(conversion_newton@n^(0+128)+1)
  4194                           
  4195                           ;main.c: 218:          }
  4196  171B  2E37               	goto	L1
  4197  171C                     l2978:
  4198  171C  3015               	movlw	low (((conversion_newton@R_tab+20)-__stringbase)| (0+32768))
  4199  171D  0084               	movwf	4
  4200  171E  160A  118A  2000  160A  118A  	fcall	stringdir
  4201  1723  1683               	bsf	3,5	;RP0=1, select bank1
  4202  1724  1303               	bcf	3,6	;RP1=0, select bank1
  4203  1725  00A4               	movwf	??_conversion_newton^(0+128)
  4204  1726  160A  118A  2000  160A  118A  	fcall	stringdir
  4205  172B  00A5               	movwf	(??_conversion_newton^(0+128)+1)
  4206  172C  160A  118A  2000  160A  118A  	fcall	stringdir
  4207  1731  00A6               	movwf	(??_conversion_newton^(0+128)+2)
  4208  1732  160A  118A  2000  160A  118A  	fcall	stringdir
  4209  1737  00A7               	movwf	(??_conversion_newton^(0+128)+3)
  4210  1738  0827               	movf	(??_conversion_newton+3)^(0+128),w
  4211  1739  00F6               	movwf	___flge@ff1+3
  4212  173A  0826               	movf	(??_conversion_newton+2)^(0+128),w
  4213  173B  00F5               	movwf	___flge@ff1+2
  4214  173C  0825               	movf	(??_conversion_newton+1)^(0+128),w
  4215  173D  00F4               	movwf	___flge@ff1+1
  4216  173E  0824               	movf	??_conversion_newton^(0+128),w
  4217  173F  00F3               	movwf	___flge@ff1
  4218  1740  0823               	movf	(conversion_newton@Rc+3)^(0+128),w
  4219  1741  00FA               	movwf	___flge@ff2+3
  4220  1742  0822               	movf	(conversion_newton@Rc+2)^(0+128),w
  4221  1743  00F9               	movwf	___flge@ff2+2
  4222  1744  0821               	movf	(conversion_newton@Rc+1)^(0+128),w
  4223  1745  00F8               	movwf	___flge@ff2+1
  4224  1746  0820               	movf	conversion_newton@Rc^(0+128),w
  4225  1747  00F7               	movwf	___flge@ff2
  4226  1748  160A  158A  25A7  160A  118A  	fcall	___flge
  4227  174D  1C03               	btfss	3,0
  4228  174E  2F50               	goto	u4811
  4229  174F  2F51               	goto	u4810
  4230  1750                     u4811:
  4231  1750  2F8D               	goto	l2984
  4232  1751                     u4810:
  4233  1751                     l2980:
  4234  1751  3011               	movlw	low (((conversion_newton@R_tab+16)-__stringbase)| (0+32768))
  4235  1752  0084               	movwf	4
  4236  1753  160A  118A  2000  160A  118A  	fcall	stringdir
  4237  1758  1683               	bsf	3,5	;RP0=1, select bank1
  4238  1759  1303               	bcf	3,6	;RP1=0, select bank1
  4239  175A  00A4               	movwf	??_conversion_newton^(0+128)
  4240  175B  160A  118A  2000  160A  118A  	fcall	stringdir
  4241  1760  00A5               	movwf	(??_conversion_newton^(0+128)+1)
  4242  1761  160A  118A  2000  160A  118A  	fcall	stringdir
  4243  1766  00A6               	movwf	(??_conversion_newton^(0+128)+2)
  4244  1767  160A  118A  2000  160A  118A  	fcall	stringdir
  4245  176C  00A7               	movwf	(??_conversion_newton^(0+128)+3)
  4246  176D  0827               	movf	(??_conversion_newton+3)^(0+128),w
  4247  176E  00F6               	movwf	___flge@ff1+3
  4248  176F  0826               	movf	(??_conversion_newton+2)^(0+128),w
  4249  1770  00F5               	movwf	___flge@ff1+2
  4250  1771  0825               	movf	(??_conversion_newton+1)^(0+128),w
  4251  1772  00F4               	movwf	___flge@ff1+1
  4252  1773  0824               	movf	??_conversion_newton^(0+128),w
  4253  1774  00F3               	movwf	___flge@ff1
  4254  1775  0823               	movf	(conversion_newton@Rc+3)^(0+128),w
  4255  1776  00FA               	movwf	___flge@ff2+3
  4256  1777  0822               	movf	(conversion_newton@Rc+2)^(0+128),w
  4257  1778  00F9               	movwf	___flge@ff2+2
  4258  1779  0821               	movf	(conversion_newton@Rc+1)^(0+128),w
  4259  177A  00F8               	movwf	___flge@ff2+1
  4260  177B  0820               	movf	conversion_newton@Rc^(0+128),w
  4261  177C  00F7               	movwf	___flge@ff2
  4262  177D  160A  158A  25A7  160A  118A  	fcall	___flge
  4263  1782  1803               	btfsc	3,0
  4264  1783  2F85               	goto	u4821
  4265  1784  2F86               	goto	u4820
  4266  1785                     u4821:
  4267  1785  2F8D               	goto	l2984
  4268  1786                     u4820:
  4269  1786                     l2982:
  4270                           
  4271                           ;main.c: 220:          {;main.c: 221:          n = 4;
  4272  1786  3004               	movlw	4
  4273  1787  1683               	bsf	3,5	;RP0=1, select bank1
  4274  1788  1303               	bcf	3,6	;RP1=0, select bank1
  4275  1789  00C5               	movwf	conversion_newton@n^(0+128)
  4276  178A  3000               	movlw	0
  4277  178B  00C6               	movwf	(conversion_newton@n^(0+128)+1)
  4278                           
  4279                           ;main.c: 222:          }
  4280  178C  2E37               	goto	L1
  4281  178D                     l2984:
  4282  178D  3019               	movlw	low (((conversion_newton@R_tab+24)-__stringbase)| (0+32768))
  4283  178E  0084               	movwf	4
  4284  178F  160A  118A  2000  160A  118A  	fcall	stringdir
  4285  1794  1683               	bsf	3,5	;RP0=1, select bank1
  4286  1795  1303               	bcf	3,6	;RP1=0, select bank1
  4287  1796  00A4               	movwf	??_conversion_newton^(0+128)
  4288  1797  160A  118A  2000  160A  118A  	fcall	stringdir
  4289  179C  00A5               	movwf	(??_conversion_newton^(0+128)+1)
  4290  179D  160A  118A  2000  160A  118A  	fcall	stringdir
  4291  17A2  00A6               	movwf	(??_conversion_newton^(0+128)+2)
  4292  17A3  160A  118A  2000  160A  118A  	fcall	stringdir
  4293  17A8  00A7               	movwf	(??_conversion_newton^(0+128)+3)
  4294  17A9  0827               	movf	(??_conversion_newton+3)^(0+128),w
  4295  17AA  00F6               	movwf	___flge@ff1+3
  4296  17AB  0826               	movf	(??_conversion_newton+2)^(0+128),w
  4297  17AC  00F5               	movwf	___flge@ff1+2
  4298  17AD  0825               	movf	(??_conversion_newton+1)^(0+128),w
  4299  17AE  00F4               	movwf	___flge@ff1+1
  4300  17AF  0824               	movf	??_conversion_newton^(0+128),w
  4301  17B0  00F3               	movwf	___flge@ff1
  4302  17B1  0823               	movf	(conversion_newton@Rc+3)^(0+128),w
  4303  17B2  00FA               	movwf	___flge@ff2+3
  4304  17B3  0822               	movf	(conversion_newton@Rc+2)^(0+128),w
  4305  17B4  00F9               	movwf	___flge@ff2+2
  4306  17B5  0821               	movf	(conversion_newton@Rc+1)^(0+128),w
  4307  17B6  00F8               	movwf	___flge@ff2+1
  4308  17B7  0820               	movf	conversion_newton@Rc^(0+128),w
  4309  17B8  00F7               	movwf	___flge@ff2
  4310  17B9  160A  158A  25A7  160A  118A  	fcall	___flge
  4311  17BE  1C03               	btfss	3,0
  4312  17BF  2FC1               	goto	u4831
  4313  17C0  2FC4               	goto	u4830
  4314  17C1                     u4831:
  4315  17C1  160A  118A  2B57   	goto	l2990
  4316  17C4                     u4830:
  4317  17C4                     l2986:
  4318  17C4  3015               	movlw	low (((conversion_newton@R_tab+20)-__stringbase)| (0+32768))
  4319  17C5  0084               	movwf	4
  4320  17C6  160A  118A  2000  160A  118A  	fcall	stringdir
  4321  17CB  1683               	bsf	3,5	;RP0=1, select bank1
  4322  17CC  1303               	bcf	3,6	;RP1=0, select bank1
  4323  17CD  00A4               	movwf	??_conversion_newton^(0+128)
  4324  17CE  160A  118A  2000  160A  118A  	fcall	stringdir
  4325  17D3  00A5               	movwf	(??_conversion_newton^(0+128)+1)
  4326  17D4  160A  118A  2000  160A  118A  	fcall	stringdir
  4327  17D9  00A6               	movwf	(??_conversion_newton^(0+128)+2)
  4328  17DA  160A  118A  2000  160A  118A  	fcall	stringdir
  4329  17DF  00A7               	movwf	(??_conversion_newton^(0+128)+3)
  4330  17E0  0827               	movf	(??_conversion_newton+3)^(0+128),w
  4331  17E1  00F6               	movwf	___flge@ff1+3
  4332  17E2  0826               	movf	(??_conversion_newton+2)^(0+128),w
  4333  17E3  00F5               	movwf	___flge@ff1+2
  4334  17E4  0825               	movf	(??_conversion_newton+1)^(0+128),w
  4335  17E5  00F4               	movwf	___flge@ff1+1
  4336  17E6  0824               	movf	??_conversion_newton^(0+128),w
  4337  17E7  00F3               	movwf	___flge@ff1
  4338  17E8  0823               	movf	(conversion_newton@Rc+3)^(0+128),w
  4339  17E9  00FA               	movwf	___flge@ff2+3
  4340  17EA  0822               	movf	(conversion_newton@Rc+2)^(0+128),w
  4341  17EB  00F9               	movwf	___flge@ff2+2
  4342  17EC  0821               	movf	(conversion_newton@Rc+1)^(0+128),w
  4343  17ED  00F8               	movwf	___flge@ff2+1
  4344  17EE  0820               	movf	conversion_newton@Rc^(0+128),w
  4345  17EF  00F7               	movwf	___flge@ff2
  4346  17F0  160A  158A  25A7  160A  118A  	fcall	___flge
  4347  17F5  1803               	btfsc	3,0
  4348  17F6  2FF8               	goto	u4841
  4349  17F7  2FF9               	goto	u4840
  4350  17F8                     u4841:
  4351  17F8  2FC1               	goto	u4831
  4352  17F9                     u4840:
  4353  17F9                     l2988:
  4354                           
  4355                           ;main.c: 224:          {;main.c: 225:          n = 5;
  4356  17F9  3005               	movlw	5
  4357  17FA  1683               	bsf	3,5	;RP0=1, select bank1
  4358  17FB  1303               	bcf	3,6	;RP1=0, select bank1
  4359  17FC  00C5               	movwf	conversion_newton@n^(0+128)
  4360  17FD  3000               	movlw	0
  4361  17FE  00C6               	movwf	(conversion_newton@n^(0+128)+1)
  4362                           
  4363                           ;main.c: 226:          }
  4364  17FF  2E37               	goto	L1
  4365                           
  4366                           	psect	text16
  4367  1C7C                     __ptext16:	
  4368 ;; *************** function _Voltage_Value *****************
  4369 ;; Defined at:
  4370 ;;		line 169 in file "main.c"
  4371 ;; Parameters:    Size  Location     Type
  4372 ;;  sensor          1    wreg     unsigned char 
  4373 ;; Auto vars:     Size  Location     Type
  4374 ;;  sensor          1    8[BANK1 ] unsigned char 
  4375 ;;  voltage_resu    4    9[BANK1 ] float 
  4376 ;; Return value:  Size  Location     Type
  4377 ;;                  4    0[BANK1 ] float 
  4378 ;; Registers used:
  4379 ;;		wreg, status,2, status,0, btemp+1, pclath, cstack
  4380 ;; Tracked objects:
  4381 ;;		On entry : 0/0
  4382 ;;		On exit  : 0/0
  4383 ;;		Unchanged: 0/0
  4384 ;; Data sizes:     COMMON   BANK0   BANK1   BANK3   BANK2
  4385 ;;      Params:         0       0       4       0       0
  4386 ;;      Locals:         0       0       5       0       0
  4387 ;;      Temps:          0       0       4       0       0
  4388 ;;      Totals:         0       0      13       0       0
  4389 ;;Total ram usage:       13 bytes
  4390 ;; Hardware stack levels used:    1
  4391 ;; Hardware stack levels required when called:    3
  4392 ;; This function calls:
  4393 ;;		___fldiv
  4394 ;;		___flge
  4395 ;;		___flmul
  4396 ;;		___xxtofl
  4397 ;; This function is called by:
  4398 ;;		_Get_Newton
  4399 ;; This function uses a non-reentrant model
  4400 ;;
  4401                           
  4402                           
  4403                           ;psect for function _Voltage_Value
  4404  1C7C                     _Voltage_Value:
  4405                           
  4406                           ;incstack = 0
  4407                           ; Regs used in _Voltage_Value: [wreg+status,2+status,0+btemp+1+pclath+cstack]
  4408                           ;Voltage_Value@sensor stored from wreg
  4409  1C7C  1683               	bsf	3,5	;RP0=1, select bank1
  4410  1C7D  1303               	bcf	3,6	;RP1=0, select bank1
  4411  1C7E  00A8               	movwf	Voltage_Value@sensor^(0+128)
  4412  1C7F                     l2942:
  4413                           
  4414                           ;main.c: 171:     float voltage_result;;main.c: 172:     voltage_result = (float) sensor
      +                           * 5.0/256;
  4415  1C7F  3043               	movlw	67
  4416  1C80  1283               	bcf	3,5	;RP0=0, select bank0
  4417  1C81  1303               	bcf	3,6	;RP1=0, select bank0
  4418  1C82  00BF               	movwf	___fldiv@a+3
  4419  1C83  3080               	movlw	128
  4420  1C84  00BE               	movwf	___fldiv@a+2
  4421  1C85  3000               	movlw	0
  4422  1C86  00BD               	movwf	___fldiv@a+1
  4423  1C87  3000               	movlw	0
  4424  1C88  00BC               	movwf	___fldiv@a
  4425  1C89  3040               	movlw	64
  4426  1C8A  00D9               	movwf	___flmul@b+3
  4427  1C8B  30A0               	movlw	160
  4428  1C8C  00D8               	movwf	___flmul@b+2
  4429  1C8D  3000               	movlw	0
  4430  1C8E  00D7               	movwf	___flmul@b+1
  4431  1C8F  3000               	movlw	0
  4432  1C90  00D6               	movwf	___flmul@b
  4433  1C91  1683               	bsf	3,5	;RP0=1, select bank1
  4434  1C92  1303               	bcf	3,6	;RP1=0, select bank1
  4435  1C93  0828               	movf	Voltage_Value@sensor^(0+128),w
  4436  1C94  00A4               	movwf	??_Voltage_Value^(0+128)
  4437  1C95  01A5               	clrf	(??_Voltage_Value^(0+128)+1)
  4438  1C96  01A6               	clrf	(??_Voltage_Value^(0+128)+2)
  4439  1C97  01A7               	clrf	(??_Voltage_Value^(0+128)+3)
  4440  1C98  0827               	movf	(??_Voltage_Value+3)^(0+128),w
  4441  1C99  00F6               	movwf	___xxtofl@val+3
  4442  1C9A  0826               	movf	(??_Voltage_Value+2)^(0+128),w
  4443  1C9B  00F5               	movwf	___xxtofl@val+2
  4444  1C9C  0825               	movf	(??_Voltage_Value+1)^(0+128),w
  4445  1C9D  00F4               	movwf	___xxtofl@val+1
  4446  1C9E  0824               	movf	??_Voltage_Value^(0+128),w
  4447  1C9F  00F3               	movwf	___xxtofl@val
  4448  1CA0  3000               	movlw	0
  4449  1CA1  160A  118A  20D1  160A  158A  	fcall	___xxtofl
  4450  1CA6  0876               	movf	?___xxtofl+3,w
  4451  1CA7  1283               	bcf	3,5	;RP0=0, select bank0
  4452  1CA8  1303               	bcf	3,6	;RP1=0, select bank0
  4453  1CA9  00DD               	movwf	___flmul@a+3
  4454  1CAA  0875               	movf	?___xxtofl+2,w
  4455  1CAB  00DC               	movwf	___flmul@a+2
  4456  1CAC  0874               	movf	?___xxtofl+1,w
  4457  1CAD  00DB               	movwf	___flmul@a+1
  4458  1CAE  0873               	movf	?___xxtofl,w
  4459  1CAF  00DA               	movwf	___flmul@a
  4460  1CB0  120A  158A  249F  160A  158A  	fcall	___flmul
  4461  1CB5  1283               	bcf	3,5	;RP0=0, select bank0
  4462  1CB6  1303               	bcf	3,6	;RP1=0, select bank0
  4463  1CB7  0859               	movf	?___flmul+3,w
  4464  1CB8  00C3               	movwf	___fldiv@b+3
  4465  1CB9  0858               	movf	?___flmul+2,w
  4466  1CBA  00C2               	movwf	___fldiv@b+2
  4467  1CBB  0857               	movf	?___flmul+1,w
  4468  1CBC  00C1               	movwf	___fldiv@b+1
  4469  1CBD  0856               	movf	?___flmul,w
  4470  1CBE  00C0               	movwf	___fldiv@b
  4471  1CBF  120A  158A  203A  160A  158A  	fcall	___fldiv
  4472  1CC4  1283               	bcf	3,5	;RP0=0, select bank0
  4473  1CC5  1303               	bcf	3,6	;RP1=0, select bank0
  4474  1CC6  083F               	movf	?___fldiv+3,w
  4475  1CC7  1683               	bsf	3,5	;RP0=1, select bank1
  4476  1CC8  1303               	bcf	3,6	;RP1=0, select bank1
  4477  1CC9  00AC               	movwf	(Voltage_Value@voltage_result+3)^(0+128)
  4478  1CCA  1283               	bcf	3,5	;RP0=0, select bank0
  4479  1CCB  1303               	bcf	3,6	;RP1=0, select bank0
  4480  1CCC  083E               	movf	?___fldiv+2,w
  4481  1CCD  1683               	bsf	3,5	;RP0=1, select bank1
  4482  1CCE  1303               	bcf	3,6	;RP1=0, select bank1
  4483  1CCF  00AB               	movwf	(Voltage_Value@voltage_result+2)^(0+128)
  4484  1CD0  1283               	bcf	3,5	;RP0=0, select bank0
  4485  1CD1  1303               	bcf	3,6	;RP1=0, select bank0
  4486  1CD2  083D               	movf	?___fldiv+1,w
  4487  1CD3  1683               	bsf	3,5	;RP0=1, select bank1
  4488  1CD4  1303               	bcf	3,6	;RP1=0, select bank1
  4489  1CD5  00AA               	movwf	(Voltage_Value@voltage_result+1)^(0+128)
  4490  1CD6  1283               	bcf	3,5	;RP0=0, select bank0
  4491  1CD7  1303               	bcf	3,6	;RP1=0, select bank0
  4492  1CD8  083C               	movf	?___fldiv,w
  4493  1CD9  1683               	bsf	3,5	;RP0=1, select bank1
  4494  1CDA  1303               	bcf	3,6	;RP1=0, select bank1
  4495  1CDB  00A9               	movwf	Voltage_Value@voltage_result^(0+128)
  4496  1CDC                     l2944:
  4497                           
  4498                           ;main.c: 173:     if (voltage_result <= 0)
  4499  1CDC  3000               	movlw	0
  4500  1CDD  00F6               	movwf	___flge@ff1+3
  4501  1CDE  3000               	movlw	0
  4502  1CDF  00F5               	movwf	___flge@ff1+2
  4503  1CE0  3000               	movlw	0
  4504  1CE1  00F4               	movwf	___flge@ff1+1
  4505  1CE2  3000               	movlw	0
  4506  1CE3  00F3               	movwf	___flge@ff1
  4507  1CE4  082C               	movf	(Voltage_Value@voltage_result+3)^(0+128),w
  4508  1CE5  00FA               	movwf	___flge@ff2+3
  4509  1CE6  082B               	movf	(Voltage_Value@voltage_result+2)^(0+128),w
  4510  1CE7  00F9               	movwf	___flge@ff2+2
  4511  1CE8  082A               	movf	(Voltage_Value@voltage_result+1)^(0+128),w
  4512  1CE9  00F8               	movwf	___flge@ff2+1
  4513  1CEA  0829               	movf	Voltage_Value@voltage_result^(0+128),w
  4514  1CEB  00F7               	movwf	___flge@ff2
  4515  1CEC  160A  158A  25A7  160A  158A  	fcall	___flge
  4516  1CF1  1C03               	btfss	3,0
  4517  1CF2  2CF4               	goto	u4731
  4518  1CF3  2CF5               	goto	u4730
  4519  1CF4                     u4731:
  4520  1CF4  2CFF               	goto	l56
  4521  1CF5                     u4730:
  4522  1CF5                     l2946:
  4523                           
  4524                           ;main.c: 174:         voltage_result = 0.01;
  4525  1CF5  303C               	movlw	60
  4526  1CF6  1683               	bsf	3,5	;RP0=1, select bank1
  4527  1CF7  1303               	bcf	3,6	;RP1=0, select bank1
  4528  1CF8  00AC               	movwf	(Voltage_Value@voltage_result+3)^(0+128)
  4529  1CF9  3023               	movlw	35
  4530  1CFA  00AB               	movwf	(Voltage_Value@voltage_result+2)^(0+128)
  4531  1CFB  30D7               	movlw	215
  4532  1CFC  00AA               	movwf	(Voltage_Value@voltage_result+1)^(0+128)
  4533  1CFD  300A               	movlw	10
  4534  1CFE  00A9               	movwf	Voltage_Value@voltage_result^(0+128)
  4535  1CFF                     l56:
  4536                           
  4537                           ;main.c: 175:     return voltage_result;
  4538  1CFF  1683               	bsf	3,5	;RP0=1, select bank1
  4539  1D00  1303               	bcf	3,6	;RP1=0, select bank1
  4540  1D01  082C               	movf	(Voltage_Value@voltage_result+3)^(0+128),w
  4541  1D02  00A3               	movwf	(?_Voltage_Value+3)^(0+128)
  4542  1D03  082B               	movf	(Voltage_Value@voltage_result+2)^(0+128),w
  4543  1D04  00A2               	movwf	(?_Voltage_Value+2)^(0+128)
  4544  1D05  082A               	movf	(Voltage_Value@voltage_result+1)^(0+128),w
  4545  1D06  00A1               	movwf	(?_Voltage_Value+1)^(0+128)
  4546  1D07  0829               	movf	Voltage_Value@voltage_result^(0+128),w
  4547  1D08  00A0               	movwf	?_Voltage_Value^(0+128)
  4548  1D09                     l57:
  4549  1D09  0008               	return
  4550  1D0A                     __end_of_Voltage_Value:
  4551                           
  4552                           	psect	text17
  4553  1DA7                     __ptext17:	
  4554 ;; *************** function ___flge *****************
  4555 ;; Defined at:
  4556 ;;		line 4 in file "C:\Program Files\Microchip\xc8\v2.20\pic\sources\c90\common\flge.c"
  4557 ;; Parameters:    Size  Location     Type
  4558 ;;  ff1             4    2[COMMON] float 
  4559 ;;  ff2             4    6[COMMON] float 
  4560 ;; Auto vars:     Size  Location     Type
  4561 ;;		None
  4562 ;; Return value:  Size  Location     Type
  4563 ;;		None               void
  4564 ;; Registers used:
  4565 ;;		wreg, status,2, status,0
  4566 ;; Tracked objects:
  4567 ;;		On entry : 0/0
  4568 ;;		On exit  : 0/0
  4569 ;;		Unchanged: 0/0
  4570 ;; Data sizes:     COMMON   BANK0   BANK1   BANK3   BANK2
  4571 ;;      Params:         8       0       0       0       0
  4572 ;;      Locals:         0       0       0       0       0
  4573 ;;      Temps:          0       4       0       0       0
  4574 ;;      Totals:         8       4       0       0       0
  4575 ;;Total ram usage:       12 bytes
  4576 ;; Hardware stack levels used:    1
  4577 ;; Hardware stack levels required when called:    1
  4578 ;; This function calls:
  4579 ;;		Nothing
  4580 ;; This function is called by:
  4581 ;;		_Get_Better_Newton_Value
  4582 ;;		_Voltage_Value
  4583 ;;		_conversion_newton
  4584 ;; This function uses a non-reentrant model
  4585 ;;
  4586                           
  4587                           
  4588                           ;psect for function ___flge
  4589  1DA7                     ___flge:
  4590  1DA7                     l2452:	
  4591                           ;incstack = 0
  4592                           ; Regs used in ___flge: [wreg+status,2+status,0]
  4593                           
  4594  1DA7  3000               	movlw	0
  4595  1DA8  0573               	andwf	___flge@ff1,w
  4596  1DA9  1283               	bcf	3,5	;RP0=0, select bank0
  4597  1DAA  1303               	bcf	3,6	;RP1=0, select bank0
  4598  1DAB  00A0               	movwf	??___flge
  4599  1DAC  3000               	movlw	0
  4600  1DAD  0574               	andwf	___flge@ff1+1,w
  4601  1DAE  00A1               	movwf	??___flge+1
  4602  1DAF  3080               	movlw	128
  4603  1DB0  0575               	andwf	___flge@ff1+2,w
  4604  1DB1  00A2               	movwf	??___flge+2
  4605  1DB2  307F               	movlw	127
  4606  1DB3  0576               	andwf	___flge@ff1+3,w
  4607  1DB4  00A3               	movwf	??___flge+3
  4608  1DB5  0823               	movf	??___flge+3,w
  4609  1DB6  0422               	iorwf	??___flge+2,w
  4610  1DB7  0421               	iorwf	??___flge+1,w
  4611  1DB8  0420               	iorwf	??___flge,w
  4612  1DB9  1D03               	skipz
  4613  1DBA  2DBC               	goto	u3631
  4614  1DBB  2DBD               	goto	u3630
  4615  1DBC                     u3631:
  4616  1DBC  2DC5               	goto	l434
  4617  1DBD                     u3630:
  4618  1DBD                     l2454:
  4619  1DBD  3000               	movlw	0
  4620  1DBE  00F6               	movwf	___flge@ff1+3
  4621  1DBF  3000               	movlw	0
  4622  1DC0  00F5               	movwf	___flge@ff1+2
  4623  1DC1  3000               	movlw	0
  4624  1DC2  00F4               	movwf	___flge@ff1+1
  4625  1DC3  3000               	movlw	0
  4626  1DC4  00F3               	movwf	___flge@ff1
  4627  1DC5                     l434:
  4628  1DC5  3000               	movlw	0
  4629  1DC6  0577               	andwf	___flge@ff2,w
  4630  1DC7  00A0               	movwf	??___flge
  4631  1DC8  3000               	movlw	0
  4632  1DC9  0578               	andwf	___flge@ff2+1,w
  4633  1DCA  00A1               	movwf	??___flge+1
  4634  1DCB  3080               	movlw	128
  4635  1DCC  0579               	andwf	___flge@ff2+2,w
  4636  1DCD  00A2               	movwf	??___flge+2
  4637  1DCE  307F               	movlw	127
  4638  1DCF  057A               	andwf	___flge@ff2+3,w
  4639  1DD0  00A3               	movwf	??___flge+3
  4640  1DD1  0823               	movf	??___flge+3,w
  4641  1DD2  0422               	iorwf	??___flge+2,w
  4642  1DD3  0421               	iorwf	??___flge+1,w
  4643  1DD4  0420               	iorwf	??___flge,w
  4644  1DD5  1D03               	skipz
  4645  1DD6  2DD8               	goto	u3641
  4646  1DD7  2DD9               	goto	u3640
  4647  1DD8                     u3641:
  4648  1DD8  2DE1               	goto	l2458
  4649  1DD9                     u3640:
  4650  1DD9                     l2456:
  4651  1DD9  3000               	movlw	0
  4652  1DDA  00FA               	movwf	___flge@ff2+3
  4653  1DDB  3000               	movlw	0
  4654  1DDC  00F9               	movwf	___flge@ff2+2
  4655  1DDD  3000               	movlw	0
  4656  1DDE  00F8               	movwf	___flge@ff2+1
  4657  1DDF  3000               	movlw	0
  4658  1DE0  00F7               	movwf	___flge@ff2
  4659  1DE1                     l2458:
  4660  1DE1  1FF6               	btfss	___flge@ff1+3,7
  4661  1DE2  2DE4               	goto	u3651
  4662  1DE3  2DE5               	goto	u3650
  4663  1DE4                     u3651:
  4664  1DE4  2E09               	goto	l2462
  4665  1DE5                     u3650:
  4666  1DE5                     l2460:
  4667  1DE5  3000               	movlw	0
  4668  1DE6  00A0               	movwf	??___flge
  4669  1DE7  3000               	movlw	0
  4670  1DE8  00A1               	movwf	??___flge+1
  4671  1DE9  3000               	movlw	0
  4672  1DEA  00A2               	movwf	??___flge+2
  4673  1DEB  3080               	movlw	128
  4674  1DEC  00A3               	movwf	??___flge+3
  4675  1DED  0873               	movf	___flge@ff1,w
  4676  1DEE  02A0               	subwf	??___flge,f
  4677  1DEF  0874               	movf	___flge@ff1+1,w
  4678  1DF0  1C03               	skipc
  4679  1DF1  0F74               	incfsz	___flge@ff1+1,w
  4680  1DF2  2DF4               	goto	u3661
  4681  1DF3  2DF5               	goto	u3662
  4682  1DF4                     u3661:
  4683  1DF4  02A1               	subwf	??___flge+1,f
  4684  1DF5                     u3662:
  4685  1DF5  0875               	movf	___flge@ff1+2,w
  4686  1DF6  1C03               	skipc
  4687  1DF7  0F75               	incfsz	___flge@ff1+2,w
  4688  1DF8  2DFA               	goto	u3663
  4689  1DF9  2DFB               	goto	u3664
  4690  1DFA                     u3663:
  4691  1DFA  02A2               	subwf	??___flge+2,f
  4692  1DFB                     u3664:
  4693  1DFB  0876               	movf	___flge@ff1+3,w
  4694  1DFC  1C03               	skipc
  4695  1DFD  0F76               	incfsz	___flge@ff1+3,w
  4696  1DFE  2E00               	goto	u3665
  4697  1DFF  2E01               	goto	u3666
  4698  1E00                     u3665:
  4699  1E00  02A3               	subwf	??___flge+3,f
  4700  1E01                     u3666:
  4701  1E01  0823               	movf	??___flge+3,w
  4702  1E02  00F6               	movwf	___flge@ff1+3
  4703  1E03  0822               	movf	??___flge+2,w
  4704  1E04  00F5               	movwf	___flge@ff1+2
  4705  1E05  0821               	movf	??___flge+1,w
  4706  1E06  00F4               	movwf	___flge@ff1+1
  4707  1E07  0820               	movf	??___flge,w
  4708  1E08  00F3               	movwf	___flge@ff1
  4709  1E09                     l2462:
  4710  1E09  1FFA               	btfss	___flge@ff2+3,7
  4711  1E0A  2E0C               	goto	u3671
  4712  1E0B  2E0D               	goto	u3670
  4713  1E0C                     u3671:
  4714  1E0C  2E31               	goto	l437
  4715  1E0D                     u3670:
  4716  1E0D                     l2464:
  4717  1E0D  3000               	movlw	0
  4718  1E0E  00A0               	movwf	??___flge
  4719  1E0F  3000               	movlw	0
  4720  1E10  00A1               	movwf	??___flge+1
  4721  1E11  3000               	movlw	0
  4722  1E12  00A2               	movwf	??___flge+2
  4723  1E13  3080               	movlw	128
  4724  1E14  00A3               	movwf	??___flge+3
  4725  1E15  0877               	movf	___flge@ff2,w
  4726  1E16  02A0               	subwf	??___flge,f
  4727  1E17  0878               	movf	___flge@ff2+1,w
  4728  1E18  1C03               	skipc
  4729  1E19  0F78               	incfsz	___flge@ff2+1,w
  4730  1E1A  2E1C               	goto	u3681
  4731  1E1B  2E1D               	goto	u3682
  4732  1E1C                     u3681:
  4733  1E1C  02A1               	subwf	??___flge+1,f
  4734  1E1D                     u3682:
  4735  1E1D  0879               	movf	___flge@ff2+2,w
  4736  1E1E  1C03               	skipc
  4737  1E1F  0F79               	incfsz	___flge@ff2+2,w
  4738  1E20  2E22               	goto	u3683
  4739  1E21  2E23               	goto	u3684
  4740  1E22                     u3683:
  4741  1E22  02A2               	subwf	??___flge+2,f
  4742  1E23                     u3684:
  4743  1E23  087A               	movf	___flge@ff2+3,w
  4744  1E24  1C03               	skipc
  4745  1E25  0F7A               	incfsz	___flge@ff2+3,w
  4746  1E26  2E28               	goto	u3685
  4747  1E27  2E29               	goto	u3686
  4748  1E28                     u3685:
  4749  1E28  02A3               	subwf	??___flge+3,f
  4750  1E29                     u3686:
  4751  1E29  0823               	movf	??___flge+3,w
  4752  1E2A  00FA               	movwf	___flge@ff2+3
  4753  1E2B  0822               	movf	??___flge+2,w
  4754  1E2C  00F9               	movwf	___flge@ff2+2
  4755  1E2D  0821               	movf	??___flge+1,w
  4756  1E2E  00F8               	movwf	___flge@ff2+1
  4757  1E2F  0820               	movf	??___flge,w
  4758  1E30  00F7               	movwf	___flge@ff2
  4759  1E31                     l437:
  4760  1E31  3080               	movlw	128
  4761  1E32  06F6               	xorwf	___flge@ff1+3,f
  4762  1E33  3080               	movlw	128
  4763  1E34  06FA               	xorwf	___flge@ff2+3,f
  4764  1E35  087A               	movf	___flge@ff2+3,w
  4765  1E36  0276               	subwf	___flge@ff1+3,w
  4766  1E37  1D03               	skipz
  4767  1E38  2E43               	goto	u3695
  4768  1E39  0879               	movf	___flge@ff2+2,w
  4769  1E3A  0275               	subwf	___flge@ff1+2,w
  4770  1E3B  1D03               	skipz
  4771  1E3C  2E43               	goto	u3695
  4772  1E3D  0878               	movf	___flge@ff2+1,w
  4773  1E3E  0274               	subwf	___flge@ff1+1,w
  4774  1E3F  1D03               	skipz
  4775  1E40  2E43               	goto	u3695
  4776  1E41  0877               	movf	___flge@ff2,w
  4777  1E42  0273               	subwf	___flge@ff1,w
  4778  1E43                     u3695:
  4779  1E43  1803               	skipnc
  4780  1E44  2E46               	goto	u3691
  4781  1E45  2E47               	goto	u3690
  4782  1E46                     u3691:
  4783  1E46  2E49               	goto	l2468
  4784  1E47                     u3690:
  4785  1E47                     l2466:
  4786  1E47  1003               	clrc
  4787  1E48  2E4A               	goto	l438
  4788  1E49                     l2468:
  4789  1E49  1403               	setc
  4790  1E4A                     l438:
  4791  1E4A  0008               	return
  4792  1E4B                     __end_of___flge:
  4793                           
  4794                           	psect	text18
  4795  1E4B                     __ptext18:	
  4796 ;; *************** function _Resistance_Value *****************
  4797 ;; Defined at:
  4798 ;;		line 184 in file "main.c"
  4799 ;; Parameters:    Size  Location     Type
  4800 ;;  Voltage         4    0[BANK1 ] float 
  4801 ;;  R               2    4[BANK1 ] unsigned int 
  4802 ;; Auto vars:     Size  Location     Type
  4803 ;;  fR              4   10[BANK1 ] float 
  4804 ;;  resultat        4    6[BANK1 ] float 
  4805 ;; Return value:  Size  Location     Type
  4806 ;;                  4    0[BANK1 ] float 
  4807 ;; Registers used:
  4808 ;;		wreg, status,2, status,0, btemp+1, pclath, cstack
  4809 ;; Tracked objects:
  4810 ;;		On entry : 0/0
  4811 ;;		On exit  : 0/0
  4812 ;;		Unchanged: 0/0
  4813 ;; Data sizes:     COMMON   BANK0   BANK1   BANK3   BANK2
  4814 ;;      Params:         0       0       6       0       0
  4815 ;;      Locals:         0       0       8       0       0
  4816 ;;      Temps:          0       0       0       0       0
  4817 ;;      Totals:         0       0      14       0       0
  4818 ;;Total ram usage:       14 bytes
  4819 ;; Hardware stack levels used:    1
  4820 ;; Hardware stack levels required when called:    3
  4821 ;; This function calls:
  4822 ;;		___fldiv
  4823 ;;		___flmul
  4824 ;;		___flsub
  4825 ;;		___xxtofl
  4826 ;; This function is called by:
  4827 ;;		_Get_Newton
  4828 ;; This function uses a non-reentrant model
  4829 ;;
  4830                           
  4831                           
  4832                           ;psect for function _Resistance_Value
  4833  1E4B                     _Resistance_Value:
  4834  1E4B                     l2950:	
  4835                           ;incstack = 0
  4836                           ; Regs used in _Resistance_Value: [wreg+status,2+status,0+btemp+1+pclath+cstack]
  4837                           
  4838                           
  4839                           ;main.c: 185:     float resultat;;main.c: 186:     float fR = (float) R;
  4840  1E4B  1683               	bsf	3,5	;RP0=1, select bank1
  4841  1E4C  1303               	bcf	3,6	;RP1=0, select bank1
  4842  1E4D  0824               	movf	Resistance_Value@R^(0+128),w
  4843  1E4E  00F3               	movwf	___xxtofl@val
  4844  1E4F  0825               	movf	(Resistance_Value@R+1)^(0+128),w
  4845  1E50  00F4               	movwf	___xxtofl@val+1
  4846  1E51  01F5               	clrf	___xxtofl@val+2
  4847  1E52  01F6               	clrf	___xxtofl@val+3
  4848  1E53  3000               	movlw	0
  4849  1E54  160A  118A  20D1  160A  158A  	fcall	___xxtofl
  4850  1E59  0876               	movf	?___xxtofl+3,w
  4851  1E5A  1683               	bsf	3,5	;RP0=1, select bank1
  4852  1E5B  1303               	bcf	3,6	;RP1=0, select bank1
  4853  1E5C  00AD               	movwf	(Resistance_Value@fR+3)^(0+128)
  4854  1E5D  0875               	movf	?___xxtofl+2,w
  4855  1E5E  00AC               	movwf	(Resistance_Value@fR+2)^(0+128)
  4856  1E5F  0874               	movf	?___xxtofl+1,w
  4857  1E60  00AB               	movwf	(Resistance_Value@fR+1)^(0+128)
  4858  1E61  0873               	movf	?___xxtofl,w
  4859  1E62  00AA               	movwf	Resistance_Value@fR^(0+128)
  4860                           
  4861                           ;main.c: 187:     resultat = (float) (fR * 5.0)/(5.0 -(2*Voltage));
  4862  1E63  3040               	movlw	64
  4863  1E64  1283               	bcf	3,5	;RP0=0, select bank0
  4864  1E65  1303               	bcf	3,6	;RP1=0, select bank0
  4865  1E66  00D9               	movwf	___flmul@b+3
  4866  1E67  3000               	movlw	0
  4867  1E68  00D8               	movwf	___flmul@b+2
  4868  1E69  3000               	movlw	0
  4869  1E6A  00D7               	movwf	___flmul@b+1
  4870  1E6B  3000               	movlw	0
  4871  1E6C  00D6               	movwf	___flmul@b
  4872  1E6D  1683               	bsf	3,5	;RP0=1, select bank1
  4873  1E6E  1303               	bcf	3,6	;RP1=0, select bank1
  4874  1E6F  0823               	movf	(Resistance_Value@Voltage+3)^(0+128),w
  4875  1E70  1283               	bcf	3,5	;RP0=0, select bank0
  4876  1E71  1303               	bcf	3,6	;RP1=0, select bank0
  4877  1E72  00DD               	movwf	___flmul@a+3
  4878  1E73  1683               	bsf	3,5	;RP0=1, select bank1
  4879  1E74  1303               	bcf	3,6	;RP1=0, select bank1
  4880  1E75  0822               	movf	(Resistance_Value@Voltage+2)^(0+128),w
  4881  1E76  1283               	bcf	3,5	;RP0=0, select bank0
  4882  1E77  1303               	bcf	3,6	;RP1=0, select bank0
  4883  1E78  00DC               	movwf	___flmul@a+2
  4884  1E79  1683               	bsf	3,5	;RP0=1, select bank1
  4885  1E7A  1303               	bcf	3,6	;RP1=0, select bank1
  4886  1E7B  0821               	movf	(Resistance_Value@Voltage+1)^(0+128),w
  4887  1E7C  1283               	bcf	3,5	;RP0=0, select bank0
  4888  1E7D  1303               	bcf	3,6	;RP1=0, select bank0
  4889  1E7E  00DB               	movwf	___flmul@a+1
  4890  1E7F  1683               	bsf	3,5	;RP0=1, select bank1
  4891  1E80  1303               	bcf	3,6	;RP1=0, select bank1
  4892  1E81  0820               	movf	Resistance_Value@Voltage^(0+128),w
  4893  1E82  1283               	bcf	3,5	;RP0=0, select bank0
  4894  1E83  1303               	bcf	3,6	;RP1=0, select bank0
  4895  1E84  00DA               	movwf	___flmul@a
  4896  1E85  120A  158A  249F  160A  158A  	fcall	___flmul
  4897  1E8A  1283               	bcf	3,5	;RP0=0, select bank0
  4898  1E8B  1303               	bcf	3,6	;RP1=0, select bank0
  4899  1E8C  0859               	movf	?___flmul+3,w
  4900  1E8D  00B7               	movwf	___flsub@a+3
  4901  1E8E  0858               	movf	?___flmul+2,w
  4902  1E8F  00B6               	movwf	___flsub@a+2
  4903  1E90  0857               	movf	?___flmul+1,w
  4904  1E91  00B5               	movwf	___flsub@a+1
  4905  1E92  0856               	movf	?___flmul,w
  4906  1E93  00B4               	movwf	___flsub@a
  4907  1E94  3040               	movlw	64
  4908  1E95  00BB               	movwf	___flsub@b+3
  4909  1E96  30A0               	movlw	160
  4910  1E97  00BA               	movwf	___flsub@b+2
  4911  1E98  3000               	movlw	0
  4912  1E99  00B9               	movwf	___flsub@b+1
  4913  1E9A  3000               	movlw	0
  4914  1E9B  00B8               	movwf	___flsub@b
  4915  1E9C  160A  158A  2070  160A  158A  	fcall	___flsub
  4916  1EA1  1283               	bcf	3,5	;RP0=0, select bank0
  4917  1EA2  1303               	bcf	3,6	;RP1=0, select bank0
  4918  1EA3  0837               	movf	?___flsub+3,w
  4919  1EA4  00BF               	movwf	___fldiv@a+3
  4920  1EA5  0836               	movf	?___flsub+2,w
  4921  1EA6  00BE               	movwf	___fldiv@a+2
  4922  1EA7  0835               	movf	?___flsub+1,w
  4923  1EA8  00BD               	movwf	___fldiv@a+1
  4924  1EA9  0834               	movf	?___flsub,w
  4925  1EAA  00BC               	movwf	___fldiv@a
  4926  1EAB  3040               	movlw	64
  4927  1EAC  00D9               	movwf	___flmul@b+3
  4928  1EAD  30A0               	movlw	160
  4929  1EAE  00D8               	movwf	___flmul@b+2
  4930  1EAF  3000               	movlw	0
  4931  1EB0  00D7               	movwf	___flmul@b+1
  4932  1EB1  3000               	movlw	0
  4933  1EB2  00D6               	movwf	___flmul@b
  4934  1EB3  1683               	bsf	3,5	;RP0=1, select bank1
  4935  1EB4  1303               	bcf	3,6	;RP1=0, select bank1
  4936  1EB5  082D               	movf	(Resistance_Value@fR+3)^(0+128),w
  4937  1EB6  1283               	bcf	3,5	;RP0=0, select bank0
  4938  1EB7  1303               	bcf	3,6	;RP1=0, select bank0
  4939  1EB8  00DD               	movwf	___flmul@a+3
  4940  1EB9  1683               	bsf	3,5	;RP0=1, select bank1
  4941  1EBA  1303               	bcf	3,6	;RP1=0, select bank1
  4942  1EBB  082C               	movf	(Resistance_Value@fR+2)^(0+128),w
  4943  1EBC  1283               	bcf	3,5	;RP0=0, select bank0
  4944  1EBD  1303               	bcf	3,6	;RP1=0, select bank0
  4945  1EBE  00DC               	movwf	___flmul@a+2
  4946  1EBF  1683               	bsf	3,5	;RP0=1, select bank1
  4947  1EC0  1303               	bcf	3,6	;RP1=0, select bank1
  4948  1EC1  082B               	movf	(Resistance_Value@fR+1)^(0+128),w
  4949  1EC2  1283               	bcf	3,5	;RP0=0, select bank0
  4950  1EC3  1303               	bcf	3,6	;RP1=0, select bank0
  4951  1EC4  00DB               	movwf	___flmul@a+1
  4952  1EC5  1683               	bsf	3,5	;RP0=1, select bank1
  4953  1EC6  1303               	bcf	3,6	;RP1=0, select bank1
  4954  1EC7  082A               	movf	Resistance_Value@fR^(0+128),w
  4955  1EC8  1283               	bcf	3,5	;RP0=0, select bank0
  4956  1EC9  1303               	bcf	3,6	;RP1=0, select bank0
  4957  1ECA  00DA               	movwf	___flmul@a
  4958  1ECB  120A  158A  249F  160A  158A  	fcall	___flmul
  4959  1ED0  1283               	bcf	3,5	;RP0=0, select bank0
  4960  1ED1  1303               	bcf	3,6	;RP1=0, select bank0
  4961  1ED2  0859               	movf	?___flmul+3,w
  4962  1ED3  00C3               	movwf	___fldiv@b+3
  4963  1ED4  0858               	movf	?___flmul+2,w
  4964  1ED5  00C2               	movwf	___fldiv@b+2
  4965  1ED6  0857               	movf	?___flmul+1,w
  4966  1ED7  00C1               	movwf	___fldiv@b+1
  4967  1ED8  0856               	movf	?___flmul,w
  4968  1ED9  00C0               	movwf	___fldiv@b
  4969  1EDA  120A  158A  203A  160A  158A  	fcall	___fldiv
  4970  1EDF  1283               	bcf	3,5	;RP0=0, select bank0
  4971  1EE0  1303               	bcf	3,6	;RP1=0, select bank0
  4972  1EE1  083F               	movf	?___fldiv+3,w
  4973  1EE2  1683               	bsf	3,5	;RP0=1, select bank1
  4974  1EE3  1303               	bcf	3,6	;RP1=0, select bank1
  4975  1EE4  00A9               	movwf	(Resistance_Value@resultat+3)^(0+128)
  4976  1EE5  1283               	bcf	3,5	;RP0=0, select bank0
  4977  1EE6  1303               	bcf	3,6	;RP1=0, select bank0
  4978  1EE7  083E               	movf	?___fldiv+2,w
  4979  1EE8  1683               	bsf	3,5	;RP0=1, select bank1
  4980  1EE9  1303               	bcf	3,6	;RP1=0, select bank1
  4981  1EEA  00A8               	movwf	(Resistance_Value@resultat+2)^(0+128)
  4982  1EEB  1283               	bcf	3,5	;RP0=0, select bank0
  4983  1EEC  1303               	bcf	3,6	;RP1=0, select bank0
  4984  1EED  083D               	movf	?___fldiv+1,w
  4985  1EEE  1683               	bsf	3,5	;RP0=1, select bank1
  4986  1EEF  1303               	bcf	3,6	;RP1=0, select bank1
  4987  1EF0  00A7               	movwf	(Resistance_Value@resultat+1)^(0+128)
  4988  1EF1  1283               	bcf	3,5	;RP0=0, select bank0
  4989  1EF2  1303               	bcf	3,6	;RP1=0, select bank0
  4990  1EF3  083C               	movf	?___fldiv,w
  4991  1EF4  1683               	bsf	3,5	;RP0=1, select bank1
  4992  1EF5  1303               	bcf	3,6	;RP1=0, select bank1
  4993  1EF6  00A6               	movwf	Resistance_Value@resultat^(0+128)
  4994  1EF7                     l2952:
  4995                           
  4996                           ;main.c: 188:     return resultat;
  4997  1EF7  0829               	movf	(Resistance_Value@resultat+3)^(0+128),w
  4998  1EF8  00A3               	movwf	(?_Resistance_Value+3)^(0+128)
  4999  1EF9  0828               	movf	(Resistance_Value@resultat+2)^(0+128),w
  5000  1EFA  00A2               	movwf	(?_Resistance_Value+2)^(0+128)
  5001  1EFB  0827               	movf	(Resistance_Value@resultat+1)^(0+128),w
  5002  1EFC  00A1               	movwf	(?_Resistance_Value+1)^(0+128)
  5003  1EFD  0826               	movf	Resistance_Value@resultat^(0+128),w
  5004  1EFE  00A0               	movwf	?_Resistance_Value^(0+128)
  5005  1EFF                     l60:
  5006  1EFF  0008               	return
  5007  1F00                     __end_of_Resistance_Value:
  5008                           
  5009                           	psect	text19
  5010  10D1                     __ptext19:	
  5011 ;; *************** function ___xxtofl *****************
  5012 ;; Defined at:
  5013 ;;		line 10 in file "C:\Program Files\Microchip\xc8\v2.20\pic\sources\c90\common\xxtofl.c"
  5014 ;; Parameters:    Size  Location     Type
  5015 ;;  sign            1    wreg     unsigned char 
  5016 ;;  val             4    2[COMMON] long 
  5017 ;; Auto vars:     Size  Location     Type
  5018 ;;  sign            1    0[BANK0 ] unsigned char 
  5019 ;;  arg             4    2[BANK0 ] unsigned long 
  5020 ;;  exp             1    1[BANK0 ] unsigned char 
  5021 ;; Return value:  Size  Location     Type
  5022 ;;                  4    2[COMMON] unsigned char 
  5023 ;; Registers used:
  5024 ;;		wreg, status,2, status,0, btemp+1
  5025 ;; Tracked objects:
  5026 ;;		On entry : 0/0
  5027 ;;		On exit  : 0/0
  5028 ;;		Unchanged: 0/0
  5029 ;; Data sizes:     COMMON   BANK0   BANK1   BANK3   BANK2
  5030 ;;      Params:         4       0       0       0       0
  5031 ;;      Locals:         0       6       0       0       0
  5032 ;;      Temps:          4       0       0       0       0
  5033 ;;      Totals:         8       6       0       0       0
  5034 ;;Total ram usage:       14 bytes
  5035 ;; Hardware stack levels used:    1
  5036 ;; Hardware stack levels required when called:    1
  5037 ;; This function calls:
  5038 ;;		Nothing
  5039 ;; This function is called by:
  5040 ;;		_Voltage_Value
  5041 ;;		_Resistance_Value
  5042 ;; This function uses a non-reentrant model
  5043 ;;
  5044                           
  5045                           
  5046                           ;psect for function ___xxtofl
  5047  10D1                     ___xxtofl:
  5048                           
  5049                           ;incstack = 0
  5050                           ; Regs used in ___xxtofl: [wreg+status,2+status,0+btemp+1]
  5051                           ;___xxtofl@sign stored from wreg
  5052  10D1  1283               	bcf	3,5	;RP0=0, select bank0
  5053  10D2  1303               	bcf	3,6	;RP1=0, select bank0
  5054  10D3  00A0               	movwf	___xxtofl@sign
  5055  10D4                     l2850:
  5056  10D4  0820               	movf	___xxtofl@sign,w
  5057  10D5  1903               	btfsc	3,2
  5058  10D6  28D8               	goto	u4591
  5059  10D7  28D9               	goto	u4590
  5060  10D8                     u4591:
  5061  10D8  28ED               	goto	l2856
  5062  10D9                     u4590:
  5063  10D9                     l2852:
  5064  10D9  1FF6               	btfss	___xxtofl@val+3,7
  5065  10DA  28DC               	goto	u4601
  5066  10DB  28DD               	goto	u4600
  5067  10DC                     u4601:
  5068  10DC  28ED               	goto	l2856
  5069  10DD                     u4600:
  5070  10DD                     l2854:
  5071  10DD  0973               	comf	___xxtofl@val,w
  5072  10DE  00A2               	movwf	___xxtofl@arg
  5073  10DF  0974               	comf	___xxtofl@val+1,w
  5074  10E0  00A3               	movwf	___xxtofl@arg+1
  5075  10E1  0975               	comf	___xxtofl@val+2,w
  5076  10E2  00A4               	movwf	___xxtofl@arg+2
  5077  10E3  0976               	comf	___xxtofl@val+3,w
  5078  10E4  00A5               	movwf	___xxtofl@arg+3
  5079  10E5  0AA2               	incf	___xxtofl@arg,f
  5080  10E6  1903               	skipnz
  5081  10E7  0AA3               	incf	___xxtofl@arg+1,f
  5082  10E8  1903               	skipnz
  5083  10E9  0AA4               	incf	___xxtofl@arg+2,f
  5084  10EA  1903               	skipnz
  5085  10EB  0AA5               	incf	___xxtofl@arg+3,f
  5086  10EC  28F5               	goto	l693
  5087  10ED                     l2856:
  5088  10ED  0876               	movf	___xxtofl@val+3,w
  5089  10EE  00A5               	movwf	___xxtofl@arg+3
  5090  10EF  0875               	movf	___xxtofl@val+2,w
  5091  10F0  00A4               	movwf	___xxtofl@arg+2
  5092  10F1  0874               	movf	___xxtofl@val+1,w
  5093  10F2  00A3               	movwf	___xxtofl@arg+1
  5094  10F3  0873               	movf	___xxtofl@val,w
  5095  10F4  00A2               	movwf	___xxtofl@arg
  5096  10F5                     l693:
  5097  10F5  0876               	movf	___xxtofl@val+3,w
  5098  10F6  0475               	iorwf	___xxtofl@val+2,w
  5099  10F7  0474               	iorwf	___xxtofl@val+1,w
  5100  10F8  0473               	iorwf	___xxtofl@val,w
  5101  10F9  1D03               	skipz
  5102  10FA  28FC               	goto	u4611
  5103  10FB  28FD               	goto	u4610
  5104  10FC                     u4611:
  5105  10FC  2906               	goto	l2862
  5106  10FD                     u4610:
  5107  10FD                     l2858:
  5108  10FD  3000               	movlw	0
  5109  10FE  00F6               	movwf	?___xxtofl+3
  5110  10FF  3000               	movlw	0
  5111  1100  00F5               	movwf	?___xxtofl+2
  5112  1101  3000               	movlw	0
  5113  1102  00F4               	movwf	?___xxtofl+1
  5114  1103  3000               	movlw	0
  5115  1104  00F3               	movwf	?___xxtofl
  5116  1105  298C               	goto	l695
  5117  1106                     l2862:
  5118  1106  3096               	movlw	150
  5119  1107  00FF               	movwf	btemp+1
  5120  1108  087F               	movf	btemp+1,w
  5121  1109  00A1               	movwf	___xxtofl@exp
  5122  110A  2918               	goto	l2868
  5123  110B                     l2864:
  5124  110B  3001               	movlw	1
  5125  110C  00FF               	movwf	btemp+1
  5126  110D  087F               	movf	btemp+1,w
  5127  110E  07A1               	addwf	___xxtofl@exp,f
  5128  110F                     l2866:
  5129  110F  3001               	movlw	1
  5130  1110                     u4625:
  5131  1110  1003               	clrc
  5132  1111  0CA5               	rrf	___xxtofl@arg+3,f
  5133  1112  0CA4               	rrf	___xxtofl@arg+2,f
  5134  1113  0CA3               	rrf	___xxtofl@arg+1,f
  5135  1114  0CA2               	rrf	___xxtofl@arg,f
  5136  1115  3EFF               	addlw	-1
  5137  1116  1D03               	skipz
  5138  1117  2910               	goto	u4625
  5139  1118                     l2868:
  5140  1118  30FE               	movlw	254
  5141  1119  0525               	andwf	___xxtofl@arg+3,w
  5142  111A  1D03               	btfss	3,2
  5143  111B  291D               	goto	u4631
  5144  111C  291E               	goto	u4630
  5145  111D                     u4631:
  5146  111D  290B               	goto	l2864
  5147  111E                     u4630:
  5148  111E  293A               	goto	l2876
  5149  111F                     l2870:
  5150  111F  3001               	movlw	1
  5151  1120  00FF               	movwf	btemp+1
  5152  1121  087F               	movf	btemp+1,w
  5153  1122  07A1               	addwf	___xxtofl@exp,f
  5154  1123                     l2872:
  5155  1123  3001               	movlw	1
  5156  1124  07A2               	addwf	___xxtofl@arg,f
  5157  1125  3000               	movlw	0
  5158  1126  1803               	skipnc
  5159  1127  3001               	movlw	1
  5160  1128  07A3               	addwf	___xxtofl@arg+1,f
  5161  1129  3000               	movlw	0
  5162  112A  1803               	skipnc
  5163  112B  3001               	movlw	1
  5164  112C  07A4               	addwf	___xxtofl@arg+2,f
  5165  112D  3000               	movlw	0
  5166  112E  1803               	skipnc
  5167  112F  3001               	movlw	1
  5168  1130  07A5               	addwf	___xxtofl@arg+3,f
  5169  1131                     l2874:
  5170  1131  3001               	movlw	1
  5171  1132                     u4645:
  5172  1132  1003               	clrc
  5173  1133  0CA5               	rrf	___xxtofl@arg+3,f
  5174  1134  0CA4               	rrf	___xxtofl@arg+2,f
  5175  1135  0CA3               	rrf	___xxtofl@arg+1,f
  5176  1136  0CA2               	rrf	___xxtofl@arg,f
  5177  1137  3EFF               	addlw	-1
  5178  1138  1D03               	skipz
  5179  1139  2932               	goto	u4645
  5180  113A                     l2876:
  5181  113A  30FF               	movlw	255
  5182  113B  0525               	andwf	___xxtofl@arg+3,w
  5183  113C  1D03               	btfss	3,2
  5184  113D  293F               	goto	u4651
  5185  113E  2940               	goto	u4650
  5186  113F                     u4651:
  5187  113F  291F               	goto	l2870
  5188  1140                     u4650:
  5189  1140  294C               	goto	l2880
  5190  1141                     l2878:
  5191  1141  3001               	movlw	1
  5192  1142  02A1               	subwf	___xxtofl@exp,f
  5193  1143  3001               	movlw	1
  5194  1144  00F7               	movwf	??___xxtofl
  5195  1145                     u4665:
  5196  1145  1003               	clrc
  5197  1146  0DA2               	rlf	___xxtofl@arg,f
  5198  1147  0DA3               	rlf	___xxtofl@arg+1,f
  5199  1148  0DA4               	rlf	___xxtofl@arg+2,f
  5200  1149  0DA5               	rlf	___xxtofl@arg+3,f
  5201  114A  0BF7               	decfsz	??___xxtofl,f
  5202  114B  2945               	goto	u4665
  5203  114C                     l2880:
  5204  114C  1BA4               	btfsc	___xxtofl@arg+2,7
  5205  114D  294F               	goto	u4671
  5206  114E  2950               	goto	u4670
  5207  114F                     u4671:
  5208  114F  2956               	goto	l706
  5209  1150                     u4670:
  5210  1150                     l2882:
  5211  1150  3002               	movlw	2
  5212  1151  0221               	subwf	___xxtofl@exp,w
  5213  1152  1803               	skipnc
  5214  1153  2955               	goto	u4681
  5215  1154  2956               	goto	u4680
  5216  1155                     u4681:
  5217  1155  2941               	goto	l2878
  5218  1156                     u4680:
  5219  1156                     l706:
  5220  1156  1821               	btfsc	___xxtofl@exp,0
  5221  1157  2959               	goto	u4691
  5222  1158  295A               	goto	u4690
  5223  1159                     u4691:
  5224  1159  2962               	goto	l707
  5225  115A                     u4690:
  5226  115A                     l2884:
  5227  115A  30FF               	movlw	255
  5228  115B  05A2               	andwf	___xxtofl@arg,f
  5229  115C  30FF               	movlw	255
  5230  115D  05A3               	andwf	___xxtofl@arg+1,f
  5231  115E  307F               	movlw	127
  5232  115F  05A4               	andwf	___xxtofl@arg+2,f
  5233  1160  30FF               	movlw	255
  5234  1161  05A5               	andwf	___xxtofl@arg+3,f
  5235  1162                     l707:
  5236  1162  1003               	clrc
  5237  1163  0CA1               	rrf	___xxtofl@exp,f
  5238  1164                     l2886:
  5239  1164  0821               	movf	___xxtofl@exp,w
  5240  1165  00F7               	movwf	??___xxtofl
  5241  1166  01F8               	clrf	??___xxtofl+1
  5242  1167  01F9               	clrf	??___xxtofl+2
  5243  1168  01FA               	clrf	??___xxtofl+3
  5244  1169  3018               	movlw	24
  5245  116A                     u4705:
  5246  116A  1003               	clrc
  5247  116B  0DF7               	rlf	??___xxtofl,f
  5248  116C  0DF8               	rlf	??___xxtofl+1,f
  5249  116D  0DF9               	rlf	??___xxtofl+2,f
  5250  116E  0DFA               	rlf	??___xxtofl+3,f
  5251  116F                     u4700:
  5252  116F  3EFF               	addlw	-1
  5253  1170  1D03               	skipz
  5254  1171  296A               	goto	u4705
  5255  1172  0877               	movf	??___xxtofl,w
  5256  1173  04A2               	iorwf	___xxtofl@arg,f
  5257  1174  0878               	movf	??___xxtofl+1,w
  5258  1175  04A3               	iorwf	___xxtofl@arg+1,f
  5259  1176  0879               	movf	??___xxtofl+2,w
  5260  1177  04A4               	iorwf	___xxtofl@arg+2,f
  5261  1178  087A               	movf	??___xxtofl+3,w
  5262  1179  04A5               	iorwf	___xxtofl@arg+3,f
  5263  117A                     l2888:
  5264  117A  0820               	movf	___xxtofl@sign,w
  5265  117B  1903               	btfsc	3,2
  5266  117C  297E               	goto	u4711
  5267  117D  297F               	goto	u4710
  5268  117E                     u4711:
  5269  117E  2984               	goto	l2894
  5270  117F                     u4710:
  5271  117F                     l2890:
  5272  117F  1FF6               	btfss	___xxtofl@val+3,7
  5273  1180  2982               	goto	u4721
  5274  1181  2983               	goto	u4720
  5275  1182                     u4721:
  5276  1182  2984               	goto	l2894
  5277  1183                     u4720:
  5278  1183                     l2892:
  5279  1183  17A5               	bsf	___xxtofl@arg+3,7
  5280  1184                     l2894:
  5281  1184  0825               	movf	___xxtofl@arg+3,w
  5282  1185  00F6               	movwf	?___xxtofl+3
  5283  1186  0824               	movf	___xxtofl@arg+2,w
  5284  1187  00F5               	movwf	?___xxtofl+2
  5285  1188  0823               	movf	___xxtofl@arg+1,w
  5286  1189  00F4               	movwf	?___xxtofl+1
  5287  118A  0822               	movf	___xxtofl@arg,w
  5288  118B  00F3               	movwf	?___xxtofl
  5289  118C                     l695:
  5290  118C  0008               	return
  5291  118D                     __end_of___xxtofl:
  5292                           
  5293                           	psect	text20
  5294  1870                     __ptext20:	
  5295 ;; *************** function ___flsub *****************
  5296 ;; Defined at:
  5297 ;;		line 242 in file "C:\Program Files\Microchip\xc8\v2.20\pic\sources\c90\common\sprcadd.c"
  5298 ;; Parameters:    Size  Location     Type
  5299 ;;  a               4   20[BANK0 ] unsigned char 
  5300 ;;  b               4   24[BANK0 ] unsigned char 
  5301 ;; Auto vars:     Size  Location     Type
  5302 ;;		None
  5303 ;; Return value:  Size  Location     Type
  5304 ;;                  4   20[BANK0 ] unsigned char 
  5305 ;; Registers used:
  5306 ;;		wreg, status,2, status,0, btemp+1, pclath, cstack
  5307 ;; Tracked objects:
  5308 ;;		On entry : 0/0
  5309 ;;		On exit  : 0/0
  5310 ;;		Unchanged: 0/0
  5311 ;; Data sizes:     COMMON   BANK0   BANK1   BANK3   BANK2
  5312 ;;      Params:         0       8       0       0       0
  5313 ;;      Locals:         0       0       0       0       0
  5314 ;;      Temps:          0       0       0       0       0
  5315 ;;      Totals:         0       8       0       0       0
  5316 ;;Total ram usage:        8 bytes
  5317 ;; Hardware stack levels used:    1
  5318 ;; Hardware stack levels required when called:    2
  5319 ;; This function calls:
  5320 ;;		___fladd
  5321 ;; This function is called by:
  5322 ;;		_Resistance_Value
  5323 ;;		_conversion_newton
  5324 ;; This function uses a non-reentrant model
  5325 ;;
  5326                           
  5327                           
  5328                           ;psect for function ___flsub
  5329  1870                     ___flsub:
  5330  1870                     l2558:	
  5331                           ;incstack = 0
  5332                           ; Regs used in ___flsub: [wreg+status,2+status,0+btemp+1+pclath+cstack]
  5333                           
  5334  1870  3080               	movlw	128
  5335  1871  1283               	bcf	3,5	;RP0=0, select bank0
  5336  1872  1303               	bcf	3,6	;RP1=0, select bank0
  5337  1873  06B7               	xorwf	___flsub@a+3,f
  5338  1874                     l2560:
  5339  1874  083B               	movf	___flsub@b+3,w
  5340  1875  00A3               	movwf	___fladd@b+3
  5341  1876  083A               	movf	___flsub@b+2,w
  5342  1877  00A2               	movwf	___fladd@b+2
  5343  1878  0839               	movf	___flsub@b+1,w
  5344  1879  00A1               	movwf	___fladd@b+1
  5345  187A  0838               	movf	___flsub@b,w
  5346  187B  00A0               	movwf	___fladd@b
  5347  187C  0837               	movf	___flsub@a+3,w
  5348  187D  00A7               	movwf	___fladd@a+3
  5349  187E  0836               	movf	___flsub@a+2,w
  5350  187F  00A6               	movwf	___fladd@a+2
  5351  1880  0835               	movf	___flsub@a+1,w
  5352  1881  00A5               	movwf	___fladd@a+1
  5353  1882  0834               	movf	___flsub@a,w
  5354  1883  00A4               	movwf	___fladd@a
  5355  1884  120A  158A  2217  160A  158A  	fcall	___fladd
  5356  1889  1283               	bcf	3,5	;RP0=0, select bank0
  5357  188A  1303               	bcf	3,6	;RP1=0, select bank0
  5358  188B  0823               	movf	?___fladd+3,w
  5359  188C  00B7               	movwf	?___flsub+3
  5360  188D  0822               	movf	?___fladd+2,w
  5361  188E  00B6               	movwf	?___flsub+2
  5362  188F  0821               	movf	?___fladd+1,w
  5363  1890  00B5               	movwf	?___flsub+1
  5364  1891  0820               	movf	?___fladd,w
  5365  1892  00B4               	movwf	?___flsub
  5366  1893                     l599:
  5367  1893  0008               	return
  5368  1894                     __end_of___flsub:
  5369                           
  5370                           	psect	text21
  5371  0A17                     __ptext21:	
  5372 ;; *************** function ___fladd *****************
  5373 ;; Defined at:
  5374 ;;		line 10 in file "C:\Program Files\Microchip\xc8\v2.20\pic\sources\c90\common\sprcadd.c"
  5375 ;; Parameters:    Size  Location     Type
  5376 ;;  b               4    0[BANK0 ] unsigned char 
  5377 ;;  a               4    4[BANK0 ] unsigned char 
  5378 ;; Auto vars:     Size  Location     Type
  5379 ;;  grs             1   19[BANK0 ] unsigned char 
  5380 ;;  bexp            1   18[BANK0 ] unsigned char 
  5381 ;;  aexp            1   17[BANK0 ] unsigned char 
  5382 ;;  signs           1   16[BANK0 ] unsigned char 
  5383 ;; Return value:  Size  Location     Type
  5384 ;;                  4    0[BANK0 ] unsigned char 
  5385 ;; Registers used:
  5386 ;;		wreg, status,2, status,0, btemp+1
  5387 ;; Tracked objects:
  5388 ;;		On entry : 0/0
  5389 ;;		On exit  : 0/0
  5390 ;;		Unchanged: 0/0
  5391 ;; Data sizes:     COMMON   BANK0   BANK1   BANK3   BANK2
  5392 ;;      Params:         0       8       0       0       0
  5393 ;;      Locals:         0       4       0       0       0
  5394 ;;      Temps:          0       8       0       0       0
  5395 ;;      Totals:         0      20       0       0       0
  5396 ;;Total ram usage:       20 bytes
  5397 ;; Hardware stack levels used:    1
  5398 ;; Hardware stack levels required when called:    1
  5399 ;; This function calls:
  5400 ;;		Nothing
  5401 ;; This function is called by:
  5402 ;;		_conversion_newton
  5403 ;;		___flsub
  5404 ;; This function uses a non-reentrant model
  5405 ;;
  5406                           
  5407                           
  5408                           ;psect for function ___fladd
  5409  0A17                     ___fladd:
  5410  0A17                     l2064:	
  5411                           ;incstack = 0
  5412                           ; Regs used in ___fladd: [wreg+status,2+status,0+btemp+1]
  5413                           
  5414  0A17  1283               	bcf	3,5	;RP0=0, select bank0
  5415  0A18  1303               	bcf	3,6	;RP1=0, select bank0
  5416  0A19  0823               	movf	___fladd@b+3,w
  5417  0A1A  3980               	andlw	128
  5418  0A1B  00FF               	movwf	btemp+1
  5419  0A1C  087F               	movf	btemp+1,w
  5420  0A1D  00B0               	movwf	___fladd@signs
  5421  0A1E                     l2066:
  5422  0A1E  0823               	movf	___fladd@b+3,w
  5423  0A1F  00A8               	movwf	??___fladd
  5424  0A20  0728               	addwf	??___fladd,w
  5425  0A21  00FF               	movwf	btemp+1
  5426  0A22  087F               	movf	btemp+1,w
  5427  0A23  00B2               	movwf	___fladd@bexp
  5428  0A24                     l2068:
  5429  0A24  1FA2               	btfss	___fladd@b+2,7
  5430  0A25  2A27               	goto	u2731
  5431  0A26  2A28               	goto	u2730
  5432  0A27                     u2731:
  5433  0A27  2A29               	goto	l2072
  5434  0A28                     u2730:
  5435  0A28                     l2070:
  5436  0A28  1432               	bsf	___fladd@bexp,0
  5437  0A29                     l2072:
  5438  0A29  0832               	movf	___fladd@bexp,w
  5439  0A2A  1903               	btfsc	3,2
  5440  0A2B  2A2D               	goto	u2741
  5441  0A2C  2A2E               	goto	u2740
  5442  0A2D                     u2741:
  5443  0A2D  2A3E               	goto	l2082
  5444  0A2E                     u2740:
  5445  0A2E                     l2074:
  5446  0A2E  0A32               	incf	___fladd@bexp,w
  5447  0A2F  1D03               	btfss	3,2
  5448  0A30  2A32               	goto	u2751
  5449  0A31  2A33               	goto	u2750
  5450  0A32                     u2751:
  5451  0A32  2A3B               	goto	l2078
  5452  0A33                     u2750:
  5453  0A33                     l2076:
  5454  0A33  3000               	movlw	0
  5455  0A34  00A3               	movwf	___fladd@b+3
  5456  0A35  3000               	movlw	0
  5457  0A36  00A2               	movwf	___fladd@b+2
  5458  0A37  3000               	movlw	0
  5459  0A38  00A1               	movwf	___fladd@b+1
  5460  0A39  3000               	movlw	0
  5461  0A3A  00A0               	movwf	___fladd@b
  5462  0A3B                     l2078:
  5463  0A3B  17A2               	bsf	___fladd@b+2,7
  5464  0A3C                     l2080:
  5465  0A3C  01A3               	clrf	___fladd@b+3
  5466  0A3D  2A46               	goto	l2084
  5467  0A3E                     l2082:
  5468  0A3E  3000               	movlw	0
  5469  0A3F  00A3               	movwf	___fladd@b+3
  5470  0A40  3000               	movlw	0
  5471  0A41  00A2               	movwf	___fladd@b+2
  5472  0A42  3000               	movlw	0
  5473  0A43  00A1               	movwf	___fladd@b+1
  5474  0A44  3000               	movlw	0
  5475  0A45  00A0               	movwf	___fladd@b
  5476  0A46                     l2084:
  5477  0A46  0827               	movf	___fladd@a+3,w
  5478  0A47  3980               	andlw	128
  5479  0A48  00FF               	movwf	btemp+1
  5480  0A49  087F               	movf	btemp+1,w
  5481  0A4A  00B1               	movwf	___fladd@aexp
  5482  0A4B                     l2086:
  5483  0A4B  0831               	movf	___fladd@aexp,w
  5484  0A4C  0630               	xorwf	___fladd@signs,w
  5485  0A4D  1903               	skipnz
  5486  0A4E  2A50               	goto	u2761
  5487  0A4F  2A51               	goto	u2760
  5488  0A50                     u2761:
  5489  0A50  2A52               	goto	l2090
  5490  0A51                     u2760:
  5491  0A51                     l2088:
  5492  0A51  1730               	bsf	___fladd@signs,6
  5493  0A52                     l2090:
  5494  0A52  0827               	movf	___fladd@a+3,w
  5495  0A53  00A8               	movwf	??___fladd
  5496  0A54  0728               	addwf	??___fladd,w
  5497  0A55  00FF               	movwf	btemp+1
  5498  0A56  087F               	movf	btemp+1,w
  5499  0A57  00B1               	movwf	___fladd@aexp
  5500  0A58                     l2092:
  5501  0A58  1FA6               	btfss	___fladd@a+2,7
  5502  0A59  2A5B               	goto	u2771
  5503  0A5A  2A5C               	goto	u2770
  5504  0A5B                     u2771:
  5505  0A5B  2A5D               	goto	l2096
  5506  0A5C                     u2770:
  5507  0A5C                     l2094:
  5508  0A5C  1431               	bsf	___fladd@aexp,0
  5509  0A5D                     l2096:
  5510  0A5D  0831               	movf	___fladd@aexp,w
  5511  0A5E  1903               	btfsc	3,2
  5512  0A5F  2A61               	goto	u2781
  5513  0A60  2A62               	goto	u2780
  5514  0A61                     u2781:
  5515  0A61  2A72               	goto	l2106
  5516  0A62                     u2780:
  5517  0A62                     l2098:
  5518  0A62  0A31               	incf	___fladd@aexp,w
  5519  0A63  1D03               	btfss	3,2
  5520  0A64  2A66               	goto	u2791
  5521  0A65  2A67               	goto	u2790
  5522  0A66                     u2791:
  5523  0A66  2A6F               	goto	l2102
  5524  0A67                     u2790:
  5525  0A67                     l2100:
  5526  0A67  3000               	movlw	0
  5527  0A68  00A7               	movwf	___fladd@a+3
  5528  0A69  3000               	movlw	0
  5529  0A6A  00A6               	movwf	___fladd@a+2
  5530  0A6B  3000               	movlw	0
  5531  0A6C  00A5               	movwf	___fladd@a+1
  5532  0A6D  3000               	movlw	0
  5533  0A6E  00A4               	movwf	___fladd@a
  5534  0A6F                     l2102:
  5535  0A6F  17A6               	bsf	___fladd@a+2,7
  5536  0A70                     l2104:
  5537  0A70  01A7               	clrf	___fladd@a+3
  5538  0A71  2A7A               	goto	l553
  5539  0A72                     l2106:
  5540  0A72  3000               	movlw	0
  5541  0A73  00A7               	movwf	___fladd@a+3
  5542  0A74  3000               	movlw	0
  5543  0A75  00A6               	movwf	___fladd@a+2
  5544  0A76  3000               	movlw	0
  5545  0A77  00A5               	movwf	___fladd@a+1
  5546  0A78  3000               	movlw	0
  5547  0A79  00A4               	movwf	___fladd@a
  5548  0A7A                     l553:
  5549  0A7A  0832               	movf	___fladd@bexp,w
  5550  0A7B  0231               	subwf	___fladd@aexp,w
  5551  0A7C  1803               	skipnc
  5552  0A7D  2A7F               	goto	u2801
  5553  0A7E  2A80               	goto	u2800
  5554  0A7F                     u2801:
  5555  0A7F  2AC4               	goto	l2142
  5556  0A80                     u2800:
  5557  0A80                     l2108:
  5558  0A80  1F30               	btfss	___fladd@signs,6
  5559  0A81  2A83               	goto	u2811
  5560  0A82  2A84               	goto	u2810
  5561  0A83                     u2811:
  5562  0A83  2A88               	goto	l2112
  5563  0A84                     u2810:
  5564  0A84                     l2110:
  5565  0A84  3080               	movlw	128
  5566  0A85  00FF               	movwf	btemp+1
  5567  0A86  087F               	movf	btemp+1,w
  5568  0A87  06B0               	xorwf	___fladd@signs,f
  5569  0A88                     l2112:
  5570  0A88  0832               	movf	___fladd@bexp,w
  5571  0A89  00FF               	movwf	btemp+1
  5572  0A8A  087F               	movf	btemp+1,w
  5573  0A8B  00B3               	movwf	___fladd@grs
  5574  0A8C                     l2114:
  5575  0A8C  0831               	movf	___fladd@aexp,w
  5576  0A8D  00FF               	movwf	btemp+1
  5577  0A8E  087F               	movf	btemp+1,w
  5578  0A8F  00B2               	movwf	___fladd@bexp
  5579  0A90                     l2116:
  5580  0A90  0833               	movf	___fladd@grs,w
  5581  0A91  00FF               	movwf	btemp+1
  5582  0A92  087F               	movf	btemp+1,w
  5583  0A93  00B1               	movwf	___fladd@aexp
  5584  0A94                     l2118:
  5585  0A94  0820               	movf	___fladd@b,w
  5586  0A95  00FF               	movwf	btemp+1
  5587  0A96  087F               	movf	btemp+1,w
  5588  0A97  00B3               	movwf	___fladd@grs
  5589  0A98                     l2120:
  5590  0A98  0824               	movf	___fladd@a,w
  5591  0A99  00FF               	movwf	btemp+1
  5592  0A9A  087F               	movf	btemp+1,w
  5593  0A9B  00A0               	movwf	___fladd@b
  5594  0A9C                     l2122:
  5595  0A9C  0833               	movf	___fladd@grs,w
  5596  0A9D  00FF               	movwf	btemp+1
  5597  0A9E  087F               	movf	btemp+1,w
  5598  0A9F  00A4               	movwf	___fladd@a
  5599  0AA0                     l2124:
  5600  0AA0  0821               	movf	___fladd@b+1,w
  5601  0AA1  00FF               	movwf	btemp+1
  5602  0AA2  087F               	movf	btemp+1,w
  5603  0AA3  00B3               	movwf	___fladd@grs
  5604  0AA4                     l2126:
  5605  0AA4  0825               	movf	___fladd@a+1,w
  5606  0AA5  00FF               	movwf	btemp+1
  5607  0AA6  087F               	movf	btemp+1,w
  5608  0AA7  00A1               	movwf	___fladd@b+1
  5609  0AA8                     l2128:
  5610  0AA8  0833               	movf	___fladd@grs,w
  5611  0AA9  00FF               	movwf	btemp+1
  5612  0AAA  087F               	movf	btemp+1,w
  5613  0AAB  00A5               	movwf	___fladd@a+1
  5614  0AAC                     l2130:
  5615  0AAC  0822               	movf	___fladd@b+2,w
  5616  0AAD  00FF               	movwf	btemp+1
  5617  0AAE  087F               	movf	btemp+1,w
  5618  0AAF  00B3               	movwf	___fladd@grs
  5619  0AB0                     l2132:
  5620  0AB0  0826               	movf	___fladd@a+2,w
  5621  0AB1  00FF               	movwf	btemp+1
  5622  0AB2  087F               	movf	btemp+1,w
  5623  0AB3  00A2               	movwf	___fladd@b+2
  5624  0AB4                     l2134:
  5625  0AB4  0833               	movf	___fladd@grs,w
  5626  0AB5  00FF               	movwf	btemp+1
  5627  0AB6  087F               	movf	btemp+1,w
  5628  0AB7  00A6               	movwf	___fladd@a+2
  5629  0AB8                     l2136:
  5630  0AB8  0823               	movf	___fladd@b+3,w
  5631  0AB9  00FF               	movwf	btemp+1
  5632  0ABA  087F               	movf	btemp+1,w
  5633  0ABB  00B3               	movwf	___fladd@grs
  5634  0ABC                     l2138:
  5635  0ABC  0827               	movf	___fladd@a+3,w
  5636  0ABD  00FF               	movwf	btemp+1
  5637  0ABE  087F               	movf	btemp+1,w
  5638  0ABF  00A3               	movwf	___fladd@b+3
  5639  0AC0                     l2140:
  5640  0AC0  0833               	movf	___fladd@grs,w
  5641  0AC1  00FF               	movwf	btemp+1
  5642  0AC2  087F               	movf	btemp+1,w
  5643  0AC3  00A7               	movwf	___fladd@a+3
  5644  0AC4                     l2142:
  5645  0AC4  01B3               	clrf	___fladd@grs
  5646  0AC5                     l2144:
  5647  0AC5  0831               	movf	___fladd@aexp,w
  5648  0AC6  00A8               	movwf	??___fladd
  5649  0AC7  01A9               	clrf	??___fladd+1
  5650  0AC8  0829               	movf	??___fladd+1,w
  5651  0AC9  00AB               	movwf	??___fladd+3
  5652  0ACA  0832               	movf	___fladd@bexp,w
  5653  0ACB  0228               	subwf	??___fladd,w
  5654  0ACC  00AA               	movwf	??___fladd+2
  5655  0ACD  1C03               	skipc
  5656  0ACE  03AB               	decf	??___fladd+3,f
  5657  0ACF  082B               	movf	??___fladd+3,w
  5658  0AD0  3A80               	xorlw	128
  5659  0AD1  00FF               	movwf	btemp+1
  5660  0AD2  3080               	movlw	128
  5661  0AD3  027F               	subwf	btemp+1,w
  5662  0AD4  1D03               	skipz
  5663  0AD5  2AD8               	goto	u2825
  5664  0AD6  301A               	movlw	26
  5665  0AD7  022A               	subwf	??___fladd+2,w
  5666  0AD8                     u2825:
  5667  0AD8  1C03               	skipc
  5668  0AD9  2ADB               	goto	u2821
  5669  0ADA  2ADC               	goto	u2820
  5670  0ADB                     u2821:
  5671  0ADB  2B19               	goto	l2164
  5672  0ADC                     u2820:
  5673  0ADC                     l2146:
  5674  0ADC  1283               	bcf	3,5	;RP0=0, select bank0
  5675  0ADD  1303               	bcf	3,6	;RP1=0, select bank0
  5676  0ADE  0823               	movf	___fladd@b+3,w
  5677  0ADF  0422               	iorwf	___fladd@b+2,w
  5678  0AE0  0421               	iorwf	___fladd@b+1,w
  5679  0AE1  0420               	iorwf	___fladd@b,w
  5680  0AE2  1D03               	skipz
  5681  0AE3  2AE5               	goto	u2831
  5682  0AE4  2AE7               	goto	u2830
  5683  0AE5                     u2831:
  5684  0AE5  3001               	movlw	1
  5685  0AE6  2AE8               	goto	u2840
  5686  0AE7                     u2830:
  5687  0AE7  3000               	movlw	0
  5688  0AE8                     u2840:
  5689  0AE8  00FF               	movwf	btemp+1
  5690  0AE9  087F               	movf	btemp+1,w
  5691  0AEA  00B3               	movwf	___fladd@grs
  5692  0AEB                     l2148:
  5693  0AEB  3000               	movlw	0
  5694  0AEC  00A3               	movwf	___fladd@b+3
  5695  0AED  3000               	movlw	0
  5696  0AEE  00A2               	movwf	___fladd@b+2
  5697  0AEF  3000               	movlw	0
  5698  0AF0  00A1               	movwf	___fladd@b+1
  5699  0AF1  3000               	movlw	0
  5700  0AF2  00A0               	movwf	___fladd@b
  5701  0AF3                     l2150:
  5702  0AF3  0831               	movf	___fladd@aexp,w
  5703  0AF4  00FF               	movwf	btemp+1
  5704  0AF5  087F               	movf	btemp+1,w
  5705  0AF6  00B2               	movwf	___fladd@bexp
  5706  0AF7  2B21               	goto	l557
  5707  0AF8                     l559:
  5708  0AF8  1C33               	btfss	___fladd@grs,0
  5709  0AF9  2AFB               	goto	u2851
  5710  0AFA  2AFC               	goto	u2850
  5711  0AFB                     u2851:
  5712  0AFB  2B05               	goto	l2154
  5713  0AFC                     u2850:
  5714  0AFC                     l2152:
  5715  0AFC  0833               	movf	___fladd@grs,w
  5716  0AFD  00A8               	movwf	??___fladd
  5717  0AFE  1003               	clrc
  5718  0AFF  0C28               	rrf	??___fladd,w
  5719  0B00  3801               	iorlw	1
  5720  0B01  00FF               	movwf	btemp+1
  5721  0B02  087F               	movf	btemp+1,w
  5722  0B03  00B3               	movwf	___fladd@grs
  5723  0B04  2B07               	goto	l2156
  5724  0B05                     l2154:
  5725  0B05  1003               	clrc
  5726  0B06  0CB3               	rrf	___fladd@grs,f
  5727  0B07                     l2156:
  5728  0B07  1C20               	btfss	___fladd@b,0
  5729  0B08  2B0A               	goto	u2861
  5730  0B09  2B0B               	goto	u2860
  5731  0B0A                     u2861:
  5732  0B0A  2B0C               	goto	l2160
  5733  0B0B                     u2860:
  5734  0B0B                     l2158:
  5735  0B0B  17B3               	bsf	___fladd@grs,7
  5736  0B0C                     l2160:
  5737  0B0C  3001               	movlw	1
  5738  0B0D  00A8               	movwf	??___fladd
  5739  0B0E                     u2875:
  5740  0B0E  0D23               	rlf	___fladd@b+3,w
  5741  0B0F  0CA3               	rrf	___fladd@b+3,f
  5742  0B10  0CA2               	rrf	___fladd@b+2,f
  5743  0B11  0CA1               	rrf	___fladd@b+1,f
  5744  0B12  0CA0               	rrf	___fladd@b,f
  5745  0B13  0BA8               	decfsz	??___fladd& (0+127),f
  5746  0B14  2B0E               	goto	u2875
  5747  0B15                     l2162:
  5748  0B15  3001               	movlw	1
  5749  0B16  00FF               	movwf	btemp+1
  5750  0B17  087F               	movf	btemp+1,w
  5751  0B18  07B2               	addwf	___fladd@bexp,f
  5752  0B19                     l2164:
  5753  0B19  1283               	bcf	3,5	;RP0=0, select bank0
  5754  0B1A  1303               	bcf	3,6	;RP1=0, select bank0
  5755  0B1B  0831               	movf	___fladd@aexp,w
  5756  0B1C  0232               	subwf	___fladd@bexp,w
  5757  0B1D  1C03               	skipc
  5758  0B1E  2B20               	goto	u2881
  5759  0B1F  2B21               	goto	u2880
  5760  0B20                     u2881:
  5761  0B20  2AF8               	goto	l559
  5762  0B21                     u2880:
  5763  0B21                     l557:
  5764  0B21  1B30               	btfsc	___fladd@signs,6
  5765  0B22  2B24               	goto	u2891
  5766  0B23  2B25               	goto	u2890
  5767  0B24                     u2891:
  5768  0B24  2B70               	goto	l2190
  5769  0B25                     u2890:
  5770  0B25                     l2166:
  5771  0B25  0832               	movf	___fladd@bexp,w
  5772  0B26  1D03               	btfss	3,2
  5773  0B27  2B29               	goto	u2901
  5774  0B28  2B2A               	goto	u2900
  5775  0B29                     u2901:
  5776  0B29  2B33               	goto	l2172
  5777  0B2A                     u2900:
  5778  0B2A                     l2168:
  5779  0B2A  3000               	movlw	0
  5780  0B2B  00A3               	movwf	?___fladd+3
  5781  0B2C  3000               	movlw	0
  5782  0B2D  00A2               	movwf	?___fladd+2
  5783  0B2E  3000               	movlw	0
  5784  0B2F  00A1               	movwf	?___fladd+1
  5785  0B30  3000               	movlw	0
  5786  0B31  00A0               	movwf	?___fladd
  5787  0B32  2C9E               	goto	l566
  5788  0B33                     l2172:
  5789  0B33  0824               	movf	___fladd@a,w
  5790  0B34  07A0               	addwf	___fladd@b,f
  5791  0B35  0825               	movf	___fladd@a+1,w
  5792  0B36  1103               	clrz
  5793  0B37  1803               	skipnc
  5794  0B38  3E01               	addlw	1
  5795  0B39  1903               	skipnz
  5796  0B3A  2B3C               	goto	u2911
  5797  0B3B  07A1               	addwf	___fladd@b+1,f
  5798  0B3C                     u2911:
  5799  0B3C  0826               	movf	___fladd@a+2,w
  5800  0B3D  1103               	clrz
  5801  0B3E  1803               	skipnc
  5802  0B3F  3E01               	addlw	1
  5803  0B40  1903               	skipnz
  5804  0B41  2B43               	goto	u2912
  5805  0B42  07A2               	addwf	___fladd@b+2,f
  5806  0B43                     u2912:
  5807  0B43  0827               	movf	___fladd@a+3,w
  5808  0B44  1103               	clrz
  5809  0B45  1803               	skipnc
  5810  0B46  3E01               	addlw	1
  5811  0B47  1903               	skipnz
  5812  0B48  2B4A               	goto	u2913
  5813  0B49  07A3               	addwf	___fladd@b+3,f
  5814  0B4A                     u2913:
  5815  0B4A                     l2174:
  5816  0B4A  1C23               	btfss	___fladd@b+3,0
  5817  0B4B  2B4D               	goto	u2921
  5818  0B4C  2B4E               	goto	u2920
  5819  0B4D                     u2921:
  5820  0B4D  2C24               	goto	l2226
  5821  0B4E                     u2920:
  5822  0B4E                     l2176:
  5823  0B4E  1C33               	btfss	___fladd@grs,0
  5824  0B4F  2B51               	goto	u2931
  5825  0B50  2B52               	goto	u2930
  5826  0B51                     u2931:
  5827  0B51  2B5B               	goto	l2180
  5828  0B52                     u2930:
  5829  0B52                     l2178:
  5830  0B52  0833               	movf	___fladd@grs,w
  5831  0B53  00A8               	movwf	??___fladd
  5832  0B54  1003               	clrc
  5833  0B55  0C28               	rrf	??___fladd,w
  5834  0B56  3801               	iorlw	1
  5835  0B57  00FF               	movwf	btemp+1
  5836  0B58  087F               	movf	btemp+1,w
  5837  0B59  00B3               	movwf	___fladd@grs
  5838  0B5A  2B5D               	goto	l2182
  5839  0B5B                     l2180:
  5840  0B5B  1003               	clrc
  5841  0B5C  0CB3               	rrf	___fladd@grs,f
  5842  0B5D                     l2182:
  5843  0B5D  1C20               	btfss	___fladd@b,0
  5844  0B5E  2B60               	goto	u2941
  5845  0B5F  2B61               	goto	u2940
  5846  0B60                     u2941:
  5847  0B60  2B62               	goto	l2186
  5848  0B61                     u2940:
  5849  0B61                     l2184:
  5850  0B61  17B3               	bsf	___fladd@grs,7
  5851  0B62                     l2186:
  5852  0B62  3001               	movlw	1
  5853  0B63  00A8               	movwf	??___fladd
  5854  0B64                     u2955:
  5855  0B64  0D23               	rlf	___fladd@b+3,w
  5856  0B65  0CA3               	rrf	___fladd@b+3,f
  5857  0B66  0CA2               	rrf	___fladd@b+2,f
  5858  0B67  0CA1               	rrf	___fladd@b+1,f
  5859  0B68  0CA0               	rrf	___fladd@b,f
  5860  0B69  0BA8               	decfsz	??___fladd& (0+127),f
  5861  0B6A  2B64               	goto	u2955
  5862  0B6B                     l2188:
  5863  0B6B  3001               	movlw	1
  5864  0B6C  00FF               	movwf	btemp+1
  5865  0B6D  087F               	movf	btemp+1,w
  5866  0B6E  07B2               	addwf	___fladd@bexp,f
  5867  0B6F  2C24               	goto	l2226
  5868  0B70                     l2190:
  5869  0B70  0823               	movf	___fladd@b+3,w
  5870  0B71  3A80               	xorlw	128
  5871  0B72  00FF               	movwf	btemp+1
  5872  0B73  0827               	movf	___fladd@a+3,w
  5873  0B74  3A80               	xorlw	128
  5874  0B75  027F               	subwf	btemp+1,w
  5875  0B76  1D03               	skipz
  5876  0B77  2B82               	goto	u2963
  5877  0B78  0826               	movf	___fladd@a+2,w
  5878  0B79  0222               	subwf	___fladd@b+2,w
  5879  0B7A  1D03               	skipz
  5880  0B7B  2B82               	goto	u2963
  5881  0B7C  0825               	movf	___fladd@a+1,w
  5882  0B7D  0221               	subwf	___fladd@b+1,w
  5883  0B7E  1D03               	skipz
  5884  0B7F  2B82               	goto	u2963
  5885  0B80  0824               	movf	___fladd@a,w
  5886  0B81  0220               	subwf	___fladd@b,w
  5887  0B82                     u2963:
  5888  0B82  1803               	skipnc
  5889  0B83  2B85               	goto	u2961
  5890  0B84  2B86               	goto	u2960
  5891  0B85                     u2961:
  5892  0B85  2BDE               	goto	l2202
  5893  0B86                     u2960:
  5894  0B86                     l2192:
  5895  0B86  30FF               	movlw	255
  5896  0B87  00A8               	movwf	??___fladd
  5897  0B88  30FF               	movlw	255
  5898  0B89  00A9               	movwf	??___fladd+1
  5899  0B8A  30FF               	movlw	255
  5900  0B8B  00AA               	movwf	??___fladd+2
  5901  0B8C  30FF               	movlw	255
  5902  0B8D  00AB               	movwf	??___fladd+3
  5903  0B8E  0824               	movf	___fladd@a,w
  5904  0B8F  00AC               	movwf	??___fladd+4
  5905  0B90  0825               	movf	___fladd@a+1,w
  5906  0B91  00AD               	movwf	??___fladd+5
  5907  0B92  0826               	movf	___fladd@a+2,w
  5908  0B93  00AE               	movwf	??___fladd+6
  5909  0B94  0827               	movf	___fladd@a+3,w
  5910  0B95  00AF               	movwf	??___fladd+7
  5911  0B96  0820               	movf	___fladd@b,w
  5912  0B97  02AC               	subwf	??___fladd+4,f
  5913  0B98  0821               	movf	___fladd@b+1,w
  5914  0B99  1C03               	skipc
  5915  0B9A  0F21               	incfsz	___fladd@b+1,w
  5916  0B9B  2B9D               	goto	u2971
  5917  0B9C  2B9E               	goto	u2972
  5918  0B9D                     u2971:
  5919  0B9D  02AD               	subwf	??___fladd+5,f
  5920  0B9E                     u2972:
  5921  0B9E  0822               	movf	___fladd@b+2,w
  5922  0B9F  1C03               	skipc
  5923  0BA0  0F22               	incfsz	___fladd@b+2,w
  5924  0BA1  2BA3               	goto	u2973
  5925  0BA2  2BA4               	goto	u2974
  5926  0BA3                     u2973:
  5927  0BA3  02AE               	subwf	??___fladd+6,f
  5928  0BA4                     u2974:
  5929  0BA4  0823               	movf	___fladd@b+3,w
  5930  0BA5  1C03               	skipc
  5931  0BA6  0F23               	incfsz	___fladd@b+3,w
  5932  0BA7  2BA9               	goto	u2975
  5933  0BA8  2BAA               	goto	u2976
  5934  0BA9                     u2975:
  5935  0BA9  02AF               	subwf	??___fladd+7,f
  5936  0BAA                     u2976:
  5937  0BAA  082C               	movf	??___fladd+4,w
  5938  0BAB  07A8               	addwf	??___fladd,f
  5939  0BAC  082D               	movf	??___fladd+5,w
  5940  0BAD  1803               	skipnc
  5941  0BAE  0F2D               	incfsz	??___fladd+5,w
  5942  0BAF  2BB1               	goto	u2980
  5943  0BB0  2BB2               	goto	u2981
  5944  0BB1                     u2980:
  5945  0BB1  07A9               	addwf	??___fladd+1,f
  5946  0BB2                     u2981:
  5947  0BB2  082E               	movf	??___fladd+6,w
  5948  0BB3  1803               	skipnc
  5949  0BB4  0F2E               	incfsz	??___fladd+6,w
  5950  0BB5  2BB7               	goto	u2982
  5951  0BB6  2BB8               	goto	u2983
  5952  0BB7                     u2982:
  5953  0BB7  07AA               	addwf	??___fladd+2,f
  5954  0BB8                     u2983:
  5955  0BB8  082F               	movf	??___fladd+7,w
  5956  0BB9  1803               	skipnc
  5957  0BBA  0A2F               	incf	??___fladd+7,w
  5958  0BBB  07AB               	addwf	??___fladd+3,f
  5959  0BBC  082B               	movf	??___fladd+3,w
  5960  0BBD  00A3               	movwf	___fladd@b+3
  5961  0BBE  082A               	movf	??___fladd+2,w
  5962  0BBF  00A2               	movwf	___fladd@b+2
  5963  0BC0  0829               	movf	??___fladd+1,w
  5964  0BC1  00A1               	movwf	___fladd@b+1
  5965  0BC2  0828               	movf	??___fladd,w
  5966  0BC3  00A0               	movwf	___fladd@b
  5967  0BC4                     l2194:
  5968  0BC4  3080               	movlw	128
  5969  0BC5  00FF               	movwf	btemp+1
  5970  0BC6  087F               	movf	btemp+1,w
  5971  0BC7  06B0               	xorwf	___fladd@signs,f
  5972  0BC8                     l2196:
  5973  0BC8  09B3               	comf	___fladd@grs,f
  5974  0BC9  0AB3               	incf	___fladd@grs,f
  5975  0BCA                     l2198:
  5976  0BCA  0833               	movf	___fladd@grs,w
  5977  0BCB  1D03               	btfss	3,2
  5978  0BCC  2BCE               	goto	u2991
  5979  0BCD  2BCF               	goto	u2990
  5980  0BCE                     u2991:
  5981  0BCE  2BEC               	goto	l574
  5982  0BCF                     u2990:
  5983  0BCF                     l2200:
  5984  0BCF  3001               	movlw	1
  5985  0BD0  07A0               	addwf	___fladd@b,f
  5986  0BD1  3000               	movlw	0
  5987  0BD2  1803               	skipnc
  5988  0BD3  3001               	movlw	1
  5989  0BD4  07A1               	addwf	___fladd@b+1,f
  5990  0BD5  3000               	movlw	0
  5991  0BD6  1803               	skipnc
  5992  0BD7  3001               	movlw	1
  5993  0BD8  07A2               	addwf	___fladd@b+2,f
  5994  0BD9  3000               	movlw	0
  5995  0BDA  1803               	skipnc
  5996  0BDB  3001               	movlw	1
  5997  0BDC  07A3               	addwf	___fladd@b+3,f
  5998  0BDD  2BEC               	goto	l574
  5999  0BDE                     l2202:
  6000  0BDE  0824               	movf	___fladd@a,w
  6001  0BDF  02A0               	subwf	___fladd@b,f
  6002  0BE0  0825               	movf	___fladd@a+1,w
  6003  0BE1  1C03               	skipc
  6004  0BE2  0F25               	incfsz	___fladd@a+1,w
  6005  0BE3  02A1               	subwf	___fladd@b+1,f
  6006  0BE4  0826               	movf	___fladd@a+2,w
  6007  0BE5  1C03               	skipc
  6008  0BE6  0F26               	incfsz	___fladd@a+2,w
  6009  0BE7  02A2               	subwf	___fladd@b+2,f
  6010  0BE8  0827               	movf	___fladd@a+3,w
  6011  0BE9  1C03               	skipc
  6012  0BEA  0F27               	incfsz	___fladd@a+3,w
  6013  0BEB  02A3               	subwf	___fladd@b+3,f
  6014  0BEC                     l574:
  6015  0BEC  0823               	movf	___fladd@b+3,w
  6016  0BED  0422               	iorwf	___fladd@b+2,w
  6017  0BEE  0421               	iorwf	___fladd@b+1,w
  6018  0BEF  0420               	iorwf	___fladd@b,w
  6019  0BF0  1D03               	skipz
  6020  0BF1  2BF3               	goto	u3001
  6021  0BF2  2BF4               	goto	u3000
  6022  0BF3                     u3001:
  6023  0BF3  2C20               	goto	l2224
  6024  0BF4                     u3000:
  6025  0BF4                     l2204:
  6026  0BF4  0833               	movf	___fladd@grs,w
  6027  0BF5  1D03               	btfss	3,2
  6028  0BF6  2BF8               	goto	u3011
  6029  0BF7  2BF9               	goto	u3010
  6030  0BF8                     u3011:
  6031  0BF8  2C20               	goto	l2224
  6032  0BF9                     u3010:
  6033  0BF9                     l2206:
  6034  0BF9  3000               	movlw	0
  6035  0BFA  00A3               	movwf	?___fladd+3
  6036  0BFB  3000               	movlw	0
  6037  0BFC  00A2               	movwf	?___fladd+2
  6038  0BFD  3000               	movlw	0
  6039  0BFE  00A1               	movwf	?___fladd+1
  6040  0BFF  3000               	movlw	0
  6041  0C00  00A0               	movwf	?___fladd
  6042  0C01  2C9E               	goto	l566
  6043  0C02                     l2210:
  6044  0C02  3001               	movlw	1
  6045  0C03  00A8               	movwf	??___fladd
  6046  0C04                     u3025:
  6047  0C04  1003               	clrc
  6048  0C05  0DA0               	rlf	___fladd@b,f
  6049  0C06  0DA1               	rlf	___fladd@b+1,f
  6050  0C07  0DA2               	rlf	___fladd@b+2,f
  6051  0C08  0DA3               	rlf	___fladd@b+3,f
  6052  0C09  0BA8               	decfsz	??___fladd,f
  6053  0C0A  2C04               	goto	u3025
  6054  0C0B                     l2212:
  6055  0C0B  1FB3               	btfss	___fladd@grs,7
  6056  0C0C  2C0E               	goto	u3031
  6057  0C0D  2C0F               	goto	u3030
  6058  0C0E                     u3031:
  6059  0C0E  2C10               	goto	l578
  6060  0C0F                     u3030:
  6061  0C0F                     l2214:
  6062  0C0F  1420               	bsf	___fladd@b,0
  6063  0C10                     l578:
  6064  0C10  1C33               	btfss	___fladd@grs,0
  6065  0C11  2C13               	goto	u3041
  6066  0C12  2C14               	goto	u3040
  6067  0C13                     u3041:
  6068  0C13  2C17               	goto	l2218
  6069  0C14                     u3040:
  6070  0C14                     l2216:
  6071  0C14  1403               	setc
  6072  0C15  0DB3               	rlf	___fladd@grs,f
  6073  0C16  2C19               	goto	l2220
  6074  0C17                     l2218:
  6075  0C17  1003               	clrc
  6076  0C18  0DB3               	rlf	___fladd@grs,f
  6077  0C19                     l2220:
  6078  0C19  0832               	movf	___fladd@bexp,w
  6079  0C1A  1903               	btfsc	3,2
  6080  0C1B  2C1D               	goto	u3051
  6081  0C1C  2C1E               	goto	u3050
  6082  0C1D                     u3051:
  6083  0C1D  2C20               	goto	l2224
  6084  0C1E                     u3050:
  6085  0C1E                     l2222:
  6086  0C1E  3001               	movlw	1
  6087  0C1F  02B2               	subwf	___fladd@bexp,f
  6088  0C20                     l2224:
  6089  0C20  1FA2               	btfss	___fladd@b+2,7
  6090  0C21  2C23               	goto	u3061
  6091  0C22  2C24               	goto	u3060
  6092  0C23                     u3061:
  6093  0C23  2C02               	goto	l2210
  6094  0C24                     u3060:
  6095  0C24                     l2226:
  6096  0C24  01B1               	clrf	___fladd@aexp
  6097  0C25                     l2228:
  6098  0C25  1FB3               	btfss	___fladd@grs,7
  6099  0C26  2C28               	goto	u3071
  6100  0C27  2C29               	goto	u3070
  6101  0C28                     u3071:
  6102  0C28  2C37               	goto	l2236
  6103  0C29                     u3070:
  6104  0C29                     l2230:
  6105  0C29  0833               	movf	___fladd@grs,w
  6106  0C2A  397F               	andlw	127
  6107  0C2B  1903               	btfsc	3,2
  6108  0C2C  2C2E               	goto	u3081
  6109  0C2D  2C2F               	goto	u3080
  6110  0C2E                     u3081:
  6111  0C2E  2C32               	goto	l584
  6112  0C2F                     u3080:
  6113  0C2F                     l2232:
  6114  0C2F  01B1               	clrf	___fladd@aexp
  6115  0C30  0AB1               	incf	___fladd@aexp,f
  6116  0C31  2C37               	goto	l2236
  6117  0C32                     l584:
  6118  0C32  1C20               	btfss	___fladd@b,0
  6119  0C33  2C35               	goto	u3091
  6120  0C34  2C36               	goto	u3090
  6121  0C35                     u3091:
  6122  0C35  2C37               	goto	l2236
  6123  0C36                     u3090:
  6124  0C36  2C2F               	goto	l2232
  6125  0C37                     l2236:
  6126  0C37  0831               	movf	___fladd@aexp,w
  6127  0C38  1903               	btfsc	3,2
  6128  0C39  2C3B               	goto	u3101
  6129  0C3A  2C3C               	goto	u3100
  6130  0C3B                     u3101:
  6131  0C3B  2C70               	goto	l2246
  6132  0C3C                     u3100:
  6133  0C3C                     l2238:
  6134  0C3C  3001               	movlw	1
  6135  0C3D  07A0               	addwf	___fladd@b,f
  6136  0C3E  3000               	movlw	0
  6137  0C3F  1803               	skipnc
  6138  0C40  3001               	movlw	1
  6139  0C41  07A1               	addwf	___fladd@b+1,f
  6140  0C42  3000               	movlw	0
  6141  0C43  1803               	skipnc
  6142  0C44  3001               	movlw	1
  6143  0C45  07A2               	addwf	___fladd@b+2,f
  6144  0C46  3000               	movlw	0
  6145  0C47  1803               	skipnc
  6146  0C48  3001               	movlw	1
  6147  0C49  07A3               	addwf	___fladd@b+3,f
  6148  0C4A                     l2240:
  6149  0C4A  1C23               	btfss	___fladd@b+3,0
  6150  0C4B  2C4D               	goto	u3111
  6151  0C4C  2C4E               	goto	u3110
  6152  0C4D                     u3111:
  6153  0C4D  2C70               	goto	l2246
  6154  0C4E                     u3110:
  6155  0C4E                     l2242:
  6156  0C4E  0820               	movf	___fladd@b,w
  6157  0C4F  00A8               	movwf	??___fladd
  6158  0C50  0821               	movf	___fladd@b+1,w
  6159  0C51  00A9               	movwf	??___fladd+1
  6160  0C52  0822               	movf	___fladd@b+2,w
  6161  0C53  00AA               	movwf	??___fladd+2
  6162  0C54  0823               	movf	___fladd@b+3,w
  6163  0C55  00AB               	movwf	??___fladd+3
  6164  0C56  3001               	movlw	1
  6165  0C57  00AC               	movwf	??___fladd+4
  6166  0C58                     u3125:
  6167  0C58  0D2B               	rlf	??___fladd+3,w
  6168  0C59  0CAB               	rrf	??___fladd+3,f
  6169  0C5A  0CAA               	rrf	??___fladd+2,f
  6170  0C5B  0CA9               	rrf	??___fladd+1,f
  6171  0C5C  0CA8               	rrf	??___fladd,f
  6172  0C5D                     u3120:
  6173  0C5D  0BAC               	decfsz	??___fladd+4,f
  6174  0C5E  2C58               	goto	u3125
  6175  0C5F  082B               	movf	??___fladd+3,w
  6176  0C60  00A3               	movwf	___fladd@b+3
  6177  0C61  082A               	movf	??___fladd+2,w
  6178  0C62  00A2               	movwf	___fladd@b+2
  6179  0C63  0829               	movf	??___fladd+1,w
  6180  0C64  00A1               	movwf	___fladd@b+1
  6181  0C65  0828               	movf	??___fladd,w
  6182  0C66  00A0               	movwf	___fladd@b
  6183  0C67  0A32               	incf	___fladd@bexp,w
  6184  0C68  1903               	btfsc	3,2
  6185  0C69  2C6B               	goto	u3131
  6186  0C6A  2C6C               	goto	u3130
  6187  0C6B                     u3131:
  6188  0C6B  2C70               	goto	l2246
  6189  0C6C                     u3130:
  6190  0C6C                     l2244:
  6191  0C6C  3001               	movlw	1
  6192  0C6D  00FF               	movwf	btemp+1
  6193  0C6E  087F               	movf	btemp+1,w
  6194  0C6F  07B2               	addwf	___fladd@bexp,f
  6195  0C70                     l2246:
  6196  0C70  0A32               	incf	___fladd@bexp,w
  6197  0C71  1903               	btfsc	3,2
  6198  0C72  2C74               	goto	u3141
  6199  0C73  2C75               	goto	u3140
  6200  0C74                     u3141:
  6201  0C74  2C7A               	goto	l2250
  6202  0C75                     u3140:
  6203  0C75                     l2248:
  6204  0C75  0832               	movf	___fladd@bexp,w
  6205  0C76  1D03               	btfss	3,2
  6206  0C77  2C79               	goto	u3151
  6207  0C78  2C7A               	goto	u3150
  6208  0C79                     u3151:
  6209  0C79  2C88               	goto	l2256
  6210  0C7A                     u3150:
  6211  0C7A                     l2250:
  6212  0C7A  3000               	movlw	0
  6213  0C7B  00A3               	movwf	___fladd@b+3
  6214  0C7C  3000               	movlw	0
  6215  0C7D  00A2               	movwf	___fladd@b+2
  6216  0C7E  3000               	movlw	0
  6217  0C7F  00A1               	movwf	___fladd@b+1
  6218  0C80  3000               	movlw	0
  6219  0C81  00A0               	movwf	___fladd@b
  6220  0C82                     l2252:
  6221  0C82  0832               	movf	___fladd@bexp,w
  6222  0C83  1D03               	btfss	3,2
  6223  0C84  2C86               	goto	u3161
  6224  0C85  2C87               	goto	u3160
  6225  0C86                     u3161:
  6226  0C86  2C88               	goto	l2256
  6227  0C87                     u3160:
  6228  0C87                     l2254:
  6229  0C87  01B0               	clrf	___fladd@signs
  6230  0C88                     l2256:
  6231  0C88  1C32               	btfss	___fladd@bexp,0
  6232  0C89  2C8B               	goto	u3171
  6233  0C8A  2C8C               	goto	u3170
  6234  0C8B                     u3171:
  6235  0C8B  2C8E               	goto	l2260
  6236  0C8C                     u3170:
  6237  0C8C                     l2258:
  6238  0C8C  17A2               	bsf	___fladd@b+2,7
  6239  0C8D  2C92               	goto	l595
  6240  0C8E                     l2260:
  6241  0C8E  307F               	movlw	127
  6242  0C8F  00FF               	movwf	btemp+1
  6243  0C90  087F               	movf	btemp+1,w
  6244  0C91  05A2               	andwf	___fladd@b+2,f
  6245  0C92                     l595:
  6246  0C92  0832               	movf	___fladd@bexp,w
  6247  0C93  00A8               	movwf	??___fladd
  6248  0C94  1003               	clrc
  6249  0C95  0C28               	rrf	??___fladd,w
  6250  0C96  00FF               	movwf	btemp+1
  6251  0C97  087F               	movf	btemp+1,w
  6252  0C98  00A3               	movwf	___fladd@b+3
  6253  0C99                     l2262:
  6254  0C99  1FB0               	btfss	___fladd@signs,7
  6255  0C9A  2C9C               	goto	u3181
  6256  0C9B  2C9D               	goto	u3180
  6257  0C9C                     u3181:
  6258  0C9C  2C9E               	goto	l596
  6259  0C9D                     u3180:
  6260  0C9D                     l2264:
  6261  0C9D  17A3               	bsf	___fladd@b+3,7
  6262  0C9E                     l596:
  6263  0C9E                     l566:
  6264  0C9E  0008               	return
  6265  0C9F                     __end_of___fladd:
  6266                           
  6267                           	psect	text22
  6268  0C9F                     __ptext22:	
  6269 ;; *************** function ___flmul *****************
  6270 ;; Defined at:
  6271 ;;		line 8 in file "C:\Program Files\Microchip\xc8\v2.20\pic\sources\c90\common\sprcmul.c"
  6272 ;; Parameters:    Size  Location     Type
  6273 ;;  b               4   54[BANK0 ] unsigned char 
  6274 ;;  a               4   58[BANK0 ] unsigned char 
  6275 ;; Auto vars:     Size  Location     Type
  6276 ;;  prod            4   74[BANK0 ] struct .
  6277 ;;  grs             4   68[BANK0 ] unsigned long 
  6278 ;;  temp            2   78[BANK0 ] struct .
  6279 ;;  bexp            1   73[BANK0 ] unsigned char 
  6280 ;;  aexp            1   72[BANK0 ] unsigned char 
  6281 ;;  sign            1   67[BANK0 ] unsigned char 
  6282 ;; Return value:  Size  Location     Type
  6283 ;;                  4   54[BANK0 ] unsigned char 
  6284 ;; Registers used:
  6285 ;;		wreg, status,2, status,0, btemp+1, pclath, cstack
  6286 ;; Tracked objects:
  6287 ;;		On entry : 0/0
  6288 ;;		On exit  : 0/0
  6289 ;;		Unchanged: 0/0
  6290 ;; Data sizes:     COMMON   BANK0   BANK1   BANK3   BANK2
  6291 ;;      Params:         0       8       0       0       0
  6292 ;;      Locals:         0      13       0       0       0
  6293 ;;      Temps:          0       5       0       0       0
  6294 ;;      Totals:         0      26       0       0       0
  6295 ;;Total ram usage:       26 bytes
  6296 ;; Hardware stack levels used:    1
  6297 ;; Hardware stack levels required when called:    2
  6298 ;; This function calls:
  6299 ;;		__Umul8_16
  6300 ;; This function is called by:
  6301 ;;		_puts_float
  6302 ;;		_Voltage_Value
  6303 ;;		_Resistance_Value
  6304 ;;		_conversion_newton
  6305 ;; This function uses a non-reentrant model
  6306 ;;
  6307                           
  6308                           
  6309                           ;psect for function ___flmul
  6310  0C9F                     ___flmul:
  6311  0C9F                     l2708:	
  6312                           ;incstack = 0
  6313                           ; Regs used in ___flmul: [wreg+status,2+status,0+btemp+1+pclath+cstack]
  6314                           
  6315  0C9F  1283               	bcf	3,5	;RP0=0, select bank0
  6316  0CA0  1303               	bcf	3,6	;RP1=0, select bank0
  6317  0CA1  0859               	movf	___flmul@b+3,w
  6318  0CA2  3980               	andlw	128
  6319  0CA3  00FF               	movwf	btemp+1
  6320  0CA4  087F               	movf	btemp+1,w
  6321  0CA5  00E3               	movwf	___flmul@sign
  6322  0CA6                     l2710:
  6323  0CA6  0859               	movf	___flmul@b+3,w
  6324  0CA7  00DE               	movwf	??___flmul
  6325  0CA8  075E               	addwf	??___flmul,w
  6326  0CA9  00FF               	movwf	btemp+1
  6327  0CAA  087F               	movf	btemp+1,w
  6328  0CAB  00E9               	movwf	___flmul@bexp
  6329  0CAC                     l2712:
  6330  0CAC  1FD8               	btfss	___flmul@b+2,7
  6331  0CAD  2CAF               	goto	u4221
  6332  0CAE  2CB0               	goto	u4220
  6333  0CAF                     u4221:
  6334  0CAF  2CB1               	goto	l2716
  6335  0CB0                     u4220:
  6336  0CB0                     l2714:
  6337  0CB0  1469               	bsf	___flmul@bexp,0
  6338  0CB1                     l2716:
  6339  0CB1  0869               	movf	___flmul@bexp,w
  6340  0CB2  1903               	btfsc	3,2
  6341  0CB3  2CB5               	goto	u4231
  6342  0CB4  2CB6               	goto	u4230
  6343  0CB5                     u4231:
  6344  0CB5  2CC5               	goto	l2724
  6345  0CB6                     u4230:
  6346  0CB6                     l2718:
  6347  0CB6  0A69               	incf	___flmul@bexp,w
  6348  0CB7  1D03               	btfss	3,2
  6349  0CB8  2CBA               	goto	u4241
  6350  0CB9  2CBB               	goto	u4240
  6351  0CBA                     u4241:
  6352  0CBA  2CC3               	goto	l2722
  6353  0CBB                     u4240:
  6354  0CBB                     l2720:
  6355  0CBB  3000               	movlw	0
  6356  0CBC  00D9               	movwf	___flmul@b+3
  6357  0CBD  3000               	movlw	0
  6358  0CBE  00D8               	movwf	___flmul@b+2
  6359  0CBF  3000               	movlw	0
  6360  0CC0  00D7               	movwf	___flmul@b+1
  6361  0CC1  3000               	movlw	0
  6362  0CC2  00D6               	movwf	___flmul@b
  6363  0CC3                     l2722:
  6364  0CC3  17D8               	bsf	___flmul@b+2,7
  6365  0CC4  2CCD               	goto	l2726
  6366  0CC5                     l2724:
  6367  0CC5  3000               	movlw	0
  6368  0CC6  00D9               	movwf	___flmul@b+3
  6369  0CC7  3000               	movlw	0
  6370  0CC8  00D8               	movwf	___flmul@b+2
  6371  0CC9  3000               	movlw	0
  6372  0CCA  00D7               	movwf	___flmul@b+1
  6373  0CCB  3000               	movlw	0
  6374  0CCC  00D6               	movwf	___flmul@b
  6375  0CCD                     l2726:
  6376  0CCD  085D               	movf	___flmul@a+3,w
  6377  0CCE  3980               	andlw	128
  6378  0CCF  00FF               	movwf	btemp+1
  6379  0CD0  087F               	movf	btemp+1,w
  6380  0CD1  06E3               	xorwf	___flmul@sign,f
  6381  0CD2                     l2728:
  6382  0CD2  085D               	movf	___flmul@a+3,w
  6383  0CD3  00DE               	movwf	??___flmul
  6384  0CD4  075E               	addwf	??___flmul,w
  6385  0CD5  00FF               	movwf	btemp+1
  6386  0CD6  087F               	movf	btemp+1,w
  6387  0CD7  00E8               	movwf	___flmul@aexp
  6388  0CD8                     l2730:
  6389  0CD8  1FDC               	btfss	___flmul@a+2,7
  6390  0CD9  2CDB               	goto	u4251
  6391  0CDA  2CDC               	goto	u4250
  6392  0CDB                     u4251:
  6393  0CDB  2CDD               	goto	l2734
  6394  0CDC                     u4250:
  6395  0CDC                     l2732:
  6396  0CDC  1468               	bsf	___flmul@aexp,0
  6397  0CDD                     l2734:
  6398  0CDD  0868               	movf	___flmul@aexp,w
  6399  0CDE  1903               	btfsc	3,2
  6400  0CDF  2CE1               	goto	u4261
  6401  0CE0  2CE2               	goto	u4260
  6402  0CE1                     u4261:
  6403  0CE1  2CF1               	goto	l2742
  6404  0CE2                     u4260:
  6405  0CE2                     l2736:
  6406  0CE2  0A68               	incf	___flmul@aexp,w
  6407  0CE3  1D03               	btfss	3,2
  6408  0CE4  2CE6               	goto	u4271
  6409  0CE5  2CE7               	goto	u4270
  6410  0CE6                     u4271:
  6411  0CE6  2CEF               	goto	l2740
  6412  0CE7                     u4270:
  6413  0CE7                     l2738:
  6414  0CE7  3000               	movlw	0
  6415  0CE8  00DD               	movwf	___flmul@a+3
  6416  0CE9  3000               	movlw	0
  6417  0CEA  00DC               	movwf	___flmul@a+2
  6418  0CEB  3000               	movlw	0
  6419  0CEC  00DB               	movwf	___flmul@a+1
  6420  0CED  3000               	movlw	0
  6421  0CEE  00DA               	movwf	___flmul@a
  6422  0CEF                     l2740:
  6423  0CEF  17DC               	bsf	___flmul@a+2,7
  6424  0CF0  2CF9               	goto	l2744
  6425  0CF1                     l2742:
  6426  0CF1  3000               	movlw	0
  6427  0CF2  00DD               	movwf	___flmul@a+3
  6428  0CF3  3000               	movlw	0
  6429  0CF4  00DC               	movwf	___flmul@a+2
  6430  0CF5  3000               	movlw	0
  6431  0CF6  00DB               	movwf	___flmul@a+1
  6432  0CF7  3000               	movlw	0
  6433  0CF8  00DA               	movwf	___flmul@a
  6434  0CF9                     l2744:
  6435  0CF9  0868               	movf	___flmul@aexp,w
  6436  0CFA  1903               	btfsc	3,2
  6437  0CFB  2CFD               	goto	u4281
  6438  0CFC  2CFE               	goto	u4280
  6439  0CFD                     u4281:
  6440  0CFD  2D03               	goto	l2748
  6441  0CFE                     u4280:
  6442  0CFE                     l2746:
  6443  0CFE  0869               	movf	___flmul@bexp,w
  6444  0CFF  1D03               	btfss	3,2
  6445  0D00  2D02               	goto	u4291
  6446  0D01  2D03               	goto	u4290
  6447  0D02                     u4291:
  6448  0D02  2D0C               	goto	l2752
  6449  0D03                     u4290:
  6450  0D03                     l2748:
  6451  0D03  3000               	movlw	0
  6452  0D04  00D9               	movwf	?___flmul+3
  6453  0D05  3000               	movlw	0
  6454  0D06  00D8               	movwf	?___flmul+2
  6455  0D07  3000               	movlw	0
  6456  0D08  00D7               	movwf	?___flmul+1
  6457  0D09  3000               	movlw	0
  6458  0D0A  00D6               	movwf	?___flmul
  6459  0D0B  2FFF               	goto	l649
  6460  0D0C                     l2752:
  6461  0D0C  0856               	movf	___flmul@b,w
  6462  0D0D  00FF               	movwf	btemp+1
  6463  0D0E  087F               	movf	btemp+1,w
  6464  0D0F  00F3               	movwf	__Umul8_16@multiplicand
  6465  0D10  085C               	movf	___flmul@a+2,w
  6466  0D11  160A  158A  20DF  120A  158A  	fcall	__Umul8_16
  6467  0D16  0874               	movf	?__Umul8_16+1,w
  6468  0D17  1283               	bcf	3,5	;RP0=0, select bank0
  6469  0D18  1303               	bcf	3,6	;RP1=0, select bank0
  6470  0D19  00EF               	movwf	___flmul@temp+1
  6471  0D1A  0873               	movf	?__Umul8_16,w
  6472  0D1B  00EE               	movwf	___flmul@temp
  6473  0D1C                     l2754:
  6474  0D1C  086E               	movf	___flmul@temp,w
  6475  0D1D  00DE               	movwf	??___flmul
  6476  0D1E  01DF               	clrf	??___flmul+1
  6477  0D1F  01E0               	clrf	??___flmul+2
  6478  0D20  01E1               	clrf	??___flmul+3
  6479  0D21  0861               	movf	??___flmul+3,w
  6480  0D22  00E7               	movwf	___flmul@grs+3
  6481  0D23  0860               	movf	??___flmul+2,w
  6482  0D24  00E6               	movwf	___flmul@grs+2
  6483  0D25  085F               	movf	??___flmul+1,w
  6484  0D26  00E5               	movwf	___flmul@grs+1
  6485  0D27  085E               	movf	??___flmul,w
  6486  0D28  00E4               	movwf	___flmul@grs
  6487  0D29                     l2756:
  6488  0D29  086F               	movf	___flmul@temp+1,w
  6489  0D2A  00DE               	movwf	??___flmul
  6490  0D2B  01DF               	clrf	??___flmul+1
  6491  0D2C  01E0               	clrf	??___flmul+2
  6492  0D2D  01E1               	clrf	??___flmul+3
  6493  0D2E  0861               	movf	??___flmul+3,w
  6494  0D2F  00ED               	movwf	___flmul@prod+3
  6495  0D30  0860               	movf	??___flmul+2,w
  6496  0D31  00EC               	movwf	___flmul@prod+2
  6497  0D32  085F               	movf	??___flmul+1,w
  6498  0D33  00EB               	movwf	___flmul@prod+1
  6499  0D34  085E               	movf	??___flmul,w
  6500  0D35  00EA               	movwf	___flmul@prod
  6501  0D36  0857               	movf	___flmul@b+1,w
  6502  0D37  00FF               	movwf	btemp+1
  6503  0D38  087F               	movf	btemp+1,w
  6504  0D39  00F3               	movwf	__Umul8_16@multiplicand
  6505  0D3A  085B               	movf	___flmul@a+1,w
  6506  0D3B  160A  158A  20DF  120A  158A  	fcall	__Umul8_16
  6507  0D40  0874               	movf	?__Umul8_16+1,w
  6508  0D41  1283               	bcf	3,5	;RP0=0, select bank0
  6509  0D42  1303               	bcf	3,6	;RP1=0, select bank0
  6510  0D43  00EF               	movwf	___flmul@temp+1
  6511  0D44  0873               	movf	?__Umul8_16,w
  6512  0D45  00EE               	movwf	___flmul@temp
  6513  0D46                     l2758:
  6514  0D46  086E               	movf	___flmul@temp,w
  6515  0D47  00DE               	movwf	??___flmul
  6516  0D48  01DF               	clrf	??___flmul+1
  6517  0D49  01E0               	clrf	??___flmul+2
  6518  0D4A  01E1               	clrf	??___flmul+3
  6519  0D4B  085E               	movf	??___flmul,w
  6520  0D4C  07E4               	addwf	___flmul@grs,f
  6521  0D4D  085F               	movf	??___flmul+1,w
  6522  0D4E  1103               	clrz
  6523  0D4F  1803               	skipnc
  6524  0D50  3E01               	addlw	1
  6525  0D51  1903               	skipnz
  6526  0D52  2D54               	goto	u4301
  6527  0D53  07E5               	addwf	___flmul@grs+1,f
  6528  0D54                     u4301:
  6529  0D54  0860               	movf	??___flmul+2,w
  6530  0D55  1103               	clrz
  6531  0D56  1803               	skipnc
  6532  0D57  3E01               	addlw	1
  6533  0D58  1903               	skipnz
  6534  0D59  2D5B               	goto	u4302
  6535  0D5A  07E6               	addwf	___flmul@grs+2,f
  6536  0D5B                     u4302:
  6537  0D5B  0861               	movf	??___flmul+3,w
  6538  0D5C  1103               	clrz
  6539  0D5D  1803               	skipnc
  6540  0D5E  3E01               	addlw	1
  6541  0D5F  1903               	skipnz
  6542  0D60  2D62               	goto	u4303
  6543  0D61  07E7               	addwf	___flmul@grs+3,f
  6544  0D62                     u4303:
  6545  0D62                     l2760:
  6546  0D62  086F               	movf	___flmul@temp+1,w
  6547  0D63  00DE               	movwf	??___flmul
  6548  0D64  01DF               	clrf	??___flmul+1
  6549  0D65  01E0               	clrf	??___flmul+2
  6550  0D66  01E1               	clrf	??___flmul+3
  6551  0D67  085E               	movf	??___flmul,w
  6552  0D68  07EA               	addwf	___flmul@prod,f
  6553  0D69  085F               	movf	??___flmul+1,w
  6554  0D6A  1103               	clrz
  6555  0D6B  1803               	skipnc
  6556  0D6C  3E01               	addlw	1
  6557  0D6D  1903               	skipnz
  6558  0D6E  2D70               	goto	u4311
  6559  0D6F  07EB               	addwf	___flmul@prod+1,f
  6560  0D70                     u4311:
  6561  0D70  0860               	movf	??___flmul+2,w
  6562  0D71  1103               	clrz
  6563  0D72  1803               	skipnc
  6564  0D73  3E01               	addlw	1
  6565  0D74  1903               	skipnz
  6566  0D75  2D77               	goto	u4312
  6567  0D76  07EC               	addwf	___flmul@prod+2,f
  6568  0D77                     u4312:
  6569  0D77  0861               	movf	??___flmul+3,w
  6570  0D78  1103               	clrz
  6571  0D79  1803               	skipnc
  6572  0D7A  3E01               	addlw	1
  6573  0D7B  1903               	skipnz
  6574  0D7C  2D7E               	goto	u4313
  6575  0D7D  07ED               	addwf	___flmul@prod+3,f
  6576  0D7E                     u4313:
  6577  0D7E  0858               	movf	___flmul@b+2,w
  6578  0D7F  00FF               	movwf	btemp+1
  6579  0D80  087F               	movf	btemp+1,w
  6580  0D81  00F3               	movwf	__Umul8_16@multiplicand
  6581  0D82  085A               	movf	___flmul@a,w
  6582  0D83  160A  158A  20DF  120A  158A  	fcall	__Umul8_16
  6583  0D88  0874               	movf	?__Umul8_16+1,w
  6584  0D89  1283               	bcf	3,5	;RP0=0, select bank0
  6585  0D8A  1303               	bcf	3,6	;RP1=0, select bank0
  6586  0D8B  00EF               	movwf	___flmul@temp+1
  6587  0D8C  0873               	movf	?__Umul8_16,w
  6588  0D8D  00EE               	movwf	___flmul@temp
  6589  0D8E                     l2762:
  6590  0D8E  086E               	movf	___flmul@temp,w
  6591  0D8F  00DE               	movwf	??___flmul
  6592  0D90  01DF               	clrf	??___flmul+1
  6593  0D91  01E0               	clrf	??___flmul+2
  6594  0D92  01E1               	clrf	??___flmul+3
  6595  0D93  085E               	movf	??___flmul,w
  6596  0D94  07E4               	addwf	___flmul@grs,f
  6597  0D95  085F               	movf	??___flmul+1,w
  6598  0D96  1103               	clrz
  6599  0D97  1803               	skipnc
  6600  0D98  3E01               	addlw	1
  6601  0D99  1903               	skipnz
  6602  0D9A  2D9C               	goto	u4321
  6603  0D9B  07E5               	addwf	___flmul@grs+1,f
  6604  0D9C                     u4321:
  6605  0D9C  0860               	movf	??___flmul+2,w
  6606  0D9D  1103               	clrz
  6607  0D9E  1803               	skipnc
  6608  0D9F  3E01               	addlw	1
  6609  0DA0  1903               	skipnz
  6610  0DA1  2DA3               	goto	u4322
  6611  0DA2  07E6               	addwf	___flmul@grs+2,f
  6612  0DA3                     u4322:
  6613  0DA3  0861               	movf	??___flmul+3,w
  6614  0DA4  1103               	clrz
  6615  0DA5  1803               	skipnc
  6616  0DA6  3E01               	addlw	1
  6617  0DA7  1903               	skipnz
  6618  0DA8  2DAA               	goto	u4323
  6619  0DA9  07E7               	addwf	___flmul@grs+3,f
  6620  0DAA                     u4323:
  6621  0DAA                     l2764:
  6622  0DAA  086F               	movf	___flmul@temp+1,w
  6623  0DAB  00DE               	movwf	??___flmul
  6624  0DAC  01DF               	clrf	??___flmul+1
  6625  0DAD  01E0               	clrf	??___flmul+2
  6626  0DAE  01E1               	clrf	??___flmul+3
  6627  0DAF  085E               	movf	??___flmul,w
  6628  0DB0  07EA               	addwf	___flmul@prod,f
  6629  0DB1  085F               	movf	??___flmul+1,w
  6630  0DB2  1103               	clrz
  6631  0DB3  1803               	skipnc
  6632  0DB4  3E01               	addlw	1
  6633  0DB5  1903               	skipnz
  6634  0DB6  2DB8               	goto	u4331
  6635  0DB7  07EB               	addwf	___flmul@prod+1,f
  6636  0DB8                     u4331:
  6637  0DB8  0860               	movf	??___flmul+2,w
  6638  0DB9  1103               	clrz
  6639  0DBA  1803               	skipnc
  6640  0DBB  3E01               	addlw	1
  6641  0DBC  1903               	skipnz
  6642  0DBD  2DBF               	goto	u4332
  6643  0DBE  07EC               	addwf	___flmul@prod+2,f
  6644  0DBF                     u4332:
  6645  0DBF  0861               	movf	??___flmul+3,w
  6646  0DC0  1103               	clrz
  6647  0DC1  1803               	skipnc
  6648  0DC2  3E01               	addlw	1
  6649  0DC3  1903               	skipnz
  6650  0DC4  2DC6               	goto	u4333
  6651  0DC5  07ED               	addwf	___flmul@prod+3,f
  6652  0DC6                     u4333:
  6653  0DC6                     l2766:
  6654  0DC6  3008               	movlw	8
  6655  0DC7  00DE               	movwf	??___flmul
  6656  0DC8                     u4345:
  6657  0DC8  1003               	clrc
  6658  0DC9  0DE4               	rlf	___flmul@grs,f
  6659  0DCA  0DE5               	rlf	___flmul@grs+1,f
  6660  0DCB  0DE6               	rlf	___flmul@grs+2,f
  6661  0DCC  0DE7               	rlf	___flmul@grs+3,f
  6662  0DCD  0BDE               	decfsz	??___flmul,f
  6663  0DCE  2DC8               	goto	u4345
  6664  0DCF                     l2768:
  6665  0DCF  0857               	movf	___flmul@b+1,w
  6666  0DD0  00FF               	movwf	btemp+1
  6667  0DD1  087F               	movf	btemp+1,w
  6668  0DD2  00F3               	movwf	__Umul8_16@multiplicand
  6669  0DD3  085A               	movf	___flmul@a,w
  6670  0DD4  160A  158A  20DF  120A  158A  	fcall	__Umul8_16
  6671  0DD9  0874               	movf	?__Umul8_16+1,w
  6672  0DDA  1283               	bcf	3,5	;RP0=0, select bank0
  6673  0DDB  1303               	bcf	3,6	;RP1=0, select bank0
  6674  0DDC  00EF               	movwf	___flmul@temp+1
  6675  0DDD  0873               	movf	?__Umul8_16,w
  6676  0DDE  00EE               	movwf	___flmul@temp
  6677  0DDF                     l2770:
  6678  0DDF  086E               	movf	___flmul@temp,w
  6679  0DE0  00DE               	movwf	??___flmul
  6680  0DE1  086F               	movf	___flmul@temp+1,w
  6681  0DE2  00DF               	movwf	??___flmul+1
  6682  0DE3  01E0               	clrf	??___flmul+2
  6683  0DE4  01E1               	clrf	??___flmul+3
  6684  0DE5  085E               	movf	??___flmul,w
  6685  0DE6  07E4               	addwf	___flmul@grs,f
  6686  0DE7  085F               	movf	??___flmul+1,w
  6687  0DE8  1103               	clrz
  6688  0DE9  1803               	skipnc
  6689  0DEA  3E01               	addlw	1
  6690  0DEB  1903               	skipnz
  6691  0DEC  2DEE               	goto	u4351
  6692  0DED  07E5               	addwf	___flmul@grs+1,f
  6693  0DEE                     u4351:
  6694  0DEE  0860               	movf	??___flmul+2,w
  6695  0DEF  1103               	clrz
  6696  0DF0  1803               	skipnc
  6697  0DF1  3E01               	addlw	1
  6698  0DF2  1903               	skipnz
  6699  0DF3  2DF5               	goto	u4352
  6700  0DF4  07E6               	addwf	___flmul@grs+2,f
  6701  0DF5                     u4352:
  6702  0DF5  0861               	movf	??___flmul+3,w
  6703  0DF6  1103               	clrz
  6704  0DF7  1803               	skipnc
  6705  0DF8  3E01               	addlw	1
  6706  0DF9  1903               	skipnz
  6707  0DFA  2DFC               	goto	u4353
  6708  0DFB  07E7               	addwf	___flmul@grs+3,f
  6709  0DFC                     u4353:
  6710  0DFC                     l2772:
  6711  0DFC  0856               	movf	___flmul@b,w
  6712  0DFD  00FF               	movwf	btemp+1
  6713  0DFE  087F               	movf	btemp+1,w
  6714  0DFF  00F3               	movwf	__Umul8_16@multiplicand
  6715  0E00  085B               	movf	___flmul@a+1,w
  6716  0E01  160A  158A  20DF  120A  158A  	fcall	__Umul8_16
  6717  0E06  0874               	movf	?__Umul8_16+1,w
  6718  0E07  1283               	bcf	3,5	;RP0=0, select bank0
  6719  0E08  1303               	bcf	3,6	;RP1=0, select bank0
  6720  0E09  00EF               	movwf	___flmul@temp+1
  6721  0E0A  0873               	movf	?__Umul8_16,w
  6722  0E0B  00EE               	movwf	___flmul@temp
  6723  0E0C                     l2774:
  6724  0E0C  086E               	movf	___flmul@temp,w
  6725  0E0D  00DE               	movwf	??___flmul
  6726  0E0E  086F               	movf	___flmul@temp+1,w
  6727  0E0F  00DF               	movwf	??___flmul+1
  6728  0E10  01E0               	clrf	??___flmul+2
  6729  0E11  01E1               	clrf	??___flmul+3
  6730  0E12  085E               	movf	??___flmul,w
  6731  0E13  07E4               	addwf	___flmul@grs,f
  6732  0E14  085F               	movf	??___flmul+1,w
  6733  0E15  1103               	clrz
  6734  0E16  1803               	skipnc
  6735  0E17  3E01               	addlw	1
  6736  0E18  1903               	skipnz
  6737  0E19  2E1B               	goto	u4361
  6738  0E1A  07E5               	addwf	___flmul@grs+1,f
  6739  0E1B                     u4361:
  6740  0E1B  0860               	movf	??___flmul+2,w
  6741  0E1C  1103               	clrz
  6742  0E1D  1803               	skipnc
  6743  0E1E  3E01               	addlw	1
  6744  0E1F  1903               	skipnz
  6745  0E20  2E22               	goto	u4362
  6746  0E21  07E6               	addwf	___flmul@grs+2,f
  6747  0E22                     u4362:
  6748  0E22  0861               	movf	??___flmul+3,w
  6749  0E23  1103               	clrz
  6750  0E24  1803               	skipnc
  6751  0E25  3E01               	addlw	1
  6752  0E26  1903               	skipnz
  6753  0E27  2E29               	goto	u4363
  6754  0E28  07E7               	addwf	___flmul@grs+3,f
  6755  0E29                     u4363:
  6756  0E29                     l2776:
  6757  0E29  3008               	movlw	8
  6758  0E2A  00DE               	movwf	??___flmul
  6759  0E2B                     u4375:
  6760  0E2B  1003               	clrc
  6761  0E2C  0DE4               	rlf	___flmul@grs,f
  6762  0E2D  0DE5               	rlf	___flmul@grs+1,f
  6763  0E2E  0DE6               	rlf	___flmul@grs+2,f
  6764  0E2F  0DE7               	rlf	___flmul@grs+3,f
  6765  0E30  0BDE               	decfsz	??___flmul,f
  6766  0E31  2E2B               	goto	u4375
  6767  0E32  0856               	movf	___flmul@b,w
  6768  0E33  00FF               	movwf	btemp+1
  6769  0E34  087F               	movf	btemp+1,w
  6770  0E35  00F3               	movwf	__Umul8_16@multiplicand
  6771  0E36  085A               	movf	___flmul@a,w
  6772  0E37  160A  158A  20DF  120A  158A  	fcall	__Umul8_16
  6773  0E3C  0874               	movf	?__Umul8_16+1,w
  6774  0E3D  1283               	bcf	3,5	;RP0=0, select bank0
  6775  0E3E  1303               	bcf	3,6	;RP1=0, select bank0
  6776  0E3F  00EF               	movwf	___flmul@temp+1
  6777  0E40  0873               	movf	?__Umul8_16,w
  6778  0E41  00EE               	movwf	___flmul@temp
  6779  0E42                     l2778:
  6780  0E42  086E               	movf	___flmul@temp,w
  6781  0E43  00DE               	movwf	??___flmul
  6782  0E44  086F               	movf	___flmul@temp+1,w
  6783  0E45  00DF               	movwf	??___flmul+1
  6784  0E46  01E0               	clrf	??___flmul+2
  6785  0E47  01E1               	clrf	??___flmul+3
  6786  0E48  085E               	movf	??___flmul,w
  6787  0E49  07E4               	addwf	___flmul@grs,f
  6788  0E4A  085F               	movf	??___flmul+1,w
  6789  0E4B  1103               	clrz
  6790  0E4C  1803               	skipnc
  6791  0E4D  3E01               	addlw	1
  6792  0E4E  1903               	skipnz
  6793  0E4F  2E51               	goto	u4381
  6794  0E50  07E5               	addwf	___flmul@grs+1,f
  6795  0E51                     u4381:
  6796  0E51  0860               	movf	??___flmul+2,w
  6797  0E52  1103               	clrz
  6798  0E53  1803               	skipnc
  6799  0E54  3E01               	addlw	1
  6800  0E55  1903               	skipnz
  6801  0E56  2E58               	goto	u4382
  6802  0E57  07E6               	addwf	___flmul@grs+2,f
  6803  0E58                     u4382:
  6804  0E58  0861               	movf	??___flmul+3,w
  6805  0E59  1103               	clrz
  6806  0E5A  1803               	skipnc
  6807  0E5B  3E01               	addlw	1
  6808  0E5C  1903               	skipnz
  6809  0E5D  2E5F               	goto	u4383
  6810  0E5E  07E7               	addwf	___flmul@grs+3,f
  6811  0E5F                     u4383:
  6812  0E5F                     l2780:
  6813  0E5F  0857               	movf	___flmul@b+1,w
  6814  0E60  00FF               	movwf	btemp+1
  6815  0E61  087F               	movf	btemp+1,w
  6816  0E62  00F3               	movwf	__Umul8_16@multiplicand
  6817  0E63  085C               	movf	___flmul@a+2,w
  6818  0E64  160A  158A  20DF  120A  158A  	fcall	__Umul8_16
  6819  0E69  0874               	movf	?__Umul8_16+1,w
  6820  0E6A  1283               	bcf	3,5	;RP0=0, select bank0
  6821  0E6B  1303               	bcf	3,6	;RP1=0, select bank0
  6822  0E6C  00EF               	movwf	___flmul@temp+1
  6823  0E6D  0873               	movf	?__Umul8_16,w
  6824  0E6E  00EE               	movwf	___flmul@temp
  6825  0E6F  086E               	movf	___flmul@temp,w
  6826  0E70  00DE               	movwf	??___flmul
  6827  0E71  086F               	movf	___flmul@temp+1,w
  6828  0E72  00DF               	movwf	??___flmul+1
  6829  0E73  01E0               	clrf	??___flmul+2
  6830  0E74  01E1               	clrf	??___flmul+3
  6831  0E75  085E               	movf	??___flmul,w
  6832  0E76  07EA               	addwf	___flmul@prod,f
  6833  0E77  085F               	movf	??___flmul+1,w
  6834  0E78  1103               	clrz
  6835  0E79  1803               	skipnc
  6836  0E7A  3E01               	addlw	1
  6837  0E7B  1903               	skipnz
  6838  0E7C  2E7E               	goto	u4391
  6839  0E7D  07EB               	addwf	___flmul@prod+1,f
  6840  0E7E                     u4391:
  6841  0E7E  0860               	movf	??___flmul+2,w
  6842  0E7F  1103               	clrz
  6843  0E80  1803               	skipnc
  6844  0E81  3E01               	addlw	1
  6845  0E82  1903               	skipnz
  6846  0E83  2E85               	goto	u4392
  6847  0E84  07EC               	addwf	___flmul@prod+2,f
  6848  0E85                     u4392:
  6849  0E85  0861               	movf	??___flmul+3,w
  6850  0E86  1103               	clrz
  6851  0E87  1803               	skipnc
  6852  0E88  3E01               	addlw	1
  6853  0E89  1903               	skipnz
  6854  0E8A  2E8C               	goto	u4393
  6855  0E8B  07ED               	addwf	___flmul@prod+3,f
  6856  0E8C                     u4393:
  6857  0E8C                     l2782:
  6858  0E8C  0858               	movf	___flmul@b+2,w
  6859  0E8D  00FF               	movwf	btemp+1
  6860  0E8E  087F               	movf	btemp+1,w
  6861  0E8F  00F3               	movwf	__Umul8_16@multiplicand
  6862  0E90  085B               	movf	___flmul@a+1,w
  6863  0E91  160A  158A  20DF  120A  158A  	fcall	__Umul8_16
  6864  0E96  0874               	movf	?__Umul8_16+1,w
  6865  0E97  1283               	bcf	3,5	;RP0=0, select bank0
  6866  0E98  1303               	bcf	3,6	;RP1=0, select bank0
  6867  0E99  00EF               	movwf	___flmul@temp+1
  6868  0E9A  0873               	movf	?__Umul8_16,w
  6869  0E9B  00EE               	movwf	___flmul@temp
  6870  0E9C                     l2784:
  6871  0E9C  086E               	movf	___flmul@temp,w
  6872  0E9D  00DE               	movwf	??___flmul
  6873  0E9E  086F               	movf	___flmul@temp+1,w
  6874  0E9F  00DF               	movwf	??___flmul+1
  6875  0EA0  01E0               	clrf	??___flmul+2
  6876  0EA1  01E1               	clrf	??___flmul+3
  6877  0EA2  085E               	movf	??___flmul,w
  6878  0EA3  07EA               	addwf	___flmul@prod,f
  6879  0EA4  085F               	movf	??___flmul+1,w
  6880  0EA5  1103               	clrz
  6881  0EA6  1803               	skipnc
  6882  0EA7  3E01               	addlw	1
  6883  0EA8  1903               	skipnz
  6884  0EA9  2EAB               	goto	u4401
  6885  0EAA  07EB               	addwf	___flmul@prod+1,f
  6886  0EAB                     u4401:
  6887  0EAB  0860               	movf	??___flmul+2,w
  6888  0EAC  1103               	clrz
  6889  0EAD  1803               	skipnc
  6890  0EAE  3E01               	addlw	1
  6891  0EAF  1903               	skipnz
  6892  0EB0  2EB2               	goto	u4402
  6893  0EB1  07EC               	addwf	___flmul@prod+2,f
  6894  0EB2                     u4402:
  6895  0EB2  0861               	movf	??___flmul+3,w
  6896  0EB3  1103               	clrz
  6897  0EB4  1803               	skipnc
  6898  0EB5  3E01               	addlw	1
  6899  0EB6  1903               	skipnz
  6900  0EB7  2EB9               	goto	u4403
  6901  0EB8  07ED               	addwf	___flmul@prod+3,f
  6902  0EB9                     u4403:
  6903  0EB9  0858               	movf	___flmul@b+2,w
  6904  0EBA  00FF               	movwf	btemp+1
  6905  0EBB  087F               	movf	btemp+1,w
  6906  0EBC  00F3               	movwf	__Umul8_16@multiplicand
  6907  0EBD  085C               	movf	___flmul@a+2,w
  6908  0EBE  160A  158A  20DF  120A  158A  	fcall	__Umul8_16
  6909  0EC3  0874               	movf	?__Umul8_16+1,w
  6910  0EC4  1283               	bcf	3,5	;RP0=0, select bank0
  6911  0EC5  1303               	bcf	3,6	;RP1=0, select bank0
  6912  0EC6  00EF               	movwf	___flmul@temp+1
  6913  0EC7  0873               	movf	?__Umul8_16,w
  6914  0EC8  00EE               	movwf	___flmul@temp
  6915  0EC9                     l2786:
  6916  0EC9  086E               	movf	___flmul@temp,w
  6917  0ECA  00DE               	movwf	??___flmul
  6918  0ECB  086F               	movf	___flmul@temp+1,w
  6919  0ECC  00DF               	movwf	??___flmul+1
  6920  0ECD  01E0               	clrf	??___flmul+2
  6921  0ECE  01E1               	clrf	??___flmul+3
  6922  0ECF  3008               	movlw	8
  6923  0ED0                     u4415:
  6924  0ED0  1003               	clrc
  6925  0ED1  0DDE               	rlf	??___flmul,f
  6926  0ED2  0DDF               	rlf	??___flmul+1,f
  6927  0ED3  0DE0               	rlf	??___flmul+2,f
  6928  0ED4  0DE1               	rlf	??___flmul+3,f
  6929  0ED5                     u4410:
  6930  0ED5  3EFF               	addlw	-1
  6931  0ED6  1D03               	skipz
  6932  0ED7  2ED0               	goto	u4415
  6933  0ED8  085E               	movf	??___flmul,w
  6934  0ED9  07EA               	addwf	___flmul@prod,f
  6935  0EDA  085F               	movf	??___flmul+1,w
  6936  0EDB  1103               	clrz
  6937  0EDC  1803               	skipnc
  6938  0EDD  3E01               	addlw	1
  6939  0EDE  1903               	skipnz
  6940  0EDF  2EE1               	goto	u4421
  6941  0EE0  07EB               	addwf	___flmul@prod+1,f
  6942  0EE1                     u4421:
  6943  0EE1  0860               	movf	??___flmul+2,w
  6944  0EE2  1103               	clrz
  6945  0EE3  1803               	skipnc
  6946  0EE4  3E01               	addlw	1
  6947  0EE5  1903               	skipnz
  6948  0EE6  2EE8               	goto	u4422
  6949  0EE7  07EC               	addwf	___flmul@prod+2,f
  6950  0EE8                     u4422:
  6951  0EE8  0861               	movf	??___flmul+3,w
  6952  0EE9  1103               	clrz
  6953  0EEA  1803               	skipnc
  6954  0EEB  3E01               	addlw	1
  6955  0EEC  1903               	skipnz
  6956  0EED  2EEF               	goto	u4423
  6957  0EEE  07ED               	addwf	___flmul@prod+3,f
  6958  0EEF                     u4423:
  6959  0EEF                     l2788:
  6960  0EEF  0864               	movf	___flmul@grs,w
  6961  0EF0  00DE               	movwf	??___flmul
  6962  0EF1  0865               	movf	___flmul@grs+1,w
  6963  0EF2  00DF               	movwf	??___flmul+1
  6964  0EF3  0866               	movf	___flmul@grs+2,w
  6965  0EF4  00E0               	movwf	??___flmul+2
  6966  0EF5  0867               	movf	___flmul@grs+3,w
  6967  0EF6  00E1               	movwf	??___flmul+3
  6968  0EF7  3018               	movlw	24
  6969  0EF8                     u4435:
  6970  0EF8  1003               	clrc
  6971  0EF9  0CE1               	rrf	??___flmul+3,f
  6972  0EFA  0CE0               	rrf	??___flmul+2,f
  6973  0EFB  0CDF               	rrf	??___flmul+1,f
  6974  0EFC  0CDE               	rrf	??___flmul,f
  6975  0EFD                     u4430:
  6976  0EFD  3EFF               	addlw	-1
  6977  0EFE  1D03               	skipz
  6978  0EFF  2EF8               	goto	u4435
  6979  0F00  085E               	movf	??___flmul,w
  6980  0F01  07EA               	addwf	___flmul@prod,f
  6981  0F02  085F               	movf	??___flmul+1,w
  6982  0F03  1103               	clrz
  6983  0F04  1803               	skipnc
  6984  0F05  3E01               	addlw	1
  6985  0F06  1903               	skipnz
  6986  0F07  2F09               	goto	u4441
  6987  0F08  07EB               	addwf	___flmul@prod+1,f
  6988  0F09                     u4441:
  6989  0F09  0860               	movf	??___flmul+2,w
  6990  0F0A  1103               	clrz
  6991  0F0B  1803               	skipnc
  6992  0F0C  3E01               	addlw	1
  6993  0F0D  1903               	skipnz
  6994  0F0E  2F10               	goto	u4442
  6995  0F0F  07EC               	addwf	___flmul@prod+2,f
  6996  0F10                     u4442:
  6997  0F10  0861               	movf	??___flmul+3,w
  6998  0F11  1103               	clrz
  6999  0F12  1803               	skipnc
  7000  0F13  3E01               	addlw	1
  7001  0F14  1903               	skipnz
  7002  0F15  2F17               	goto	u4443
  7003  0F16  07ED               	addwf	___flmul@prod+3,f
  7004  0F17                     u4443:
  7005  0F17                     l2790:
  7006  0F17  3008               	movlw	8
  7007  0F18  00DE               	movwf	??___flmul
  7008  0F19                     u4455:
  7009  0F19  1003               	clrc
  7010  0F1A  0DE4               	rlf	___flmul@grs,f
  7011  0F1B  0DE5               	rlf	___flmul@grs+1,f
  7012  0F1C  0DE6               	rlf	___flmul@grs+2,f
  7013  0F1D  0DE7               	rlf	___flmul@grs+3,f
  7014  0F1E  0BDE               	decfsz	??___flmul,f
  7015  0F1F  2F19               	goto	u4455
  7016  0F20                     l2792:
  7017  0F20  0869               	movf	___flmul@bexp,w
  7018  0F21  0768               	addwf	___flmul@aexp,w
  7019  0F22  00DE               	movwf	??___flmul
  7020  0F23  01DF               	clrf	??___flmul+1
  7021  0F24  0DDF               	rlf	??___flmul+1,f
  7022  0F25  085E               	movf	??___flmul,w
  7023  0F26  3E82               	addlw	130
  7024  0F27  00EE               	movwf	___flmul@temp
  7025  0F28  085F               	movf	??___flmul+1,w
  7026  0F29  1803               	skipnc
  7027  0F2A  3E01               	addlw	1
  7028  0F2B  3EFF               	addlw	255
  7029  0F2C  00EF               	movwf	___flmul@temp+1
  7030  0F2D  2F4B               	goto	l2804
  7031  0F2E                     l2794:
  7032  0F2E  3001               	movlw	1
  7033  0F2F  00DE               	movwf	??___flmul
  7034  0F30                     u4465:
  7035  0F30  1003               	clrc
  7036  0F31  0DEA               	rlf	___flmul@prod,f
  7037  0F32  0DEB               	rlf	___flmul@prod+1,f
  7038  0F33  0DEC               	rlf	___flmul@prod+2,f
  7039  0F34  0DED               	rlf	___flmul@prod+3,f
  7040  0F35  0BDE               	decfsz	??___flmul,f
  7041  0F36  2F30               	goto	u4465
  7042  0F37                     l2796:
  7043  0F37  1FE7               	btfss	___flmul@grs+3,7
  7044  0F38  2F3A               	goto	u4471
  7045  0F39  2F3B               	goto	u4470
  7046  0F3A                     u4471:
  7047  0F3A  2F3C               	goto	l2800
  7048  0F3B                     u4470:
  7049  0F3B                     l2798:
  7050  0F3B  146A               	bsf	___flmul@prod,0
  7051  0F3C                     l2800:
  7052  0F3C  3001               	movlw	1
  7053  0F3D  00DE               	movwf	??___flmul
  7054  0F3E                     u4485:
  7055  0F3E  1003               	clrc
  7056  0F3F  0DE4               	rlf	___flmul@grs,f
  7057  0F40  0DE5               	rlf	___flmul@grs+1,f
  7058  0F41  0DE6               	rlf	___flmul@grs+2,f
  7059  0F42  0DE7               	rlf	___flmul@grs+3,f
  7060  0F43  0BDE               	decfsz	??___flmul,f
  7061  0F44  2F3E               	goto	u4485
  7062  0F45                     l2802:
  7063  0F45  30FF               	movlw	255
  7064  0F46  07EE               	addwf	___flmul@temp,f
  7065  0F47  1803               	skipnc
  7066  0F48  0AEF               	incf	___flmul@temp+1,f
  7067  0F49  30FF               	movlw	255
  7068  0F4A  07EF               	addwf	___flmul@temp+1,f
  7069  0F4B                     l2804:
  7070  0F4B  1FEC               	btfss	___flmul@prod+2,7
  7071  0F4C  2F4E               	goto	u4491
  7072  0F4D  2F4F               	goto	u4490
  7073  0F4E                     u4491:
  7074  0F4E  2F2E               	goto	l2794
  7075  0F4F                     u4490:
  7076  0F4F                     l2806:
  7077  0F4F  01E8               	clrf	___flmul@aexp
  7078  0F50                     l2808:
  7079  0F50  1FE7               	btfss	___flmul@grs+3,7
  7080  0F51  2F53               	goto	u4501
  7081  0F52  2F54               	goto	u4500
  7082  0F53                     u4501:
  7083  0F53  2F70               	goto	l2816
  7084  0F54                     u4500:
  7085  0F54                     l2810:
  7086  0F54  30FF               	movlw	255
  7087  0F55  0564               	andwf	___flmul@grs,w
  7088  0F56  00DE               	movwf	??___flmul
  7089  0F57  30FF               	movlw	255
  7090  0F58  0565               	andwf	___flmul@grs+1,w
  7091  0F59  00DF               	movwf	??___flmul+1
  7092  0F5A  30FF               	movlw	255
  7093  0F5B  0566               	andwf	___flmul@grs+2,w
  7094  0F5C  00E0               	movwf	??___flmul+2
  7095  0F5D  307F               	movlw	127
  7096  0F5E  0567               	andwf	___flmul@grs+3,w
  7097  0F5F  00E1               	movwf	??___flmul+3
  7098  0F60  0861               	movf	??___flmul+3,w
  7099  0F61  0460               	iorwf	??___flmul+2,w
  7100  0F62  045F               	iorwf	??___flmul+1,w
  7101  0F63  045E               	iorwf	??___flmul,w
  7102  0F64  1903               	skipnz
  7103  0F65  2F67               	goto	u4511
  7104  0F66  2F68               	goto	u4510
  7105  0F67                     u4511:
  7106  0F67  2F6B               	goto	l655
  7107  0F68                     u4510:
  7108  0F68                     l2812:
  7109  0F68  01E8               	clrf	___flmul@aexp
  7110  0F69  0AE8               	incf	___flmul@aexp,f
  7111  0F6A  2F70               	goto	l2816
  7112  0F6B                     l655:
  7113  0F6B  1C6A               	btfss	___flmul@prod,0
  7114  0F6C  2F6E               	goto	u4521
  7115  0F6D  2F6F               	goto	u4520
  7116  0F6E                     u4521:
  7117  0F6E  2F70               	goto	l2816
  7118  0F6F                     u4520:
  7119  0F6F  2F68               	goto	l2812
  7120  0F70                     l2816:
  7121  0F70  0868               	movf	___flmul@aexp,w
  7122  0F71  1903               	btfsc	3,2
  7123  0F72  2F74               	goto	u4531
  7124  0F73  2F75               	goto	u4530
  7125  0F74                     u4531:
  7126  0F74  2FA6               	goto	l2826
  7127  0F75                     u4530:
  7128  0F75                     l2818:
  7129  0F75  3001               	movlw	1
  7130  0F76  07EA               	addwf	___flmul@prod,f
  7131  0F77  3000               	movlw	0
  7132  0F78  1803               	skipnc
  7133  0F79  3001               	movlw	1
  7134  0F7A  07EB               	addwf	___flmul@prod+1,f
  7135  0F7B  3000               	movlw	0
  7136  0F7C  1803               	skipnc
  7137  0F7D  3001               	movlw	1
  7138  0F7E  07EC               	addwf	___flmul@prod+2,f
  7139  0F7F  3000               	movlw	0
  7140  0F80  1803               	skipnc
  7141  0F81  3001               	movlw	1
  7142  0F82  07ED               	addwf	___flmul@prod+3,f
  7143  0F83                     l2820:
  7144  0F83  1C6D               	btfss	___flmul@prod+3,0
  7145  0F84  2F86               	goto	u4541
  7146  0F85  2F87               	goto	u4540
  7147  0F86                     u4541:
  7148  0F86  2FA6               	goto	l2826
  7149  0F87                     u4540:
  7150  0F87                     l2822:
  7151  0F87  086A               	movf	___flmul@prod,w
  7152  0F88  00DE               	movwf	??___flmul
  7153  0F89  086B               	movf	___flmul@prod+1,w
  7154  0F8A  00DF               	movwf	??___flmul+1
  7155  0F8B  086C               	movf	___flmul@prod+2,w
  7156  0F8C  00E0               	movwf	??___flmul+2
  7157  0F8D  086D               	movf	___flmul@prod+3,w
  7158  0F8E  00E1               	movwf	??___flmul+3
  7159  0F8F  3001               	movlw	1
  7160  0F90  00E2               	movwf	??___flmul+4
  7161  0F91                     u4555:
  7162  0F91  0D61               	rlf	??___flmul+3,w
  7163  0F92  0CE1               	rrf	??___flmul+3,f
  7164  0F93  0CE0               	rrf	??___flmul+2,f
  7165  0F94  0CDF               	rrf	??___flmul+1,f
  7166  0F95  0CDE               	rrf	??___flmul,f
  7167  0F96                     u4550:
  7168  0F96  0BE2               	decfsz	??___flmul+4,f
  7169  0F97  2F91               	goto	u4555
  7170  0F98  0861               	movf	??___flmul+3,w
  7171  0F99  00ED               	movwf	___flmul@prod+3
  7172  0F9A  0860               	movf	??___flmul+2,w
  7173  0F9B  00EC               	movwf	___flmul@prod+2
  7174  0F9C  085F               	movf	??___flmul+1,w
  7175  0F9D  00EB               	movwf	___flmul@prod+1
  7176  0F9E  085E               	movf	??___flmul,w
  7177  0F9F  00EA               	movwf	___flmul@prod
  7178  0FA0                     l2824:
  7179  0FA0  3001               	movlw	1
  7180  0FA1  07EE               	addwf	___flmul@temp,f
  7181  0FA2  1803               	skipnc
  7182  0FA3  0AEF               	incf	___flmul@temp+1,f
  7183  0FA4  3000               	movlw	0
  7184  0FA5  07EF               	addwf	___flmul@temp+1,f
  7185  0FA6                     l2826:
  7186  0FA6  086F               	movf	___flmul@temp+1,w
  7187  0FA7  3A80               	xorlw	128
  7188  0FA8  00FF               	movwf	btemp+1
  7189  0FA9  3080               	movlw	128
  7190  0FAA  027F               	subwf	btemp+1,w
  7191  0FAB  1D03               	skipz
  7192  0FAC  2FAF               	goto	u4565
  7193  0FAD  30FF               	movlw	255
  7194  0FAE  026E               	subwf	___flmul@temp,w
  7195  0FAF                     u4565:
  7196  0FAF  1C03               	skipc
  7197  0FB0  2FB2               	goto	u4561
  7198  0FB1  2FB3               	goto	u4560
  7199  0FB2                     u4561:
  7200  0FB2  2FBE               	goto	l2830
  7201  0FB3                     u4560:
  7202  0FB3                     l2828:
  7203  0FB3  307F               	movlw	127
  7204  0FB4  1283               	bcf	3,5	;RP0=0, select bank0
  7205  0FB5  1303               	bcf	3,6	;RP1=0, select bank0
  7206  0FB6  00ED               	movwf	___flmul@prod+3
  7207  0FB7  3080               	movlw	128
  7208  0FB8  00EC               	movwf	___flmul@prod+2
  7209  0FB9  3000               	movlw	0
  7210  0FBA  00EB               	movwf	___flmul@prod+1
  7211  0FBB  3000               	movlw	0
  7212  0FBC  00EA               	movwf	___flmul@prod
  7213  0FBD  2FF3               	goto	l661
  7214  0FBE                     l2830:
  7215  0FBE  1283               	bcf	3,5	;RP0=0, select bank0
  7216  0FBF  1303               	bcf	3,6	;RP1=0, select bank0
  7217  0FC0  086F               	movf	___flmul@temp+1,w
  7218  0FC1  3A80               	xorlw	128
  7219  0FC2  00FF               	movwf	btemp+1
  7220  0FC3  3080               	movlw	128
  7221  0FC4  027F               	subwf	btemp+1,w
  7222  0FC5  1D03               	skipz
  7223  0FC6  2FC9               	goto	u4575
  7224  0FC7  3001               	movlw	1
  7225  0FC8  026E               	subwf	___flmul@temp,w
  7226  0FC9                     u4575:
  7227  0FC9  1803               	skipnc
  7228  0FCA  2FCC               	goto	u4571
  7229  0FCB  2FCD               	goto	u4570
  7230  0FCC                     u4571:
  7231  0FCC  2FD9               	goto	l2836
  7232  0FCD                     u4570:
  7233  0FCD                     l2832:
  7234  0FCD  3000               	movlw	0
  7235  0FCE  1283               	bcf	3,5	;RP0=0, select bank0
  7236  0FCF  1303               	bcf	3,6	;RP1=0, select bank0
  7237  0FD0  00ED               	movwf	___flmul@prod+3
  7238  0FD1  3000               	movlw	0
  7239  0FD2  00EC               	movwf	___flmul@prod+2
  7240  0FD3  3000               	movlw	0
  7241  0FD4  00EB               	movwf	___flmul@prod+1
  7242  0FD5  3000               	movlw	0
  7243  0FD6  00EA               	movwf	___flmul@prod
  7244  0FD7                     l2834:
  7245  0FD7  01E3               	clrf	___flmul@sign
  7246  0FD8  2FF3               	goto	l661
  7247  0FD9                     l2836:
  7248  0FD9  1283               	bcf	3,5	;RP0=0, select bank0
  7249  0FDA  1303               	bcf	3,6	;RP1=0, select bank0
  7250  0FDB  086E               	movf	___flmul@temp,w
  7251  0FDC  00FF               	movwf	btemp+1
  7252  0FDD  087F               	movf	btemp+1,w
  7253  0FDE  00E9               	movwf	___flmul@bexp
  7254  0FDF                     l2838:
  7255  0FDF  30FF               	movlw	255
  7256  0FE0  05EA               	andwf	___flmul@prod,f
  7257  0FE1  30FF               	movlw	255
  7258  0FE2  05EB               	andwf	___flmul@prod+1,f
  7259  0FE3  307F               	movlw	127
  7260  0FE4  05EC               	andwf	___flmul@prod+2,f
  7261  0FE5  3000               	movlw	0
  7262  0FE6  05ED               	andwf	___flmul@prod+3,f
  7263  0FE7                     l2840:
  7264  0FE7  1C69               	btfss	___flmul@bexp,0
  7265  0FE8  2FEA               	goto	u4581
  7266  0FE9  2FEB               	goto	u4580
  7267  0FEA                     u4581:
  7268  0FEA  2FEC               	goto	l2844
  7269  0FEB                     u4580:
  7270  0FEB                     l2842:
  7271  0FEB  17EC               	bsf	___flmul@prod+2,7
  7272  0FEC                     l2844:
  7273  0FEC  0869               	movf	___flmul@bexp,w
  7274  0FED  00DE               	movwf	??___flmul
  7275  0FEE  1003               	clrc
  7276  0FEF  0C5E               	rrf	??___flmul,w
  7277  0FF0  00FF               	movwf	btemp+1
  7278  0FF1  087F               	movf	btemp+1,w
  7279  0FF2  00ED               	movwf	___flmul@prod+3
  7280  0FF3                     l661:
  7281  0FF3  0863               	movf	___flmul@sign,w
  7282  0FF4  00FF               	movwf	btemp+1
  7283  0FF5  087F               	movf	btemp+1,w
  7284  0FF6  04ED               	iorwf	___flmul@prod+3,f
  7285  0FF7                     l2846:
  7286  0FF7  086D               	movf	___flmul@prod+3,w
  7287  0FF8  00D9               	movwf	?___flmul+3
  7288  0FF9  086C               	movf	___flmul@prod+2,w
  7289  0FFA  00D8               	movwf	?___flmul+2
  7290  0FFB  086B               	movf	___flmul@prod+1,w
  7291  0FFC  00D7               	movwf	?___flmul+1
  7292  0FFD  086A               	movf	___flmul@prod,w
  7293  0FFE  00D6               	movwf	?___flmul
  7294  0FFF                     l649:
  7295  0FFF  0008               	return
  7296  1000                     __end_of___flmul:
  7297                           
  7298                           	psect	text23
  7299  18DF                     __ptext23:	
  7300 ;; *************** function __Umul8_16 *****************
  7301 ;; Defined at:
  7302 ;;		line 4 in file "C:\Program Files\Microchip\xc8\v2.20\pic\sources\c90\common\Umul8_16.c"
  7303 ;; Parameters:    Size  Location     Type
  7304 ;;  multiplier      1    wreg     unsigned char 
  7305 ;;  multiplicand    1    2[COMMON] unsigned char 
  7306 ;; Auto vars:     Size  Location     Type
  7307 ;;  multiplier      1   10[COMMON] unsigned char 
  7308 ;;  word_mpld       2    8[COMMON] unsigned int 
  7309 ;;  product         2    6[COMMON] unsigned int 
  7310 ;; Return value:  Size  Location     Type
  7311 ;;                  2    2[COMMON] unsigned int 
  7312 ;; Registers used:
  7313 ;;		wreg, status,2, status,0
  7314 ;; Tracked objects:
  7315 ;;		On entry : 0/0
  7316 ;;		On exit  : 0/0
  7317 ;;		Unchanged: 0/0
  7318 ;; Data sizes:     COMMON   BANK0   BANK1   BANK3   BANK2
  7319 ;;      Params:         2       0       0       0       0
  7320 ;;      Locals:         5       0       0       0       0
  7321 ;;      Temps:          2       0       0       0       0
  7322 ;;      Totals:         9       0       0       0       0
  7323 ;;Total ram usage:        9 bytes
  7324 ;; Hardware stack levels used:    1
  7325 ;; Hardware stack levels required when called:    1
  7326 ;; This function calls:
  7327 ;;		Nothing
  7328 ;; This function is called by:
  7329 ;;		___flmul
  7330 ;; This function uses a non-reentrant model
  7331 ;;
  7332                           
  7333                           
  7334                           ;psect for function __Umul8_16
  7335  18DF                     __Umul8_16:
  7336                           
  7337                           ;incstack = 0
  7338                           ; Regs used in __Umul8_16: [wreg+status,2+status,0]
  7339                           ;__Umul8_16@multiplier stored from wreg
  7340  18DF  00FB               	movwf	__Umul8_16@multiplier
  7341  18E0                     l2266:
  7342  18E0  01F7               	clrf	__Umul8_16@product
  7343  18E1  01F8               	clrf	__Umul8_16@product+1
  7344  18E2                     l2268:
  7345  18E2  0873               	movf	__Umul8_16@multiplicand,w
  7346  18E3  00F5               	movwf	??__Umul8_16
  7347  18E4  01F6               	clrf	??__Umul8_16+1
  7348  18E5  0875               	movf	??__Umul8_16,w
  7349  18E6  00F9               	movwf	__Umul8_16@word_mpld
  7350  18E7  0876               	movf	??__Umul8_16+1,w
  7351  18E8  00FA               	movwf	__Umul8_16@word_mpld+1
  7352  18E9                     l2270:
  7353  18E9  1C7B               	btfss	__Umul8_16@multiplier,0
  7354  18EA  28EC               	goto	u3191
  7355  18EB  28ED               	goto	u3190
  7356  18EC                     u3191:
  7357  18EC  28F3               	goto	l668
  7358  18ED                     u3190:
  7359  18ED                     l2272:
  7360  18ED  0879               	movf	__Umul8_16@word_mpld,w
  7361  18EE  07F7               	addwf	__Umul8_16@product,f
  7362  18EF  1803               	skipnc
  7363  18F0  0AF8               	incf	__Umul8_16@product+1,f
  7364  18F1  087A               	movf	__Umul8_16@word_mpld+1,w
  7365  18F2  07F8               	addwf	__Umul8_16@product+1,f
  7366  18F3                     l668:
  7367  18F3  3001               	movlw	1
  7368  18F4                     u3205:
  7369  18F4  1003               	clrc
  7370  18F5  0DF9               	rlf	__Umul8_16@word_mpld,f
  7371  18F6  0DFA               	rlf	__Umul8_16@word_mpld+1,f
  7372  18F7  3EFF               	addlw	-1
  7373  18F8  1D03               	skipz
  7374  18F9  28F4               	goto	u3205
  7375  18FA  1003               	clrc
  7376  18FB  0CFB               	rrf	__Umul8_16@multiplier,f
  7377  18FC                     l2274:
  7378  18FC  087B               	movf	__Umul8_16@multiplier,w
  7379  18FD  1D03               	btfss	3,2
  7380  18FE  2900               	goto	u3211
  7381  18FF  2901               	goto	u3210
  7382  1900                     u3211:
  7383  1900  28E9               	goto	l2270
  7384  1901                     u3210:
  7385  1901                     l2276:
  7386  1901  0878               	movf	__Umul8_16@product+1,w
  7387  1902  00F4               	movwf	?__Umul8_16+1
  7388  1903  0877               	movf	__Umul8_16@product,w
  7389  1904  00F3               	movwf	?__Umul8_16
  7390  1905                     l670:
  7391  1905  0008               	return
  7392  1906                     __end_of__Umul8_16:
  7393                           
  7394                           	psect	text24
  7395  083A                     __ptext24:	
  7396 ;; *************** function ___fldiv *****************
  7397 ;; Defined at:
  7398 ;;		line 8 in file "C:\Program Files\Microchip\xc8\v2.20\pic\sources\c90\common\sprcdiv.c"
  7399 ;; Parameters:    Size  Location     Type
  7400 ;;  a               4   28[BANK0 ] unsigned int 
  7401 ;;  b               4   32[BANK0 ] unsigned int 
  7402 ;; Auto vars:     Size  Location     Type
  7403 ;;  grs             4   48[BANK0 ] unsigned long 
  7404 ;;  rem             4   41[BANK0 ] unsigned long 
  7405 ;;  new_exp         2   46[BANK0 ] int 
  7406 ;;  aexp            1   53[BANK0 ] unsigned char 
  7407 ;;  bexp            1   52[BANK0 ] unsigned char 
  7408 ;;  sign            1   45[BANK0 ] unsigned char 
  7409 ;; Return value:  Size  Location     Type
  7410 ;;                  4   28[BANK0 ] unsigned char 
  7411 ;; Registers used:
  7412 ;;		wreg, status,2, status,0, btemp+1
  7413 ;; Tracked objects:
  7414 ;;		On entry : 0/0
  7415 ;;		On exit  : 0/0
  7416 ;;		Unchanged: 0/0
  7417 ;; Data sizes:     COMMON   BANK0   BANK1   BANK3   BANK2
  7418 ;;      Params:         0       8       0       0       0
  7419 ;;      Locals:         0      13       0       0       0
  7420 ;;      Temps:          0       5       0       0       0
  7421 ;;      Totals:         0      26       0       0       0
  7422 ;;Total ram usage:       26 bytes
  7423 ;; Hardware stack levels used:    1
  7424 ;; Hardware stack levels required when called:    1
  7425 ;; This function calls:
  7426 ;;		Nothing
  7427 ;; This function is called by:
  7428 ;;		_Voltage_Value
  7429 ;;		_Resistance_Value
  7430 ;;		_conversion_newton
  7431 ;; This function uses a non-reentrant model
  7432 ;;
  7433                           
  7434                           
  7435                           ;psect for function ___fldiv
  7436  083A                     ___fldiv:
  7437  083A                     l2564:	
  7438                           ;incstack = 0
  7439                           ; Regs used in ___fldiv: [wreg+status,2+status,0+btemp+1]
  7440                           
  7441  083A  1283               	bcf	3,5	;RP0=0, select bank0
  7442  083B  1303               	bcf	3,6	;RP1=0, select bank0
  7443  083C  0843               	movf	___fldiv@b+3,w
  7444  083D  3980               	andlw	128
  7445  083E  00FF               	movwf	btemp+1
  7446  083F  087F               	movf	btemp+1,w
  7447  0840  00CD               	movwf	___fldiv@sign
  7448  0841                     l2566:
  7449  0841  0843               	movf	___fldiv@b+3,w
  7450  0842  00C4               	movwf	??___fldiv
  7451  0843  0744               	addwf	??___fldiv,w
  7452  0844  00FF               	movwf	btemp+1
  7453  0845  087F               	movf	btemp+1,w
  7454  0846  00D4               	movwf	___fldiv@bexp
  7455  0847                     l2568:
  7456  0847  1FC2               	btfss	___fldiv@b+2,7
  7457  0848  284A               	goto	u3931
  7458  0849  284B               	goto	u3930
  7459  084A                     u3931:
  7460  084A  284C               	goto	l2572
  7461  084B                     u3930:
  7462  084B                     l2570:
  7463  084B  1454               	bsf	___fldiv@bexp,0
  7464  084C                     l2572:
  7465  084C  0854               	movf	___fldiv@bexp,w
  7466  084D  1903               	btfsc	3,2
  7467  084E  2850               	goto	u3941
  7468  084F  2851               	goto	u3940
  7469  0850                     u3941:
  7470  0850  2861               	goto	l2582
  7471  0851                     u3940:
  7472  0851                     l2574:
  7473  0851  0A54               	incf	___fldiv@bexp,w
  7474  0852  1D03               	btfss	3,2
  7475  0853  2855               	goto	u3951
  7476  0854  2856               	goto	u3950
  7477  0855                     u3951:
  7478  0855  285E               	goto	l2578
  7479  0856                     u3950:
  7480  0856                     l2576:
  7481  0856  3000               	movlw	0
  7482  0857  00C3               	movwf	___fldiv@b+3
  7483  0858  3000               	movlw	0
  7484  0859  00C2               	movwf	___fldiv@b+2
  7485  085A  3000               	movlw	0
  7486  085B  00C1               	movwf	___fldiv@b+1
  7487  085C  3000               	movlw	0
  7488  085D  00C0               	movwf	___fldiv@b
  7489  085E                     l2578:
  7490  085E  17C2               	bsf	___fldiv@b+2,7
  7491  085F                     l2580:
  7492  085F  01C3               	clrf	___fldiv@b+3
  7493  0860  2869               	goto	l2584
  7494  0861                     l2582:
  7495  0861  3000               	movlw	0
  7496  0862  00C3               	movwf	___fldiv@b+3
  7497  0863  3000               	movlw	0
  7498  0864  00C2               	movwf	___fldiv@b+2
  7499  0865  3000               	movlw	0
  7500  0866  00C1               	movwf	___fldiv@b+1
  7501  0867  3000               	movlw	0
  7502  0868  00C0               	movwf	___fldiv@b
  7503  0869                     l2584:
  7504  0869  083F               	movf	___fldiv@a+3,w
  7505  086A  3980               	andlw	128
  7506  086B  00FF               	movwf	btemp+1
  7507  086C  087F               	movf	btemp+1,w
  7508  086D  06CD               	xorwf	___fldiv@sign,f
  7509  086E                     l2586:
  7510  086E  083F               	movf	___fldiv@a+3,w
  7511  086F  00C4               	movwf	??___fldiv
  7512  0870  0744               	addwf	??___fldiv,w
  7513  0871  00FF               	movwf	btemp+1
  7514  0872  087F               	movf	btemp+1,w
  7515  0873  00D5               	movwf	___fldiv@aexp
  7516  0874                     l2588:
  7517  0874  1FBE               	btfss	___fldiv@a+2,7
  7518  0875  2877               	goto	u3961
  7519  0876  2878               	goto	u3960
  7520  0877                     u3961:
  7521  0877  2879               	goto	l2592
  7522  0878                     u3960:
  7523  0878                     l2590:
  7524  0878  1455               	bsf	___fldiv@aexp,0
  7525  0879                     l2592:
  7526  0879  0855               	movf	___fldiv@aexp,w
  7527  087A  1903               	btfsc	3,2
  7528  087B  287D               	goto	u3971
  7529  087C  287E               	goto	u3970
  7530  087D                     u3971:
  7531  087D  288E               	goto	l2602
  7532  087E                     u3970:
  7533  087E                     l2594:
  7534  087E  0A55               	incf	___fldiv@aexp,w
  7535  087F  1D03               	btfss	3,2
  7536  0880  2882               	goto	u3981
  7537  0881  2883               	goto	u3980
  7538  0882                     u3981:
  7539  0882  288B               	goto	l2598
  7540  0883                     u3980:
  7541  0883                     l2596:
  7542  0883  3000               	movlw	0
  7543  0884  00BF               	movwf	___fldiv@a+3
  7544  0885  3000               	movlw	0
  7545  0886  00BE               	movwf	___fldiv@a+2
  7546  0887  3000               	movlw	0
  7547  0888  00BD               	movwf	___fldiv@a+1
  7548  0889  3000               	movlw	0
  7549  088A  00BC               	movwf	___fldiv@a
  7550  088B                     l2598:
  7551  088B  17BE               	bsf	___fldiv@a+2,7
  7552  088C                     l2600:
  7553  088C  01BF               	clrf	___fldiv@a+3
  7554  088D  2896               	goto	l609
  7555  088E                     l2602:
  7556  088E  3000               	movlw	0
  7557  088F  00BF               	movwf	___fldiv@a+3
  7558  0890  3000               	movlw	0
  7559  0891  00BE               	movwf	___fldiv@a+2
  7560  0892  3000               	movlw	0
  7561  0893  00BD               	movwf	___fldiv@a+1
  7562  0894  3000               	movlw	0
  7563  0895  00BC               	movwf	___fldiv@a
  7564  0896                     l609:
  7565  0896  083F               	movf	___fldiv@a+3,w
  7566  0897  043E               	iorwf	___fldiv@a+2,w
  7567  0898  043D               	iorwf	___fldiv@a+1,w
  7568  0899  043C               	iorwf	___fldiv@a,w
  7569  089A  1D03               	skipz
  7570  089B  289D               	goto	u3991
  7571  089C  289E               	goto	u3990
  7572  089D                     u3991:
  7573  089D  28B7               	goto	l2612
  7574  089E                     u3990:
  7575  089E                     l2604:
  7576  089E  3000               	movlw	0
  7577  089F  00C3               	movwf	___fldiv@b+3
  7578  08A0  3000               	movlw	0
  7579  08A1  00C2               	movwf	___fldiv@b+2
  7580  08A2  3000               	movlw	0
  7581  08A3  00C1               	movwf	___fldiv@b+1
  7582  08A4  3000               	movlw	0
  7583  08A5  00C0               	movwf	___fldiv@b
  7584  08A6  3080               	movlw	128
  7585  08A7  04C2               	iorwf	___fldiv@b+2,f
  7586  08A8  307F               	movlw	127
  7587  08A9  04C3               	iorwf	___fldiv@b+3,f
  7588  08AA                     l2606:
  7589  08AA  084D               	movf	___fldiv@sign,w
  7590  08AB  00FF               	movwf	btemp+1
  7591  08AC  087F               	movf	btemp+1,w
  7592  08AD  04C3               	iorwf	___fldiv@b+3,f
  7593  08AE                     l2608:
  7594  08AE  0843               	movf	___fldiv@b+3,w
  7595  08AF  00BF               	movwf	?___fldiv+3
  7596  08B0  0842               	movf	___fldiv@b+2,w
  7597  08B1  00BE               	movwf	?___fldiv+2
  7598  08B2  0841               	movf	___fldiv@b+1,w
  7599  08B3  00BD               	movwf	?___fldiv+1
  7600  08B4  0840               	movf	___fldiv@b,w
  7601  08B5  00BC               	movwf	?___fldiv
  7602  08B6  2A16               	goto	l611
  7603  08B7                     l2612:
  7604  08B7  0854               	movf	___fldiv@bexp,w
  7605  08B8  1D03               	btfss	3,2
  7606  08B9  28BB               	goto	u4001
  7607  08BA  28BC               	goto	u4000
  7608  08BB                     u4001:
  7609  08BB  28C5               	goto	l2618
  7610  08BC                     u4000:
  7611  08BC                     l2614:
  7612  08BC  3000               	movlw	0
  7613  08BD  00BF               	movwf	?___fldiv+3
  7614  08BE  3000               	movlw	0
  7615  08BF  00BE               	movwf	?___fldiv+2
  7616  08C0  3000               	movlw	0
  7617  08C1  00BD               	movwf	?___fldiv+1
  7618  08C2  3000               	movlw	0
  7619  08C3  00BC               	movwf	?___fldiv
  7620  08C4  2A16               	goto	l611
  7621  08C5                     l2618:
  7622  08C5  0854               	movf	___fldiv@bexp,w
  7623  08C6  00C4               	movwf	??___fldiv
  7624  08C7  01C5               	clrf	??___fldiv+1
  7625  08C8  0845               	movf	??___fldiv+1,w
  7626  08C9  00C7               	movwf	??___fldiv+3
  7627  08CA  0855               	movf	___fldiv@aexp,w
  7628  08CB  0244               	subwf	??___fldiv,w
  7629  08CC  00C6               	movwf	??___fldiv+2
  7630  08CD  1C03               	skipc
  7631  08CE  03C7               	decf	??___fldiv+3,f
  7632  08CF  0846               	movf	??___fldiv+2,w
  7633  08D0  3E7F               	addlw	127
  7634  08D1  00CE               	movwf	___fldiv@new_exp
  7635  08D2  0847               	movf	??___fldiv+3,w
  7636  08D3  1803               	skipnc
  7637  08D4  3E01               	addlw	1
  7638  08D5  3E00               	addlw	0
  7639  08D6  00CF               	movwf	___fldiv@new_exp+1
  7640  08D7                     l2620:
  7641  08D7  0843               	movf	___fldiv@b+3,w
  7642  08D8  00CC               	movwf	___fldiv@rem+3
  7643  08D9  0842               	movf	___fldiv@b+2,w
  7644  08DA  00CB               	movwf	___fldiv@rem+2
  7645  08DB  0841               	movf	___fldiv@b+1,w
  7646  08DC  00CA               	movwf	___fldiv@rem+1
  7647  08DD  0840               	movf	___fldiv@b,w
  7648  08DE  00C9               	movwf	___fldiv@rem
  7649  08DF                     l2622:
  7650  08DF  3000               	movlw	0
  7651  08E0  00C3               	movwf	___fldiv@b+3
  7652  08E1  3000               	movlw	0
  7653  08E2  00C2               	movwf	___fldiv@b+2
  7654  08E3  3000               	movlw	0
  7655  08E4  00C1               	movwf	___fldiv@b+1
  7656  08E5  3000               	movlw	0
  7657  08E6  00C0               	movwf	___fldiv@b
  7658  08E7                     l2624:
  7659  08E7  3000               	movlw	0
  7660  08E8  00D3               	movwf	___fldiv@grs+3
  7661  08E9  3000               	movlw	0
  7662  08EA  00D2               	movwf	___fldiv@grs+2
  7663  08EB  3000               	movlw	0
  7664  08EC  00D1               	movwf	___fldiv@grs+1
  7665  08ED  3000               	movlw	0
  7666  08EE  00D0               	movwf	___fldiv@grs
  7667  08EF                     l2626:
  7668  08EF  01D5               	clrf	___fldiv@aexp
  7669  08F0  293B               	goto	l2646
  7670  08F1                     l2628:
  7671  08F1  0855               	movf	___fldiv@aexp,w
  7672  08F2  1903               	btfsc	3,2
  7673  08F3  28F5               	goto	u4011
  7674  08F4  28F6               	goto	u4010
  7675  08F5                     u4011:
  7676  08F5  2916               	goto	l2638
  7677  08F6                     u4010:
  7678  08F6                     l2630:
  7679  08F6  3001               	movlw	1
  7680  08F7  00C4               	movwf	??___fldiv
  7681  08F8                     u4025:
  7682  08F8  1003               	clrc
  7683  08F9  0DC9               	rlf	___fldiv@rem,f
  7684  08FA  0DCA               	rlf	___fldiv@rem+1,f
  7685  08FB  0DCB               	rlf	___fldiv@rem+2,f
  7686  08FC  0DCC               	rlf	___fldiv@rem+3,f
  7687  08FD  0BC4               	decfsz	??___fldiv,f
  7688  08FE  28F8               	goto	u4025
  7689  08FF  3001               	movlw	1
  7690  0900  00C4               	movwf	??___fldiv
  7691  0901                     u4035:
  7692  0901  1003               	clrc
  7693  0902  0DC0               	rlf	___fldiv@b,f
  7694  0903  0DC1               	rlf	___fldiv@b+1,f
  7695  0904  0DC2               	rlf	___fldiv@b+2,f
  7696  0905  0DC3               	rlf	___fldiv@b+3,f
  7697  0906  0BC4               	decfsz	??___fldiv,f
  7698  0907  2901               	goto	u4035
  7699  0908                     l2632:
  7700  0908  1FD3               	btfss	___fldiv@grs+3,7
  7701  0909  290B               	goto	u4041
  7702  090A  290C               	goto	u4040
  7703  090B                     u4041:
  7704  090B  290D               	goto	l2636
  7705  090C                     u4040:
  7706  090C                     l2634:
  7707  090C  1440               	bsf	___fldiv@b,0
  7708  090D                     l2636:
  7709  090D  3001               	movlw	1
  7710  090E  00C4               	movwf	??___fldiv
  7711  090F                     u4055:
  7712  090F  1003               	clrc
  7713  0910  0DD0               	rlf	___fldiv@grs,f
  7714  0911  0DD1               	rlf	___fldiv@grs+1,f
  7715  0912  0DD2               	rlf	___fldiv@grs+2,f
  7716  0913  0DD3               	rlf	___fldiv@grs+3,f
  7717  0914  0BC4               	decfsz	??___fldiv,f
  7718  0915  290F               	goto	u4055
  7719  0916                     l2638:
  7720  0916  083F               	movf	___fldiv@a+3,w
  7721  0917  024C               	subwf	___fldiv@rem+3,w
  7722  0918  1D03               	skipz
  7723  0919  2924               	goto	u4065
  7724  091A  083E               	movf	___fldiv@a+2,w
  7725  091B  024B               	subwf	___fldiv@rem+2,w
  7726  091C  1D03               	skipz
  7727  091D  2924               	goto	u4065
  7728  091E  083D               	movf	___fldiv@a+1,w
  7729  091F  024A               	subwf	___fldiv@rem+1,w
  7730  0920  1D03               	skipz
  7731  0921  2924               	goto	u4065
  7732  0922  083C               	movf	___fldiv@a,w
  7733  0923  0249               	subwf	___fldiv@rem,w
  7734  0924                     u4065:
  7735  0924  1C03               	skipc
  7736  0925  2927               	goto	u4061
  7737  0926  2928               	goto	u4060
  7738  0927                     u4061:
  7739  0927  2937               	goto	l2644
  7740  0928                     u4060:
  7741  0928                     l2640:
  7742  0928  1753               	bsf	___fldiv@grs+3,6
  7743  0929                     l2642:
  7744  0929  083C               	movf	___fldiv@a,w
  7745  092A  02C9               	subwf	___fldiv@rem,f
  7746  092B  083D               	movf	___fldiv@a+1,w
  7747  092C  1C03               	skipc
  7748  092D  0F3D               	incfsz	___fldiv@a+1,w
  7749  092E  02CA               	subwf	___fldiv@rem+1,f
  7750  092F  083E               	movf	___fldiv@a+2,w
  7751  0930  1C03               	skipc
  7752  0931  0F3E               	incfsz	___fldiv@a+2,w
  7753  0932  02CB               	subwf	___fldiv@rem+2,f
  7754  0933  083F               	movf	___fldiv@a+3,w
  7755  0934  1C03               	skipc
  7756  0935  0F3F               	incfsz	___fldiv@a+3,w
  7757  0936  02CC               	subwf	___fldiv@rem+3,f
  7758  0937                     l2644:
  7759  0937  3001               	movlw	1
  7760  0938  00FF               	movwf	btemp+1
  7761  0939  087F               	movf	btemp+1,w
  7762  093A  07D5               	addwf	___fldiv@aexp,f
  7763  093B                     l2646:
  7764  093B  301A               	movlw	26
  7765  093C  0255               	subwf	___fldiv@aexp,w
  7766  093D  1C03               	skipc
  7767  093E  2940               	goto	u4071
  7768  093F  2941               	goto	u4070
  7769  0940                     u4071:
  7770  0940  28F1               	goto	l2628
  7771  0941                     u4070:
  7772  0941                     l2648:
  7773  0941  084C               	movf	___fldiv@rem+3,w
  7774  0942  044B               	iorwf	___fldiv@rem+2,w
  7775  0943  044A               	iorwf	___fldiv@rem+1,w
  7776  0944  0449               	iorwf	___fldiv@rem,w
  7777  0945  1903               	skipnz
  7778  0946  2948               	goto	u4081
  7779  0947  2949               	goto	u4080
  7780  0948                     u4081:
  7781  0948  2968               	goto	l2662
  7782  0949                     u4080:
  7783  0949                     l2650:
  7784  0949  1450               	bsf	___fldiv@grs,0
  7785  094A  2968               	goto	l2662
  7786  094B                     l2652:
  7787  094B  3001               	movlw	1
  7788  094C  00C4               	movwf	??___fldiv
  7789  094D                     u4095:
  7790  094D  1003               	clrc
  7791  094E  0DC0               	rlf	___fldiv@b,f
  7792  094F  0DC1               	rlf	___fldiv@b+1,f
  7793  0950  0DC2               	rlf	___fldiv@b+2,f
  7794  0951  0DC3               	rlf	___fldiv@b+3,f
  7795  0952  0BC4               	decfsz	??___fldiv,f
  7796  0953  294D               	goto	u4095
  7797  0954                     l2654:
  7798  0954  1FD3               	btfss	___fldiv@grs+3,7
  7799  0955  2957               	goto	u4101
  7800  0956  2958               	goto	u4100
  7801  0957                     u4101:
  7802  0957  2959               	goto	l2658
  7803  0958                     u4100:
  7804  0958                     l2656:
  7805  0958  1440               	bsf	___fldiv@b,0
  7806  0959                     l2658:
  7807  0959  3001               	movlw	1
  7808  095A  00C4               	movwf	??___fldiv
  7809  095B                     u4115:
  7810  095B  1003               	clrc
  7811  095C  0DD0               	rlf	___fldiv@grs,f
  7812  095D  0DD1               	rlf	___fldiv@grs+1,f
  7813  095E  0DD2               	rlf	___fldiv@grs+2,f
  7814  095F  0DD3               	rlf	___fldiv@grs+3,f
  7815  0960  0BC4               	decfsz	??___fldiv,f
  7816  0961  295B               	goto	u4115
  7817  0962                     l2660:
  7818  0962  30FF               	movlw	255
  7819  0963  07CE               	addwf	___fldiv@new_exp,f
  7820  0964  1803               	skipnc
  7821  0965  0ACF               	incf	___fldiv@new_exp+1,f
  7822  0966  30FF               	movlw	255
  7823  0967  07CF               	addwf	___fldiv@new_exp+1,f
  7824  0968                     l2662:
  7825  0968  1FC2               	btfss	___fldiv@b+2,7
  7826  0969  296B               	goto	u4121
  7827  096A  296C               	goto	u4120
  7828  096B                     u4121:
  7829  096B  294B               	goto	l2652
  7830  096C                     u4120:
  7831  096C                     l2664:
  7832  096C  01D5               	clrf	___fldiv@aexp
  7833  096D                     l2666:
  7834  096D  1FD3               	btfss	___fldiv@grs+3,7
  7835  096E  2970               	goto	u4131
  7836  096F  2971               	goto	u4130
  7837  0970                     u4131:
  7838  0970  298D               	goto	l2674
  7839  0971                     u4130:
  7840  0971                     l2668:
  7841  0971  30FF               	movlw	255
  7842  0972  0550               	andwf	___fldiv@grs,w
  7843  0973  00C4               	movwf	??___fldiv
  7844  0974  30FF               	movlw	255
  7845  0975  0551               	andwf	___fldiv@grs+1,w
  7846  0976  00C5               	movwf	??___fldiv+1
  7847  0977  30FF               	movlw	255
  7848  0978  0552               	andwf	___fldiv@grs+2,w
  7849  0979  00C6               	movwf	??___fldiv+2
  7850  097A  307F               	movlw	127
  7851  097B  0553               	andwf	___fldiv@grs+3,w
  7852  097C  00C7               	movwf	??___fldiv+3
  7853  097D  0847               	movf	??___fldiv+3,w
  7854  097E  0446               	iorwf	??___fldiv+2,w
  7855  097F  0445               	iorwf	??___fldiv+1,w
  7856  0980  0444               	iorwf	??___fldiv,w
  7857  0981  1903               	skipnz
  7858  0982  2984               	goto	u4141
  7859  0983  2985               	goto	u4140
  7860  0984                     u4141:
  7861  0984  2988               	goto	l625
  7862  0985                     u4140:
  7863  0985                     l2670:
  7864  0985  01D5               	clrf	___fldiv@aexp
  7865  0986  0AD5               	incf	___fldiv@aexp,f
  7866  0987  298D               	goto	l2674
  7867  0988                     l625:
  7868  0988  1C40               	btfss	___fldiv@b,0
  7869  0989  298B               	goto	u4151
  7870  098A  298C               	goto	u4150
  7871  098B                     u4151:
  7872  098B  298D               	goto	l2674
  7873  098C                     u4150:
  7874  098C  2985               	goto	l2670
  7875  098D                     l2674:
  7876  098D  0855               	movf	___fldiv@aexp,w
  7877  098E  1903               	btfsc	3,2
  7878  098F  2991               	goto	u4161
  7879  0990  2992               	goto	u4160
  7880  0991                     u4161:
  7881  0991  29C3               	goto	l2684
  7882  0992                     u4160:
  7883  0992                     l2676:
  7884  0992  3001               	movlw	1
  7885  0993  07C0               	addwf	___fldiv@b,f
  7886  0994  3000               	movlw	0
  7887  0995  1803               	skipnc
  7888  0996  3001               	movlw	1
  7889  0997  07C1               	addwf	___fldiv@b+1,f
  7890  0998  3000               	movlw	0
  7891  0999  1803               	skipnc
  7892  099A  3001               	movlw	1
  7893  099B  07C2               	addwf	___fldiv@b+2,f
  7894  099C  3000               	movlw	0
  7895  099D  1803               	skipnc
  7896  099E  3001               	movlw	1
  7897  099F  07C3               	addwf	___fldiv@b+3,f
  7898  09A0                     l2678:
  7899  09A0  1C43               	btfss	___fldiv@b+3,0
  7900  09A1  29A3               	goto	u4171
  7901  09A2  29A4               	goto	u4170
  7902  09A3                     u4171:
  7903  09A3  29C3               	goto	l2684
  7904  09A4                     u4170:
  7905  09A4                     l2680:
  7906  09A4  0840               	movf	___fldiv@b,w
  7907  09A5  00C4               	movwf	??___fldiv
  7908  09A6  0841               	movf	___fldiv@b+1,w
  7909  09A7  00C5               	movwf	??___fldiv+1
  7910  09A8  0842               	movf	___fldiv@b+2,w
  7911  09A9  00C6               	movwf	??___fldiv+2
  7912  09AA  0843               	movf	___fldiv@b+3,w
  7913  09AB  00C7               	movwf	??___fldiv+3
  7914  09AC  3001               	movlw	1
  7915  09AD  00C8               	movwf	??___fldiv+4
  7916  09AE                     u4185:
  7917  09AE  0D47               	rlf	??___fldiv+3,w
  7918  09AF  0CC7               	rrf	??___fldiv+3,f
  7919  09B0  0CC6               	rrf	??___fldiv+2,f
  7920  09B1  0CC5               	rrf	??___fldiv+1,f
  7921  09B2  0CC4               	rrf	??___fldiv,f
  7922  09B3                     u4180:
  7923  09B3  0BC8               	decfsz	??___fldiv+4,f
  7924  09B4  29AE               	goto	u4185
  7925  09B5  0847               	movf	??___fldiv+3,w
  7926  09B6  00C3               	movwf	___fldiv@b+3
  7927  09B7  0846               	movf	??___fldiv+2,w
  7928  09B8  00C2               	movwf	___fldiv@b+2
  7929  09B9  0845               	movf	??___fldiv+1,w
  7930  09BA  00C1               	movwf	___fldiv@b+1
  7931  09BB  0844               	movf	??___fldiv,w
  7932  09BC  00C0               	movwf	___fldiv@b
  7933  09BD                     l2682:
  7934  09BD  3001               	movlw	1
  7935  09BE  07CE               	addwf	___fldiv@new_exp,f
  7936  09BF  1803               	skipnc
  7937  09C0  0ACF               	incf	___fldiv@new_exp+1,f
  7938  09C1  3000               	movlw	0
  7939  09C2  07CF               	addwf	___fldiv@new_exp+1,f
  7940  09C3                     l2684:
  7941  09C3  084F               	movf	___fldiv@new_exp+1,w
  7942  09C4  3A80               	xorlw	128
  7943  09C5  00FF               	movwf	btemp+1
  7944  09C6  3080               	movlw	128
  7945  09C7  027F               	subwf	btemp+1,w
  7946  09C8  1D03               	skipz
  7947  09C9  29CC               	goto	u4195
  7948  09CA  30FF               	movlw	255
  7949  09CB  024E               	subwf	___fldiv@new_exp,w
  7950  09CC                     u4195:
  7951  09CC  1C03               	skipc
  7952  09CD  29CF               	goto	u4191
  7953  09CE  29D0               	goto	u4190
  7954  09CF                     u4191:
  7955  09CF  29DE               	goto	l2688
  7956  09D0                     u4190:
  7957  09D0                     l2686:
  7958  09D0  30FF               	movlw	255
  7959  09D1  1283               	bcf	3,5	;RP0=0, select bank0
  7960  09D2  1303               	bcf	3,6	;RP1=0, select bank0
  7961  09D3  00CE               	movwf	___fldiv@new_exp
  7962  09D4  3000               	movlw	0
  7963  09D5  00CF               	movwf	___fldiv@new_exp+1
  7964  09D6  3000               	movlw	0
  7965  09D7  00C3               	movwf	___fldiv@b+3
  7966  09D8  3000               	movlw	0
  7967  09D9  00C2               	movwf	___fldiv@b+2
  7968  09DA  3000               	movlw	0
  7969  09DB  00C1               	movwf	___fldiv@b+1
  7970  09DC  3000               	movlw	0
  7971  09DD  00C0               	movwf	___fldiv@b
  7972  09DE                     l2688:
  7973  09DE  1283               	bcf	3,5	;RP0=0, select bank0
  7974  09DF  1303               	bcf	3,6	;RP1=0, select bank0
  7975  09E0  084F               	movf	___fldiv@new_exp+1,w
  7976  09E1  3A80               	xorlw	128
  7977  09E2  00FF               	movwf	btemp+1
  7978  09E3  3080               	movlw	128
  7979  09E4  027F               	subwf	btemp+1,w
  7980  09E5  1D03               	skipz
  7981  09E6  29E9               	goto	u4205
  7982  09E7  3001               	movlw	1
  7983  09E8  024E               	subwf	___fldiv@new_exp,w
  7984  09E9                     u4205:
  7985  09E9  1803               	skipnc
  7986  09EA  29EC               	goto	u4201
  7987  09EB  29ED               	goto	u4200
  7988  09EC                     u4201:
  7989  09EC  29FA               	goto	l2696
  7990  09ED                     u4200:
  7991  09ED                     l2690:
  7992  09ED  1283               	bcf	3,5	;RP0=0, select bank0
  7993  09EE  1303               	bcf	3,6	;RP1=0, select bank0
  7994  09EF  01CE               	clrf	___fldiv@new_exp
  7995  09F0  01CF               	clrf	___fldiv@new_exp+1
  7996  09F1                     l2692:
  7997  09F1  3000               	movlw	0
  7998  09F2  00C3               	movwf	___fldiv@b+3
  7999  09F3  3000               	movlw	0
  8000  09F4  00C2               	movwf	___fldiv@b+2
  8001  09F5  3000               	movlw	0
  8002  09F6  00C1               	movwf	___fldiv@b+1
  8003  09F7  3000               	movlw	0
  8004  09F8  00C0               	movwf	___fldiv@b
  8005  09F9                     l2694:
  8006  09F9  01CD               	clrf	___fldiv@sign
  8007  09FA                     l2696:
  8008  09FA  1283               	bcf	3,5	;RP0=0, select bank0
  8009  09FB  1303               	bcf	3,6	;RP1=0, select bank0
  8010  09FC  084E               	movf	___fldiv@new_exp,w
  8011  09FD  00FF               	movwf	btemp+1
  8012  09FE  087F               	movf	btemp+1,w
  8013  09FF  00D4               	movwf	___fldiv@bexp
  8014  0A00                     l2698:
  8015  0A00  1C54               	btfss	___fldiv@bexp,0
  8016  0A01  2A03               	goto	u4211
  8017  0A02  2A04               	goto	u4210
  8018  0A03                     u4211:
  8019  0A03  2A06               	goto	l2702
  8020  0A04                     u4210:
  8021  0A04                     l2700:
  8022  0A04  17C2               	bsf	___fldiv@b+2,7
  8023  0A05  2A0A               	goto	l633
  8024  0A06                     l2702:
  8025  0A06  307F               	movlw	127
  8026  0A07  00FF               	movwf	btemp+1
  8027  0A08  087F               	movf	btemp+1,w
  8028  0A09  05C2               	andwf	___fldiv@b+2,f
  8029  0A0A                     l633:
  8030  0A0A  0854               	movf	___fldiv@bexp,w
  8031  0A0B  00C4               	movwf	??___fldiv
  8032  0A0C  1003               	clrc
  8033  0A0D  0C44               	rrf	??___fldiv,w
  8034  0A0E  00FF               	movwf	btemp+1
  8035  0A0F  087F               	movf	btemp+1,w
  8036  0A10  00C3               	movwf	___fldiv@b+3
  8037  0A11  084D               	movf	___fldiv@sign,w
  8038  0A12  00FF               	movwf	btemp+1
  8039  0A13  087F               	movf	btemp+1,w
  8040  0A14  04C3               	iorwf	___fldiv@b+3,f
  8041  0A15  28AE               	goto	l2608
  8042  0A16                     l611:
  8043  0A16  0008               	return
  8044  0A17                     __end_of___fldiv:
  8045                           
  8046                           	psect	text25
  8047  1894                     __ptext25:	
  8048 ;; *************** function _PORT_putString *****************
  8049 ;; Defined at:
  8050 ;;		line 136 in file "port.c"
  8051 ;; Parameters:    Size  Location     Type
  8052 ;;  chaine          1    wreg     PTR unsigned char 
  8053 ;;		 -> STR_5(5), STR_4(5), STR_3(4), STR_2(12), 
  8054 ;;		 -> STR_1(4), 
  8055 ;; Auto vars:     Size  Location     Type
  8056 ;;  chaine          1    5[COMMON] PTR unsigned char 
  8057 ;;		 -> STR_5(5), STR_4(5), STR_3(4), STR_2(12), 
  8058 ;;		 -> STR_1(4), 
  8059 ;;  i               2    3[COMMON] int 
  8060 ;; Return value:  Size  Location     Type
  8061 ;;                  1    wreg      void 
  8062 ;; Registers used:
  8063 ;;		wreg, fsr0l, fsr0h, status,2, status,0, pclath, cstack
  8064 ;; Tracked objects:
  8065 ;;		On entry : 0/0
  8066 ;;		On exit  : 0/0
  8067 ;;		Unchanged: 0/0
  8068 ;; Data sizes:     COMMON   BANK0   BANK1   BANK3   BANK2
  8069 ;;      Params:         0       0       0       0       0
  8070 ;;      Locals:         3       0       0       0       0
  8071 ;;      Temps:          0       0       0       0       0
  8072 ;;      Totals:         3       0       0       0       0
  8073 ;;Total ram usage:        3 bytes
  8074 ;; Hardware stack levels used:    1
  8075 ;; Hardware stack levels required when called:    2
  8076 ;; This function calls:
  8077 ;;		_PORT_putchar
  8078 ;; This function is called by:
  8079 ;;		_Get_Newton
  8080 ;; This function uses a non-reentrant model
  8081 ;;
  8082                           
  8083                           
  8084                           ;psect for function _PORT_putString
  8085  1894                     _PORT_putString:
  8086                           
  8087                           ;incstack = 0
  8088                           ; Regs used in _PORT_putString: [wreg-fsr0h+status,2+status,0+pclath+cstack]
  8089                           ;PORT_putString@chaine stored from wreg
  8090  1894  00F6               	movwf	PORT_putString@chaine
  8091  1895                     l3120:
  8092                           
  8093                           ;port.c: 138:     int i;;port.c: 140:     for(i=0 ; chaine[i]!=0 ; i++)
  8094  1895  01F4               	clrf	PORT_putString@i
  8095  1896  01F5               	clrf	PORT_putString@i+1
  8096  1897  28AB               	goto	l3126
  8097  1898                     l3122:
  8098                           
  8099                           ;port.c: 141:     {;port.c: 142:         PORT_putchar(chaine[i]);
  8100  1898  0874               	movf	PORT_putString@i,w
  8101  1899  0776               	addwf	PORT_putString@chaine,w
  8102  189A  0084               	movwf	4
  8103  189B  160A  118A  2000  160A  158A  	fcall	stringdir
  8104  18A0  160A  118A  20C5  160A  158A  	fcall	_PORT_putchar
  8105  18A5                     l3124:
  8106                           
  8107                           ;port.c: 143:     }
  8108  18A5  3001               	movlw	1
  8109  18A6  07F4               	addwf	PORT_putString@i,f
  8110  18A7  1803               	skipnc
  8111  18A8  0AF5               	incf	PORT_putString@i+1,f
  8112  18A9  3000               	movlw	0
  8113  18AA  07F5               	addwf	PORT_putString@i+1,f
  8114  18AB                     l3126:
  8115  18AB  0874               	movf	PORT_putString@i,w
  8116  18AC  0776               	addwf	PORT_putString@chaine,w
  8117  18AD  0084               	movwf	4
  8118  18AE  160A  118A  2000  160A  158A  	fcall	stringdir
  8119  18B3  3A00               	xorlw	0
  8120  18B4  1D03               	skipz
  8121  18B5  28B7               	goto	u5251
  8122  18B6  28B8               	goto	u5250
  8123  18B7                     u5251:
  8124  18B7  2898               	goto	l3122
  8125  18B8                     u5250:
  8126  18B8                     l205:
  8127  18B8  0008               	return
  8128  18B9                     __end_of_PORT_putString:
  8129                           
  8130                           	psect	text26
  8131  196A                     __ptext26:	
  8132 ;; *************** function _PORT_Change_Gain *****************
  8133 ;; Defined at:
  8134 ;;		line 173 in file "port.c"
  8135 ;; Parameters:    Size  Location     Type
  8136 ;;  INTER0          1    wreg     unsigned char 
  8137 ;;  INTER1          1    2[COMMON] unsigned char 
  8138 ;; Auto vars:     Size  Location     Type
  8139 ;;  INTER0          1    5[COMMON] unsigned char 
  8140 ;; Return value:  Size  Location     Type
  8141 ;;                  2    2[COMMON] unsigned int 
  8142 ;; Registers used:
  8143 ;;		wreg, status,2, status,0
  8144 ;; Tracked objects:
  8145 ;;		On entry : 0/0
  8146 ;;		On exit  : 0/0
  8147 ;;		Unchanged: 0/0
  8148 ;; Data sizes:     COMMON   BANK0   BANK1   BANK3   BANK2
  8149 ;;      Params:         3       0       0       0       0
  8150 ;;      Locals:         1       0       0       0       0
  8151 ;;      Temps:          0       0       0       0       0
  8152 ;;      Totals:         4       0       0       0       0
  8153 ;;Total ram usage:        4 bytes
  8154 ;; Hardware stack levels used:    1
  8155 ;; Hardware stack levels required when called:    1
  8156 ;; This function calls:
  8157 ;;		Nothing
  8158 ;; This function is called by:
  8159 ;;		_Get_Newton
  8160 ;; This function uses a non-reentrant model
  8161 ;;
  8162                           
  8163                           
  8164                           ;psect for function _PORT_Change_Gain
  8165  196A                     _PORT_Change_Gain:
  8166                           
  8167                           ;incstack = 0
  8168                           ; Regs used in _PORT_Change_Gain: [wreg+status,2+status,0]
  8169                           ;PORT_Change_Gain@INTER0 stored from wreg
  8170  196A  00F6               	movwf	PORT_Change_Gain@INTER0
  8171  196B                     l3084:
  8172                           
  8173                           ;port.c: 174:     PORTCbits.RC0 = INTER0;
  8174  196B  0C76               	rrf	PORT_Change_Gain@INTER0,w
  8175  196C  1283               	bcf	3,5	;RP0=0, select bank0
  8176  196D  1303               	bcf	3,6	;RP1=0, select bank0
  8177  196E  1C03               	skipc
  8178  196F  1007               	bcf	7,0	;volatile
  8179  1970  1803               	skipnc
  8180  1971  1407               	bsf	7,0	;volatile
  8181                           
  8182                           ;port.c: 175:     PORTCbits.RC1 = INTER1;
  8183  1972  0C73               	rrf	PORT_Change_Gain@INTER1,w
  8184  1973  1C03               	skipc
  8185  1974  1087               	bcf	7,1	;volatile
  8186  1975  1803               	skipnc
  8187  1976  1487               	bsf	7,1	;volatile
  8188  1977                     l3086:
  8189                           
  8190                           ;port.c: 176:     if (INTER0 == 0 && INTER1 == 0)
  8191  1977  0876               	movf	PORT_Change_Gain@INTER0,w
  8192  1978  1D03               	btfss	3,2
  8193  1979  297B               	goto	u5191
  8194  197A  297C               	goto	u5190
  8195  197B                     u5191:
  8196  197B  2986               	goto	l3096
  8197  197C                     u5190:
  8198  197C                     l3088:
  8199  197C  0873               	movf	PORT_Change_Gain@INTER1,w
  8200  197D  1D03               	btfss	3,2
  8201  197E  2980               	goto	u5201
  8202  197F  2981               	goto	u5200
  8203  1980                     u5201:
  8204  1980  2986               	goto	l3096
  8205  1981                     u5200:
  8206  1981                     l3090:
  8207                           
  8208                           ;port.c: 177:         return 52000;
  8209  1981  3020               	movlw	32
  8210  1982  00F3               	movwf	?_PORT_Change_Gain
  8211  1983  30CB               	movlw	203
  8212  1984  00F4               	movwf	?_PORT_Change_Gain+1
  8213  1985  29A8               	goto	l215
  8214  1986                     l3096:
  8215  1986  0876               	movf	PORT_Change_Gain@INTER0,w
  8216  1987  1D03               	btfss	3,2
  8217  1988  298A               	goto	u5211
  8218  1989  298B               	goto	u5210
  8219  198A                     u5211:
  8220  198A  2995               	goto	l3106
  8221  198B                     u5210:
  8222  198B                     l3098:
  8223  198B  0373               	decf	PORT_Change_Gain@INTER1,w
  8224  198C  1D03               	btfss	3,2
  8225  198D  298F               	goto	u5221
  8226  198E  2990               	goto	u5220
  8227  198F                     u5221:
  8228  198F  2995               	goto	l3106
  8229  1990                     u5220:
  8230  1990                     l3100:
  8231                           
  8232                           ;port.c: 179:         return 2800;
  8233  1990  30F0               	movlw	240
  8234  1991  00F3               	movwf	?_PORT_Change_Gain
  8235  1992  300A               	movlw	10
  8236  1993  00F4               	movwf	?_PORT_Change_Gain+1
  8237  1994  29A8               	goto	l215
  8238  1995                     l3106:
  8239  1995  0376               	decf	PORT_Change_Gain@INTER0,w
  8240  1996  1D03               	btfss	3,2
  8241  1997  2999               	goto	u5231
  8242  1998  299A               	goto	u5230
  8243  1999                     u5231:
  8244  1999  29A4               	goto	l3116
  8245  199A                     u5230:
  8246  199A                     l3108:
  8247  199A  0873               	movf	PORT_Change_Gain@INTER1,w
  8248  199B  1D03               	btfss	3,2
  8249  199C  299E               	goto	u5241
  8250  199D  299F               	goto	u5240
  8251  199E                     u5241:
  8252  199E  29A4               	goto	l3116
  8253  199F                     u5240:
  8254  199F                     l3110:
  8255                           
  8256                           ;port.c: 181:         return 8300;
  8257  199F  306C               	movlw	108
  8258  19A0  00F3               	movwf	?_PORT_Change_Gain
  8259  19A1  3020               	movlw	32
  8260  19A2  00F4               	movwf	?_PORT_Change_Gain+1
  8261  19A3  29A8               	goto	l215
  8262  19A4                     l3116:
  8263                           
  8264                           ;port.c: 183:         return 3000;
  8265  19A4  30B8               	movlw	184
  8266  19A5  00F3               	movwf	?_PORT_Change_Gain
  8267  19A6  300B               	movlw	11
  8268  19A7  00F4               	movwf	?_PORT_Change_Gain+1
  8269  19A8                     l215:
  8270  19A8  0008               	return
  8271  19A9                     __end_of_PORT_Change_Gain:
  8272                           
  8273                           	psect	text27
  8274  1AFD                     __ptext27:	
  8275 ;; *************** function _Affichage_brut *****************
  8276 ;; Defined at:
  8277 ;;		line 100 in file "main.c"
  8278 ;; Parameters:    Size  Location     Type
  8279 ;;  valeur_a_aff    2    2[BANK0 ] int 
  8280 ;; Auto vars:     Size  Location     Type
  8281 ;;  valueMetrics    6    7[BANK0 ] struct .
  8282 ;;  affiche         1    6[BANK0 ] unsigned char 
  8283 ;; Return value:  Size  Location     Type
  8284 ;;                  1    wreg      void 
  8285 ;; Registers used:
  8286 ;;		wreg, status,2, status,0, btemp+1, pclath, cstack
  8287 ;; Tracked objects:
  8288 ;;		On entry : 0/0
  8289 ;;		On exit  : 0/0
  8290 ;;		Unchanged: 0/0
  8291 ;; Data sizes:     COMMON   BANK0   BANK1   BANK3   BANK2
  8292 ;;      Params:         0       2       0       0       0
  8293 ;;      Locals:         0       7       0       0       0
  8294 ;;      Temps:          0       2       0       0       0
  8295 ;;      Totals:         0      11       0       0       0
  8296 ;;Total ram usage:       11 bytes
  8297 ;; Hardware stack levels used:    1
  8298 ;; Hardware stack levels required when called:    2
  8299 ;; This function calls:
  8300 ;;		_PORT_putchar
  8301 ;;		___awdiv
  8302 ;;		___awmod
  8303 ;; This function is called by:
  8304 ;;		_Get_Newton
  8305 ;; This function uses a non-reentrant model
  8306 ;;
  8307                           
  8308                           
  8309                           ;psect for function _Affichage_brut
  8310  1AFD                     _Affichage_brut:
  8311  1AFD                     l2898:	
  8312                           ;incstack = 0
  8313                           ; Regs used in _Affichage_brut: [wreg+status,2+status,0+btemp+1+pclath+cstack]
  8314                           
  8315                           
  8316                           ;main.c: 100: void Affichage_brut(int valeur_a_afficher);main.c: 101: {;main.c: 102:    
      +                           unsigned char affiche;;main.c: 104:     ValueMetrics valueMetrics;;main.c: 106:     aff
      +                          iche = valeur_a_afficher ;
  8317  1AFD  1283               	bcf	3,5	;RP0=0, select bank0
  8318  1AFE  1303               	bcf	3,6	;RP1=0, select bank0
  8319  1AFF  0822               	movf	Affichage_brut@valeur_a_afficher,w
  8320  1B00  00FF               	movwf	btemp+1
  8321  1B01  087F               	movf	btemp+1,w
  8322  1B02  00A6               	movwf	Affichage_brut@affiche
  8323  1B03                     l2900:
  8324                           
  8325                           ;main.c: 107:     valueMetrics.cent = ((char)(affiche/100))+0x30;
  8326  1B03  3064               	movlw	100
  8327  1B04  00F3               	movwf	___awdiv@divisor
  8328  1B05  3000               	movlw	0
  8329  1B06  00F4               	movwf	___awdiv@divisor+1
  8330  1B07  0826               	movf	Affichage_brut@affiche,w
  8331  1B08  00A4               	movwf	??_Affichage_brut
  8332  1B09  01A5               	clrf	??_Affichage_brut+1
  8333  1B0A  0824               	movf	??_Affichage_brut,w
  8334  1B0B  00F5               	movwf	___awdiv@dividend
  8335  1B0C  0825               	movf	??_Affichage_brut+1,w
  8336  1B0D  00F6               	movwf	___awdiv@dividend+1
  8337  1B0E  160A  158A  2296  160A  158A  	fcall	___awdiv
  8338  1B13  0873               	movf	?___awdiv,w
  8339  1B14  3E30               	addlw	48
  8340  1B15  00FF               	movwf	btemp+1
  8341  1B16  087F               	movf	btemp+1,w
  8342  1B17  1283               	bcf	3,5	;RP0=0, select bank0
  8343  1B18  1303               	bcf	3,6	;RP1=0, select bank0
  8344  1B19  00A8               	movwf	Affichage_brut@valueMetrics+1
  8345  1B1A                     l2902:
  8346                           
  8347                           ;main.c: 108:     PORT_putchar(valueMetrics.cent);
  8348  1B1A  0828               	movf	Affichage_brut@valueMetrics+1,w
  8349  1B1B  160A  118A  20C5  160A  158A  	fcall	_PORT_putchar
  8350  1B20                     l2904:
  8351                           
  8352                           ;main.c: 109:     affiche = affiche % 100 ;
  8353  1B20  3064               	movlw	100
  8354  1B21  00F3               	movwf	___awmod@divisor
  8355  1B22  3000               	movlw	0
  8356  1B23  00F4               	movwf	___awmod@divisor+1
  8357  1B24  1283               	bcf	3,5	;RP0=0, select bank0
  8358  1B25  1303               	bcf	3,6	;RP1=0, select bank0
  8359  1B26  0826               	movf	Affichage_brut@affiche,w
  8360  1B27  00A4               	movwf	??_Affichage_brut
  8361  1B28  01A5               	clrf	??_Affichage_brut+1
  8362  1B29  0824               	movf	??_Affichage_brut,w
  8363  1B2A  00F5               	movwf	___awmod@dividend
  8364  1B2B  0825               	movf	??_Affichage_brut+1,w
  8365  1B2C  00F6               	movwf	___awmod@dividend+1
  8366  1B2D  160A  158A  223D  160A  158A  	fcall	___awmod
  8367  1B32  0873               	movf	?___awmod,w
  8368  1B33  00FF               	movwf	btemp+1
  8369  1B34  087F               	movf	btemp+1,w
  8370  1B35  1283               	bcf	3,5	;RP0=0, select bank0
  8371  1B36  1303               	bcf	3,6	;RP1=0, select bank0
  8372  1B37  00A6               	movwf	Affichage_brut@affiche
  8373  1B38                     l2906:
  8374                           
  8375                           ;main.c: 110:     valueMetrics.diz = ((char)(affiche/10))+0x30;
  8376  1B38  300A               	movlw	10
  8377  1B39  00F3               	movwf	___awdiv@divisor
  8378  1B3A  3000               	movlw	0
  8379  1B3B  00F4               	movwf	___awdiv@divisor+1
  8380  1B3C  0826               	movf	Affichage_brut@affiche,w
  8381  1B3D  00A4               	movwf	??_Affichage_brut
  8382  1B3E  01A5               	clrf	??_Affichage_brut+1
  8383  1B3F  0824               	movf	??_Affichage_brut,w
  8384  1B40  00F5               	movwf	___awdiv@dividend
  8385  1B41  0825               	movf	??_Affichage_brut+1,w
  8386  1B42  00F6               	movwf	___awdiv@dividend+1
  8387  1B43  160A  158A  2296  160A  158A  	fcall	___awdiv
  8388  1B48  0873               	movf	?___awdiv,w
  8389  1B49  3E30               	addlw	48
  8390  1B4A  00FF               	movwf	btemp+1
  8391  1B4B  087F               	movf	btemp+1,w
  8392  1B4C  1283               	bcf	3,5	;RP0=0, select bank0
  8393  1B4D  1303               	bcf	3,6	;RP1=0, select bank0
  8394  1B4E  00A9               	movwf	Affichage_brut@valueMetrics+2
  8395  1B4F                     l2908:
  8396                           
  8397                           ;main.c: 111:     PORT_putchar(valueMetrics.diz);
  8398  1B4F  0829               	movf	Affichage_brut@valueMetrics+2,w
  8399  1B50  160A  118A  20C5  160A  158A  	fcall	_PORT_putchar
  8400  1B55                     l2910:
  8401                           
  8402                           ;main.c: 112:     affiche = affiche % 10 ;
  8403  1B55  300A               	movlw	10
  8404  1B56  00F3               	movwf	___awmod@divisor
  8405  1B57  3000               	movlw	0
  8406  1B58  00F4               	movwf	___awmod@divisor+1
  8407  1B59  1283               	bcf	3,5	;RP0=0, select bank0
  8408  1B5A  1303               	bcf	3,6	;RP1=0, select bank0
  8409  1B5B  0826               	movf	Affichage_brut@affiche,w
  8410  1B5C  00A4               	movwf	??_Affichage_brut
  8411  1B5D  01A5               	clrf	??_Affichage_brut+1
  8412  1B5E  0824               	movf	??_Affichage_brut,w
  8413  1B5F  00F5               	movwf	___awmod@dividend
  8414  1B60  0825               	movf	??_Affichage_brut+1,w
  8415  1B61  00F6               	movwf	___awmod@dividend+1
  8416  1B62  160A  158A  223D  160A  158A  	fcall	___awmod
  8417  1B67  0873               	movf	?___awmod,w
  8418  1B68  00FF               	movwf	btemp+1
  8419  1B69  087F               	movf	btemp+1,w
  8420  1B6A  1283               	bcf	3,5	;RP0=0, select bank0
  8421  1B6B  1303               	bcf	3,6	;RP1=0, select bank0
  8422  1B6C  00A6               	movwf	Affichage_brut@affiche
  8423  1B6D                     l2912:
  8424                           
  8425                           ;main.c: 113:     valueMetrics.unit = ((char)(affiche))+0x30;
  8426  1B6D  0826               	movf	Affichage_brut@affiche,w
  8427  1B6E  3E30               	addlw	48
  8428  1B6F  00FF               	movwf	btemp+1
  8429  1B70  087F               	movf	btemp+1,w
  8430  1B71  00AA               	movwf	Affichage_brut@valueMetrics+3
  8431  1B72                     l2914:
  8432                           
  8433                           ;main.c: 114:     PORT_putchar(valueMetrics.unit);
  8434  1B72  082A               	movf	Affichage_brut@valueMetrics+3,w
  8435  1B73  160A  118A  20C5  160A  158A  	fcall	_PORT_putchar
  8436  1B78                     l47:
  8437  1B78  0008               	return
  8438  1B79                     __end_of_Affichage_brut:
  8439                           
  8440                           	psect	text28
  8441  1A3D                     __ptext28:	
  8442 ;; *************** function ___awmod *****************
  8443 ;; Defined at:
  8444 ;;		line 5 in file "C:\Program Files\Microchip\xc8\v2.20\pic\sources\c90\common\awmod.c"
  8445 ;; Parameters:    Size  Location     Type
  8446 ;;  divisor         2    2[COMMON] int 
  8447 ;;  dividend        2    4[COMMON] int 
  8448 ;; Auto vars:     Size  Location     Type
  8449 ;;  sign            1    7[COMMON] unsigned char 
  8450 ;;  counter         1    6[COMMON] unsigned char 
  8451 ;; Return value:  Size  Location     Type
  8452 ;;                  2    2[COMMON] int 
  8453 ;; Registers used:
  8454 ;;		wreg, status,2, status,0, btemp+1
  8455 ;; Tracked objects:
  8456 ;;		On entry : 0/0
  8457 ;;		On exit  : 0/0
  8458 ;;		Unchanged: 0/0
  8459 ;; Data sizes:     COMMON   BANK0   BANK1   BANK3   BANK2
  8460 ;;      Params:         4       0       0       0       0
  8461 ;;      Locals:         2       0       0       0       0
  8462 ;;      Temps:          0       0       0       0       0
  8463 ;;      Totals:         6       0       0       0       0
  8464 ;;Total ram usage:        6 bytes
  8465 ;; Hardware stack levels used:    1
  8466 ;; Hardware stack levels required when called:    1
  8467 ;; This function calls:
  8468 ;;		Nothing
  8469 ;; This function is called by:
  8470 ;;		_Affichage_brut
  8471 ;; This function uses a non-reentrant model
  8472 ;;
  8473                           
  8474                           
  8475                           ;psect for function ___awmod
  8476  1A3D                     ___awmod:
  8477  1A3D                     l2414:	
  8478                           ;incstack = 0
  8479                           ; Regs used in ___awmod: [wreg+status,2+status,0+btemp+1]
  8480                           
  8481  1A3D  01F8               	clrf	___awmod@sign
  8482  1A3E                     l2416:
  8483  1A3E  1FF6               	btfss	___awmod@dividend+1,7
  8484  1A3F  2A41               	goto	u3541
  8485  1A40  2A42               	goto	u3540
  8486  1A41                     u3541:
  8487  1A41  2A49               	goto	l2422
  8488  1A42                     u3540:
  8489  1A42                     l2418:
  8490  1A42  09F5               	comf	___awmod@dividend,f
  8491  1A43  09F6               	comf	___awmod@dividend+1,f
  8492  1A44  0AF5               	incf	___awmod@dividend,f
  8493  1A45  1903               	skipnz
  8494  1A46  0AF6               	incf	___awmod@dividend+1,f
  8495  1A47                     l2420:
  8496  1A47  01F8               	clrf	___awmod@sign
  8497  1A48  0AF8               	incf	___awmod@sign,f
  8498  1A49                     l2422:
  8499  1A49  1FF4               	btfss	___awmod@divisor+1,7
  8500  1A4A  2A4C               	goto	u3551
  8501  1A4B  2A4D               	goto	u3550
  8502  1A4C                     u3551:
  8503  1A4C  2A52               	goto	l2426
  8504  1A4D                     u3550:
  8505  1A4D                     l2424:
  8506  1A4D  09F3               	comf	___awmod@divisor,f
  8507  1A4E  09F4               	comf	___awmod@divisor+1,f
  8508  1A4F  0AF3               	incf	___awmod@divisor,f
  8509  1A50  1903               	skipnz
  8510  1A51  0AF4               	incf	___awmod@divisor+1,f
  8511  1A52                     l2426:
  8512  1A52  0873               	movf	___awmod@divisor,w
  8513  1A53  0474               	iorwf	___awmod@divisor+1,w
  8514  1A54  1903               	btfsc	3,2
  8515  1A55  2A57               	goto	u3561
  8516  1A56  2A58               	goto	u3560
  8517  1A57                     u3561:
  8518  1A57  2A87               	goto	l2444
  8519  1A58                     u3560:
  8520  1A58                     l2428:
  8521  1A58  01F7               	clrf	___awmod@counter
  8522  1A59  0AF7               	incf	___awmod@counter,f
  8523  1A5A  2A66               	goto	l2434
  8524  1A5B                     l2430:
  8525  1A5B  3001               	movlw	1
  8526  1A5C                     u3575:
  8527  1A5C  1003               	clrc
  8528  1A5D  0DF3               	rlf	___awmod@divisor,f
  8529  1A5E  0DF4               	rlf	___awmod@divisor+1,f
  8530  1A5F  3EFF               	addlw	-1
  8531  1A60  1D03               	skipz
  8532  1A61  2A5C               	goto	u3575
  8533  1A62                     l2432:
  8534  1A62  3001               	movlw	1
  8535  1A63  00FF               	movwf	btemp+1
  8536  1A64  087F               	movf	btemp+1,w
  8537  1A65  07F7               	addwf	___awmod@counter,f
  8538  1A66                     l2434:
  8539  1A66  1FF4               	btfss	___awmod@divisor+1,7
  8540  1A67  2A69               	goto	u3581
  8541  1A68  2A6A               	goto	u3580
  8542  1A69                     u3581:
  8543  1A69  2A5B               	goto	l2430
  8544  1A6A                     u3580:
  8545  1A6A                     l2436:
  8546  1A6A  0874               	movf	___awmod@divisor+1,w
  8547  1A6B  0276               	subwf	___awmod@dividend+1,w
  8548  1A6C  1D03               	skipz
  8549  1A6D  2A70               	goto	u3595
  8550  1A6E  0873               	movf	___awmod@divisor,w
  8551  1A6F  0275               	subwf	___awmod@dividend,w
  8552  1A70                     u3595:
  8553  1A70  1C03               	skipc
  8554  1A71  2A73               	goto	u3591
  8555  1A72  2A74               	goto	u3590
  8556  1A73                     u3591:
  8557  1A73  2A7A               	goto	l2440
  8558  1A74                     u3590:
  8559  1A74                     l2438:
  8560  1A74  0873               	movf	___awmod@divisor,w
  8561  1A75  02F5               	subwf	___awmod@dividend,f
  8562  1A76  0874               	movf	___awmod@divisor+1,w
  8563  1A77  1C03               	skipc
  8564  1A78  03F6               	decf	___awmod@dividend+1,f
  8565  1A79  02F6               	subwf	___awmod@dividend+1,f
  8566  1A7A                     l2440:
  8567  1A7A  3001               	movlw	1
  8568  1A7B                     u3605:
  8569  1A7B  1003               	clrc
  8570  1A7C  0CF4               	rrf	___awmod@divisor+1,f
  8571  1A7D  0CF3               	rrf	___awmod@divisor,f
  8572  1A7E  3EFF               	addlw	-1
  8573  1A7F  1D03               	skipz
  8574  1A80  2A7B               	goto	u3605
  8575  1A81                     l2442:
  8576  1A81  3001               	movlw	1
  8577  1A82  02F7               	subwf	___awmod@counter,f
  8578  1A83  1D03               	btfss	3,2
  8579  1A84  2A86               	goto	u3611
  8580  1A85  2A87               	goto	u3610
  8581  1A86                     u3611:
  8582  1A86  2A6A               	goto	l2436
  8583  1A87                     u3610:
  8584  1A87                     l2444:
  8585  1A87  0878               	movf	___awmod@sign,w
  8586  1A88  1903               	btfsc	3,2
  8587  1A89  2A8B               	goto	u3621
  8588  1A8A  2A8C               	goto	u3620
  8589  1A8B                     u3621:
  8590  1A8B  2A91               	goto	l2448
  8591  1A8C                     u3620:
  8592  1A8C                     l2446:
  8593  1A8C  09F5               	comf	___awmod@dividend,f
  8594  1A8D  09F6               	comf	___awmod@dividend+1,f
  8595  1A8E  0AF5               	incf	___awmod@dividend,f
  8596  1A8F  1903               	skipnz
  8597  1A90  0AF6               	incf	___awmod@dividend+1,f
  8598  1A91                     l2448:
  8599  1A91  0876               	movf	___awmod@dividend+1,w
  8600  1A92  00F4               	movwf	?___awmod+1
  8601  1A93  0875               	movf	___awmod@dividend,w
  8602  1A94  00F3               	movwf	?___awmod
  8603  1A95                     l426:
  8604  1A95  0008               	return
  8605  1A96                     __end_of___awmod:
  8606                           
  8607                           	psect	text29
  8608  1A96                     __ptext29:	
  8609 ;; *************** function ___awdiv *****************
  8610 ;; Defined at:
  8611 ;;		line 5 in file "C:\Program Files\Microchip\xc8\v2.20\pic\sources\c90\common\awdiv.c"
  8612 ;; Parameters:    Size  Location     Type
  8613 ;;  divisor         2    2[COMMON] int 
  8614 ;;  dividend        2    4[COMMON] int 
  8615 ;; Auto vars:     Size  Location     Type
  8616 ;;  quotient        2    8[COMMON] int 
  8617 ;;  sign            1    7[COMMON] unsigned char 
  8618 ;;  counter         1    6[COMMON] unsigned char 
  8619 ;; Return value:  Size  Location     Type
  8620 ;;                  2    2[COMMON] int 
  8621 ;; Registers used:
  8622 ;;		wreg, status,2, status,0, btemp+1
  8623 ;; Tracked objects:
  8624 ;;		On entry : 0/0
  8625 ;;		On exit  : 0/0
  8626 ;;		Unchanged: 0/0
  8627 ;; Data sizes:     COMMON   BANK0   BANK1   BANK3   BANK2
  8628 ;;      Params:         4       0       0       0       0
  8629 ;;      Locals:         4       0       0       0       0
  8630 ;;      Temps:          0       0       0       0       0
  8631 ;;      Totals:         8       0       0       0       0
  8632 ;;Total ram usage:        8 bytes
  8633 ;; Hardware stack levels used:    1
  8634 ;; Hardware stack levels required when called:    1
  8635 ;; This function calls:
  8636 ;;		Nothing
  8637 ;; This function is called by:
  8638 ;;		_Affichage_brut
  8639 ;; This function uses a non-reentrant model
  8640 ;;
  8641                           
  8642                           
  8643                           ;psect for function ___awdiv
  8644  1A96                     ___awdiv:
  8645  1A96                     l2370:	
  8646                           ;incstack = 0
  8647                           ; Regs used in ___awdiv: [wreg+status,2+status,0+btemp+1]
  8648                           
  8649  1A96  01F8               	clrf	___awdiv@sign
  8650  1A97                     l2372:
  8651  1A97  1FF4               	btfss	___awdiv@divisor+1,7
  8652  1A98  2A9A               	goto	u3441
  8653  1A99  2A9B               	goto	u3440
  8654  1A9A                     u3441:
  8655  1A9A  2AA2               	goto	l2378
  8656  1A9B                     u3440:
  8657  1A9B                     l2374:
  8658  1A9B  09F3               	comf	___awdiv@divisor,f
  8659  1A9C  09F4               	comf	___awdiv@divisor+1,f
  8660  1A9D  0AF3               	incf	___awdiv@divisor,f
  8661  1A9E  1903               	skipnz
  8662  1A9F  0AF4               	incf	___awdiv@divisor+1,f
  8663  1AA0                     l2376:
  8664  1AA0  01F8               	clrf	___awdiv@sign
  8665  1AA1  0AF8               	incf	___awdiv@sign,f
  8666  1AA2                     l2378:
  8667  1AA2  1FF6               	btfss	___awdiv@dividend+1,7
  8668  1AA3  2AA5               	goto	u3451
  8669  1AA4  2AA6               	goto	u3450
  8670  1AA5                     u3451:
  8671  1AA5  2AAF               	goto	l2384
  8672  1AA6                     u3450:
  8673  1AA6                     l2380:
  8674  1AA6  09F5               	comf	___awdiv@dividend,f
  8675  1AA7  09F6               	comf	___awdiv@dividend+1,f
  8676  1AA8  0AF5               	incf	___awdiv@dividend,f
  8677  1AA9  1903               	skipnz
  8678  1AAA  0AF6               	incf	___awdiv@dividend+1,f
  8679  1AAB                     l2382:
  8680  1AAB  3001               	movlw	1
  8681  1AAC  00FF               	movwf	btemp+1
  8682  1AAD  087F               	movf	btemp+1,w
  8683  1AAE  06F8               	xorwf	___awdiv@sign,f
  8684  1AAF                     l2384:
  8685  1AAF  01F9               	clrf	___awdiv@quotient
  8686  1AB0  01FA               	clrf	___awdiv@quotient+1
  8687  1AB1                     l2386:
  8688  1AB1  0873               	movf	___awdiv@divisor,w
  8689  1AB2  0474               	iorwf	___awdiv@divisor+1,w
  8690  1AB3  1903               	btfsc	3,2
  8691  1AB4  2AB6               	goto	u3461
  8692  1AB5  2AB7               	goto	u3460
  8693  1AB6                     u3461:
  8694  1AB6  2AEE               	goto	l2406
  8695  1AB7                     u3460:
  8696  1AB7                     l2388:
  8697  1AB7  01F7               	clrf	___awdiv@counter
  8698  1AB8  0AF7               	incf	___awdiv@counter,f
  8699  1AB9  2AC5               	goto	l2394
  8700  1ABA                     l2390:
  8701  1ABA  3001               	movlw	1
  8702  1ABB                     u3475:
  8703  1ABB  1003               	clrc
  8704  1ABC  0DF3               	rlf	___awdiv@divisor,f
  8705  1ABD  0DF4               	rlf	___awdiv@divisor+1,f
  8706  1ABE  3EFF               	addlw	-1
  8707  1ABF  1D03               	skipz
  8708  1AC0  2ABB               	goto	u3475
  8709  1AC1                     l2392:
  8710  1AC1  3001               	movlw	1
  8711  1AC2  00FF               	movwf	btemp+1
  8712  1AC3  087F               	movf	btemp+1,w
  8713  1AC4  07F7               	addwf	___awdiv@counter,f
  8714  1AC5                     l2394:
  8715  1AC5  1FF4               	btfss	___awdiv@divisor+1,7
  8716  1AC6  2AC8               	goto	u3481
  8717  1AC7  2AC9               	goto	u3480
  8718  1AC8                     u3481:
  8719  1AC8  2ABA               	goto	l2390
  8720  1AC9                     u3480:
  8721  1AC9                     l2396:
  8722  1AC9  3001               	movlw	1
  8723  1ACA                     u3495:
  8724  1ACA  1003               	clrc
  8725  1ACB  0DF9               	rlf	___awdiv@quotient,f
  8726  1ACC  0DFA               	rlf	___awdiv@quotient+1,f
  8727  1ACD  3EFF               	addlw	-1
  8728  1ACE  1D03               	skipz
  8729  1ACF  2ACA               	goto	u3495
  8730  1AD0  0874               	movf	___awdiv@divisor+1,w
  8731  1AD1  0276               	subwf	___awdiv@dividend+1,w
  8732  1AD2  1D03               	skipz
  8733  1AD3  2AD6               	goto	u3505
  8734  1AD4  0873               	movf	___awdiv@divisor,w
  8735  1AD5  0275               	subwf	___awdiv@dividend,w
  8736  1AD6                     u3505:
  8737  1AD6  1C03               	skipc
  8738  1AD7  2AD9               	goto	u3501
  8739  1AD8  2ADA               	goto	u3500
  8740  1AD9                     u3501:
  8741  1AD9  2AE1               	goto	l2402
  8742  1ADA                     u3500:
  8743  1ADA                     l2398:
  8744  1ADA  0873               	movf	___awdiv@divisor,w
  8745  1ADB  02F5               	subwf	___awdiv@dividend,f
  8746  1ADC  0874               	movf	___awdiv@divisor+1,w
  8747  1ADD  1C03               	skipc
  8748  1ADE  03F6               	decf	___awdiv@dividend+1,f
  8749  1ADF  02F6               	subwf	___awdiv@dividend+1,f
  8750  1AE0                     l2400:
  8751  1AE0  1479               	bsf	___awdiv@quotient,0
  8752  1AE1                     l2402:
  8753  1AE1  3001               	movlw	1
  8754  1AE2                     u3515:
  8755  1AE2  1003               	clrc
  8756  1AE3  0CF4               	rrf	___awdiv@divisor+1,f
  8757  1AE4  0CF3               	rrf	___awdiv@divisor,f
  8758  1AE5  3EFF               	addlw	-1
  8759  1AE6  1D03               	skipz
  8760  1AE7  2AE2               	goto	u3515
  8761  1AE8                     l2404:
  8762  1AE8  3001               	movlw	1
  8763  1AE9  02F7               	subwf	___awdiv@counter,f
  8764  1AEA  1D03               	btfss	3,2
  8765  1AEB  2AED               	goto	u3521
  8766  1AEC  2AEE               	goto	u3520
  8767  1AED                     u3521:
  8768  1AED  2AC9               	goto	l2396
  8769  1AEE                     u3520:
  8770  1AEE                     l2406:
  8771  1AEE  0878               	movf	___awdiv@sign,w
  8772  1AEF  1903               	btfsc	3,2
  8773  1AF0  2AF2               	goto	u3531
  8774  1AF1  2AF3               	goto	u3530
  8775  1AF2                     u3531:
  8776  1AF2  2AF8               	goto	l2410
  8777  1AF3                     u3530:
  8778  1AF3                     l2408:
  8779  1AF3  09F9               	comf	___awdiv@quotient,f
  8780  1AF4  09FA               	comf	___awdiv@quotient+1,f
  8781  1AF5  0AF9               	incf	___awdiv@quotient,f
  8782  1AF6  1903               	skipnz
  8783  1AF7  0AFA               	incf	___awdiv@quotient+1,f
  8784  1AF8                     l2410:
  8785  1AF8  087A               	movf	___awdiv@quotient+1,w
  8786  1AF9  00F4               	movwf	?___awdiv+1
  8787  1AFA  0879               	movf	___awdiv@quotient,w
  8788  1AFB  00F3               	movwf	?___awdiv
  8789  1AFC                     l413:
  8790  1AFC  0008               	return
  8791  1AFD                     __end_of___awdiv:
  8792                           
  8793                           	psect	text30
  8794  10C5                     __ptext30:	
  8795 ;; *************** function _PORT_putchar *****************
  8796 ;; Defined at:
  8797 ;;		line 126 in file "port.c"
  8798 ;; Parameters:    Size  Location     Type
  8799 ;;  c               1    wreg     unsigned char 
  8800 ;; Auto vars:     Size  Location     Type
  8801 ;;  c               1    2[COMMON] unsigned char 
  8802 ;; Return value:  Size  Location     Type
  8803 ;;                  1    wreg      void 
  8804 ;; Registers used:
  8805 ;;		wreg
  8806 ;; Tracked objects:
  8807 ;;		On entry : 0/0
  8808 ;;		On exit  : 0/0
  8809 ;;		Unchanged: 0/0
  8810 ;; Data sizes:     COMMON   BANK0   BANK1   BANK3   BANK2
  8811 ;;      Params:         0       0       0       0       0
  8812 ;;      Locals:         1       0       0       0       0
  8813 ;;      Temps:          0       0       0       0       0
  8814 ;;      Totals:         1       0       0       0       0
  8815 ;;Total ram usage:        1 bytes
  8816 ;; Hardware stack levels used:    1
  8817 ;; Hardware stack levels required when called:    1
  8818 ;; This function calls:
  8819 ;;		Nothing
  8820 ;; This function is called by:
  8821 ;;		_Affichage_brut
  8822 ;;		_puts_float
  8823 ;;		_PORT_putString
  8824 ;;		_puts_Newton
  8825 ;; This function uses a non-reentrant model
  8826 ;;
  8827                           
  8828                           
  8829                           ;psect for function _PORT_putchar
  8830  10C5                     _PORT_putchar:
  8831                           
  8832                           ;incstack = 0
  8833                           ; Regs used in _PORT_putchar: [wreg]
  8834                           ;PORT_putchar@c stored from wreg
  8835  10C5  00F3               	movwf	PORT_putchar@c
  8836  10C6                     l2280:
  8837  10C6                     l196:	
  8838                           ;port.c: 128:     for(;(TXSTA&0x02)!=0x02;);
  8839                           
  8840  10C6  1683               	bsf	3,5	;RP0=1, select bank1
  8841  10C7  1303               	bcf	3,6	;RP1=0, select bank1
  8842  10C8  1C98               	btfss	24,1	;volatile
  8843  10C9  28CB               	goto	u3221
  8844  10CA  28CC               	goto	u3220
  8845  10CB                     u3221:
  8846  10CB  28C6               	goto	l196
  8847  10CC                     u3220:
  8848  10CC                     l2282:
  8849                           
  8850                           ;port.c: 129:     TXREG = c;
  8851  10CC  0873               	movf	PORT_putchar@c,w
  8852  10CD  1283               	bcf	3,5	;RP0=0, select bank0
  8853  10CE  1303               	bcf	3,6	;RP1=0, select bank0
  8854  10CF  0099               	movwf	25	;volatile
  8855  10D0                     l199:
  8856  10D0  0008               	return
  8857  10D1                     __end_of_PORT_putchar:
  8858                           
  8859                           	psect	text31
  8860  1850                     __ptext31:	
  8861 ;; *************** function _ADC_GetValue *****************
  8862 ;; Defined at:
  8863 ;;		line 16 in file "adc.c"
  8864 ;; Parameters:    Size  Location     Type
  8865 ;;  channel         1    wreg     unsigned char 
  8866 ;; Auto vars:     Size  Location     Type
  8867 ;;  channel         1    3[COMMON] unsigned char 
  8868 ;;  sensor_value    1    4[COMMON] unsigned char 
  8869 ;; Return value:  Size  Location     Type
  8870 ;;                  1    wreg      unsigned char 
  8871 ;; Registers used:
  8872 ;;		wreg, status,2, status,0, btemp+1, pclath, cstack
  8873 ;; Tracked objects:
  8874 ;;		On entry : 0/0
  8875 ;;		On exit  : 0/0
  8876 ;;		Unchanged: 0/0
  8877 ;; Data sizes:     COMMON   BANK0   BANK1   BANK3   BANK2
  8878 ;;      Params:         0       0       0       0       0
  8879 ;;      Locals:         2       0       0       0       0
  8880 ;;      Temps:          0       0       0       0       0
  8881 ;;      Totals:         2       0       0       0       0
  8882 ;;Total ram usage:        2 bytes
  8883 ;; Hardware stack levels used:    1
  8884 ;; Hardware stack levels required when called:    2
  8885 ;; This function calls:
  8886 ;;		_PORT_Choose_Mux
  8887 ;;		_PORT_Get_Value_Adc
  8888 ;;		_PORT_Start_ADC
  8889 ;; This function is called by:
  8890 ;;		_Get_Newton
  8891 ;; This function uses a non-reentrant model
  8892 ;;
  8893                           
  8894                           
  8895                           ;psect for function _ADC_GetValue
  8896  1850                     _ADC_GetValue:
  8897                           
  8898                           ;incstack = 0
  8899                           ; Regs used in _ADC_GetValue: [wreg+status,2+status,0+btemp+1+pclath+cstack]
  8900                           ;ADC_GetValue@channel stored from wreg
  8901  1850  00F4               	movwf	ADC_GetValue@channel
  8902  1851                     l3128:
  8903                           
  8904                           ;adc.c: 18:     unsigned char sensor_value;;adc.c: 19:     PORT_Choose_Mux(channel);
  8905  1851  0874               	movf	ADC_GetValue@channel,w
  8906  1852  160A  158A  202C  160A  158A  	fcall	_PORT_Choose_Mux
  8907  1857                     l3130:
  8908                           
  8909                           ;adc.c: 20:     PORT_Start_ADC();
  8910  1857  160A  158A  200C  160A  158A  	fcall	_PORT_Start_ADC
  8911  185C                     l3132:
  8912                           
  8913                           ;adc.c: 21:     sensor_value = PORT_Get_Value_Adc();
  8914  185C  160A  158A  2008  160A  158A  	fcall	_PORT_Get_Value_Adc
  8915  1861  00FF               	movwf	btemp+1
  8916  1862  087F               	movf	btemp+1,w
  8917  1863  00F5               	movwf	ADC_GetValue@sensor_value
  8918  1864                     l3134:
  8919                           
  8920                           ;adc.c: 22:     if (sensor_value > 127)
  8921  1864  3080               	movlw	128
  8922  1865  0275               	subwf	ADC_GetValue@sensor_value,w
  8923  1866  1C03               	skipc
  8924  1867  2869               	goto	u5261
  8925  1868  286A               	goto	u5260
  8926  1869                     u5261:
  8927  1869  286E               	goto	l3138
  8928  186A                     u5260:
  8929  186A                     l3136:
  8930                           
  8931                           ;adc.c: 23:         sensor_value = 127;
  8932  186A  307F               	movlw	127
  8933  186B  00FF               	movwf	btemp+1
  8934  186C  087F               	movf	btemp+1,w
  8935  186D  00F5               	movwf	ADC_GetValue@sensor_value
  8936  186E                     l3138:
  8937                           
  8938                           ;adc.c: 24:     return sensor_value;
  8939  186E  0875               	movf	ADC_GetValue@sensor_value,w
  8940  186F                     l120:
  8941  186F  0008               	return
  8942  1870                     __end_of_ADC_GetValue:
  8943                           
  8944                           	psect	text32
  8945  180C                     __ptext32:	
  8946 ;; *************** function _PORT_Start_ADC *****************
  8947 ;; Defined at:
  8948 ;;		line 104 in file "port.c"
  8949 ;; Parameters:    Size  Location     Type
  8950 ;;		None
  8951 ;; Auto vars:     Size  Location     Type
  8952 ;;		None
  8953 ;; Return value:  Size  Location     Type
  8954 ;;                  1    wreg      void 
  8955 ;; Registers used:
  8956 ;;		None
  8957 ;; Tracked objects:
  8958 ;;		On entry : 0/0
  8959 ;;		On exit  : 0/0
  8960 ;;		Unchanged: 0/0
  8961 ;; Data sizes:     COMMON   BANK0   BANK1   BANK3   BANK2
  8962 ;;      Params:         0       0       0       0       0
  8963 ;;      Locals:         0       0       0       0       0
  8964 ;;      Temps:          0       0       0       0       0
  8965 ;;      Totals:         0       0       0       0       0
  8966 ;;Total ram usage:        0 bytes
  8967 ;; Hardware stack levels used:    1
  8968 ;; Hardware stack levels required when called:    1
  8969 ;; This function calls:
  8970 ;;		Nothing
  8971 ;; This function is called by:
  8972 ;;		_ADC_GetValue
  8973 ;; This function uses a non-reentrant model
  8974 ;;
  8975                           
  8976                           
  8977                           ;psect for function _PORT_Start_ADC
  8978  180C                     _PORT_Start_ADC:
  8979  180C                     l2288:	
  8980                           ;incstack = 0
  8981                           ; Regs used in _PORT_Start_ADC: []
  8982                           
  8983                           
  8984                           ;port.c: 105:     GO_nDONE=1;
  8985  180C  1283               	bcf	3,5	;RP0=0, select bank0
  8986  180D  1303               	bcf	3,6	;RP1=0, select bank0
  8987  180E  149F               	bsf	31,1	;volatile
  8988  180F                     l187:	
  8989                           ;port.c: 106:     while(GO_nDONE);
  8990                           
  8991  180F  189F               	btfsc	31,1	;volatile
  8992  1810  2812               	goto	u3241
  8993  1811  2813               	goto	u3240
  8994  1812                     u3241:
  8995  1812  280F               	goto	l187
  8996  1813                     u3240:
  8997  1813                     l190:
  8998  1813  0008               	return
  8999  1814                     __end_of_PORT_Start_ADC:
  9000                           
  9001                           	psect	text33
  9002  1808                     __ptext33:	
  9003 ;; *************** function _PORT_Get_Value_Adc *****************
  9004 ;; Defined at:
  9005 ;;		line 118 in file "port.c"
  9006 ;; Parameters:    Size  Location     Type
  9007 ;;		None
  9008 ;; Auto vars:     Size  Location     Type
  9009 ;;		None
  9010 ;; Return value:  Size  Location     Type
  9011 ;;                  1    wreg      unsigned char 
  9012 ;; Registers used:
  9013 ;;		wreg
  9014 ;; Tracked objects:
  9015 ;;		On entry : 0/0
  9016 ;;		On exit  : 0/0
  9017 ;;		Unchanged: 0/0
  9018 ;; Data sizes:     COMMON   BANK0   BANK1   BANK3   BANK2
  9019 ;;      Params:         0       0       0       0       0
  9020 ;;      Locals:         0       0       0       0       0
  9021 ;;      Temps:          0       0       0       0       0
  9022 ;;      Totals:         0       0       0       0       0
  9023 ;;Total ram usage:        0 bytes
  9024 ;; Hardware stack levels used:    1
  9025 ;; Hardware stack levels required when called:    1
  9026 ;; This function calls:
  9027 ;;		Nothing
  9028 ;; This function is called by:
  9029 ;;		_ADC_GetValue
  9030 ;; This function uses a non-reentrant model
  9031 ;;
  9032                           
  9033                           
  9034                           ;psect for function _PORT_Get_Value_Adc
  9035  1808                     _PORT_Get_Value_Adc:
  9036  1808                     l2290:	
  9037                           ;incstack = 0
  9038                           ; Regs used in _PORT_Get_Value_Adc: [wreg]
  9039                           
  9040                           
  9041                           ;port.c: 119:     return ADRES;
  9042  1808  1283               	bcf	3,5	;RP0=0, select bank0
  9043  1809  1303               	bcf	3,6	;RP1=0, select bank0
  9044  180A  081E               	movf	30,w	;volatile
  9045  180B                     l193:
  9046  180B  0008               	return
  9047  180C                     __end_of_PORT_Get_Value_Adc:
  9048                           
  9049                           	psect	text34
  9050  182C                     __ptext34:	
  9051 ;; *************** function _PORT_Choose_Mux *****************
  9052 ;; Defined at:
  9053 ;;		line 94 in file "port.c"
  9054 ;; Parameters:    Size  Location     Type
  9055 ;;  _value          1    wreg     unsigned char 
  9056 ;; Auto vars:     Size  Location     Type
  9057 ;;  _value          1    2[COMMON] unsigned char 
  9058 ;; Return value:  Size  Location     Type
  9059 ;;                  1    wreg      void 
  9060 ;; Registers used:
  9061 ;;		wreg, status,2, status,0, btemp+1
  9062 ;; Tracked objects:
  9063 ;;		On entry : 0/0
  9064 ;;		On exit  : 0/0
  9065 ;;		Unchanged: 0/0
  9066 ;; Data sizes:     COMMON   BANK0   BANK1   BANK3   BANK2
  9067 ;;      Params:         0       0       0       0       0
  9068 ;;      Locals:         1       0       0       0       0
  9069 ;;      Temps:          0       0       0       0       0
  9070 ;;      Totals:         1       0       0       0       0
  9071 ;;Total ram usage:        1 bytes
  9072 ;; Hardware stack levels used:    1
  9073 ;; Hardware stack levels required when called:    1
  9074 ;; This function calls:
  9075 ;;		Nothing
  9076 ;; This function is called by:
  9077 ;;		_ADC_GetValue
  9078 ;; This function uses a non-reentrant model
  9079 ;;
  9080                           
  9081                           
  9082                           ;psect for function _PORT_Choose_Mux
  9083  182C                     _PORT_Choose_Mux:
  9084                           
  9085                           ;incstack = 0
  9086                           ; Regs used in _PORT_Choose_Mux: [wreg+status,2+status,0+btemp+1]
  9087                           ;PORT_Choose_Mux@_value stored from wreg
  9088  182C  00F3               	movwf	PORT_Choose_Mux@_value
  9089  182D                     l2284:
  9090                           
  9091                           ;port.c: 95:     if (_value <= 0x0F) {
  9092  182D  3010               	movlw	16
  9093  182E  0273               	subwf	PORT_Choose_Mux@_value,w
  9094  182F  1803               	skipnc
  9095  1830  2832               	goto	u3231
  9096  1831  2833               	goto	u3230
  9097  1832                     u3231:
  9098  1832  283D               	goto	l184
  9099  1833                     u3230:
  9100  1833                     l2286:
  9101                           
  9102                           ;port.c: 96:         PORTD &= 0xF0;
  9103  1833  30F0               	movlw	240
  9104  1834  00FF               	movwf	btemp+1
  9105  1835  087F               	movf	btemp+1,w
  9106  1836  1283               	bcf	3,5	;RP0=0, select bank0
  9107  1837  1303               	bcf	3,6	;RP1=0, select bank0
  9108  1838  0588               	andwf	8,f	;volatile
  9109                           
  9110                           ;port.c: 97:         PORTD |= _value;
  9111  1839  0873               	movf	PORT_Choose_Mux@_value,w	;volatile
  9112  183A  00FF               	movwf	btemp+1
  9113  183B  087F               	movf	btemp+1,w
  9114  183C  0488               	iorwf	8,f	;volatile
  9115  183D                     l184:
  9116  183D  0008               	return
  9117  183E                     __end_of_PORT_Choose_Mux:
  9118                           
  9119                           	psect	text35
  9120  0010                     __ptext35:	
  9121 ;; *************** function _isr *****************
  9122 ;; Defined at:
  9123 ;;		line 78 in file "timer.c"
  9124 ;; Parameters:    Size  Location     Type
  9125 ;;		None
  9126 ;; Auto vars:     Size  Location     Type
  9127 ;;		None
  9128 ;; Return value:  Size  Location     Type
  9129 ;;                  1    wreg      void 
  9130 ;; Registers used:
  9131 ;;		None
  9132 ;; Tracked objects:
  9133 ;;		On entry : 0/0
  9134 ;;		On exit  : 0/0
  9135 ;;		Unchanged: 0/0
  9136 ;; Data sizes:     COMMON   BANK0   BANK1   BANK3   BANK2
  9137 ;;      Params:         0       0       0       0       0
  9138 ;;      Locals:         0       0       0       0       0
  9139 ;;      Temps:          2       0       0       0       0
  9140 ;;      Totals:         2       0       0       0       0
  9141 ;;Total ram usage:        2 bytes
  9142 ;; Hardware stack levels used:    1
  9143 ;; This function calls:
  9144 ;;		Nothing
  9145 ;; This function is called by:
  9146 ;;		Interrupt level 1
  9147 ;; This function uses a non-reentrant model
  9148 ;;
  9149                           
  9150                           
  9151                           ;psect for function _isr
  9152  0010                     _isr:
  9153  0010                     i1l3320:
  9154                           
  9155                           ;timer.c: 85: if (TMR1IF)
  9156  0010  1283               	bcf	3,5	;RP0=0, select bank0
  9157  0011  1303               	bcf	3,6	;RP1=0, select bank0
  9158  0012  1C0C               	btfss	12,0	;volatile
  9159  0013  2815               	goto	u543_21
  9160  0014  2816               	goto	u543_20
  9161  0015                     u543_21:
  9162  0015  281D               	goto	i1l254
  9163  0016                     u543_20:
  9164  0016                     i1l3322:
  9165                           
  9166                           ;timer.c: 86:      {;timer.c: 88:      Fincompt1 = 1;
  9167  0016  1683               	bsf	3,5	;RP0=1, select bank3
  9168  0017  1703               	bsf	3,6	;RP1=1, select bank3
  9169  0018  0190               	clrf	_Fincompt1^(0+384)
  9170  0019  0A90               	incf	_Fincompt1^(0+384),f
  9171                           
  9172                           ;timer.c: 91:      TMR1IF=0;
  9173  001A  1283               	bcf	3,5	;RP0=0, select bank0
  9174  001B  1303               	bcf	3,6	;RP1=0, select bank0
  9175  001C  100C               	bcf	12,0	;volatile
  9176  001D                     i1l254:	
  9177                           ;timer.c: 92:      }
  9178                           
  9179                           
  9180                           ;timer.c: 94: if (TMRAIF)
  9181  001D  1E0D               	btfss	13,4	;volatile
  9182  001E  2820               	goto	u544_21
  9183  001F  2821               	goto	u544_20
  9184  0020                     u544_21:
  9185  0020  2822               	goto	i1l256
  9186  0021                     u544_20:
  9187  0021                     i1l3324:
  9188                           
  9189                           ;timer.c: 95:      {;timer.c: 100:      TMRAIF=0;
  9190  0021  120D               	bcf	13,4	;volatile
  9191  0022                     i1l256:
  9192  0022  0872               	movf	??_isr+1,w
  9193  0023  008A               	movwf	10
  9194  0024  0E71               	swapf	??_isr^(0+4294967168),w
  9195  0025  0083               	movwf	3
  9196  0026  0EFE               	swapf	btemp,f
  9197  0027  0E7E               	swapf	btemp,w
  9198  0028  0009               	retfie
  9199  0029                     __end_of_isr:
  9200  007E                     btemp	set	126	;btemp
  9201  007E                     wtemp0	set	126
  9202                           
  9203                           	psect	intentry
  9204  0004                     __pintentry:	
  9205                           ;incstack = 0
  9206                           ; Regs used in _isr: []
  9207                           
  9208  0004                     interrupt_function:
  9209  007E                     saved_w	set	btemp
  9210  0004  00FE               	movwf	btemp
  9211  0005  0E03               	swapf	3,w
  9212  0006  00F1               	movwf	??_isr
  9213  0007  080A               	movf	10,w
  9214  0008  00F2               	movwf	??_isr+1
  9215  0009  120A  118A  2810   	ljmp	_isr
  9216                           
  9217                           	psect	config
  9218                           
  9219                           ;Config register CONFIG @ 0x2007
  9220                           ;	Oscillator Selection bits
  9221                           ;	FOSC = INTOSC, INTOSC oscillator: CLKOUT function on RA6/OSC2/CLKOUT pin, I/O function
      +                            on RA7/OSC1/CLKIN
  9222                           ;	Watchdog Timer Enable bit
  9223                           ;	WDTE = OFF, WDT disabled and can be enabled by SWDTEN bit of the WDTCON register
  9224                           ;	Power-up Timer Enable bit
  9225                           ;	PWRTE = OFF, PWRT disabled
  9226                           ;	RE3/MCLR Pin Function Select bit
  9227                           ;	MCLRE = ON, RE3/MCLR pin function is MCLR
  9228                           ;	Code Protection bit
  9229                           ;	CP = OFF, Program memory code protection is disabled
  9230                           ;	Brown-out Reset Selection bits
  9231                           ;	BOREN = ON, BOR enabled
  9232                           ;	Brown-out Reset Voltage Selection bit
  9233                           ;	BORV = 19, Brown-out Reset Voltage (VBOR) set to 1.9 V nominal
  9234                           ;	INTOSC PLLEN Enable Bit
  9235                           ;	PLLEN = ON, INTOSC Frequency is 16 MHz (32x)
  9236  2007                     	org	8199
  9237  2007  3FF5               	dw	16373
  9238                           
  9239                           ;Config register CONFIG2 @ 0x2008
  9240                           ;	Voltage Regulator Capacitor Enable bits
  9241                           ;	VCAPEN = OFF, All VCAP pin functions are disabled
  9242  2008                     	org	8200
  9243  2008  FFFF               	dw	65535
  9244                           
  9245                           	psect	text15_split_1
  9246  1357                     l2990:
  9247  1357  301D               	movlw	low (((conversion_newton@R_tab+28)-__stringbase)| (0+32768))
  9248  1358  0084               	movwf	4
  9249  1359  160A  118A  2000  160A  118A  	fcall	stringdir
  9250  135E  1683               	bsf	3,5	;RP0=1, select bank1
  9251  135F  1303               	bcf	3,6	;RP1=0, select bank1
  9252  1360  00A4               	movwf	??_conversion_newton^(0+128)
  9253  1361  160A  118A  2000  160A  118A  	fcall	stringdir
  9254  1366  00A5               	movwf	(??_conversion_newton^(0+128)+1)
  9255  1367  160A  118A  2000  160A  118A  	fcall	stringdir
  9256  136C  00A6               	movwf	(??_conversion_newton^(0+128)+2)
  9257  136D  160A  118A  2000  160A  118A  	fcall	stringdir
  9258  1372  00A7               	movwf	(??_conversion_newton^(0+128)+3)
  9259  1373  0827               	movf	(??_conversion_newton+3)^(0+128),w
  9260  1374  00F6               	movwf	___flge@ff1+3
  9261  1375  0826               	movf	(??_conversion_newton+2)^(0+128),w
  9262  1376  00F5               	movwf	___flge@ff1+2
  9263  1377  0825               	movf	(??_conversion_newton+1)^(0+128),w
  9264  1378  00F4               	movwf	___flge@ff1+1
  9265  1379  0824               	movf	??_conversion_newton^(0+128),w
  9266  137A  00F3               	movwf	___flge@ff1
  9267  137B  0823               	movf	(conversion_newton@Rc+3)^(0+128),w
  9268  137C  00FA               	movwf	___flge@ff2+3
  9269  137D  0822               	movf	(conversion_newton@Rc+2)^(0+128),w
  9270  137E  00F9               	movwf	___flge@ff2+2
  9271  137F  0821               	movf	(conversion_newton@Rc+1)^(0+128),w
  9272  1380  00F8               	movwf	___flge@ff2+1
  9273  1381  0820               	movf	conversion_newton@Rc^(0+128),w
  9274  1382  00F7               	movwf	___flge@ff2
  9275  1383  160A  158A  25A7  160A  118A  	fcall	___flge
  9276  1388  1C03               	btfss	3,0
  9277  1389  2B8B               	goto	u4851
  9278  138A  2B8C               	goto	u4850
  9279  138B                     u4851:
  9280  138B  2BCA               	goto	l2996
  9281  138C                     u4850:
  9282  138C                     l2992:
  9283  138C  3019               	movlw	low (((conversion_newton@R_tab+24)-__stringbase)| (0+32768))
  9284  138D  0084               	movwf	4
  9285  138E  160A  118A  2000  160A  118A  	fcall	stringdir
  9286  1393  1683               	bsf	3,5	;RP0=1, select bank1
  9287  1394  1303               	bcf	3,6	;RP1=0, select bank1
  9288  1395  00A4               	movwf	??_conversion_newton^(0+128)
  9289  1396  160A  118A  2000  160A  118A  	fcall	stringdir
  9290  139B  00A5               	movwf	(??_conversion_newton^(0+128)+1)
  9291  139C  160A  118A  2000  160A  118A  	fcall	stringdir
  9292  13A1  00A6               	movwf	(??_conversion_newton^(0+128)+2)
  9293  13A2  160A  118A  2000  160A  118A  	fcall	stringdir
  9294  13A7  00A7               	movwf	(??_conversion_newton^(0+128)+3)
  9295  13A8  0827               	movf	(??_conversion_newton+3)^(0+128),w
  9296  13A9  00F6               	movwf	___flge@ff1+3
  9297  13AA  0826               	movf	(??_conversion_newton+2)^(0+128),w
  9298  13AB  00F5               	movwf	___flge@ff1+2
  9299  13AC  0825               	movf	(??_conversion_newton+1)^(0+128),w
  9300  13AD  00F4               	movwf	___flge@ff1+1
  9301  13AE  0824               	movf	??_conversion_newton^(0+128),w
  9302  13AF  00F3               	movwf	___flge@ff1
  9303  13B0  0823               	movf	(conversion_newton@Rc+3)^(0+128),w
  9304  13B1  00FA               	movwf	___flge@ff2+3
  9305  13B2  0822               	movf	(conversion_newton@Rc+2)^(0+128),w
  9306  13B3  00F9               	movwf	___flge@ff2+2
  9307  13B4  0821               	movf	(conversion_newton@Rc+1)^(0+128),w
  9308  13B5  00F8               	movwf	___flge@ff2+1
  9309  13B6  0820               	movf	conversion_newton@Rc^(0+128),w
  9310  13B7  00F7               	movwf	___flge@ff2
  9311  13B8  160A  158A  25A7  160A  118A  	fcall	___flge
  9312  13BD  1803               	btfsc	3,0
  9313  13BE  2BC0               	goto	u4861
  9314  13BF  2BC1               	goto	u4860
  9315  13C0                     u4861:
  9316  13C0  2BCA               	goto	l2996
  9317  13C1                     u4860:
  9318  13C1                     l2994:
  9319                           
  9320                           ;main.c: 228:          {;main.c: 229:          n = 6;
  9321  13C1  3006               	movlw	6
  9322  13C2  1683               	bsf	3,5	;RP0=1, select bank1
  9323  13C3  1303               	bcf	3,6	;RP1=0, select bank1
  9324  13C4  00C5               	movwf	conversion_newton@n^(0+128)
  9325  13C5  3000               	movlw	0
  9326  13C6  00C6               	movwf	(conversion_newton@n^(0+128)+1)
  9327  13C7                     L2:
  9328                           
  9329                           ;main.c: 230:          }
  9330  13C7  120A  118A  2D9B   	goto	l3070
  9331  13CA                     l2996:
  9332  13CA  3021               	movlw	low (((conversion_newton@R_tab+32)-__stringbase)| (0+32768))
  9333  13CB  0084               	movwf	4
  9334  13CC  160A  118A  2000  160A  118A  	fcall	stringdir
  9335  13D1  1683               	bsf	3,5	;RP0=1, select bank1
  9336  13D2  1303               	bcf	3,6	;RP1=0, select bank1
  9337  13D3  00A4               	movwf	??_conversion_newton^(0+128)
  9338  13D4  160A  118A  2000  160A  118A  	fcall	stringdir
  9339  13D9  00A5               	movwf	(??_conversion_newton^(0+128)+1)
  9340  13DA  160A  118A  2000  160A  118A  	fcall	stringdir
  9341  13DF  00A6               	movwf	(??_conversion_newton^(0+128)+2)
  9342  13E0  160A  118A  2000  160A  118A  	fcall	stringdir
  9343  13E5  00A7               	movwf	(??_conversion_newton^(0+128)+3)
  9344  13E6  0827               	movf	(??_conversion_newton+3)^(0+128),w
  9345  13E7  00F6               	movwf	___flge@ff1+3
  9346  13E8  0826               	movf	(??_conversion_newton+2)^(0+128),w
  9347  13E9  00F5               	movwf	___flge@ff1+2
  9348  13EA  0825               	movf	(??_conversion_newton+1)^(0+128),w
  9349  13EB  00F4               	movwf	___flge@ff1+1
  9350  13EC  0824               	movf	??_conversion_newton^(0+128),w
  9351  13ED  00F3               	movwf	___flge@ff1
  9352  13EE  0823               	movf	(conversion_newton@Rc+3)^(0+128),w
  9353  13EF  00FA               	movwf	___flge@ff2+3
  9354  13F0  0822               	movf	(conversion_newton@Rc+2)^(0+128),w
  9355  13F1  00F9               	movwf	___flge@ff2+2
  9356  13F2  0821               	movf	(conversion_newton@Rc+1)^(0+128),w
  9357  13F3  00F8               	movwf	___flge@ff2+1
  9358  13F4  0820               	movf	conversion_newton@Rc^(0+128),w
  9359  13F5  00F7               	movwf	___flge@ff2
  9360  13F6  160A  158A  25A7  160A  118A  	fcall	___flge
  9361  13FB  1C03               	btfss	3,0
  9362  13FC  2BFE               	goto	u4871
  9363  13FD  2C01               	goto	u4870
  9364  13FE                     u4871:
  9365  13FE  160A  118A  2A71   	goto	l3002
  9366  1401                     u4870:
  9367  1401                     l2998:
  9368  1401  301D               	movlw	low (((conversion_newton@R_tab+28)-__stringbase)| (0+32768))
  9369  1402  0084               	movwf	4
  9370  1403  160A  118A  2000  160A  118A  	fcall	stringdir
  9371  1408  1683               	bsf	3,5	;RP0=1, select bank1
  9372  1409  1303               	bcf	3,6	;RP1=0, select bank1
  9373  140A  00A4               	movwf	??_conversion_newton^(0+128)
  9374  140B  160A  118A  2000  160A  118A  	fcall	stringdir
  9375  1410  00A5               	movwf	(??_conversion_newton^(0+128)+1)
  9376  1411  160A  118A  2000  160A  118A  	fcall	stringdir
  9377  1416  00A6               	movwf	(??_conversion_newton^(0+128)+2)
  9378  1417  160A  118A  2000  160A  118A  	fcall	stringdir
  9379  141C  00A7               	movwf	(??_conversion_newton^(0+128)+3)
  9380  141D  0827               	movf	(??_conversion_newton+3)^(0+128),w
  9381  141E  00F6               	movwf	___flge@ff1+3
  9382  141F  0826               	movf	(??_conversion_newton+2)^(0+128),w
  9383  1420  00F5               	movwf	___flge@ff1+2
  9384  1421  0825               	movf	(??_conversion_newton+1)^(0+128),w
  9385  1422  00F4               	movwf	___flge@ff1+1
  9386  1423  0824               	movf	??_conversion_newton^(0+128),w
  9387  1424  00F3               	movwf	___flge@ff1
  9388  1425  0823               	movf	(conversion_newton@Rc+3)^(0+128),w
  9389  1426  00FA               	movwf	___flge@ff2+3
  9390  1427  0822               	movf	(conversion_newton@Rc+2)^(0+128),w
  9391  1428  00F9               	movwf	___flge@ff2+2
  9392  1429  0821               	movf	(conversion_newton@Rc+1)^(0+128),w
  9393  142A  00F8               	movwf	___flge@ff2+1
  9394  142B  0820               	movf	conversion_newton@Rc^(0+128),w
  9395  142C  00F7               	movwf	___flge@ff2
  9396  142D  160A  158A  25A7  160A  118A  	fcall	___flge
  9397  1432  1803               	btfsc	3,0
  9398  1433  2C35               	goto	u4881
  9399  1434  2C36               	goto	u4880
  9400  1435                     u4881:
  9401  1435  2BFE               	goto	u4871
  9402  1436                     u4880:
  9403  1436                     l3000:
  9404                           
  9405                           ;main.c: 232:          {;main.c: 233:          n = 7;
  9406  1436  3007               	movlw	7
  9407  1437  1683               	bsf	3,5	;RP0=1, select bank1
  9408  1438  1303               	bcf	3,6	;RP1=0, select bank1
  9409  1439  00C5               	movwf	conversion_newton@n^(0+128)
  9410  143A  3000               	movlw	0
  9411  143B  00C6               	movwf	(conversion_newton@n^(0+128)+1)
  9412                           
  9413                           ;main.c: 234:          }
  9414  143C  2BC7               	goto	L2
  9415                           
  9416                           	psect	text15_split_2
  9417  1271                     l3002:
  9418  1271  3025               	movlw	low (((conversion_newton@R_tab+36)-__stringbase)| (0+32768))
  9419  1272  0084               	movwf	4
  9420  1273  160A  118A  2000  160A  118A  	fcall	stringdir
  9421  1278  1683               	bsf	3,5	;RP0=1, select bank1
  9422  1279  1303               	bcf	3,6	;RP1=0, select bank1
  9423  127A  00A4               	movwf	??_conversion_newton^(0+128)
  9424  127B  160A  118A  2000  160A  118A  	fcall	stringdir
  9425  1280  00A5               	movwf	(??_conversion_newton^(0+128)+1)
  9426  1281  160A  118A  2000  160A  118A  	fcall	stringdir
  9427  1286  00A6               	movwf	(??_conversion_newton^(0+128)+2)
  9428  1287  160A  118A  2000  160A  118A  	fcall	stringdir
  9429  128C  00A7               	movwf	(??_conversion_newton^(0+128)+3)
  9430  128D  0827               	movf	(??_conversion_newton+3)^(0+128),w
  9431  128E  00F6               	movwf	___flge@ff1+3
  9432  128F  0826               	movf	(??_conversion_newton+2)^(0+128),w
  9433  1290  00F5               	movwf	___flge@ff1+2
  9434  1291  0825               	movf	(??_conversion_newton+1)^(0+128),w
  9435  1292  00F4               	movwf	___flge@ff1+1
  9436  1293  0824               	movf	??_conversion_newton^(0+128),w
  9437  1294  00F3               	movwf	___flge@ff1
  9438  1295  0823               	movf	(conversion_newton@Rc+3)^(0+128),w
  9439  1296  00FA               	movwf	___flge@ff2+3
  9440  1297  0822               	movf	(conversion_newton@Rc+2)^(0+128),w
  9441  1298  00F9               	movwf	___flge@ff2+2
  9442  1299  0821               	movf	(conversion_newton@Rc+1)^(0+128),w
  9443  129A  00F8               	movwf	___flge@ff2+1
  9444  129B  0820               	movf	conversion_newton@Rc^(0+128),w
  9445  129C  00F7               	movwf	___flge@ff2
  9446  129D  160A  158A  25A7  160A  118A  	fcall	___flge
  9447  12A2  1C03               	btfss	3,0
  9448  12A3  2AA5               	goto	u4891
  9449  12A4  2AA6               	goto	u4890
  9450  12A5                     u4891:
  9451  12A5  2AE4               	goto	l3008
  9452  12A6                     u4890:
  9453  12A6                     l3004:
  9454  12A6  3021               	movlw	low (((conversion_newton@R_tab+32)-__stringbase)| (0+32768))
  9455  12A7  0084               	movwf	4
  9456  12A8  160A  118A  2000  160A  118A  	fcall	stringdir
  9457  12AD  1683               	bsf	3,5	;RP0=1, select bank1
  9458  12AE  1303               	bcf	3,6	;RP1=0, select bank1
  9459  12AF  00A4               	movwf	??_conversion_newton^(0+128)
  9460  12B0  160A  118A  2000  160A  118A  	fcall	stringdir
  9461  12B5  00A5               	movwf	(??_conversion_newton^(0+128)+1)
  9462  12B6  160A  118A  2000  160A  118A  	fcall	stringdir
  9463  12BB  00A6               	movwf	(??_conversion_newton^(0+128)+2)
  9464  12BC  160A  118A  2000  160A  118A  	fcall	stringdir
  9465  12C1  00A7               	movwf	(??_conversion_newton^(0+128)+3)
  9466  12C2  0827               	movf	(??_conversion_newton+3)^(0+128),w
  9467  12C3  00F6               	movwf	___flge@ff1+3
  9468  12C4  0826               	movf	(??_conversion_newton+2)^(0+128),w
  9469  12C5  00F5               	movwf	___flge@ff1+2
  9470  12C6  0825               	movf	(??_conversion_newton+1)^(0+128),w
  9471  12C7  00F4               	movwf	___flge@ff1+1
  9472  12C8  0824               	movf	??_conversion_newton^(0+128),w
  9473  12C9  00F3               	movwf	___flge@ff1
  9474  12CA  0823               	movf	(conversion_newton@Rc+3)^(0+128),w
  9475  12CB  00FA               	movwf	___flge@ff2+3
  9476  12CC  0822               	movf	(conversion_newton@Rc+2)^(0+128),w
  9477  12CD  00F9               	movwf	___flge@ff2+2
  9478  12CE  0821               	movf	(conversion_newton@Rc+1)^(0+128),w
  9479  12CF  00F8               	movwf	___flge@ff2+1
  9480  12D0  0820               	movf	conversion_newton@Rc^(0+128),w
  9481  12D1  00F7               	movwf	___flge@ff2
  9482  12D2  160A  158A  25A7  160A  118A  	fcall	___flge
  9483  12D7  1803               	btfsc	3,0
  9484  12D8  2ADA               	goto	u4901
  9485  12D9  2ADB               	goto	u4900
  9486  12DA                     u4901:
  9487  12DA  2AE4               	goto	l3008
  9488  12DB                     u4900:
  9489  12DB                     l3006:
  9490                           
  9491                           ;main.c: 236:          {;main.c: 237:          n = 8;
  9492  12DB  3008               	movlw	8
  9493  12DC  1683               	bsf	3,5	;RP0=1, select bank1
  9494  12DD  1303               	bcf	3,6	;RP1=0, select bank1
  9495  12DE  00C5               	movwf	conversion_newton@n^(0+128)
  9496  12DF  3000               	movlw	0
  9497  12E0  00C6               	movwf	(conversion_newton@n^(0+128)+1)
  9498  12E1                     L3:
  9499                           
  9500                           ;main.c: 238:          }
  9501  12E1  120A  118A  2D9B   	goto	l3070
  9502  12E4                     l3008:
  9503  12E4  3029               	movlw	low (((conversion_newton@R_tab+40)-__stringbase)| (0+32768))
  9504  12E5  0084               	movwf	4
  9505  12E6  160A  118A  2000  160A  118A  	fcall	stringdir
  9506  12EB  1683               	bsf	3,5	;RP0=1, select bank1
  9507  12EC  1303               	bcf	3,6	;RP1=0, select bank1
  9508  12ED  00A4               	movwf	??_conversion_newton^(0+128)
  9509  12EE  160A  118A  2000  160A  118A  	fcall	stringdir
  9510  12F3  00A5               	movwf	(??_conversion_newton^(0+128)+1)
  9511  12F4  160A  118A  2000  160A  118A  	fcall	stringdir
  9512  12F9  00A6               	movwf	(??_conversion_newton^(0+128)+2)
  9513  12FA  160A  118A  2000  160A  118A  	fcall	stringdir
  9514  12FF  00A7               	movwf	(??_conversion_newton^(0+128)+3)
  9515  1300  0827               	movf	(??_conversion_newton+3)^(0+128),w
  9516  1301  00F6               	movwf	___flge@ff1+3
  9517  1302  0826               	movf	(??_conversion_newton+2)^(0+128),w
  9518  1303  00F5               	movwf	___flge@ff1+2
  9519  1304  0825               	movf	(??_conversion_newton+1)^(0+128),w
  9520  1305  00F4               	movwf	___flge@ff1+1
  9521  1306  0824               	movf	??_conversion_newton^(0+128),w
  9522  1307  00F3               	movwf	___flge@ff1
  9523  1308  0823               	movf	(conversion_newton@Rc+3)^(0+128),w
  9524  1309  00FA               	movwf	___flge@ff2+3
  9525  130A  0822               	movf	(conversion_newton@Rc+2)^(0+128),w
  9526  130B  00F9               	movwf	___flge@ff2+2
  9527  130C  0821               	movf	(conversion_newton@Rc+1)^(0+128),w
  9528  130D  00F8               	movwf	___flge@ff2+1
  9529  130E  0820               	movf	conversion_newton@Rc^(0+128),w
  9530  130F  00F7               	movwf	___flge@ff2
  9531  1310  160A  158A  25A7  160A  118A  	fcall	___flge
  9532  1315  1C03               	btfss	3,0
  9533  1316  2B18               	goto	u4911
  9534  1317  2B1B               	goto	u4910
  9535  1318                     u4911:
  9536  1318  120A  118A  299C   	goto	l3014
  9537  131B                     u4910:
  9538  131B                     l3010:
  9539  131B  3025               	movlw	low (((conversion_newton@R_tab+36)-__stringbase)| (0+32768))
  9540  131C  0084               	movwf	4
  9541  131D  160A  118A  2000  160A  118A  	fcall	stringdir
  9542  1322  1683               	bsf	3,5	;RP0=1, select bank1
  9543  1323  1303               	bcf	3,6	;RP1=0, select bank1
  9544  1324  00A4               	movwf	??_conversion_newton^(0+128)
  9545  1325  160A  118A  2000  160A  118A  	fcall	stringdir
  9546  132A  00A5               	movwf	(??_conversion_newton^(0+128)+1)
  9547  132B  160A  118A  2000  160A  118A  	fcall	stringdir
  9548  1330  00A6               	movwf	(??_conversion_newton^(0+128)+2)
  9549  1331  160A  118A  2000  160A  118A  	fcall	stringdir
  9550  1336  00A7               	movwf	(??_conversion_newton^(0+128)+3)
  9551  1337  0827               	movf	(??_conversion_newton+3)^(0+128),w
  9552  1338  00F6               	movwf	___flge@ff1+3
  9553  1339  0826               	movf	(??_conversion_newton+2)^(0+128),w
  9554  133A  00F5               	movwf	___flge@ff1+2
  9555  133B  0825               	movf	(??_conversion_newton+1)^(0+128),w
  9556  133C  00F4               	movwf	___flge@ff1+1
  9557  133D  0824               	movf	??_conversion_newton^(0+128),w
  9558  133E  00F3               	movwf	___flge@ff1
  9559  133F  0823               	movf	(conversion_newton@Rc+3)^(0+128),w
  9560  1340  00FA               	movwf	___flge@ff2+3
  9561  1341  0822               	movf	(conversion_newton@Rc+2)^(0+128),w
  9562  1342  00F9               	movwf	___flge@ff2+2
  9563  1343  0821               	movf	(conversion_newton@Rc+1)^(0+128),w
  9564  1344  00F8               	movwf	___flge@ff2+1
  9565  1345  0820               	movf	conversion_newton@Rc^(0+128),w
  9566  1346  00F7               	movwf	___flge@ff2
  9567  1347  160A  158A  25A7  160A  118A  	fcall	___flge
  9568  134C  1803               	btfsc	3,0
  9569  134D  2B4F               	goto	u4921
  9570  134E  2B50               	goto	u4920
  9571  134F                     u4921:
  9572  134F  2B18               	goto	u4911
  9573  1350                     u4920:
  9574  1350                     l3012:
  9575                           
  9576                           ;main.c: 240:          {;main.c: 241:          n = 9;
  9577  1350  3009               	movlw	9
  9578  1351  1683               	bsf	3,5	;RP0=1, select bank1
  9579  1352  1303               	bcf	3,6	;RP1=0, select bank1
  9580  1353  00C5               	movwf	conversion_newton@n^(0+128)
  9581  1354  3000               	movlw	0
  9582  1355  00C6               	movwf	(conversion_newton@n^(0+128)+1)
  9583                           
  9584                           ;main.c: 242:          }
  9585  1356  2AE1               	goto	L3
  9586                           
  9587                           	psect	text15_split_3
  9588  019C                     l3014:
  9589  019C  302D               	movlw	low (((conversion_newton@R_tab+44)-__stringbase)| (0+32768))
  9590  019D  0084               	movwf	4
  9591  019E  160A  118A  2000  120A  118A  	fcall	stringdir
  9592  01A3  1683               	bsf	3,5	;RP0=1, select bank1
  9593  01A4  1303               	bcf	3,6	;RP1=0, select bank1
  9594  01A5  00A4               	movwf	??_conversion_newton^(0+128)
  9595  01A6  160A  118A  2000  120A  118A  	fcall	stringdir
  9596  01AB  00A5               	movwf	(??_conversion_newton^(0+128)+1)
  9597  01AC  160A  118A  2000  120A  118A  	fcall	stringdir
  9598  01B1  00A6               	movwf	(??_conversion_newton^(0+128)+2)
  9599  01B2  160A  118A  2000  120A  118A  	fcall	stringdir
  9600  01B7  00A7               	movwf	(??_conversion_newton^(0+128)+3)
  9601  01B8  0827               	movf	(??_conversion_newton+3)^(0+128),w
  9602  01B9  00F6               	movwf	___flge@ff1+3
  9603  01BA  0826               	movf	(??_conversion_newton+2)^(0+128),w
  9604  01BB  00F5               	movwf	___flge@ff1+2
  9605  01BC  0825               	movf	(??_conversion_newton+1)^(0+128),w
  9606  01BD  00F4               	movwf	___flge@ff1+1
  9607  01BE  0824               	movf	??_conversion_newton^(0+128),w
  9608  01BF  00F3               	movwf	___flge@ff1
  9609  01C0  0823               	movf	(conversion_newton@Rc+3)^(0+128),w
  9610  01C1  00FA               	movwf	___flge@ff2+3
  9611  01C2  0822               	movf	(conversion_newton@Rc+2)^(0+128),w
  9612  01C3  00F9               	movwf	___flge@ff2+2
  9613  01C4  0821               	movf	(conversion_newton@Rc+1)^(0+128),w
  9614  01C5  00F8               	movwf	___flge@ff2+1
  9615  01C6  0820               	movf	conversion_newton@Rc^(0+128),w
  9616  01C7  00F7               	movwf	___flge@ff2
  9617  01C8  160A  158A  25A7  120A  118A  	fcall	___flge
  9618  01CD  1C03               	btfss	3,0
  9619  01CE  29D0               	goto	u4931
  9620  01CF  29D1               	goto	u4930
  9621  01D0                     u4931:
  9622  01D0  2A0D               	goto	l3020
  9623  01D1                     u4930:
  9624  01D1                     l3016:
  9625  01D1  3029               	movlw	low (((conversion_newton@R_tab+40)-__stringbase)| (0+32768))
  9626  01D2  0084               	movwf	4
  9627  01D3  160A  118A  2000  120A  118A  	fcall	stringdir
  9628  01D8  1683               	bsf	3,5	;RP0=1, select bank1
  9629  01D9  1303               	bcf	3,6	;RP1=0, select bank1
  9630  01DA  00A4               	movwf	??_conversion_newton^(0+128)
  9631  01DB  160A  118A  2000  120A  118A  	fcall	stringdir
  9632  01E0  00A5               	movwf	(??_conversion_newton^(0+128)+1)
  9633  01E1  160A  118A  2000  120A  118A  	fcall	stringdir
  9634  01E6  00A6               	movwf	(??_conversion_newton^(0+128)+2)
  9635  01E7  160A  118A  2000  120A  118A  	fcall	stringdir
  9636  01EC  00A7               	movwf	(??_conversion_newton^(0+128)+3)
  9637  01ED  0827               	movf	(??_conversion_newton+3)^(0+128),w
  9638  01EE  00F6               	movwf	___flge@ff1+3
  9639  01EF  0826               	movf	(??_conversion_newton+2)^(0+128),w
  9640  01F0  00F5               	movwf	___flge@ff1+2
  9641  01F1  0825               	movf	(??_conversion_newton+1)^(0+128),w
  9642  01F2  00F4               	movwf	___flge@ff1+1
  9643  01F3  0824               	movf	??_conversion_newton^(0+128),w
  9644  01F4  00F3               	movwf	___flge@ff1
  9645  01F5  0823               	movf	(conversion_newton@Rc+3)^(0+128),w
  9646  01F6  00FA               	movwf	___flge@ff2+3
  9647  01F7  0822               	movf	(conversion_newton@Rc+2)^(0+128),w
  9648  01F8  00F9               	movwf	___flge@ff2+2
  9649  01F9  0821               	movf	(conversion_newton@Rc+1)^(0+128),w
  9650  01FA  00F8               	movwf	___flge@ff2+1
  9651  01FB  0820               	movf	conversion_newton@Rc^(0+128),w
  9652  01FC  00F7               	movwf	___flge@ff2
  9653  01FD  160A  158A  25A7  120A  118A  	fcall	___flge
  9654  0202  1803               	btfsc	3,0
  9655  0203  2A05               	goto	u4941
  9656  0204  2A06               	goto	u4940
  9657  0205                     u4941:
  9658  0205  2A0D               	goto	l3020
  9659  0206                     u4940:
  9660  0206                     l3018:
  9661                           
  9662                           ;main.c: 244:          {;main.c: 245:          n = 10;
  9663  0206  300A               	movlw	10
  9664  0207  1683               	bsf	3,5	;RP0=1, select bank1
  9665  0208  1303               	bcf	3,6	;RP1=0, select bank1
  9666  0209  00C5               	movwf	conversion_newton@n^(0+128)
  9667  020A  3000               	movlw	0
  9668  020B  00C6               	movwf	(conversion_newton@n^(0+128)+1)
  9669                           
  9670                           ;main.c: 246:          }
  9671  020C  2D9B               	goto	l3070
  9672  020D                     l3020:
  9673  020D  3031               	movlw	low (((conversion_newton@R_tab+48)-__stringbase)| (0+32768))
  9674  020E  0084               	movwf	4
  9675  020F  160A  118A  2000  120A  118A  	fcall	stringdir
  9676  0214  1683               	bsf	3,5	;RP0=1, select bank1
  9677  0215  1303               	bcf	3,6	;RP1=0, select bank1
  9678  0216  00A4               	movwf	??_conversion_newton^(0+128)
  9679  0217  160A  118A  2000  120A  118A  	fcall	stringdir
  9680  021C  00A5               	movwf	(??_conversion_newton^(0+128)+1)
  9681  021D  160A  118A  2000  120A  118A  	fcall	stringdir
  9682  0222  00A6               	movwf	(??_conversion_newton^(0+128)+2)
  9683  0223  160A  118A  2000  120A  118A  	fcall	stringdir
  9684  0228  00A7               	movwf	(??_conversion_newton^(0+128)+3)
  9685  0229  0827               	movf	(??_conversion_newton+3)^(0+128),w
  9686  022A  00F6               	movwf	___flge@ff1+3
  9687  022B  0826               	movf	(??_conversion_newton+2)^(0+128),w
  9688  022C  00F5               	movwf	___flge@ff1+2
  9689  022D  0825               	movf	(??_conversion_newton+1)^(0+128),w
  9690  022E  00F4               	movwf	___flge@ff1+1
  9691  022F  0824               	movf	??_conversion_newton^(0+128),w
  9692  0230  00F3               	movwf	___flge@ff1
  9693  0231  0823               	movf	(conversion_newton@Rc+3)^(0+128),w
  9694  0232  00FA               	movwf	___flge@ff2+3
  9695  0233  0822               	movf	(conversion_newton@Rc+2)^(0+128),w
  9696  0234  00F9               	movwf	___flge@ff2+2
  9697  0235  0821               	movf	(conversion_newton@Rc+1)^(0+128),w
  9698  0236  00F8               	movwf	___flge@ff2+1
  9699  0237  0820               	movf	conversion_newton@Rc^(0+128),w
  9700  0238  00F7               	movwf	___flge@ff2
  9701  0239  160A  158A  25A7  120A  118A  	fcall	___flge
  9702  023E  1C03               	btfss	3,0
  9703  023F  2A41               	goto	u4951
  9704  0240  2A42               	goto	u4950
  9705  0241                     u4951:
  9706  0241  2A7E               	goto	l3026
  9707  0242                     u4950:
  9708  0242                     l3022:
  9709  0242  302D               	movlw	low (((conversion_newton@R_tab+44)-__stringbase)| (0+32768))
  9710  0243  0084               	movwf	4
  9711  0244  160A  118A  2000  120A  118A  	fcall	stringdir
  9712  0249  1683               	bsf	3,5	;RP0=1, select bank1
  9713  024A  1303               	bcf	3,6	;RP1=0, select bank1
  9714  024B  00A4               	movwf	??_conversion_newton^(0+128)
  9715  024C  160A  118A  2000  120A  118A  	fcall	stringdir
  9716  0251  00A5               	movwf	(??_conversion_newton^(0+128)+1)
  9717  0252  160A  118A  2000  120A  118A  	fcall	stringdir
  9718  0257  00A6               	movwf	(??_conversion_newton^(0+128)+2)
  9719  0258  160A  118A  2000  120A  118A  	fcall	stringdir
  9720  025D  00A7               	movwf	(??_conversion_newton^(0+128)+3)
  9721  025E  0827               	movf	(??_conversion_newton+3)^(0+128),w
  9722  025F  00F6               	movwf	___flge@ff1+3
  9723  0260  0826               	movf	(??_conversion_newton+2)^(0+128),w
  9724  0261  00F5               	movwf	___flge@ff1+2
  9725  0262  0825               	movf	(??_conversion_newton+1)^(0+128),w
  9726  0263  00F4               	movwf	___flge@ff1+1
  9727  0264  0824               	movf	??_conversion_newton^(0+128),w
  9728  0265  00F3               	movwf	___flge@ff1
  9729  0266  0823               	movf	(conversion_newton@Rc+3)^(0+128),w
  9730  0267  00FA               	movwf	___flge@ff2+3
  9731  0268  0822               	movf	(conversion_newton@Rc+2)^(0+128),w
  9732  0269  00F9               	movwf	___flge@ff2+2
  9733  026A  0821               	movf	(conversion_newton@Rc+1)^(0+128),w
  9734  026B  00F8               	movwf	___flge@ff2+1
  9735  026C  0820               	movf	conversion_newton@Rc^(0+128),w
  9736  026D  00F7               	movwf	___flge@ff2
  9737  026E  160A  158A  25A7  120A  118A  	fcall	___flge
  9738  0273  1803               	btfsc	3,0
  9739  0274  2A76               	goto	u4961
  9740  0275  2A77               	goto	u4960
  9741  0276                     u4961:
  9742  0276  2A7E               	goto	l3026
  9743  0277                     u4960:
  9744  0277                     l3024:
  9745                           
  9746                           ;main.c: 248:      {;main.c: 249:          n = 11;
  9747  0277  300B               	movlw	11
  9748  0278  1683               	bsf	3,5	;RP0=1, select bank1
  9749  0279  1303               	bcf	3,6	;RP1=0, select bank1
  9750  027A  00C5               	movwf	conversion_newton@n^(0+128)
  9751  027B  3000               	movlw	0
  9752  027C  00C6               	movwf	(conversion_newton@n^(0+128)+1)
  9753                           
  9754                           ;main.c: 250:      }
  9755  027D  2D9B               	goto	l3070
  9756  027E                     l3026:
  9757  027E  3035               	movlw	low (((conversion_newton@R_tab+52)-__stringbase)| (0+32768))
  9758  027F  0084               	movwf	4
  9759  0280  160A  118A  2000  120A  118A  	fcall	stringdir
  9760  0285  1683               	bsf	3,5	;RP0=1, select bank1
  9761  0286  1303               	bcf	3,6	;RP1=0, select bank1
  9762  0287  00A4               	movwf	??_conversion_newton^(0+128)
  9763  0288  160A  118A  2000  120A  118A  	fcall	stringdir
  9764  028D  00A5               	movwf	(??_conversion_newton^(0+128)+1)
  9765  028E  160A  118A  2000  120A  118A  	fcall	stringdir
  9766  0293  00A6               	movwf	(??_conversion_newton^(0+128)+2)
  9767  0294  160A  118A  2000  120A  118A  	fcall	stringdir
  9768  0299  00A7               	movwf	(??_conversion_newton^(0+128)+3)
  9769  029A  0827               	movf	(??_conversion_newton+3)^(0+128),w
  9770  029B  00F6               	movwf	___flge@ff1+3
  9771  029C  0826               	movf	(??_conversion_newton+2)^(0+128),w
  9772  029D  00F5               	movwf	___flge@ff1+2
  9773  029E  0825               	movf	(??_conversion_newton+1)^(0+128),w
  9774  029F  00F4               	movwf	___flge@ff1+1
  9775  02A0  0824               	movf	??_conversion_newton^(0+128),w
  9776  02A1  00F3               	movwf	___flge@ff1
  9777  02A2  0823               	movf	(conversion_newton@Rc+3)^(0+128),w
  9778  02A3  00FA               	movwf	___flge@ff2+3
  9779  02A4  0822               	movf	(conversion_newton@Rc+2)^(0+128),w
  9780  02A5  00F9               	movwf	___flge@ff2+2
  9781  02A6  0821               	movf	(conversion_newton@Rc+1)^(0+128),w
  9782  02A7  00F8               	movwf	___flge@ff2+1
  9783  02A8  0820               	movf	conversion_newton@Rc^(0+128),w
  9784  02A9  00F7               	movwf	___flge@ff2
  9785  02AA  160A  158A  25A7  120A  118A  	fcall	___flge
  9786  02AF  1C03               	btfss	3,0
  9787  02B0  2AB2               	goto	u4971
  9788  02B1  2AB3               	goto	u4970
  9789  02B2                     u4971:
  9790  02B2  2AEF               	goto	l3032
  9791  02B3                     u4970:
  9792  02B3                     l3028:
  9793  02B3  3031               	movlw	low (((conversion_newton@R_tab+48)-__stringbase)| (0+32768))
  9794  02B4  0084               	movwf	4
  9795  02B5  160A  118A  2000  120A  118A  	fcall	stringdir
  9796  02BA  1683               	bsf	3,5	;RP0=1, select bank1
  9797  02BB  1303               	bcf	3,6	;RP1=0, select bank1
  9798  02BC  00A4               	movwf	??_conversion_newton^(0+128)
  9799  02BD  160A  118A  2000  120A  118A  	fcall	stringdir
  9800  02C2  00A5               	movwf	(??_conversion_newton^(0+128)+1)
  9801  02C3  160A  118A  2000  120A  118A  	fcall	stringdir
  9802  02C8  00A6               	movwf	(??_conversion_newton^(0+128)+2)
  9803  02C9  160A  118A  2000  120A  118A  	fcall	stringdir
  9804  02CE  00A7               	movwf	(??_conversion_newton^(0+128)+3)
  9805  02CF  0827               	movf	(??_conversion_newton+3)^(0+128),w
  9806  02D0  00F6               	movwf	___flge@ff1+3
  9807  02D1  0826               	movf	(??_conversion_newton+2)^(0+128),w
  9808  02D2  00F5               	movwf	___flge@ff1+2
  9809  02D3  0825               	movf	(??_conversion_newton+1)^(0+128),w
  9810  02D4  00F4               	movwf	___flge@ff1+1
  9811  02D5  0824               	movf	??_conversion_newton^(0+128),w
  9812  02D6  00F3               	movwf	___flge@ff1
  9813  02D7  0823               	movf	(conversion_newton@Rc+3)^(0+128),w
  9814  02D8  00FA               	movwf	___flge@ff2+3
  9815  02D9  0822               	movf	(conversion_newton@Rc+2)^(0+128),w
  9816  02DA  00F9               	movwf	___flge@ff2+2
  9817  02DB  0821               	movf	(conversion_newton@Rc+1)^(0+128),w
  9818  02DC  00F8               	movwf	___flge@ff2+1
  9819  02DD  0820               	movf	conversion_newton@Rc^(0+128),w
  9820  02DE  00F7               	movwf	___flge@ff2
  9821  02DF  160A  158A  25A7  120A  118A  	fcall	___flge
  9822  02E4  1803               	btfsc	3,0
  9823  02E5  2AE7               	goto	u4981
  9824  02E6  2AE8               	goto	u4980
  9825  02E7                     u4981:
  9826  02E7  2AEF               	goto	l3032
  9827  02E8                     u4980:
  9828  02E8                     l3030:
  9829                           
  9830                           ;main.c: 253:      {;main.c: 254:          n = 12;
  9831  02E8  300C               	movlw	12
  9832  02E9  1683               	bsf	3,5	;RP0=1, select bank1
  9833  02EA  1303               	bcf	3,6	;RP1=0, select bank1
  9834  02EB  00C5               	movwf	conversion_newton@n^(0+128)
  9835  02EC  3000               	movlw	0
  9836  02ED  00C6               	movwf	(conversion_newton@n^(0+128)+1)
  9837                           
  9838                           ;main.c: 255:      }
  9839  02EE  2D9B               	goto	l3070
  9840  02EF                     l3032:
  9841  02EF  3039               	movlw	low (((conversion_newton@R_tab+56)-__stringbase)| (0+32768))
  9842  02F0  0084               	movwf	4
  9843  02F1  160A  118A  2000  120A  118A  	fcall	stringdir
  9844  02F6  1683               	bsf	3,5	;RP0=1, select bank1
  9845  02F7  1303               	bcf	3,6	;RP1=0, select bank1
  9846  02F8  00A4               	movwf	??_conversion_newton^(0+128)
  9847  02F9  160A  118A  2000  120A  118A  	fcall	stringdir
  9848  02FE  00A5               	movwf	(??_conversion_newton^(0+128)+1)
  9849  02FF  160A  118A  2000  120A  118A  	fcall	stringdir
  9850  0304  00A6               	movwf	(??_conversion_newton^(0+128)+2)
  9851  0305  160A  118A  2000  120A  118A  	fcall	stringdir
  9852  030A  00A7               	movwf	(??_conversion_newton^(0+128)+3)
  9853  030B  0827               	movf	(??_conversion_newton+3)^(0+128),w
  9854  030C  00F6               	movwf	___flge@ff1+3
  9855  030D  0826               	movf	(??_conversion_newton+2)^(0+128),w
  9856  030E  00F5               	movwf	___flge@ff1+2
  9857  030F  0825               	movf	(??_conversion_newton+1)^(0+128),w
  9858  0310  00F4               	movwf	___flge@ff1+1
  9859  0311  0824               	movf	??_conversion_newton^(0+128),w
  9860  0312  00F3               	movwf	___flge@ff1
  9861  0313  0823               	movf	(conversion_newton@Rc+3)^(0+128),w
  9862  0314  00FA               	movwf	___flge@ff2+3
  9863  0315  0822               	movf	(conversion_newton@Rc+2)^(0+128),w
  9864  0316  00F9               	movwf	___flge@ff2+2
  9865  0317  0821               	movf	(conversion_newton@Rc+1)^(0+128),w
  9866  0318  00F8               	movwf	___flge@ff2+1
  9867  0319  0820               	movf	conversion_newton@Rc^(0+128),w
  9868  031A  00F7               	movwf	___flge@ff2
  9869  031B  160A  158A  25A7  120A  118A  	fcall	___flge
  9870  0320  1C03               	btfss	3,0
  9871  0321  2B23               	goto	u4991
  9872  0322  2B24               	goto	u4990
  9873  0323                     u4991:
  9874  0323  2B60               	goto	l3038
  9875  0324                     u4990:
  9876  0324                     l3034:
  9877  0324  3035               	movlw	low (((conversion_newton@R_tab+52)-__stringbase)| (0+32768))
  9878  0325  0084               	movwf	4
  9879  0326  160A  118A  2000  120A  118A  	fcall	stringdir
  9880  032B  1683               	bsf	3,5	;RP0=1, select bank1
  9881  032C  1303               	bcf	3,6	;RP1=0, select bank1
  9882  032D  00A4               	movwf	??_conversion_newton^(0+128)
  9883  032E  160A  118A  2000  120A  118A  	fcall	stringdir
  9884  0333  00A5               	movwf	(??_conversion_newton^(0+128)+1)
  9885  0334  160A  118A  2000  120A  118A  	fcall	stringdir
  9886  0339  00A6               	movwf	(??_conversion_newton^(0+128)+2)
  9887  033A  160A  118A  2000  120A  118A  	fcall	stringdir
  9888  033F  00A7               	movwf	(??_conversion_newton^(0+128)+3)
  9889  0340  0827               	movf	(??_conversion_newton+3)^(0+128),w
  9890  0341  00F6               	movwf	___flge@ff1+3
  9891  0342  0826               	movf	(??_conversion_newton+2)^(0+128),w
  9892  0343  00F5               	movwf	___flge@ff1+2
  9893  0344  0825               	movf	(??_conversion_newton+1)^(0+128),w
  9894  0345  00F4               	movwf	___flge@ff1+1
  9895  0346  0824               	movf	??_conversion_newton^(0+128),w
  9896  0347  00F3               	movwf	___flge@ff1
  9897  0348  0823               	movf	(conversion_newton@Rc+3)^(0+128),w
  9898  0349  00FA               	movwf	___flge@ff2+3
  9899  034A  0822               	movf	(conversion_newton@Rc+2)^(0+128),w
  9900  034B  00F9               	movwf	___flge@ff2+2
  9901  034C  0821               	movf	(conversion_newton@Rc+1)^(0+128),w
  9902  034D  00F8               	movwf	___flge@ff2+1
  9903  034E  0820               	movf	conversion_newton@Rc^(0+128),w
  9904  034F  00F7               	movwf	___flge@ff2
  9905  0350  160A  158A  25A7  120A  118A  	fcall	___flge
  9906  0355  1803               	btfsc	3,0
  9907  0356  2B58               	goto	u5001
  9908  0357  2B59               	goto	u5000
  9909  0358                     u5001:
  9910  0358  2B60               	goto	l3038
  9911  0359                     u5000:
  9912  0359                     l3036:
  9913                           
  9914                           ;main.c: 257:      {;main.c: 258:          n= 13;
  9915  0359  300D               	movlw	13
  9916  035A  1683               	bsf	3,5	;RP0=1, select bank1
  9917  035B  1303               	bcf	3,6	;RP1=0, select bank1
  9918  035C  00C5               	movwf	conversion_newton@n^(0+128)
  9919  035D  3000               	movlw	0
  9920  035E  00C6               	movwf	(conversion_newton@n^(0+128)+1)
  9921                           
  9922                           ;main.c: 259:      }
  9923  035F  2D9B               	goto	l3070
  9924  0360                     l3038:
  9925  0360  303D               	movlw	low (((conversion_newton@R_tab+60)-__stringbase)| (0+32768))
  9926  0361  0084               	movwf	4
  9927  0362  160A  118A  2000  120A  118A  	fcall	stringdir
  9928  0367  1683               	bsf	3,5	;RP0=1, select bank1
  9929  0368  1303               	bcf	3,6	;RP1=0, select bank1
  9930  0369  00A4               	movwf	??_conversion_newton^(0+128)
  9931  036A  160A  118A  2000  120A  118A  	fcall	stringdir
  9932  036F  00A5               	movwf	(??_conversion_newton^(0+128)+1)
  9933  0370  160A  118A  2000  120A  118A  	fcall	stringdir
  9934  0375  00A6               	movwf	(??_conversion_newton^(0+128)+2)
  9935  0376  160A  118A  2000  120A  118A  	fcall	stringdir
  9936  037B  00A7               	movwf	(??_conversion_newton^(0+128)+3)
  9937  037C  0827               	movf	(??_conversion_newton+3)^(0+128),w
  9938  037D  00F6               	movwf	___flge@ff1+3
  9939  037E  0826               	movf	(??_conversion_newton+2)^(0+128),w
  9940  037F  00F5               	movwf	___flge@ff1+2
  9941  0380  0825               	movf	(??_conversion_newton+1)^(0+128),w
  9942  0381  00F4               	movwf	___flge@ff1+1
  9943  0382  0824               	movf	??_conversion_newton^(0+128),w
  9944  0383  00F3               	movwf	___flge@ff1
  9945  0384  0823               	movf	(conversion_newton@Rc+3)^(0+128),w
  9946  0385  00FA               	movwf	___flge@ff2+3
  9947  0386  0822               	movf	(conversion_newton@Rc+2)^(0+128),w
  9948  0387  00F9               	movwf	___flge@ff2+2
  9949  0388  0821               	movf	(conversion_newton@Rc+1)^(0+128),w
  9950  0389  00F8               	movwf	___flge@ff2+1
  9951  038A  0820               	movf	conversion_newton@Rc^(0+128),w
  9952  038B  00F7               	movwf	___flge@ff2
  9953  038C  160A  158A  25A7  120A  118A  	fcall	___flge
  9954  0391  1C03               	btfss	3,0
  9955  0392  2B94               	goto	u5011
  9956  0393  2B95               	goto	u5010
  9957  0394                     u5011:
  9958  0394  2BD1               	goto	l3044
  9959  0395                     u5010:
  9960  0395                     l3040:
  9961  0395  3039               	movlw	low (((conversion_newton@R_tab+56)-__stringbase)| (0+32768))
  9962  0396  0084               	movwf	4
  9963  0397  160A  118A  2000  120A  118A  	fcall	stringdir
  9964  039C  1683               	bsf	3,5	;RP0=1, select bank1
  9965  039D  1303               	bcf	3,6	;RP1=0, select bank1
  9966  039E  00A4               	movwf	??_conversion_newton^(0+128)
  9967  039F  160A  118A  2000  120A  118A  	fcall	stringdir
  9968  03A4  00A5               	movwf	(??_conversion_newton^(0+128)+1)
  9969  03A5  160A  118A  2000  120A  118A  	fcall	stringdir
  9970  03AA  00A6               	movwf	(??_conversion_newton^(0+128)+2)
  9971  03AB  160A  118A  2000  120A  118A  	fcall	stringdir
  9972  03B0  00A7               	movwf	(??_conversion_newton^(0+128)+3)
  9973  03B1  0827               	movf	(??_conversion_newton+3)^(0+128),w
  9974  03B2  00F6               	movwf	___flge@ff1+3
  9975  03B3  0826               	movf	(??_conversion_newton+2)^(0+128),w
  9976  03B4  00F5               	movwf	___flge@ff1+2
  9977  03B5  0825               	movf	(??_conversion_newton+1)^(0+128),w
  9978  03B6  00F4               	movwf	___flge@ff1+1
  9979  03B7  0824               	movf	??_conversion_newton^(0+128),w
  9980  03B8  00F3               	movwf	___flge@ff1
  9981  03B9  0823               	movf	(conversion_newton@Rc+3)^(0+128),w
  9982  03BA  00FA               	movwf	___flge@ff2+3
  9983  03BB  0822               	movf	(conversion_newton@Rc+2)^(0+128),w
  9984  03BC  00F9               	movwf	___flge@ff2+2
  9985  03BD  0821               	movf	(conversion_newton@Rc+1)^(0+128),w
  9986  03BE  00F8               	movwf	___flge@ff2+1
  9987  03BF  0820               	movf	conversion_newton@Rc^(0+128),w
  9988  03C0  00F7               	movwf	___flge@ff2
  9989  03C1  160A  158A  25A7  120A  118A  	fcall	___flge
  9990  03C6  1803               	btfsc	3,0
  9991  03C7  2BC9               	goto	u5021
  9992  03C8  2BCA               	goto	u5020
  9993  03C9                     u5021:
  9994  03C9  2BD1               	goto	l3044
  9995  03CA                     u5020:
  9996  03CA                     l3042:
  9997                           
  9998                           ;main.c: 261:      {;main.c: 262:          n= 14;
  9999  03CA  300E               	movlw	14
 10000  03CB  1683               	bsf	3,5	;RP0=1, select bank1
 10001  03CC  1303               	bcf	3,6	;RP1=0, select bank1
 10002  03CD  00C5               	movwf	conversion_newton@n^(0+128)
 10003  03CE  3000               	movlw	0
 10004  03CF  00C6               	movwf	(conversion_newton@n^(0+128)+1)
 10005                           
 10006                           ;main.c: 263:      }
 10007  03D0  2D9B               	goto	l3070
 10008  03D1                     l3044:
 10009  03D1  3041               	movlw	low (((conversion_newton@R_tab+64)-__stringbase)| (0+32768))
 10010  03D2  0084               	movwf	4
 10011  03D3  160A  118A  2000  120A  118A  	fcall	stringdir
 10012  03D8  1683               	bsf	3,5	;RP0=1, select bank1
 10013  03D9  1303               	bcf	3,6	;RP1=0, select bank1
 10014  03DA  00A4               	movwf	??_conversion_newton^(0+128)
 10015  03DB  160A  118A  2000  120A  118A  	fcall	stringdir
 10016  03E0  00A5               	movwf	(??_conversion_newton^(0+128)+1)
 10017  03E1  160A  118A  2000  120A  118A  	fcall	stringdir
 10018  03E6  00A6               	movwf	(??_conversion_newton^(0+128)+2)
 10019  03E7  160A  118A  2000  120A  118A  	fcall	stringdir
 10020  03EC  00A7               	movwf	(??_conversion_newton^(0+128)+3)
 10021  03ED  0827               	movf	(??_conversion_newton+3)^(0+128),w
 10022  03EE  00F6               	movwf	___flge@ff1+3
 10023  03EF  0826               	movf	(??_conversion_newton+2)^(0+128),w
 10024  03F0  00F5               	movwf	___flge@ff1+2
 10025  03F1  0825               	movf	(??_conversion_newton+1)^(0+128),w
 10026  03F2  00F4               	movwf	___flge@ff1+1
 10027  03F3  0824               	movf	??_conversion_newton^(0+128),w
 10028  03F4  00F3               	movwf	___flge@ff1
 10029  03F5  0823               	movf	(conversion_newton@Rc+3)^(0+128),w
 10030  03F6  00FA               	movwf	___flge@ff2+3
 10031  03F7  0822               	movf	(conversion_newton@Rc+2)^(0+128),w
 10032  03F8  00F9               	movwf	___flge@ff2+2
 10033  03F9  0821               	movf	(conversion_newton@Rc+1)^(0+128),w
 10034  03FA  00F8               	movwf	___flge@ff2+1
 10035  03FB  0820               	movf	conversion_newton@Rc^(0+128),w
 10036  03FC  00F7               	movwf	___flge@ff2
 10037  03FD  160A  158A  25A7  120A  118A  	fcall	___flge
 10038  0402  1C03               	btfss	3,0
 10039  0403  2C05               	goto	u5031
 10040  0404  2C06               	goto	u5030
 10041  0405                     u5031:
 10042  0405  2C42               	goto	l3050
 10043  0406                     u5030:
 10044  0406                     l3046:
 10045  0406  303D               	movlw	low (((conversion_newton@R_tab+60)-__stringbase)| (0+32768))
 10046  0407  0084               	movwf	4
 10047  0408  160A  118A  2000  120A  118A  	fcall	stringdir
 10048  040D  1683               	bsf	3,5	;RP0=1, select bank1
 10049  040E  1303               	bcf	3,6	;RP1=0, select bank1
 10050  040F  00A4               	movwf	??_conversion_newton^(0+128)
 10051  0410  160A  118A  2000  120A  118A  	fcall	stringdir
 10052  0415  00A5               	movwf	(??_conversion_newton^(0+128)+1)
 10053  0416  160A  118A  2000  120A  118A  	fcall	stringdir
 10054  041B  00A6               	movwf	(??_conversion_newton^(0+128)+2)
 10055  041C  160A  118A  2000  120A  118A  	fcall	stringdir
 10056  0421  00A7               	movwf	(??_conversion_newton^(0+128)+3)
 10057  0422  0827               	movf	(??_conversion_newton+3)^(0+128),w
 10058  0423  00F6               	movwf	___flge@ff1+3
 10059  0424  0826               	movf	(??_conversion_newton+2)^(0+128),w
 10060  0425  00F5               	movwf	___flge@ff1+2
 10061  0426  0825               	movf	(??_conversion_newton+1)^(0+128),w
 10062  0427  00F4               	movwf	___flge@ff1+1
 10063  0428  0824               	movf	??_conversion_newton^(0+128),w
 10064  0429  00F3               	movwf	___flge@ff1
 10065  042A  0823               	movf	(conversion_newton@Rc+3)^(0+128),w
 10066  042B  00FA               	movwf	___flge@ff2+3
 10067  042C  0822               	movf	(conversion_newton@Rc+2)^(0+128),w
 10068  042D  00F9               	movwf	___flge@ff2+2
 10069  042E  0821               	movf	(conversion_newton@Rc+1)^(0+128),w
 10070  042F  00F8               	movwf	___flge@ff2+1
 10071  0430  0820               	movf	conversion_newton@Rc^(0+128),w
 10072  0431  00F7               	movwf	___flge@ff2
 10073  0432  160A  158A  25A7  120A  118A  	fcall	___flge
 10074  0437  1803               	btfsc	3,0
 10075  0438  2C3A               	goto	u5041
 10076  0439  2C3B               	goto	u5040
 10077  043A                     u5041:
 10078  043A  2C42               	goto	l3050
 10079  043B                     u5040:
 10080  043B                     l3048:
 10081                           
 10082                           ;main.c: 265:      {;main.c: 266:          n= 15;
 10083  043B  300F               	movlw	15
 10084  043C  1683               	bsf	3,5	;RP0=1, select bank1
 10085  043D  1303               	bcf	3,6	;RP1=0, select bank1
 10086  043E  00C5               	movwf	conversion_newton@n^(0+128)
 10087  043F  3000               	movlw	0
 10088  0440  00C6               	movwf	(conversion_newton@n^(0+128)+1)
 10089                           
 10090                           ;main.c: 267:      }
 10091  0441  2D9B               	goto	l3070
 10092  0442                     l3050:
 10093  0442  3045               	movlw	low (((conversion_newton@R_tab+68)-__stringbase)| (0+32768))
 10094  0443  0084               	movwf	4
 10095  0444  160A  118A  2000  120A  118A  	fcall	stringdir
 10096  0449  1683               	bsf	3,5	;RP0=1, select bank1
 10097  044A  1303               	bcf	3,6	;RP1=0, select bank1
 10098  044B  00A4               	movwf	??_conversion_newton^(0+128)
 10099  044C  160A  118A  2000  120A  118A  	fcall	stringdir
 10100  0451  00A5               	movwf	(??_conversion_newton^(0+128)+1)
 10101  0452  160A  118A  2000  120A  118A  	fcall	stringdir
 10102  0457  00A6               	movwf	(??_conversion_newton^(0+128)+2)
 10103  0458  160A  118A  2000  120A  118A  	fcall	stringdir
 10104  045D  00A7               	movwf	(??_conversion_newton^(0+128)+3)
 10105  045E  0827               	movf	(??_conversion_newton+3)^(0+128),w
 10106  045F  00F6               	movwf	___flge@ff1+3
 10107  0460  0826               	movf	(??_conversion_newton+2)^(0+128),w
 10108  0461  00F5               	movwf	___flge@ff1+2
 10109  0462  0825               	movf	(??_conversion_newton+1)^(0+128),w
 10110  0463  00F4               	movwf	___flge@ff1+1
 10111  0464  0824               	movf	??_conversion_newton^(0+128),w
 10112  0465  00F3               	movwf	___flge@ff1
 10113  0466  0823               	movf	(conversion_newton@Rc+3)^(0+128),w
 10114  0467  00FA               	movwf	___flge@ff2+3
 10115  0468  0822               	movf	(conversion_newton@Rc+2)^(0+128),w
 10116  0469  00F9               	movwf	___flge@ff2+2
 10117  046A  0821               	movf	(conversion_newton@Rc+1)^(0+128),w
 10118  046B  00F8               	movwf	___flge@ff2+1
 10119  046C  0820               	movf	conversion_newton@Rc^(0+128),w
 10120  046D  00F7               	movwf	___flge@ff2
 10121  046E  160A  158A  25A7  120A  118A  	fcall	___flge
 10122  0473  1C03               	btfss	3,0
 10123  0474  2C76               	goto	u5051
 10124  0475  2C77               	goto	u5050
 10125  0476                     u5051:
 10126  0476  2CB3               	goto	l3056
 10127  0477                     u5050:
 10128  0477                     l3052:
 10129  0477  3041               	movlw	low (((conversion_newton@R_tab+64)-__stringbase)| (0+32768))
 10130  0478  0084               	movwf	4
 10131  0479  160A  118A  2000  120A  118A  	fcall	stringdir
 10132  047E  1683               	bsf	3,5	;RP0=1, select bank1
 10133  047F  1303               	bcf	3,6	;RP1=0, select bank1
 10134  0480  00A4               	movwf	??_conversion_newton^(0+128)
 10135  0481  160A  118A  2000  120A  118A  	fcall	stringdir
 10136  0486  00A5               	movwf	(??_conversion_newton^(0+128)+1)
 10137  0487  160A  118A  2000  120A  118A  	fcall	stringdir
 10138  048C  00A6               	movwf	(??_conversion_newton^(0+128)+2)
 10139  048D  160A  118A  2000  120A  118A  	fcall	stringdir
 10140  0492  00A7               	movwf	(??_conversion_newton^(0+128)+3)
 10141  0493  0827               	movf	(??_conversion_newton+3)^(0+128),w
 10142  0494  00F6               	movwf	___flge@ff1+3
 10143  0495  0826               	movf	(??_conversion_newton+2)^(0+128),w
 10144  0496  00F5               	movwf	___flge@ff1+2
 10145  0497  0825               	movf	(??_conversion_newton+1)^(0+128),w
 10146  0498  00F4               	movwf	___flge@ff1+1
 10147  0499  0824               	movf	??_conversion_newton^(0+128),w
 10148  049A  00F3               	movwf	___flge@ff1
 10149  049B  0823               	movf	(conversion_newton@Rc+3)^(0+128),w
 10150  049C  00FA               	movwf	___flge@ff2+3
 10151  049D  0822               	movf	(conversion_newton@Rc+2)^(0+128),w
 10152  049E  00F9               	movwf	___flge@ff2+2
 10153  049F  0821               	movf	(conversion_newton@Rc+1)^(0+128),w
 10154  04A0  00F8               	movwf	___flge@ff2+1
 10155  04A1  0820               	movf	conversion_newton@Rc^(0+128),w
 10156  04A2  00F7               	movwf	___flge@ff2
 10157  04A3  160A  158A  25A7  120A  118A  	fcall	___flge
 10158  04A8  1803               	btfsc	3,0
 10159  04A9  2CAB               	goto	u5061
 10160  04AA  2CAC               	goto	u5060
 10161  04AB                     u5061:
 10162  04AB  2CB3               	goto	l3056
 10163  04AC                     u5060:
 10164  04AC                     l3054:
 10165                           
 10166                           ;main.c: 269:      {;main.c: 270:          n= 16;
 10167  04AC  3010               	movlw	16
 10168  04AD  1683               	bsf	3,5	;RP0=1, select bank1
 10169  04AE  1303               	bcf	3,6	;RP1=0, select bank1
 10170  04AF  00C5               	movwf	conversion_newton@n^(0+128)
 10171  04B0  3000               	movlw	0
 10172  04B1  00C6               	movwf	(conversion_newton@n^(0+128)+1)
 10173                           
 10174                           ;main.c: 271:      }
 10175  04B2  2D9B               	goto	l3070
 10176  04B3                     l3056:
 10177  04B3  3049               	movlw	low (((conversion_newton@R_tab+72)-__stringbase)| (0+32768))
 10178  04B4  0084               	movwf	4
 10179  04B5  160A  118A  2000  120A  118A  	fcall	stringdir
 10180  04BA  1683               	bsf	3,5	;RP0=1, select bank1
 10181  04BB  1303               	bcf	3,6	;RP1=0, select bank1
 10182  04BC  00A4               	movwf	??_conversion_newton^(0+128)
 10183  04BD  160A  118A  2000  120A  118A  	fcall	stringdir
 10184  04C2  00A5               	movwf	(??_conversion_newton^(0+128)+1)
 10185  04C3  160A  118A  2000  120A  118A  	fcall	stringdir
 10186  04C8  00A6               	movwf	(??_conversion_newton^(0+128)+2)
 10187  04C9  160A  118A  2000  120A  118A  	fcall	stringdir
 10188  04CE  00A7               	movwf	(??_conversion_newton^(0+128)+3)
 10189  04CF  0827               	movf	(??_conversion_newton+3)^(0+128),w
 10190  04D0  00F6               	movwf	___flge@ff1+3
 10191  04D1  0826               	movf	(??_conversion_newton+2)^(0+128),w
 10192  04D2  00F5               	movwf	___flge@ff1+2
 10193  04D3  0825               	movf	(??_conversion_newton+1)^(0+128),w
 10194  04D4  00F4               	movwf	___flge@ff1+1
 10195  04D5  0824               	movf	??_conversion_newton^(0+128),w
 10196  04D6  00F3               	movwf	___flge@ff1
 10197  04D7  0823               	movf	(conversion_newton@Rc+3)^(0+128),w
 10198  04D8  00FA               	movwf	___flge@ff2+3
 10199  04D9  0822               	movf	(conversion_newton@Rc+2)^(0+128),w
 10200  04DA  00F9               	movwf	___flge@ff2+2
 10201  04DB  0821               	movf	(conversion_newton@Rc+1)^(0+128),w
 10202  04DC  00F8               	movwf	___flge@ff2+1
 10203  04DD  0820               	movf	conversion_newton@Rc^(0+128),w
 10204  04DE  00F7               	movwf	___flge@ff2
 10205  04DF  160A  158A  25A7  120A  118A  	fcall	___flge
 10206  04E4  1C03               	btfss	3,0
 10207  04E5  2CE7               	goto	u5071
 10208  04E6  2CE8               	goto	u5070
 10209  04E7                     u5071:
 10210  04E7  2D24               	goto	l3062
 10211  04E8                     u5070:
 10212  04E8                     l3058:
 10213  04E8  3045               	movlw	low (((conversion_newton@R_tab+68)-__stringbase)| (0+32768))
 10214  04E9  0084               	movwf	4
 10215  04EA  160A  118A  2000  120A  118A  	fcall	stringdir
 10216  04EF  1683               	bsf	3,5	;RP0=1, select bank1
 10217  04F0  1303               	bcf	3,6	;RP1=0, select bank1
 10218  04F1  00A4               	movwf	??_conversion_newton^(0+128)
 10219  04F2  160A  118A  2000  120A  118A  	fcall	stringdir
 10220  04F7  00A5               	movwf	(??_conversion_newton^(0+128)+1)
 10221  04F8  160A  118A  2000  120A  118A  	fcall	stringdir
 10222  04FD  00A6               	movwf	(??_conversion_newton^(0+128)+2)
 10223  04FE  160A  118A  2000  120A  118A  	fcall	stringdir
 10224  0503  00A7               	movwf	(??_conversion_newton^(0+128)+3)
 10225  0504  0827               	movf	(??_conversion_newton+3)^(0+128),w
 10226  0505  00F6               	movwf	___flge@ff1+3
 10227  0506  0826               	movf	(??_conversion_newton+2)^(0+128),w
 10228  0507  00F5               	movwf	___flge@ff1+2
 10229  0508  0825               	movf	(??_conversion_newton+1)^(0+128),w
 10230  0509  00F4               	movwf	___flge@ff1+1
 10231  050A  0824               	movf	??_conversion_newton^(0+128),w
 10232  050B  00F3               	movwf	___flge@ff1
 10233  050C  0823               	movf	(conversion_newton@Rc+3)^(0+128),w
 10234  050D  00FA               	movwf	___flge@ff2+3
 10235  050E  0822               	movf	(conversion_newton@Rc+2)^(0+128),w
 10236  050F  00F9               	movwf	___flge@ff2+2
 10237  0510  0821               	movf	(conversion_newton@Rc+1)^(0+128),w
 10238  0511  00F8               	movwf	___flge@ff2+1
 10239  0512  0820               	movf	conversion_newton@Rc^(0+128),w
 10240  0513  00F7               	movwf	___flge@ff2
 10241  0514  160A  158A  25A7  120A  118A  	fcall	___flge
 10242  0519  1803               	btfsc	3,0
 10243  051A  2D1C               	goto	u5081
 10244  051B  2D1D               	goto	u5080
 10245  051C                     u5081:
 10246  051C  2D24               	goto	l3062
 10247  051D                     u5080:
 10248  051D                     l3060:
 10249                           
 10250                           ;main.c: 273:      {;main.c: 274:          n= 17;
 10251  051D  3011               	movlw	17
 10252  051E  1683               	bsf	3,5	;RP0=1, select bank1
 10253  051F  1303               	bcf	3,6	;RP1=0, select bank1
 10254  0520  00C5               	movwf	conversion_newton@n^(0+128)
 10255  0521  3000               	movlw	0
 10256  0522  00C6               	movwf	(conversion_newton@n^(0+128)+1)
 10257                           
 10258                           ;main.c: 275:      }
 10259  0523  2D9B               	goto	l3070
 10260  0524                     l3062:
 10261  0524  304D               	movlw	low (((conversion_newton@R_tab+76)-__stringbase)| (0+32768))
 10262  0525  0084               	movwf	4
 10263  0526  160A  118A  2000  120A  118A  	fcall	stringdir
 10264  052B  1683               	bsf	3,5	;RP0=1, select bank1
 10265  052C  1303               	bcf	3,6	;RP1=0, select bank1
 10266  052D  00A4               	movwf	??_conversion_newton^(0+128)
 10267  052E  160A  118A  2000  120A  118A  	fcall	stringdir
 10268  0533  00A5               	movwf	(??_conversion_newton^(0+128)+1)
 10269  0534  160A  118A  2000  120A  118A  	fcall	stringdir
 10270  0539  00A6               	movwf	(??_conversion_newton^(0+128)+2)
 10271  053A  160A  118A  2000  120A  118A  	fcall	stringdir
 10272  053F  00A7               	movwf	(??_conversion_newton^(0+128)+3)
 10273  0540  0827               	movf	(??_conversion_newton+3)^(0+128),w
 10274  0541  00F6               	movwf	___flge@ff1+3
 10275  0542  0826               	movf	(??_conversion_newton+2)^(0+128),w
 10276  0543  00F5               	movwf	___flge@ff1+2
 10277  0544  0825               	movf	(??_conversion_newton+1)^(0+128),w
 10278  0545  00F4               	movwf	___flge@ff1+1
 10279  0546  0824               	movf	??_conversion_newton^(0+128),w
 10280  0547  00F3               	movwf	___flge@ff1
 10281  0548  0823               	movf	(conversion_newton@Rc+3)^(0+128),w
 10282  0549  00FA               	movwf	___flge@ff2+3
 10283  054A  0822               	movf	(conversion_newton@Rc+2)^(0+128),w
 10284  054B  00F9               	movwf	___flge@ff2+2
 10285  054C  0821               	movf	(conversion_newton@Rc+1)^(0+128),w
 10286  054D  00F8               	movwf	___flge@ff2+1
 10287  054E  0820               	movf	conversion_newton@Rc^(0+128),w
 10288  054F  00F7               	movwf	___flge@ff2
 10289  0550  160A  158A  25A7  120A  118A  	fcall	___flge
 10290  0555  1C03               	btfss	3,0
 10291  0556  2D58               	goto	u5091
 10292  0557  2D59               	goto	u5090
 10293  0558                     u5091:
 10294  0558  2D95               	goto	l3068
 10295  0559                     u5090:
 10296  0559                     l3064:
 10297  0559  3049               	movlw	low (((conversion_newton@R_tab+72)-__stringbase)| (0+32768))
 10298  055A  0084               	movwf	4
 10299  055B  160A  118A  2000  120A  118A  	fcall	stringdir
 10300  0560  1683               	bsf	3,5	;RP0=1, select bank1
 10301  0561  1303               	bcf	3,6	;RP1=0, select bank1
 10302  0562  00A4               	movwf	??_conversion_newton^(0+128)
 10303  0563  160A  118A  2000  120A  118A  	fcall	stringdir
 10304  0568  00A5               	movwf	(??_conversion_newton^(0+128)+1)
 10305  0569  160A  118A  2000  120A  118A  	fcall	stringdir
 10306  056E  00A6               	movwf	(??_conversion_newton^(0+128)+2)
 10307  056F  160A  118A  2000  120A  118A  	fcall	stringdir
 10308  0574  00A7               	movwf	(??_conversion_newton^(0+128)+3)
 10309  0575  0827               	movf	(??_conversion_newton+3)^(0+128),w
 10310  0576  00F6               	movwf	___flge@ff1+3
 10311  0577  0826               	movf	(??_conversion_newton+2)^(0+128),w
 10312  0578  00F5               	movwf	___flge@ff1+2
 10313  0579  0825               	movf	(??_conversion_newton+1)^(0+128),w
 10314  057A  00F4               	movwf	___flge@ff1+1
 10315  057B  0824               	movf	??_conversion_newton^(0+128),w
 10316  057C  00F3               	movwf	___flge@ff1
 10317  057D  0823               	movf	(conversion_newton@Rc+3)^(0+128),w
 10318  057E  00FA               	movwf	___flge@ff2+3
 10319  057F  0822               	movf	(conversion_newton@Rc+2)^(0+128),w
 10320  0580  00F9               	movwf	___flge@ff2+2
 10321  0581  0821               	movf	(conversion_newton@Rc+1)^(0+128),w
 10322  0582  00F8               	movwf	___flge@ff2+1
 10323  0583  0820               	movf	conversion_newton@Rc^(0+128),w
 10324  0584  00F7               	movwf	___flge@ff2
 10325  0585  160A  158A  25A7  120A  118A  	fcall	___flge
 10326  058A  1803               	btfsc	3,0
 10327  058B  2D8D               	goto	u5101
 10328  058C  2D8E               	goto	u5100
 10329  058D                     u5101:
 10330  058D  2D95               	goto	l3068
 10331  058E                     u5100:
 10332  058E                     l3066:
 10333                           
 10334                           ;main.c: 277:      {;main.c: 278:          n= 18;
 10335  058E  3012               	movlw	18
 10336  058F  1683               	bsf	3,5	;RP0=1, select bank1
 10337  0590  1303               	bcf	3,6	;RP1=0, select bank1
 10338  0591  00C5               	movwf	conversion_newton@n^(0+128)
 10339  0592  3000               	movlw	0
 10340  0593  00C6               	movwf	(conversion_newton@n^(0+128)+1)
 10341                           
 10342                           ;main.c: 279:      }
 10343  0594  2D9B               	goto	l3070
 10344  0595                     l3068:
 10345                           
 10346                           ;main.c: 281:      {;main.c: 282:          n= 19;
 10347  0595  3013               	movlw	19
 10348  0596  1683               	bsf	3,5	;RP0=1, select bank1
 10349  0597  1303               	bcf	3,6	;RP1=0, select bank1
 10350  0598  00C5               	movwf	conversion_newton@n^(0+128)
 10351  0599  3000               	movlw	0
 10352  059A  00C6               	movwf	(conversion_newton@n^(0+128)+1)
 10353  059B                     l3070:
 10354                           
 10355                           ;main.c: 286:      F = (((F_tab[n]-F_tab[n+1])/(R_tab[n+1]-R_tab[n]))*(Rc-R_tab[n]))+F_t
      +                          ab[n];
 10356  059B  0845               	movf	conversion_newton@n^(0+128),w
 10357  059C  00A4               	movwf	??_conversion_newton^(0+128)
 10358  059D  3001               	movlw	1
 10359  059E                     u5115:
 10360  059E  1003               	clrc
 10361  059F  0DA4               	rlf	??_conversion_newton^(0+128),f
 10362  05A0  3EFF               	addlw	-1
 10363  05A1  1D03               	skipz
 10364  05A2  2D9E               	goto	u5115
 10365  05A3  1003               	clrc
 10366  05A4  0D24               	rlf	??_conversion_newton^(0+128),w
 10367  05A5  3E01               	addlw	low ((conversion_newton@R_tab-__stringbase)| (0+32768))
 10368  05A6  0084               	movwf	4
 10369  05A7  160A  118A  2000  120A  118A  	fcall	stringdir
 10370  05AC  00A5               	movwf	(??_conversion_newton+1)^(0+128)
 10371  05AD  160A  118A  2000  120A  118A  	fcall	stringdir
 10372  05B2  00A6               	movwf	((??_conversion_newton+1)^(0+128)+1)
 10373  05B3  160A  118A  2000  120A  118A  	fcall	stringdir
 10374  05B8  00A7               	movwf	((??_conversion_newton+1)^(0+128)+2)
 10375  05B9  160A  118A  2000  120A  118A  	fcall	stringdir
 10376  05BE  00A8               	movwf	((??_conversion_newton+1)^(0+128)+3)
 10377  05BF  0828               	movf	(??_conversion_newton+4)^(0+128),w
 10378  05C0  1283               	bcf	3,5	;RP0=0, select bank0
 10379  05C1  1303               	bcf	3,6	;RP1=0, select bank0
 10380  05C2  00B7               	movwf	___flsub@a+3
 10381  05C3  1683               	bsf	3,5	;RP0=1, select bank1
 10382  05C4  1303               	bcf	3,6	;RP1=0, select bank1
 10383  05C5  0827               	movf	(??_conversion_newton+3)^(0+128),w
 10384  05C6  1283               	bcf	3,5	;RP0=0, select bank0
 10385  05C7  1303               	bcf	3,6	;RP1=0, select bank0
 10386  05C8  00B6               	movwf	___flsub@a+2
 10387  05C9  1683               	bsf	3,5	;RP0=1, select bank1
 10388  05CA  1303               	bcf	3,6	;RP1=0, select bank1
 10389  05CB  0826               	movf	(??_conversion_newton+2)^(0+128),w
 10390  05CC  1283               	bcf	3,5	;RP0=0, select bank0
 10391  05CD  1303               	bcf	3,6	;RP1=0, select bank0
 10392  05CE  00B5               	movwf	___flsub@a+1
 10393  05CF  1683               	bsf	3,5	;RP0=1, select bank1
 10394  05D0  1303               	bcf	3,6	;RP1=0, select bank1
 10395  05D1  0825               	movf	(??_conversion_newton+1)^(0+128),w
 10396  05D2  1283               	bcf	3,5	;RP0=0, select bank0
 10397  05D3  1303               	bcf	3,6	;RP1=0, select bank0
 10398  05D4  00B4               	movwf	___flsub@a
 10399  05D5  1683               	bsf	3,5	;RP0=1, select bank1
 10400  05D6  1303               	bcf	3,6	;RP1=0, select bank1
 10401  05D7  0823               	movf	(conversion_newton@Rc+3)^(0+128),w
 10402  05D8  1283               	bcf	3,5	;RP0=0, select bank0
 10403  05D9  1303               	bcf	3,6	;RP1=0, select bank0
 10404  05DA  00BB               	movwf	___flsub@b+3
 10405  05DB  1683               	bsf	3,5	;RP0=1, select bank1
 10406  05DC  1303               	bcf	3,6	;RP1=0, select bank1
 10407  05DD  0822               	movf	(conversion_newton@Rc+2)^(0+128),w
 10408  05DE  1283               	bcf	3,5	;RP0=0, select bank0
 10409  05DF  1303               	bcf	3,6	;RP1=0, select bank0
 10410  05E0  00BA               	movwf	___flsub@b+2
 10411  05E1  1683               	bsf	3,5	;RP0=1, select bank1
 10412  05E2  1303               	bcf	3,6	;RP1=0, select bank1
 10413  05E3  0821               	movf	(conversion_newton@Rc+1)^(0+128),w
 10414  05E4  1283               	bcf	3,5	;RP0=0, select bank0
 10415  05E5  1303               	bcf	3,6	;RP1=0, select bank0
 10416  05E6  00B9               	movwf	___flsub@b+1
 10417  05E7  1683               	bsf	3,5	;RP0=1, select bank1
 10418  05E8  1303               	bcf	3,6	;RP1=0, select bank1
 10419  05E9  0820               	movf	conversion_newton@Rc^(0+128),w
 10420  05EA  1283               	bcf	3,5	;RP0=0, select bank0
 10421  05EB  1303               	bcf	3,6	;RP1=0, select bank0
 10422  05EC  00B8               	movwf	___flsub@b
 10423  05ED  160A  158A  2070  120A  118A  	fcall	___flsub
 10424  05F2  1283               	bcf	3,5	;RP0=0, select bank0
 10425  05F3  1303               	bcf	3,6	;RP1=0, select bank0
 10426  05F4  0837               	movf	?___flsub+3,w
 10427  05F5  00D9               	movwf	___flmul@b+3
 10428  05F6  0836               	movf	?___flsub+2,w
 10429  05F7  00D8               	movwf	___flmul@b+2
 10430  05F8  0835               	movf	?___flsub+1,w
 10431  05F9  00D7               	movwf	___flmul@b+1
 10432  05FA  0834               	movf	?___flsub,w
 10433  05FB  00D6               	movwf	___flmul@b
 10434  05FC  1683               	bsf	3,5	;RP0=1, select bank1
 10435  05FD  1303               	bcf	3,6	;RP1=0, select bank1
 10436  05FE  0845               	movf	conversion_newton@n^(0+128),w
 10437  05FF  00A9               	movwf	(??_conversion_newton+5)^(0+128)
 10438  0600  3001               	movlw	1
 10439  0601                     u5125:
 10440  0601  1003               	clrc
 10441  0602  0DA9               	rlf	(??_conversion_newton+5)^(0+128),f
 10442  0603  3EFF               	addlw	-1
 10443  0604  1D03               	skipz
 10444  0605  2E01               	goto	u5125
 10445  0606  1003               	clrc
 10446  0607  0D29               	rlf	(??_conversion_newton+5)^(0+128),w
 10447  0608  3E01               	addlw	low ((conversion_newton@R_tab-__stringbase)| (0+32768))
 10448  0609  0084               	movwf	4
 10449  060A  160A  118A  2000  120A  118A  	fcall	stringdir
 10450  060F  00AA               	movwf	(??_conversion_newton+6)^(0+128)
 10451  0610  160A  118A  2000  120A  118A  	fcall	stringdir
 10452  0615  00AB               	movwf	((??_conversion_newton+6)^(0+128)+1)
 10453  0616  160A  118A  2000  120A  118A  	fcall	stringdir
 10454  061B  00AC               	movwf	((??_conversion_newton+6)^(0+128)+2)
 10455  061C  160A  118A  2000  120A  118A  	fcall	stringdir
 10456  0621  00AD               	movwf	((??_conversion_newton+6)^(0+128)+3)
 10457  0622  082D               	movf	(??_conversion_newton+9)^(0+128),w
 10458  0623  1283               	bcf	3,5	;RP0=0, select bank0
 10459  0624  1303               	bcf	3,6	;RP1=0, select bank0
 10460  0625  00B7               	movwf	___flsub@a+3
 10461  0626  1683               	bsf	3,5	;RP0=1, select bank1
 10462  0627  1303               	bcf	3,6	;RP1=0, select bank1
 10463  0628  082C               	movf	(??_conversion_newton+8)^(0+128),w
 10464  0629  1283               	bcf	3,5	;RP0=0, select bank0
 10465  062A  1303               	bcf	3,6	;RP1=0, select bank0
 10466  062B  00B6               	movwf	___flsub@a+2
 10467  062C  1683               	bsf	3,5	;RP0=1, select bank1
 10468  062D  1303               	bcf	3,6	;RP1=0, select bank1
 10469  062E  082B               	movf	(??_conversion_newton+7)^(0+128),w
 10470  062F  1283               	bcf	3,5	;RP0=0, select bank0
 10471  0630  1303               	bcf	3,6	;RP1=0, select bank0
 10472  0631  00B5               	movwf	___flsub@a+1
 10473  0632  1683               	bsf	3,5	;RP0=1, select bank1
 10474  0633  1303               	bcf	3,6	;RP1=0, select bank1
 10475  0634  082A               	movf	(??_conversion_newton+6)^(0+128),w
 10476  0635  1283               	bcf	3,5	;RP0=0, select bank0
 10477  0636  1303               	bcf	3,6	;RP1=0, select bank0
 10478  0637  00B4               	movwf	___flsub@a
 10479  0638  1683               	bsf	3,5	;RP0=1, select bank1
 10480  0639  1303               	bcf	3,6	;RP1=0, select bank1
 10481  063A  0845               	movf	conversion_newton@n^(0+128),w
 10482  063B  00AE               	movwf	(??_conversion_newton+10)^(0+128)
 10483  063C  3001               	movlw	1
 10484  063D                     u5135:
 10485  063D  1003               	clrc
 10486  063E  0DAE               	rlf	(??_conversion_newton+10)^(0+128),f
 10487  063F  3EFF               	addlw	-1
 10488  0640  1D03               	skipz
 10489  0641  2E3D               	goto	u5135
 10490  0642  1003               	clrc
 10491  0643  0D2E               	rlf	(??_conversion_newton+10)^(0+128),w
 10492  0644  3E05               	addlw	low (((conversion_newton@R_tab-__stringbase)| (0+32768)+4))
 10493  0645  0084               	movwf	4
 10494  0646  160A  118A  2000  120A  118A  	fcall	stringdir
 10495  064B  00AF               	movwf	(??_conversion_newton+11)^(0+128)
 10496  064C  160A  118A  2000  120A  118A  	fcall	stringdir
 10497  0651  00B0               	movwf	((??_conversion_newton+11)^(0+128)+1)
 10498  0652  160A  118A  2000  120A  118A  	fcall	stringdir
 10499  0657  00B1               	movwf	((??_conversion_newton+11)^(0+128)+2)
 10500  0658  160A  118A  2000  120A  118A  	fcall	stringdir
 10501  065D  00B2               	movwf	((??_conversion_newton+11)^(0+128)+3)
 10502  065E  0832               	movf	(??_conversion_newton+14)^(0+128),w
 10503  065F  1283               	bcf	3,5	;RP0=0, select bank0
 10504  0660  1303               	bcf	3,6	;RP1=0, select bank0
 10505  0661  00BB               	movwf	___flsub@b+3
 10506  0662  1683               	bsf	3,5	;RP0=1, select bank1
 10507  0663  1303               	bcf	3,6	;RP1=0, select bank1
 10508  0664  0831               	movf	(??_conversion_newton+13)^(0+128),w
 10509  0665  1283               	bcf	3,5	;RP0=0, select bank0
 10510  0666  1303               	bcf	3,6	;RP1=0, select bank0
 10511  0667  00BA               	movwf	___flsub@b+2
 10512  0668  1683               	bsf	3,5	;RP0=1, select bank1
 10513  0669  1303               	bcf	3,6	;RP1=0, select bank1
 10514  066A  0830               	movf	(??_conversion_newton+12)^(0+128),w
 10515  066B  1283               	bcf	3,5	;RP0=0, select bank0
 10516  066C  1303               	bcf	3,6	;RP1=0, select bank0
 10517  066D  00B9               	movwf	___flsub@b+1
 10518  066E  1683               	bsf	3,5	;RP0=1, select bank1
 10519  066F  1303               	bcf	3,6	;RP1=0, select bank1
 10520  0670  082F               	movf	(??_conversion_newton+11)^(0+128),w
 10521  0671  1283               	bcf	3,5	;RP0=0, select bank0
 10522  0672  1303               	bcf	3,6	;RP1=0, select bank0
 10523  0673  00B8               	movwf	___flsub@b
 10524  0674  160A  158A  2070  120A  118A  	fcall	___flsub
 10525  0679  1283               	bcf	3,5	;RP0=0, select bank0
 10526  067A  1303               	bcf	3,6	;RP1=0, select bank0
 10527  067B  0837               	movf	?___flsub+3,w
 10528  067C  00BF               	movwf	___fldiv@a+3
 10529  067D  0836               	movf	?___flsub+2,w
 10530  067E  00BE               	movwf	___fldiv@a+2
 10531  067F  0835               	movf	?___flsub+1,w
 10532  0680  00BD               	movwf	___fldiv@a+1
 10533  0681  0834               	movf	?___flsub,w
 10534  0682  00BC               	movwf	___fldiv@a
 10535  0683  1683               	bsf	3,5	;RP0=1, select bank1
 10536  0684  1303               	bcf	3,6	;RP1=0, select bank1
 10537  0685  0845               	movf	conversion_newton@n^(0+128),w
 10538  0686  00B3               	movwf	(??_conversion_newton+15)^(0+128)
 10539  0687  3001               	movlw	1
 10540  0688                     u5145:
 10541  0688  1003               	clrc
 10542  0689  0DB3               	rlf	(??_conversion_newton+15)^(0+128),f
 10543  068A  3EFF               	addlw	-1
 10544  068B  1D03               	skipz
 10545  068C  2E88               	goto	u5145
 10546  068D  1003               	clrc
 10547  068E  0D33               	rlf	(??_conversion_newton+15)^(0+128),w
 10548  068F  3E55               	addlw	low (((conversion_newton@F_tab-__stringbase)| (0+32768)+4))
 10549  0690  0084               	movwf	4
 10550  0691  160A  118A  2000  120A  118A  	fcall	stringdir
 10551  0696  00B4               	movwf	(??_conversion_newton+16)^(0+128)
 10552  0697  160A  118A  2000  120A  118A  	fcall	stringdir
 10553  069C  00B5               	movwf	((??_conversion_newton+16)^(0+128)+1)
 10554  069D  160A  118A  2000  120A  118A  	fcall	stringdir
 10555  06A2  00B6               	movwf	((??_conversion_newton+16)^(0+128)+2)
 10556  06A3  160A  118A  2000  120A  118A  	fcall	stringdir
 10557  06A8  00B7               	movwf	((??_conversion_newton+16)^(0+128)+3)
 10558  06A9  0837               	movf	(??_conversion_newton+19)^(0+128),w
 10559  06AA  1283               	bcf	3,5	;RP0=0, select bank0
 10560  06AB  1303               	bcf	3,6	;RP1=0, select bank0
 10561  06AC  00B7               	movwf	___flsub@a+3
 10562  06AD  1683               	bsf	3,5	;RP0=1, select bank1
 10563  06AE  1303               	bcf	3,6	;RP1=0, select bank1
 10564  06AF  0836               	movf	(??_conversion_newton+18)^(0+128),w
 10565  06B0  1283               	bcf	3,5	;RP0=0, select bank0
 10566  06B1  1303               	bcf	3,6	;RP1=0, select bank0
 10567  06B2  00B6               	movwf	___flsub@a+2
 10568  06B3  1683               	bsf	3,5	;RP0=1, select bank1
 10569  06B4  1303               	bcf	3,6	;RP1=0, select bank1
 10570  06B5  0835               	movf	(??_conversion_newton+17)^(0+128),w
 10571  06B6  1283               	bcf	3,5	;RP0=0, select bank0
 10572  06B7  1303               	bcf	3,6	;RP1=0, select bank0
 10573  06B8  00B5               	movwf	___flsub@a+1
 10574  06B9  1683               	bsf	3,5	;RP0=1, select bank1
 10575  06BA  1303               	bcf	3,6	;RP1=0, select bank1
 10576  06BB  0834               	movf	(??_conversion_newton+16)^(0+128),w
 10577  06BC  1283               	bcf	3,5	;RP0=0, select bank0
 10578  06BD  1303               	bcf	3,6	;RP1=0, select bank0
 10579  06BE  00B4               	movwf	___flsub@a
 10580  06BF  1683               	bsf	3,5	;RP0=1, select bank1
 10581  06C0  1303               	bcf	3,6	;RP1=0, select bank1
 10582  06C1  0845               	movf	conversion_newton@n^(0+128),w
 10583  06C2  00B8               	movwf	(??_conversion_newton+20)^(0+128)
 10584  06C3  3001               	movlw	1
 10585  06C4                     u5155:
 10586  06C4  1003               	clrc
 10587  06C5  0DB8               	rlf	(??_conversion_newton+20)^(0+128),f
 10588  06C6  3EFF               	addlw	-1
 10589  06C7  1D03               	skipz
 10590  06C8  2EC4               	goto	u5155
 10591  06C9  1003               	clrc
 10592  06CA  0D38               	rlf	(??_conversion_newton+20)^(0+128),w
 10593  06CB  3E51               	addlw	low ((conversion_newton@F_tab-__stringbase)| (0+32768))
 10594  06CC  0084               	movwf	4
 10595  06CD  160A  118A  2000  120A  118A  	fcall	stringdir
 10596  06D2  00B9               	movwf	(??_conversion_newton+21)^(0+128)
 10597  06D3  160A  118A  2000  120A  118A  	fcall	stringdir
 10598  06D8  00BA               	movwf	((??_conversion_newton+21)^(0+128)+1)
 10599  06D9  160A  118A  2000  120A  118A  	fcall	stringdir
 10600  06DE  00BB               	movwf	((??_conversion_newton+21)^(0+128)+2)
 10601  06DF  160A  118A  2000  120A  118A  	fcall	stringdir
 10602  06E4  00BC               	movwf	((??_conversion_newton+21)^(0+128)+3)
 10603  06E5  083C               	movf	(??_conversion_newton+24)^(0+128),w
 10604  06E6  1283               	bcf	3,5	;RP0=0, select bank0
 10605  06E7  1303               	bcf	3,6	;RP1=0, select bank0
 10606  06E8  00BB               	movwf	___flsub@b+3
 10607  06E9  1683               	bsf	3,5	;RP0=1, select bank1
 10608  06EA  1303               	bcf	3,6	;RP1=0, select bank1
 10609  06EB  083B               	movf	(??_conversion_newton+23)^(0+128),w
 10610  06EC  1283               	bcf	3,5	;RP0=0, select bank0
 10611  06ED  1303               	bcf	3,6	;RP1=0, select bank0
 10612  06EE  00BA               	movwf	___flsub@b+2
 10613  06EF  1683               	bsf	3,5	;RP0=1, select bank1
 10614  06F0  1303               	bcf	3,6	;RP1=0, select bank1
 10615  06F1  083A               	movf	(??_conversion_newton+22)^(0+128),w
 10616  06F2  1283               	bcf	3,5	;RP0=0, select bank0
 10617  06F3  1303               	bcf	3,6	;RP1=0, select bank0
 10618  06F4  00B9               	movwf	___flsub@b+1
 10619  06F5  1683               	bsf	3,5	;RP0=1, select bank1
 10620  06F6  1303               	bcf	3,6	;RP1=0, select bank1
 10621  06F7  0839               	movf	(??_conversion_newton+21)^(0+128),w
 10622  06F8  1283               	bcf	3,5	;RP0=0, select bank0
 10623  06F9  1303               	bcf	3,6	;RP1=0, select bank0
 10624  06FA  00B8               	movwf	___flsub@b
 10625  06FB  160A  158A  2070  120A  118A  	fcall	___flsub
 10626  0700  1283               	bcf	3,5	;RP0=0, select bank0
 10627  0701  1303               	bcf	3,6	;RP1=0, select bank0
 10628  0702  0837               	movf	?___flsub+3,w
 10629  0703  00C3               	movwf	___fldiv@b+3
 10630  0704  0836               	movf	?___flsub+2,w
 10631  0705  00C2               	movwf	___fldiv@b+2
 10632  0706  0835               	movf	?___flsub+1,w
 10633  0707  00C1               	movwf	___fldiv@b+1
 10634  0708  0834               	movf	?___flsub,w
 10635  0709  00C0               	movwf	___fldiv@b
 10636  070A  120A  158A  203A  120A  118A  	fcall	___fldiv
 10637  070F  1283               	bcf	3,5	;RP0=0, select bank0
 10638  0710  1303               	bcf	3,6	;RP1=0, select bank0
 10639  0711  083F               	movf	?___fldiv+3,w
 10640  0712  00DD               	movwf	___flmul@a+3
 10641  0713  083E               	movf	?___fldiv+2,w
 10642  0714  00DC               	movwf	___flmul@a+2
 10643  0715  083D               	movf	?___fldiv+1,w
 10644  0716  00DB               	movwf	___flmul@a+1
 10645  0717  083C               	movf	?___fldiv,w
 10646  0718  00DA               	movwf	___flmul@a
 10647  0719  120A  158A  249F  120A  118A  	fcall	___flmul
 10648  071E  1283               	bcf	3,5	;RP0=0, select bank0
 10649  071F  1303               	bcf	3,6	;RP1=0, select bank0
 10650  0720  0859               	movf	?___flmul+3,w
 10651  0721  1683               	bsf	3,5	;RP0=1, select bank1
 10652  0722  1303               	bcf	3,6	;RP1=0, select bank1
 10653  0723  00C0               	movwf	(_conversion_newton$800+3)^(0+128)
 10654  0724  1283               	bcf	3,5	;RP0=0, select bank0
 10655  0725  1303               	bcf	3,6	;RP1=0, select bank0
 10656  0726  0858               	movf	?___flmul+2,w
 10657  0727  1683               	bsf	3,5	;RP0=1, select bank1
 10658  0728  1303               	bcf	3,6	;RP1=0, select bank1
 10659  0729  00BF               	movwf	(_conversion_newton$800+2)^(0+128)
 10660  072A  1283               	bcf	3,5	;RP0=0, select bank0
 10661  072B  1303               	bcf	3,6	;RP1=0, select bank0
 10662  072C  0857               	movf	?___flmul+1,w
 10663  072D  1683               	bsf	3,5	;RP0=1, select bank1
 10664  072E  1303               	bcf	3,6	;RP1=0, select bank1
 10665  072F  00BE               	movwf	(_conversion_newton$800+1)^(0+128)
 10666  0730  1283               	bcf	3,5	;RP0=0, select bank0
 10667  0731  1303               	bcf	3,6	;RP1=0, select bank0
 10668  0732  0856               	movf	?___flmul,w
 10669  0733  1683               	bsf	3,5	;RP0=1, select bank1
 10670  0734  1303               	bcf	3,6	;RP1=0, select bank1
 10671  0735  00BD               	movwf	_conversion_newton$800^(0+128)
 10672  0736                     l3072:
 10673                           
 10674                           ;main.c: 286:      F = (((F_tab[n]-F_tab[n+1])/(R_tab[n+1]-R_tab[n]))*(Rc-R_tab[n]))+F_t
      +                          ab[n];
 10675  0736  0845               	movf	conversion_newton@n^(0+128),w
 10676  0737  00A4               	movwf	??_conversion_newton^(0+128)
 10677  0738  3001               	movlw	1
 10678  0739                     u5165:
 10679  0739  1003               	clrc
 10680  073A  0DA4               	rlf	??_conversion_newton^(0+128),f
 10681  073B  3EFF               	addlw	-1
 10682  073C  1D03               	skipz
 10683  073D  2F39               	goto	u5165
 10684  073E  1003               	clrc
 10685  073F  0D24               	rlf	??_conversion_newton^(0+128),w
 10686  0740  3E51               	addlw	low ((conversion_newton@F_tab-__stringbase)| (0+32768))
 10687  0741  0084               	movwf	4
 10688  0742  160A  118A  2000  120A  118A  	fcall	stringdir
 10689  0747  00A5               	movwf	(??_conversion_newton+1)^(0+128)
 10690  0748  160A  118A  2000  120A  118A  	fcall	stringdir
 10691  074D  00A6               	movwf	((??_conversion_newton+1)^(0+128)+1)
 10692  074E  160A  118A  2000  120A  118A  	fcall	stringdir
 10693  0753  00A7               	movwf	((??_conversion_newton+1)^(0+128)+2)
 10694  0754  160A  118A  2000  120A  118A  	fcall	stringdir
 10695  0759  00A8               	movwf	((??_conversion_newton+1)^(0+128)+3)
 10696  075A  0828               	movf	(??_conversion_newton+4)^(0+128),w
 10697  075B  1283               	bcf	3,5	;RP0=0, select bank0
 10698  075C  1303               	bcf	3,6	;RP1=0, select bank0
 10699  075D  00A3               	movwf	___fladd@b+3
 10700  075E  1683               	bsf	3,5	;RP0=1, select bank1
 10701  075F  1303               	bcf	3,6	;RP1=0, select bank1
 10702  0760  0827               	movf	(??_conversion_newton+3)^(0+128),w
 10703  0761  1283               	bcf	3,5	;RP0=0, select bank0
 10704  0762  1303               	bcf	3,6	;RP1=0, select bank0
 10705  0763  00A2               	movwf	___fladd@b+2
 10706  0764  1683               	bsf	3,5	;RP0=1, select bank1
 10707  0765  1303               	bcf	3,6	;RP1=0, select bank1
 10708  0766  0826               	movf	(??_conversion_newton+2)^(0+128),w
 10709  0767  1283               	bcf	3,5	;RP0=0, select bank0
 10710  0768  1303               	bcf	3,6	;RP1=0, select bank0
 10711  0769  00A1               	movwf	___fladd@b+1
 10712  076A  1683               	bsf	3,5	;RP0=1, select bank1
 10713  076B  1303               	bcf	3,6	;RP1=0, select bank1
 10714  076C  0825               	movf	(??_conversion_newton+1)^(0+128),w
 10715  076D  1283               	bcf	3,5	;RP0=0, select bank0
 10716  076E  1303               	bcf	3,6	;RP1=0, select bank0
 10717  076F  00A0               	movwf	___fladd@b
 10718  0770  1683               	bsf	3,5	;RP0=1, select bank1
 10719  0771  1303               	bcf	3,6	;RP1=0, select bank1
 10720  0772  0840               	movf	(_conversion_newton$800+3)^(0+128),w
 10721  0773  1283               	bcf	3,5	;RP0=0, select bank0
 10722  0774  1303               	bcf	3,6	;RP1=0, select bank0
 10723  0775  00A7               	movwf	___fladd@a+3
 10724  0776  1683               	bsf	3,5	;RP0=1, select bank1
 10725  0777  1303               	bcf	3,6	;RP1=0, select bank1
 10726  0778  083F               	movf	(_conversion_newton$800+2)^(0+128),w
 10727  0779  1283               	bcf	3,5	;RP0=0, select bank0
 10728  077A  1303               	bcf	3,6	;RP1=0, select bank0
 10729  077B  00A6               	movwf	___fladd@a+2
 10730  077C  1683               	bsf	3,5	;RP0=1, select bank1
 10731  077D  1303               	bcf	3,6	;RP1=0, select bank1
 10732  077E  083E               	movf	(_conversion_newton$800+1)^(0+128),w
 10733  077F  1283               	bcf	3,5	;RP0=0, select bank0
 10734  0780  1303               	bcf	3,6	;RP1=0, select bank0
 10735  0781  00A5               	movwf	___fladd@a+1
 10736  0782  1683               	bsf	3,5	;RP0=1, select bank1
 10737  0783  1303               	bcf	3,6	;RP1=0, select bank1
 10738  0784  083D               	movf	_conversion_newton$800^(0+128),w
 10739  0785  1283               	bcf	3,5	;RP0=0, select bank0
 10740  0786  1303               	bcf	3,6	;RP1=0, select bank0
 10741  0787  00A4               	movwf	___fladd@a
 10742  0788  120A  158A  2217  120A  118A  	fcall	___fladd
 10743  078D  1283               	bcf	3,5	;RP0=0, select bank0
 10744  078E  1303               	bcf	3,6	;RP1=0, select bank0
 10745  078F  0823               	movf	?___fladd+3,w
 10746  0790  1683               	bsf	3,5	;RP0=1, select bank1
 10747  0791  1303               	bcf	3,6	;RP1=0, select bank1
 10748  0792  00C4               	movwf	(conversion_newton@F+3)^(0+128)
 10749  0793  1283               	bcf	3,5	;RP0=0, select bank0
 10750  0794  1303               	bcf	3,6	;RP1=0, select bank0
 10751  0795  0822               	movf	?___fladd+2,w
 10752  0796  1683               	bsf	3,5	;RP0=1, select bank1
 10753  0797  1303               	bcf	3,6	;RP1=0, select bank1
 10754  0798  00C3               	movwf	(conversion_newton@F+2)^(0+128)
 10755  0799  1283               	bcf	3,5	;RP0=0, select bank0
 10756  079A  1303               	bcf	3,6	;RP1=0, select bank0
 10757  079B  0821               	movf	?___fladd+1,w
 10758  079C  1683               	bsf	3,5	;RP0=1, select bank1
 10759  079D  1303               	bcf	3,6	;RP1=0, select bank1
 10760  079E  00C2               	movwf	(conversion_newton@F+1)^(0+128)
 10761  079F  1283               	bcf	3,5	;RP0=0, select bank0
 10762  07A0  1303               	bcf	3,6	;RP1=0, select bank0
 10763  07A1  0820               	movf	?___fladd,w
 10764  07A2  1683               	bsf	3,5	;RP0=1, select bank1
 10765  07A3  1303               	bcf	3,6	;RP1=0, select bank1
 10766  07A4  00C1               	movwf	conversion_newton@F^(0+128)
 10767  07A5                     l3074:
 10768                           
 10769                           ;main.c: 289:      if (F > 70)
 10770  07A5  3042               	movlw	66
 10771  07A6  00F6               	movwf	___flge@ff1+3
 10772  07A7  308C               	movlw	140
 10773  07A8  00F5               	movwf	___flge@ff1+2
 10774  07A9  3000               	movlw	0
 10775  07AA  00F4               	movwf	___flge@ff1+1
 10776  07AB  3000               	movlw	0
 10777  07AC  00F3               	movwf	___flge@ff1
 10778  07AD  0844               	movf	(conversion_newton@F+3)^(0+128),w
 10779  07AE  00FA               	movwf	___flge@ff2+3
 10780  07AF  0843               	movf	(conversion_newton@F+2)^(0+128),w
 10781  07B0  00F9               	movwf	___flge@ff2+2
 10782  07B1  0842               	movf	(conversion_newton@F+1)^(0+128),w
 10783  07B2  00F8               	movwf	___flge@ff2+1
 10784  07B3  0841               	movf	conversion_newton@F^(0+128),w
 10785  07B4  00F7               	movwf	___flge@ff2
 10786  07B5  160A  158A  25A7  120A  118A  	fcall	___flge
 10787  07BA  1803               	btfsc	3,0
 10788  07BB  2FBD               	goto	u5171
 10789  07BC  2FBE               	goto	u5170
 10790  07BD                     u5171:
 10791  07BD  2FC9               	goto	l3078
 10792  07BE                     u5170:
 10793  07BE                     l3076:
 10794                           
 10795                           ;main.c: 290:         F = 70;
 10796  07BE  3042               	movlw	66
 10797  07BF  1683               	bsf	3,5	;RP0=1, select bank1
 10798  07C0  1303               	bcf	3,6	;RP1=0, select bank1
 10799  07C1  00C4               	movwf	(conversion_newton@F+3)^(0+128)
 10800  07C2  308C               	movlw	140
 10801  07C3  00C3               	movwf	(conversion_newton@F+2)^(0+128)
 10802  07C4  3000               	movlw	0
 10803  07C5  00C2               	movwf	(conversion_newton@F+1)^(0+128)
 10804  07C6  3000               	movlw	0
 10805  07C7  00C1               	movwf	conversion_newton@F^(0+128)
 10806  07C8  2FEE               	goto	l105
 10807  07C9                     l3078:
 10808  07C9  1683               	bsf	3,5	;RP0=1, select bank1
 10809  07CA  1303               	bcf	3,6	;RP1=0, select bank1
 10810  07CB  0844               	movf	(conversion_newton@F+3)^(0+128),w
 10811  07CC  00F6               	movwf	___flge@ff1+3
 10812  07CD  0843               	movf	(conversion_newton@F+2)^(0+128),w
 10813  07CE  00F5               	movwf	___flge@ff1+2
 10814  07CF  0842               	movf	(conversion_newton@F+1)^(0+128),w
 10815  07D0  00F4               	movwf	___flge@ff1+1
 10816  07D1  0841               	movf	conversion_newton@F^(0+128),w
 10817  07D2  00F3               	movwf	___flge@ff1
 10818  07D3  303D               	movlw	61
 10819  07D4  00FA               	movwf	___flge@ff2+3
 10820  07D5  30F5               	movlw	245
 10821  07D6  00F9               	movwf	___flge@ff2+2
 10822  07D7  30C2               	movlw	194
 10823  07D8  00F8               	movwf	___flge@ff2+1
 10824  07D9  308F               	movlw	143
 10825  07DA  00F7               	movwf	___flge@ff2
 10826  07DB  160A  158A  25A7  120A  118A  	fcall	___flge
 10827  07E0  1803               	btfsc	3,0
 10828  07E1  2FE3               	goto	u5181
 10829  07E2  2FE4               	goto	u5180
 10830  07E3                     u5181:
 10831  07E3  2FEE               	goto	l105
 10832  07E4                     u5180:
 10833  07E4                     l3080:
 10834                           
 10835                           ;main.c: 292:         F=0.12;
 10836  07E4  303D               	movlw	61
 10837  07E5  1683               	bsf	3,5	;RP0=1, select bank1
 10838  07E6  1303               	bcf	3,6	;RP1=0, select bank1
 10839  07E7  00C4               	movwf	(conversion_newton@F+3)^(0+128)
 10840  07E8  30F5               	movlw	245
 10841  07E9  00C3               	movwf	(conversion_newton@F+2)^(0+128)
 10842  07EA  30C2               	movlw	194
 10843  07EB  00C2               	movwf	(conversion_newton@F+1)^(0+128)
 10844  07EC  308F               	movlw	143
 10845  07ED  00C1               	movwf	conversion_newton@F^(0+128)
 10846  07EE                     l105:
 10847                           
 10848                           ;main.c: 295:      return F;
 10849  07EE  1683               	bsf	3,5	;RP0=1, select bank1
 10850  07EF  1303               	bcf	3,6	;RP1=0, select bank1
 10851  07F0  0844               	movf	(conversion_newton@F+3)^(0+128),w
 10852  07F1  00A3               	movwf	(?_conversion_newton+3)^(0+128)
 10853  07F2  0843               	movf	(conversion_newton@F+2)^(0+128),w
 10854  07F3  00A2               	movwf	(?_conversion_newton+2)^(0+128)
 10855  07F4  0842               	movf	(conversion_newton@F+1)^(0+128),w
 10856  07F5  00A1               	movwf	(?_conversion_newton+1)^(0+128)
 10857  07F6  0841               	movf	conversion_newton@F^(0+128),w
 10858  07F7  00A0               	movwf	?_conversion_newton^(0+128)
 10859  07F8                     l107:
 10860  07F8  0008               	return
 10861  07F9                     __end_of_conversion_newton:

Data Sizes:
    Strings     30
    Constant    160
    Data        0
    BSS         1
    Persistent  0
    Stack       0

Auto Spaces:
    Space          Size  Autos    Used
    COMMON           13     11      11
    BANK0            80     80      80
    BANK1            80     79      79
    BANK3            85      4       5
    BANK2            91      0       0

Pointer List with Targets:

    PORT_putString@chaine	PTR unsigned char  size(1) Largest target is 12
		 -> STR_5(CODE[5]), STR_4(CODE[5]), STR_3(CODE[4]), STR_2(CODE[12]), 
		 -> STR_1(CODE[4]), 


Critical Paths under _main in COMMON

    _puts_float->___aldiv
    _puts_float->___almod
    ___flsub->__Umul8_16
    ___fladd->__Umul8_16
    ___flmul->__Umul8_16
    ___fldiv->__Umul8_16
    _PORT_putString->_PORT_putchar
    _Affichage_brut->___awdiv
    _Affichage_brut->___fltol
    _ADC_GetValue->_PORT_Choose_Mux

Critical Paths under _isr in COMMON

    None.

Critical Paths under _main in BANK0

    _puts_float->___flmul
    _conversion_newton->___flmul
    _Voltage_Value->___flmul
    _Resistance_Value->___flmul
    ___flsub->___fladd
    ___flmul->___fldiv
    ___fldiv->___flsub
    _Affichage_brut->___fltol

Critical Paths under _isr in BANK0

    None.

Critical Paths under _main in BANK1

    _main->_Get_Better_Newton_Value
    _Get_Better_Newton_Value->_Get_Newton
    _Get_Newton->_conversion_newton

Critical Paths under _isr in BANK1

    None.

Critical Paths under _main in BANK3

    None.

Critical Paths under _isr in BANK3

    None.

Critical Paths under _main in BANK2

    None.

Critical Paths under _isr in BANK2

    None.

Call Graph Tables:

 ---------------------------------------------------------------------------------
 (Depth) Function   	        Calls       Base Space   Used Autos Params    Refs
 ---------------------------------------------------------------------------------
 (0) _main                                                 4     4      0   57146
                                              0 BANK3      4     4      0
            _Get_Better_Newton_Value
                     _PORT_Blink_LED
                          _PORT_Init
                   _PORT_Select_Mux0
                  _TIMER_init_timer1
 ---------------------------------------------------------------------------------
 (1) _TIMER_init_timer1                                    0     0      0       0
 ---------------------------------------------------------------------------------
 (1) _PORT_Select_Mux0                                     0     0      0       0
 ---------------------------------------------------------------------------------
 (1) _PORT_Init                                            1     1      0       0
                                              2 COMMON     1     1      0
                   _PORT_Init_Serial
 ---------------------------------------------------------------------------------
 (2) _PORT_Init_Serial                                     0     0      0       0
 ---------------------------------------------------------------------------------
 (1) _PORT_Blink_LED                                       0     0      0       0
 ---------------------------------------------------------------------------------
 (1) _Get_Better_Newton_Value                             18    13      5   57145
                                             61 BANK1     18    13      5
                         _Get_Newton
                             ___fleq
                             ___flge
 ---------------------------------------------------------------------------------
 (2) ___fleq                                              12     4      8     546
                                              2 COMMON     8     0      8
                                              0 BANK0      4     4      0
 ---------------------------------------------------------------------------------
 (2) _Get_Newton                                          22    18      4   48957
                                             39 BANK1     22    18      4
                       _ADC_GetValue
                     _Affichage_brut
                   _PORT_Change_Gain
                     _PORT_putString
                   _Resistance_Value
                      _Voltage_Value
                            ___fltol
                  _conversion_newton
                         _puts_float
 ---------------------------------------------------------------------------------
 (3) _puts_float                                          12     8      4    6644
                                              0 BANK1     12     8      4
                       _PORT_putchar
                            ___aldiv
                            ___almod
                            ___flmul
                            ___fltol
                            ___lwdiv
                            ___lwmod
 ---------------------------------------------------------------------------------
 (4) ___lwmod                                              5     1      4     767
                                              2 COMMON     5     1      4
 ---------------------------------------------------------------------------------
 (4) ___lwdiv                                              7     3      4     770
                                              2 COMMON     7     3      4
 ---------------------------------------------------------------------------------
 (4) ___fltol                                             10     6      4     457
                                              2 COMMON     8     4      4
                                              0 BANK0      2     2      0
 ---------------------------------------------------------------------------------
 (4) ___almod                                             11     3      8     448
                                              2 COMMON     9     1      8
                                              0 BANK0      2     2      0
 ---------------------------------------------------------------------------------
 (4) ___aldiv                                             15     7      8     452
                                              2 COMMON     9     1      8
                                              0 BANK0      6     6      0
 ---------------------------------------------------------------------------------
 (3) _conversion_newton                                   39    35      4   18161
                                              0 BANK1     39    35      4
                            ___fladd
                            ___fldiv
                             ___flge
                            ___flmul
                            ___flsub
 ---------------------------------------------------------------------------------
 (3) _Voltage_Value                                       13     9      4   12318
                                              0 BANK1     13     9      4
                            ___fldiv
                             ___flge
                            ___flmul
                           ___xxtofl
 ---------------------------------------------------------------------------------
 (2) ___flge                                              12     4      8    7174
                                              2 COMMON     8     0      8
                                              0 BANK0      4     4      0
 ---------------------------------------------------------------------------------
 (3) _Resistance_Value                                    14     8      6    8259
                                              0 BANK1     14     8      6
                            ___fldiv
                            ___flmul
                            ___flsub
                           ___xxtofl
 ---------------------------------------------------------------------------------
 (4) ___xxtofl                                            14    10      4     474
                                              2 COMMON     8     4      4
                                              0 BANK0      6     6      0
 ---------------------------------------------------------------------------------
 (4) ___flsub                                              8     0      8    2941
                                             20 BANK0      8     0      8
                          __Umul8_16 (ARG)
                            ___fladd
 ---------------------------------------------------------------------------------
 (5) ___fladd                                             20    12      8    2288
                                              0 BANK0     20    12      8
                          __Umul8_16 (ARG)
 ---------------------------------------------------------------------------------
 (4) ___flmul                                             26    18      8    3025
                                             54 BANK0     26    18      8
                          __Umul8_16
                            ___fladd (ARG)
                            ___fldiv (ARG)
                            ___flsub (ARG)
                           ___xxtofl (ARG)
 ---------------------------------------------------------------------------------
 (5) __Umul8_16                                            9     7      2     799
                                              2 COMMON     9     7      2
 ---------------------------------------------------------------------------------
 (4) ___fldiv                                             26    18      8    1577
                                             28 BANK0     26    18      8
                          __Umul8_16 (ARG)
                            ___fladd (ARG)
                            ___flsub (ARG)
                           ___xxtofl (ARG)
 ---------------------------------------------------------------------------------
 (3) _PORT_putString                                       3     3      0     277
                                              3 COMMON     3     3      0
                       _PORT_putchar
 ---------------------------------------------------------------------------------
 (3) _PORT_Change_Gain                                     4     1      3     252
                                              2 COMMON     4     1      3
 ---------------------------------------------------------------------------------
 (3) _Affichage_brut                                      11     9      2    1730
                                              2 BANK0     11     9      2
                       _PORT_putchar
                            ___awdiv
                            ___awmod
                            ___fltol (ARG)
 ---------------------------------------------------------------------------------
 (4) ___awmod                                              6     2      4     600
                                              2 COMMON     6     2      4
 ---------------------------------------------------------------------------------
 (4) ___awdiv                                              8     4      4     604
                                              2 COMMON     8     4      4
 ---------------------------------------------------------------------------------
 (4) _PORT_putchar                                         1     1      0      22
                                              2 COMMON     1     1      0
 ---------------------------------------------------------------------------------
 (3) _ADC_GetValue                                         2     2      0     112
                                              3 COMMON     2     2      0
                    _PORT_Choose_Mux
                 _PORT_Get_Value_Adc
                     _PORT_Start_ADC
 ---------------------------------------------------------------------------------
 (4) _PORT_Start_ADC                                       0     0      0       0
 ---------------------------------------------------------------------------------
 (4) _PORT_Get_Value_Adc                                   0     0      0       0
 ---------------------------------------------------------------------------------
 (4) _PORT_Choose_Mux                                      1     1      0      44
                                              2 COMMON     1     1      0
 ---------------------------------------------------------------------------------
 Estimated maximum stack depth 5
 ---------------------------------------------------------------------------------
 (Depth) Function   	        Calls       Base Space   Used Autos Params    Refs
 ---------------------------------------------------------------------------------
 (6) _isr                                                  2     2      0       0
                                              0 COMMON     2     2      0
 ---------------------------------------------------------------------------------
 Estimated maximum stack depth 6
 ---------------------------------------------------------------------------------

 Call Graph Graphs:

 _main (ROOT)
   _Get_Better_Newton_Value
     _Get_Newton
       _ADC_GetValue
         _PORT_Choose_Mux
         _PORT_Get_Value_Adc
         _PORT_Start_ADC
       _Affichage_brut
         _PORT_putchar
         ___awdiv
         ___awmod
         ___fltol (ARG)
       _PORT_Change_Gain
       _PORT_putString
         _PORT_putchar
       _Resistance_Value
         ___fldiv
           __Umul8_16 (ARG)
           ___fladd (ARG)
             __Umul8_16 (ARG)
           ___flsub (ARG)
             __Umul8_16 (ARG)
             ___fladd (ARG)
               __Umul8_16 (ARG)
           ___xxtofl (ARG)
         ___flmul
           __Umul8_16
           ___fladd (ARG)
             __Umul8_16 (ARG)
           ___fldiv (ARG)
             __Umul8_16 (ARG)
             ___fladd (ARG)
               __Umul8_16 (ARG)
             ___flsub (ARG)
               __Umul8_16 (ARG)
               ___fladd (ARG)
                 __Umul8_16 (ARG)
             ___xxtofl (ARG)
           ___flsub (ARG)
             __Umul8_16 (ARG)
             ___fladd (ARG)
               __Umul8_16 (ARG)
           ___xxtofl (ARG)
         ___flsub
           __Umul8_16 (ARG)
           ___fladd (ARG)
             __Umul8_16 (ARG)
         ___xxtofl
       _Voltage_Value
         ___fldiv
           __Umul8_16 (ARG)
           ___fladd (ARG)
             __Umul8_16 (ARG)
           ___flsub (ARG)
             __Umul8_16 (ARG)
             ___fladd (ARG)
               __Umul8_16 (ARG)
           ___xxtofl (ARG)
         ___flge
         ___flmul
           __Umul8_16
           ___fladd (ARG)
             __Umul8_16 (ARG)
           ___fldiv (ARG)
             __Umul8_16 (ARG)
             ___fladd (ARG)
               __Umul8_16 (ARG)
             ___flsub (ARG)
               __Umul8_16 (ARG)
               ___fladd (ARG)
                 __Umul8_16 (ARG)
             ___xxtofl (ARG)
           ___flsub (ARG)
             __Umul8_16 (ARG)
             ___fladd (ARG)
               __Umul8_16 (ARG)
           ___xxtofl (ARG)
         ___xxtofl
       ___fltol
       _conversion_newton
         ___fladd
           __Umul8_16 (ARG)
         ___fldiv
           __Umul8_16 (ARG)
           ___fladd (ARG)
             __Umul8_16 (ARG)
           ___flsub (ARG)
             __Umul8_16 (ARG)
             ___fladd (ARG)
               __Umul8_16 (ARG)
           ___xxtofl (ARG)
         ___flge
         ___flmul
           __Umul8_16
           ___fladd (ARG)
             __Umul8_16 (ARG)
           ___fldiv (ARG)
             __Umul8_16 (ARG)
             ___fladd (ARG)
               __Umul8_16 (ARG)
             ___flsub (ARG)
               __Umul8_16 (ARG)
               ___fladd (ARG)
                 __Umul8_16 (ARG)
             ___xxtofl (ARG)
           ___flsub (ARG)
             __Umul8_16 (ARG)
             ___fladd (ARG)
               __Umul8_16 (ARG)
           ___xxtofl (ARG)
         ___flsub
           __Umul8_16 (ARG)
           ___fladd (ARG)
             __Umul8_16 (ARG)
       _puts_float
         _PORT_putchar
         ___aldiv
         ___almod
         ___flmul
           __Umul8_16
           ___fladd (ARG)
             __Umul8_16 (ARG)
           ___fldiv (ARG)
             __Umul8_16 (ARG)
             ___fladd (ARG)
               __Umul8_16 (ARG)
             ___flsub (ARG)
               __Umul8_16 (ARG)
               ___fladd (ARG)
                 __Umul8_16 (ARG)
             ___xxtofl (ARG)
           ___flsub (ARG)
             __Umul8_16 (ARG)
             ___fladd (ARG)
               __Umul8_16 (ARG)
           ___xxtofl (ARG)
         ___fltol
         ___lwdiv
         ___lwmod
     ___fleq
     ___flge
   _PORT_Blink_LED
   _PORT_Init
     _PORT_Init_Serial
   _PORT_Select_Mux0
   _TIMER_init_timer1

 _isr (ROOT)

 Address spaces:
Name               Size   Autos  Total    Cost      Usage
BITCOMMON            D      0       0       0        0.0%
NULL                 0      0       0       0        0.0%
CODE                 0      0       0       0        0.0%
COMMON               D      B       B       1       84.6%
BITSFR0              0      0       0       1        0.0%
SFR0                 0      0       0       1        0.0%
BITSFR1              0      0       0       2        0.0%
SFR1                 0      0       0       2        0.0%
STACK                0      0       0       2        0.0%
ABS                  0      0      AF       3        0.0%
BITBANK0            50      0       0       4        0.0%
BITSFR3              0      0       0       4        0.0%
SFR3                 0      0       0       4        0.0%
BANK0               50     50      50       5      100.0%
BITSFR2              0      0       0       5        0.0%
SFR2                 0      0       0       5        0.0%
DATA                 0      0      AF       6        0.0%
BITBANK1            50      0       0       7        0.0%
BANK1               50     4F      4F       8       98.8%
BITBANK3            55      0       0       9        0.0%
BANK3               55      4       5      10        5.9%
BITBANK2            5B      0       0      11        0.0%
BANK2               5B      0       0      12        0.0%


Microchip Technology PIC Macro Assembler V2.20 build 20200408173844 
Symbol Table                                                                                   Wed Jun 21 12:27:41 2023

                         ___fldiv@aexp 0055                           ___fldiv@bexp 0054  
                                    pc 0002                           ___fldiv@sign 004D  
                                   l40 019B                                     l50 1591  
                                   l60 1EFF                                     l47 1B78  
                                   l56 1CFF                                     l57 1D09  
                         ___awdiv@sign 0078                                     fsr 0004  
                  __Umul8_16@word_mpld 0079                       ??_PORT_Blink_LED 0073  
                                  l110 1270                                    l120 186F  
                                  l105 07EE                                    l107 07F8  
                                  l205 18B8                                    l215 19A8  
                                  l208 181B                                    l171 1930  
                                  l180 182B                                    l413 1AFC  
                                  l325 1D1E                                    l190 1813  
                                  l430 1A27                                    l335 1DA6  
                                  l431 1A3C                                    l184 183D  
                                  l193 180B                                    l177 1969  
                                  l249 184F                                    l426 1A95  
                                  l434 1DC5                                    l338 1C09  
                                  l187 180F                                    l611 0A16  
                                  l196 10C6                                    l348 1C7B  
                                  l532 19EC                                    l437 1E31  
                                  l453 1BDF                                    l429 1A0B  
                                  l438 1E4A                                    l446 1BF4  
                                  l542 0839                                    l199 10D0  
                                  l456 1BF4                                    l633 0A0A  
                                  l625 0988                                    l609 0896  
                                  l553 0A7A                                    l706 1156  
                                  l707 1162                                    l661 0FF3  
                                  l557 0B21                                    l670 1905  
                                  l574 0BEC                                    l566 0C9E  
                                  l655 0F6B                                    l559 0AF8  
                                  l584 0C32                                    l649 0FFF  
                                  l578 0C10                                    l595 0C92  
                                  l668 18F3                                    l596 0C9E  
                                  l693 10F5                                    l599 1893  
                                  l695 118C              __end_of_TIMER_init_timer1 1850  
                                  _isr 0010                                    fsr0 0004  
                         ___awmod@sign 0078                      ?_PORT_Change_Gain 0073  
                         ___flmul@aexp 0068                           ___flmul@bexp 0069  
                         ___flmul@sign 0063                           ___flmul@temp 006E  
                         ___flmul@prod 006A                     ??_PORT_Change_Gain 0076  
             __end_of_PORT_Select_Mux0 181C                           ___fltol@exp1 0021  
                                 l2100 0A67                                   l2110 0A84  
                                 l2102 0A6F                                   l2200 0BCF  
                                 l2120 0A98                                   l2112 0A88  
                                 l2104 0A70                                   l3000 1436  
                                 l2210 0C02                                   l2202 0BDE  
                                 l2130 0AAC                                   l2122 0A9C  
                                 l2114 0A8C                                   l2106 0A72  
                                 l3010 131B                                   l3002 1271  
                                 l3100 1990                                   l2220 0C19  
                                 l2212 0C0B                                   l2204 0BF4  
                                 l2140 0AC0                                   l2132 0AB0  
                                 l2124 0AA0                                   l2116 0A90  
                                 l2108 0A80                                   l3020 020D  
                                 l3012 1350                                   l3004 12A6  
                                 l2300 1D22                                   l3110 199F  
                                 l2230 0C29                                   l2222 0C1E  
                                 l2214 0C0F                                   l2206 0BF9  
                                 l2150 0AF3                                   l2134 0AB4  
                                 l2126 0AA4                                   l2118 0A94  
                                 l2142 0AC4                                   l2070 0A28  
                                 l3030 02E8                                   l3022 0242  
                                 l3014 019C                                   l3006 12DB  
                                 l2310 1D44                                   l2302 1D2D  
                                 l2400 1AE0                                   l3120 1895  
                                 l2240 0C4A                                   l2232 0C2F  
                                 l2216 0C14                                   l2224 0C20  
                                 l2160 0B0C                                   l2152 0AFC  
                                 l2144 0AC5                                   l2136 0AB8  
                                 l2128 0AA8                                   l2080 0A3C  
                                 l2072 0A29                                   l2064 0A17  
                                 l3040 0395                                   l3032 02EF  
                                 l3024 0277                                   l3016 01D1  
                                 l3008 12E4                                   l2320 1D70  
                                 l2312 1D4D                                   l2304 1D31  
                                 l3200 1A3B                                   l3130 1857  
                                 l2410 1AF8                                   l2402 1AE1  
                                 l3106 1995                                   l3122 1898  
                                 l2250 0C7A                                   l2242 0C4E  
                                 l2218 0C17                                   l2226 0C24  
                                 l2162 0B15                                   l2154 0B05  
                                 l2146 0ADC                                   l2138 0ABC  
                                 l2090 0A52                                   l2074 0A2E  
                                 l2082 0A3E                                   l2066 0A1E  
                                 l3050 0442                                   l3042 03CA  
                                 l3034 0324                                   l3026 027E  
                                 l3018 0206                                   l2330 1D93  
                                 l2322 1D7E                                   l2314 1D51  
                                 l2306 1D39                                   l3210 193D  
                                 l3132 185C                                   l2404 1AE8  
                                 l2420 1A47                                   l3108 199A  
                                 l3116 19A4                                   l3124 18A5  
                                 l2260 0C8E                                   l2252 0C82  
                                 l2244 0C6C                                   l2236 0C37  
                                 l2228 0C25                                   l2180 0B5B  
                                 l2172 0B33                                   l2156 0B07  
                                 l2148 0AEB                                   l2164 0B19  
                                 l2092 0A58                                   l2084 0A46  
                                 l2076 0A33                                   l2068 0A24  
                                 l3060 051D                                   l3052 0477  
                                 l3044 03D1                                   l3036 0359  
                                 l3028 02B3                                   l2332 1D9E  
                                 l2324 1D7F                                   l2316 1D55  
                                 l2308 1D41                                   l2340 1BFC  
                                 l3300 0191                                   l3220 1954  
                                 l3212 1946                                   l3204 1931  
                                 l3134 1864                                   l2406 1AEE  
                                 l2430 1A5B                                   l2422 1A49  
                                 l2414 1A3D                                   l3126 18AB  
                                 l2270 18E9                                   l2262 0C99  
                                 l2254 0C87                                   l2238 0C3C  
                                 l2246 0C70                                   l2182 0B5D  
                                 l2174 0B4A                                   l2166 0B25  
                                 l2190 0B70                                   l2158 0B0B  
                                 l2094 0A5C                                   l2086 0A4B  
                                 l2078 0A3B                                   l3062 0524  
                                 l3054 04AC                                   l3046 0406  
                                 l3038 0360                                   l3070 059B  
                                 l2326 1D88                                   l2318 1D5E  
                                 l2350 1C2C                                   l2342 1C0D  
                                 l2510 19A9                                   l3150 11D4  
                                 l3142 1190                                   l3230 1964  
                                 l3222 1958                                   l3214 1949  
                                 l3206 1937                                   l3310 18CF  
                                 l3136 186A                                   l3128 1851  
                                 l2280 10C6                                   l2408 1AF3  
                                 l2440 1A7A                                   l2432 1A62  
                                 l2424 1A4D                                   l2416 1A3E  
                                 l2600 088C                                   l2272 18ED  
                                 l2264 0C9D                                   l2256 0C88  
                                 l2248 0C75                                   l2192 0B86  
                                 l2184 0B61                                   l2176 0B4E  
                                 l2168 0B2A                                   l2096 0A5D  
                                 l2088 0A51                                   l3080 07E4  
                                 l3072 0736                                   l3064 0559  
                                 l3056 04B3                                   l3048 043B  
                                 l2328 1D8E                                   l2360 1C5D  
                                 l2352 1C30                                   l2344 1C18  
                                 l2336 1BF5                                   l2504 1BD4  
                                 l2520 19BF                                   l2512 19AB  
                                 l3160 122F                                   l3152 11F9  
                                 l3144 11AF                                   l3232 1966  
                                 l3224 195C                                   l3216 194D  
                                 l3208 193B                                   l3240 1845  
                                 l3312 18D0                                   l3304 18B9  
                                 l2290 1808                                   l3138 186E  
                                 l2282 10CC                                   l2370 1A96  
                                 l2442 1A81                                   l2434 1A66  
                                 l2426 1A52                                   l2418 1A42  
                                 l3090 1981                                   l2602 088E  
                                 l2274 18FC                                   l2266 18E0  
                                 l2258 0C8C                                   l2194 0BC4  
                                 l2186 0B62                                   l2178 0B52  
                                 l2098 0A62                                   l3074 07A5  
                                 l3066 058E                                   l3058 04E8  
                                 l2354 1C34                                   l2346 1C20  
                                 l2362 1C63                                   l2338 1BF8  
                                 l2506 1BE4                                   l2530 19E2  
                                 l2522 19C3                                   l2514 19B1  
                                 l3162 1248                                   l3154 11FF  
                                 l3146 11B5                                   l3170 1906  
                                 l3234 1967                                   l3226 1960  
                                 l3218 194F                                   l3250 184A  
                                 l3242 1846                                   l3314 18D5  
                                 l3306 18C3                                   l2284 182D  
                                 l2380 1AA6                                   l2372 1A97  
                                 l2436 1A6A                                   l2428 1A58  
                                 l2444 1A87                                   l3084 196B  
                                 l2700 0A04                                   l2620 08D7  
                                 l2604 089E                                   l2612 08B7  
                                 l2276 1901                                   l2268 18E2  
                                 l2196 0BC8                                   l2188 0B6B  
                                 l2460 1DE5                                   l2452 1DA7  
                                 l3076 07BE                                   l3068 0595  
                                 l2364 1C68                                   l2356 1C46  
                                 l2348 1C23                                   l2508 1BE9  
                                 l2524 19D4                                   l2516 19B4  
                                 l2532 19E8                                   l2540 0809  
                                 l3164 1260                                   l3156 121C  
                                 l3148 11C2                                   l3260 181C  
                                 l3180 191A                                   l3172 190C  
                                 l3228 1961                                   l3252 184B  
                                 l3244 1847                                   l3236 183E  
                                 l3308 18C8                                   l2286 1833  
                                 l2390 1ABA                                   l2382 1AAB  
                                 l2374 1A9B                                   l2446 1A8C  
                                 l2438 1A74                                   l3086 1977  
                                 l2702 0A06                                   l2630 08F6  
                                 l2622 08DF                                   l2614 08BC  
                                 l2606 08AA                                   l2710 0CA6  
                                 l2198 0BCA                                   l2462 1E09  
                                 l2454 1DBD                                   l3078 07C9  
                                 l2294 1D0A                                   l2366 1C73  
                                 l2358 1C54                                   l2526 19DA  
                                 l2518 19BB                                   l2550 0828  
                                 l2542 0810                                   l3166 1266  
                                 l3158 1229                                   l3270 00AA  
                                 l3262 002C                                   l3190 192B  
                                 l3182 191D                                   l3174 190F  
                                 l3254 184E                                   l3246 1848  
                                 l3238 1842                                   l2288 180C  
                                 l2392 1AC1                                   l2384 1AAF  
                                 l2376 1AA0                                   l2448 1A91  
                                 l3088 197C                                   l3096 1986  
                                 l2640 0928                                   l2632 0908  
                                 l2624 08E7                                   l2608 08AE  
                                 l2800 0F3C                                   l2720 0CBB  
                                 l2712 0CAC                                   l2560 1874  
                                 l2464 1E0D                                   l2456 1DD9  
                                 l2296 1D0D                                   l2480 1BA4  
                                 l2472 1B79                                   l2528 19DB  
                                 l2552 082F                                   l2544 0814  
                                 l2536 0800                                   l3192 19ED  
                                 l3280 010F                                   l3272 00B4  
                                 l3264 006C                                   l3184 1920  
                                 l3176 1912                                   l3256 1814  
                                 l3248 1849                                   l2394 1AC5  
                                 l2386 1AB1                                   l2378 1AA2  
                                 l3098 198B                                   l2650 0949  
                                 l2642 0929                                   l2634 090C  
                                 l2626 08EF                                   l2618 08C5  
                                 l2570 084B                                   l2810 0F54  
                                 l2802 0F45                                   l2730 0CD8  
                                 l2722 0CC3                                   l2714 0CB0  
                                 l2466 1E47                                   l2458 1DE1  
                                 l2298 1D11                                   l2482 1BA5  
                                 l2474 1B86                                   l2546 0818  
                                 l2538 0806                                   l2554 0835  
                                 l3194 1A03                                   l3290 0150  
                                 l3274 00CF                                   l3266 0085  
                                 l3186 1923                                   l3178 1915  
                                 l3258 1817                                   l2396 1AC9  
                                 l2388 1AB7                                   l2900 1B03  
                                 l2660 0962                                   l2652 094B  
                                 l2644 0937                                   l2636 090D  
                                 l2628 08F1                                   l2580 085F  
                                 l2572 084C                                   l2564 083A  
                                 l2820 0F83                                   l2812 0F68  
                                 l2804 0F4B                                   l2740 0CEF  
                                 l2732 0CDC                                   l2724 0CC5  
                                 l2716 0CB1                                   l2708 0C9F  
                                 l2468 1E49                                   l2484 1BAD  
                                 l2548 0822                                   l3196 1A1F  
                                 l3276 00D9                                   l3268 008F  
                                 l3188 1928                                   l2398 1ADA  
                                 l2910 1B55                                   l2902 1B1A  
                                 l2670 0985                                   l2654 0954  
                                 l2662 0968                                   l2638 0916  
                                 l2646 093B                                   l2590 0878  
                                 l2574 0851                                   l2582 0861  
                                 l2566 0841                                   l2830 0FBE  
                                 l2822 0F87                                   l2806 0F4F  
                                 l2742 0CF1                                   l2734 0CDD  
                                 l2726 0CCD                                   l2718 0CB6  
                                 l2558 1870                                   l2494 1BBB  
                                 l2486 1BAF                                   l2478 1B8F  
                                 l3198 1A39                                   l3278 00F4  
                                 l3286 011A                                   l2912 1B6D  
                                 l2904 1B20                                   l2680 09A4  
                                 l2664 096C                                   l2656 0958  
                                 l2648 0941                                   l2592 0879  
                                 l2584 0869                                   l2576 0856  
                                 l2568 0847                                   l2840 0FE7  
                                 l2832 0FCD                                   l2824 0FA0  
                                 l2816 0F70                                   l2808 0F50  
                                 l2760 0D62                                   l2752 0D0C  
                                 l2744 0CF9                                   l2736 0CE2  
                                 l2728 0CD2                                   l2496 1BC4  
                                 l2488 1BB3                                   l2920 14AF  
                                 l3288 0135                                   l3296 015B  
                                 l2914 1B72                                   l2906 1B38  
                                 l2690 09ED                                   l2682 09BD  
                                 l2674 098D                                   l2666 096D  
                                 l2658 0959                                   l2594 087E  
                                 l2586 086E                                   l2578 085E  
                                 l2842 0FEB                                   l2834 0FD7  
                                 l2818 0F75                                   l2826 0FA6  
                                 l2770 0DDF                                   l2762 0D8E  
                                 l2754 0D1C                                   l2746 0CFE  
                                 l2738 0CE7                                   l2850 10D4  
                                 l2498 1BCD                                   l2930 1528  
                                 l2922 14CA                                   l3298 0176  
                                 l2908 1B4F                                   l2692 09F1  
                                 l2676 0992                                   l2684 09C3  
                                 l2668 0971                                   l2596 0883  
                                 l2588 0874                                   l2844 0FEC  
                                 l2836 0FD9                                   l2828 0FB3  
                                 l2780 0E5F                                   l2772 0DFC  
                                 l2764 0DAA                                   l2756 0D29  
                                 l2748 0D03                                   l2852 10D9  
                                 l2940 158B                                   l2932 153C  
                                 l2924 14DE                                   l2916 143D  
                                 l2694 09F9                                   l2686 09D0  
                                 l2678 09A0                                   l2598 088B  
                                 l2846 0FF7                                   l2838 0FDF  
                                 l2790 0F17                                   l2782 0E8C  
                                 l2774 0E0C                                   l2766 0DC6  
                                 l2758 0D46                                   l2870 111F  
                                 l2862 1106                                   l2854 10DD  
                                 l2950 1E4B                                   l2942 1C7F  
                                 l2934 156B                                   l2926 150D  
                                 l2918 14A9                                   l2696 09FA  
                                 l2688 09DE                                   l2792 0F20  
                                 l2784 0E9C                                   l2776 0E29  
                                 l2768 0DCF                                   l2880 114C  
                                 l2872 1123                                   l2864 110B  
                                 l2856 10ED                                   l2952 1EF7  
                                 l2944 1CDC                                   l2960 15C7  
                                 l2936 1571                                   l2928 1513  
                                 l2698 0A00                                   l2794 0F2E  
                                 l2786 0EC9                                   l2778 0E42  
                                 l2890 117F                                   l2882 1150  
                                 l2874 1131                                   l2866 110F  
                                 l2858 10FD                                   l2946 1CF5  
                                 l2970 16A4                                   l2962 15FC  
                                 l2938 1586                                   l2796 0F37  
                                 l2788 0EEF                                   l2892 1183  
                                 l2884 115A                                   l2876 113A  
                                 l2868 1118                                   l2980 1751  
                                 l2972 16AB                                   l2964 1631  
                                 l2956 1592                                   l2798 0F3B  
                                 l2894 1184                                   l2886 1164  
                                 l2878 1141                                   l2990 1357  
                                 l2982 1786                                   l2974 16E0  
                                 l2966 163A                                   l2958 15C7  
                                 l2888 117A                                   l2992 138C  
                                 l2984 178D                                   l2976 1715  
                                 l2968 166F                                   l2898 1AFD  
                                 l2994 13C1                                   l2986 17C4  
                                 l2978 171C                                   l2996 13CA  
                                 l2988 17F9                                   l2998 1401  
                                 ?_isr 0071                                   STR_1 10BC  
                                 STR_2 10A6                                   STR_3 10C0  
                                 STR_4 10B7                                   STR_5 10B2  
                                 u3000 0BF4                                   u3001 0BF3  
                                 u3010 0BF9                                   u3011 0BF8  
                                 u3100 0C3C                                   u3101 0C3B  
                                 u3110 0C4E                                   u3030 0C0F  
                                 u3111 0C4D                                   u3031 0C0E  
                                 u4000 08BC                                   u3120 0C5D  
                                 u3040 0C14                                   u4001 08BB  
                                 u3041 0C13                                   u3025 0C04  
                                 u4010 08F6                                   u3210 1901  
                                 u3130 0C6C                                   u3050 0C1E  
                                 u4011 08F5                                   u3211 1900  
                                 u3131 0C6B                                   u3051 0C1D  
                                 u3220 10CC                                   u4100 0958  
                                 u3140 0C75                                   u3060 0C24  
                                 u3221 10CB                                   u4101 0957  
                                 u3205 18F4                                   u3141 0C74  
                                 u3125 0C58                                   u3061 0C23  
                                 u3230 1833                                   u3150 0C7A  
                                 u3070 0C29                                   u3310 1D70  
                                 u3231 1832                                   u3151 0C79  
                                 u3071 0C28                                   u3311 1D6F  
                                 u3240 1813                                   u4200 09ED  
                                 u4120 096C                                   u4040 090C  
                                 u3160 0C87                                   u3080 0C2F  
                                 u5000 0359                                   u3400 1C46  
                                 u3241 1812                                   u4201 09EC  
                                 u4121 096B                                   u4041 090B  
                                 u4025 08F8                                   u3161 0C86  
                                 u3081 0C2E                                   u5001 0358  
                                 u3305 1D57                                   u3401 1C45  
                                 u4210 0A04                                   u4130 0971  
                                 u3170 0C8C                                   u3090 0C36  
                                 u5010 0395                                   u3330 1D8E  
                                 u3250 1D11                                   u4211 0A03  
                                 u4131 0970                                   u4115 095B  
                                 u4035 0901                                   u3171 0C8B  
                                 u3091 0C35                                   u5011 0394  
                                 u3331 1D8D                                   u3315 1D6C  
                                 u3251 1D10                                   u3500 1ADA  
                                 u4140 0985                                   u4060 0928  
                                 u4220 0CB0                                   u3180 0C9D  
                                 u5100 058E                                   u5020 03CA  
                                 u3340 1D93                                   u3260 1D22  
                                 u3420 1C63                                   u3501 1AD9  
                                 u4205 09E9                                   u4141 0984  
                                 u4061 0927                                   u4301 0D54  
                                 u4221 0CAF                                   u3181 0C9C  
                                 u5101 058D                                   u5021 03C9  
                                 u3341 1D92                                   u3325 1D80  
                                 u3261 1D21                                   u3421 1C62  
                                 u3405 1C42                                   u4150 098C  
                                 u4070 0941                                   u3190 18ED  
                                 u4302 0D5B                                   u4230 0CB6  
                                 u5030 0406                                   u3270 1D41  
                                 u3430 1C68                                   u3350 1BFC  
                                 u4151 098B                                   u4071 0940  
                                 u4055 090F                                   u3191 18EC  
                                 u4311 0D70                                   u4303 0D62  
                                 u4231 0CB5                                   u5031 0405  
                                 u3271 1D40                                   u3431 1C67  
                                 u3415 1C55                                   u3351 1BFB  
                                 u3520 1AEE                                   u3440 1A9B  
                                 u5200 1981                                   u4160 0992  
                                 u4080 0949                                   u4312 0D77  
                                 u4240 0CBB                                   u2800 0A80  
                                 u5040 043B                                   u3360 1C0D  
                                 u3521 1AED                                   u3505 1AD6  
                                 u3441 1A9A                                   u5201 1980  
                                 u4161 0991                                   u4081 0948  
                                 u4065 0924                                   u4401 0EAB  
                                 u4321 0D9C                                   u4313 0D7E  
                                 u4241 0CBA                                   u2801 0A7F  
                                 u5041 043A                                   u3361 1C0C  
                                 u3530 1AF3                                   u3450 1AA6  
                                 u3610 1A87                                   u5210 198B  
                                 u4170 09A4                                   u4410 0ED5  
                                 u4402 0EB2                                   u4322 0DA3  
                                 u4250 0CDC                                   u2810 0A84  
                                 u2730 0A28                                   u5050 0477  
                                 u3290 1D55                                   u3370 1C20  
                                 u3531 1AF2                                   u3515 1AE2  
                                 u3451 1AA5                                   u3611 1A86  
                                 u5211 198A                                   u4171 09A3  
                                 u4403 0EB9                                   u4331 0DB8  
                                 u4323 0DAA                                   u4251 0CDB  
                                 u2811 0A83                                   u2731 0A27  
                                 u5115 059E                                   u5051 0476  
                                 u3291 1D54                                   u3371 1C1F  
                                 u3460 1AB7                                   u3620 1A8C  
                                 u3540 1A42                                   u5220 1990  
                                 u4180 09B3                                   u4500 0F54  
                                 u4332 0DBF                                   u4260 0CE2  
                                 u2900 0B2A                                   u2820 0ADC  
                                 u2740 0A2E                                   u5060 04AC  
                                 u3700 1B86                                   u5300 1946  
                                 u3461 1AB6                                   u3621 1A8B  
                                 u3605 1A7B                                   u3541 1A41  
                                 u5221 198F                                   u4501 0F53  
                                 u4421 0EE1                                   u4333 0DC6  
                                 u4261 0CE1                                   u2901 0B29  
                                 u2821 0ADB                                   u2741 0A2D  
                                 u5125 0601                                   u5061 04AB  
                                 u3285 1D46                                   u3701 1B85  
                                 u5301 1945                                   u3550 1A4D  
                                 u5230 199A                                   u4190 09D0  
                                 u4510 0F68                                   u4430 0EFD  
                                 u4422 0EE8                                   u4270 0CE7  
                                 u2830 0AE7                                   u2750 0A33  
                                 u3630 1DBD                                   u5070 04E8  
                                 u3390 1C34                                   u3710 1B9D  
                                 u5310 1828                                   u3551 1A4C  
                                 u5231 1999                                   u4191 09CF  
                                 u4095 094D                                   u4511 0F67  
                                 u4423 0EEF                                   u4415 0ED0  
                                 u4351 0DEE                                   u4271 0CE6  
                                 u2911 0B3C                                   u2831 0AE5  
                                 u2751 0A32                                   u3631 1DBC  
                                 u5135 063D                                   u5071 04E7  
                                 u3391 1C33                                   u5311 1824  
                                 u3480 1AC9                                   u3560 1A58  
                                 u5240 199F                                   u4520 0F6F  
                                 u4352 0DF5                                   u4280 0CFE  
                                 u2920 0B4E                                   u2912 0B43  
                                 u2840 0AE8                                   u2760 0A51  
                                 u4600 10DD                                   u3640 1DD9  
                                 u5080 051D                                   u3720 1BB3  
                                 u3800 19B1                                   u5400 0176  
                                 u3481 1AC8                                   u3561 1A57  
                                 u5241 199E                                   u4185 09AE  
                                 u4521 0F6E                                   u4441 0F09  
                                 u4361 0E1B                                   u4353 0DFC  
                                 u4345 0DC8                                   u4281 0CFD  
                                 u2921 0B4D                                   u2913 0B4A  
                                 u2825 0AD8                                   u2761 0A50  
                                 u4601 10DC                                   u3641 1DD8  
                                 u5145 0688                                   u5081 051C  
                                 u3385 1C25                                   u3721 1BB2  
                                 u3801 19B0                                   u5401 0175  
                                 u5250 18B8                                   u4530 0F75  
                                 u4442 0F10                                   u4362 0E22  
                                 u4290 0D03                                   u2930 0B52  
                                 u2850 0AFC                                   u2770 0A5C  
                                 u4610 10FD                                   u3650 1DE5  
                                 u5170 07BE                                   u5090 0559  
                                 u3730 1BBA                                   u5410 0191  
                                 u5330 0085                                   u3475 1ABB  
                                 u5251 18B7                                   u4195 09CC  
                                 u4531 0F74                                   u4443 0F17  
                                 u4435 0EF8                                   u4363 0E29  
                                 u4291 0D02                                   u2931 0B51  
                                 u2851 0AFB                                   u2771 0A5B  
                                 u4611 10FC                                   u3651 1DE4  
                                 u5171 07BD                                   u5155 06C4  
                                 u5091 0558                                   u3731 1BB9  
                                 u3715 1B98                                   u5411 0190  
                                 u5331 0084                                   u5260 186A  
                                 u3580 1A6A                                   u4540 0F87  
                                 u2940 0B61                                   u2860 0B0B  
                                 u2780 0A62                                   u4700 116F  
                                 u5180 07E4                                   u3820 19C3  
                                 u3900 0822                                   u5340 00AA  
                                 u5324 182B                                   u5420 18CF  
                                 u5261 1869                                   u3581 1A69  
                                 u4541 0F86                                   u4381 0E51  
                                 u2941 0B60                                   u2861 0B0A  
                                 u2781 0A61                                   u3661 1DF4  
                                 u5181 07E3                                   u5165 0739  
                                 u3821 19C2                                   u3901 0821  
                                 u5341 00A9                                   u5421 18CE  
                                 u3590 1A74                                   u5190 197C  
                                 u4550 0F96                                   u4470 0F3B  
                                 u4382 0E58                                   u2790 0A67  
                                 u4710 117F                                   u4630 111E  
                                 u3670 1E0D                                   u3662 1DF5  
                                 u3750 1BCC                                   u5270 1A03  
                                 u5350 00CF                                   u3495 1ACA  
                                 u3591 1A73                                   u3575 1A5C  
                                 u5191 197B                                   u4471 0F3A  
                                 u4455 0F19                                   u4391 0E7E  
                                 u4383 0E5F                                   u4375 0E2B  
                                 u2791 0A66                                   u4711 117E  
                                 u4631 111D                                   u3671 1E0C  
                                 u3663 1DFA                                   u3751 1BCB  
                                 u3815 19B5                                   u5271 1A02  
                                 u5351 00CE                                   u4560 0FB3  
                                 u4392 0E85                                   u2960 0B86  
                                 u2880 0B21                                   u4720 1183  
                                 u3664 1DFB                                   u4800 1715  
                                 u3760 1BD3                                   u3840 19D4  
                                 u3920 0835                                   u5280 1A1F  
                                 u5360 00F4                                   u4561 0FB2  
                                 u4465 0F30                                   u4393 0E8C  
                                 u2961 0B85                                   u2881 0B20  
                                 u4721 1182                                   u4705 116A  
                                 u4625 1110                                   u3681 1E1C  
                                 u3665 1E00                                   u4801 1714  
                                 u3761 1BD2                                   u3745 1BBC  
                                 u3841 19D3                                   u3921 0834  
                                 u3905 081E                                   u5281 1A1E  
                                 u5361 00F3                                   u3930 084B  
                                 u4570 0FCD                                   u4490 0F4F  
                                 u2890 0B25                                   u4650 1140  
                                 u3690 1E47                                   u3682 1E1D  
                                 u3666 1E01                                   u4730 1CF5  
                                 u4810 1751                                   u5290 1A39  
                                 u5370 010F                                   u3595 1A70  
                                 u3931 084A                                   u4571 0FCC  
                                 u4555 0F91                                   u4491 0F4E  
                                 u2971 0B9D                                   u2963 0B82  
                                 u2955 0B64                                   u2891 0B24  
                                 u2875 0B0E                                   u4651 113F  
                                 u3691 1E46                                   u3683 1E22  
                                 u4731 1CF4                                   u4811 1750  
                                 u3835 19C4                                   u3915 0829  
                                 u5291 1A38                                   u5371 010E  
                                 u3940 0851                                   u4580 0FEB  
                                 u2980 0BB1                                   u2972 0B9E  
                                 u3684 1E23                                   u4900 12DB  
                                 u4820 1786                                   u4740 15C7  
                                 u3780 1BE4                                   u3860 19E8  
                                 u5380 0135                                   u3941 0850  
                                 u4581 0FEA                                   u4565 0FAF  
                                 u4485 0F3E                                   u2981 0BB2  
                                 u2973 0BA3                                   u4645 1132  
                                 u3685 1E28                                   u4901 12DA  
                                 u4821 1785                                   u4741 15C6  
                                 u3781 1BE3                                   u3861 19E7  
                                 u3845 19D0                                   u5381 0134  
                                 u3950 0856                                   u2990 0BCF  
                                 u2982 0BB7                                   u2974 0BA4  
                                 u4670 1150                                   u4590 10D9  
                                 u3686 1E29                                   u4910 131B  
                                 u4830 17C4                                   u4750 15FC  
                                 u3790 1BE9                                   u3870 0806  
                                 u5390 0150                                   u3951 0855  
                                 u4575 0FC9                                   u2991 0BCE  
                                 u2983 0BB8                                   u2975 0BA9  
                                 u4671 114F                                   u4591 10D8  
                                 u3695 1E43                                   u4911 1318  
                                 u4831 17C1                                   u4751 15FB  
                                 u3791 1BE8                                   u3775 1BD6  
                                 u3855 19DC                                   u3871 0805  
                                 u5295 1A35                                   u5391 014F  
                                 u3960 0878                                   u2976 0BAA  
                                 u4680 1156                                   u4920 1350  
                                 u4840 17F9                                   u4760 1631  
                                 u3961 0877                                   u4681 1155  
                                 u4665 1145                                   u4921 134F  
                                 u4841 17F8                                   u4761 1630  
                                 u3970 087E                                   u4690 115A  
                                 u4930 01D1                                   u4850 138C  
                                 u4770 166F                                   u3890 0818  
                                 u3971 087D                                   u4691 1159  
                                 u4931 01D0                                   u4851 138B  
                                 u4771 166E                                   u3891 0817  
                                 u3980 0883                                   u4940 0206  
                                 u4860 13C1                                   u4780 16A4  
                                 u3981 0882                                   u4941 0205  
                                 u4861 13C0                                   u4781 16A3  
                                 u3885 080A                                   u3990 089E  
                                 u4950 0242                                   u4870 1401  
                                 u4790 16E0                                   u3991 089D  
                                 u4951 0241                                   u4871 13FE  
                                 u4791 16DF                                   u4960 0277  
                                 u4880 1436                                   u4961 0276  
                                 u4881 1435                                   u4970 02B3  
                                 u4890 12A6                                   u4971 02B2  
                                 u4891 12A5                                   u4980 02E8  
                                 u4981 02E7                                   u4990 0324  
                                 u4991 0323                                   _TMRA 0110  
                                 _WPUB 0095              ??_Get_Better_Newton_Value 007C  
                                 _main 18B9                                   btemp 007E  
                    ??_PORT_Choose_Mux 0073                                   start 000C  
                      ___fldiv@new_exp 004E                      Resistance_Value@R 00A4  
                __size_of_ADC_GetValue 0020                                  ??_isr 0071  
                           _Get_Newton 118D                  _conversion_newton$800 00BD  
                        ___fltol@sign1 0020                        __end_of___aldiv 1DA7  
                      __end_of___almod 1C7C                        __end_of___fladd 0C9F  
                                ?_main 0071                        __end_of___fldiv 0A17  
                      __end_of___awdiv 1AFD                                  _ADRES 001E  
                      __end_of___awmod 1A96                        __end_of___flmul 1000  
                      __end_of___flsub 1894                        __end_of___fltol 1BF5  
                      ___awdiv@divisor 0073                        __end_of___lwdiv 19ED  
                                i1l254 001D                                  i1l256 0022  
                      __end_of___lwmod 083A                        ___awdiv@counter 0077  
                        _Voltage_Value 1C7C                                  _RCSTA 0018  
                                _SPBRG 0099                                  _PORTD 0008  
                                _TRISA 0085                                  _TRISB 0086  
                                _TRISC 0087                                  _TRISD 0088  
                                _TXREG 0019                                  _TXSTA 0098  
                     ??_PORT_Start_ADC 0073                     __size_of_PORT_Init 0039  
                                pclath 000A                                  status 0003  
                                wtemp0 007E                           _ADC_GetValue 1850  
                   Resistance_Value@fR 00AA             __end_of_PORT_Get_Value_Adc 180C  
                      __initialization 07F9                          PORT_putchar@c 0073  
                         __end_of_main 18DF                                 ??_main 007C  
                       ?_Voltage_Value 00A0             __size_of_TIMER_init_timer1 0012  
             __end_of_Resistance_Value 1F00                __size_of_Affichage_brut 007C  
                               _ADCON0 001F                                 _ADCON1 009F  
                     ___awdiv@dividend 0075                                 _ANSELA 0185  
                               _ANSELB 0186                                 _ANSELD 0188  
                               i1l3320 0010                                 i1l3322 0016  
                               i1l3324 0021                                 _T1SYNC 0082  
                               _FVRCON 009D                       puts_float@Valeur 00A0  
                               u543_20 0016                                 u543_21 0015  
                               u544_20 0021                                 u544_21 0020  
                               _OSCCON 0090                                 _TMR1GE 047F  
                               _TMR1IE 0460                                 _TMR1IF 0060  
                               _TMR1ON 0080                                 _TMRAIF 006C  
                               _TMRCS0 0086                                 _TMRCS1 0087  
                     __end_of___xxtofl 118D                                 ___flge 1DA7  
                               ___fleq 19ED             Affichage_brut@valueMetrics 0027  
                            ??___aldiv 007B                              ??___almod 007B  
                            ??___fladd 0028                              ??___fldiv 0044  
                            ??___awdiv 0077                              ??___awmod 0077  
                            ??___flmul 005E                              ??___flsub 007C  
                            ??___fltol 0077                              ??___lwdiv 0077  
                            ??___lwmod 0077                      __end_of_PORT_Init 196A  
                          ?_Get_Newton 00C7                       ___awdiv@quotient 0079  
                      ___awmod@divisor 0073                        ___awmod@counter 0077  
                    ?_PORT_Init_Serial 0071                     ??_PORT_Init_Serial 0073  
                   __size_of__Umul8_16 0027                                 saved_w 007E  
                     ??_PORT_putString 0074                             ___flge@ff1 0073  
                           ___flge@ff2 0077                           ___xxtofl@arg 0022  
                         ___xxtofl@exp 0021                           ___xxtofl@val 0073  
                           ___fleq@ff1 0073                             ___fleq@ff2 0077  
              __end_of__initialization 07FC              Get_Better_Newton_Value@F1 00E3  
            Get_Better_Newton_Value@F2 00E7              Get_Better_Newton_Value@F3 00EB  
                           ___fltol@f1 0073                         __pcstackCOMMON 0071  
                      ??_Voltage_Value 00A4                  Affichage_brut@affiche 0026  
                      _PORT_Choose_Mux 182C                      ?_PORT_Select_Mux0 0071  
                           __pbssBANK3 0190                     ??_PORT_Select_Mux0 0073  
                  __size_of_Get_Newton 00E4              __size_of_PORT_Change_Gain 003F  
                    __end_of__Umul8_16 1906                             __pmaintext 18B9  
                              ?___flge 0073                                ?___fleq 0073  
                  ADC_GetValue@channel 0074                             __pintentry 0004  
                              _DACCON0 0113                                _DACCON1 0114  
                              _T1CKPS0 0084                                _T1CKPS1 0085  
                              _T1OSCEN 0083                              ?___xxtofl 0073  
                       _Affichage_brut 1AFD                      puts_float@affiche 00A4  
                           __stringtab 1000                                ___aldiv 1D0A  
                      __size_of___flge 00A4                        __size_of___fleq 0050  
                              ___almod 1BF5                                ___fladd 0A17  
                              ___fldiv 083A                                ___awdiv 1A96  
                              ___awmod 1A3D                                ___flmul 0C9F  
                              ___flsub 1870                                ___fltol 1B79  
                              ___lwdiv 19A9                                ___lwmod 0800  
                   conversion_newton@F 00C1                     conversion_newton@n 00C5  
              __end_of_PORT_Choose_Mux 183E                                __ptext1 183E  
                              __ptext2 1814                                __ptext3 1931  
                              __ptext4 1906                                __ptext5 181C  
                              __ptext6 0029                                __ptext7 19ED  
                              __ptext8 118D                                __ptext9 143D  
                   _PORT_Get_Value_Adc 1808                 __end_of_Affichage_brut 1B79  
                         __size_of_isr 0019                             ??___xxtofl 0077  
                     ___awmod@dividend 0075                       ___aldiv@dividend 0077  
             ?_Get_Better_Newton_Value 00DD                      ?_Resistance_Value 00A0  
                  ?_PORT_Get_Value_Adc 0071                      _conversion_newton 1592  
                 end_of_initialization 07FC                __size_of_PORT_Blink_LED 0010  
                   ??_Resistance_Value 007C                     ?_conversion_newton 00A0  
                     Get_Newton@INTER0 00CD                       Get_Newton@INTER1 00C7  
                  ??_conversion_newton 00A4                       ___aldiv@quotient 0022  
                              psplit$0 17002E                                psplit$1 2E002F  
                              psplit$2 2F0030                   ??_PORT_Get_Value_Adc 0073  
          Voltage_Value@voltage_result 00A9                           ??_Get_Newton 00CB  
                            _PORTBbits 0006                              _PORTCbits 0007  
                            _PORT_Init 1931                            ___fladd@grs 0033  
                      ?_Affichage_brut 0022                          ___xxtofl@sign 0020  
                        ?_PORT_putchar 0071              __end_of_conversion_newton 07F9  
                          ___fldiv@grs 0050                            ___fldiv@rem 0049  
            __size_of_PORT_Init_Serial 002B                            ___flmul@grs 0064  
                   __end_of_Get_Newton 1271                             _puts_float 143D  
                     _PORT_Change_Gain 196A                __size_of_PORT_Start_ADC 0008  
                      PORT_putString@i 0074                         __end_of___flge 1E4B  
                       __end_of___fleq 1A3D        Affichage_brut@valeur_a_afficher 0022  
                            _Fincompt1 0190                       ?_PORT_Choose_Mux 0071  
             ADC_GetValue@sensor_value 0075                             ?_PORT_Init 0071  
      __end_of_Get_Better_Newton_Value 019C                         ??_PORT_putchar 0073  
                  start_initialization 07F9                            __end_of_isr 0029  
                             ??___flge 0020                               ??___fleq 0020  
            __size_of_PORT_Select_Mux0 0008                              __Umul8_16 18DF  
                __end_of_Voltage_Value 1D0A                              ___fladd@a 0024  
                            ___fladd@b 0020                              ___fldiv@a 003C  
                            ___fldiv@b 0040                              ___flmul@a 005A  
                            ___flmul@b 0056                              ___flsub@a 0034  
                            ___flsub@b 0038                              ___latbits 0002  
                        __pcstackBANK0 0020                          __pcstackBANK1 00A0  
           __size_of_conversion_newton F267                 conversion_newton@F_tab 1056  
                    __size_of___xxtofl 00BC                 conversion_newton@R_tab 1006  
                       _PORT_Blink_LED 181C                          ?_ADC_GetValue 0071  
                          ?_puts_float 00A0                       ___lwdiv@dividend 0075  
              __size_of_PORT_putString 0025                               ?___aldiv 0073  
                             ?___almod 0073                               ?___fladd 0020  
                             ?___fldiv 003C                               ?___awdiv 0073  
                             ?___awmod 0073                               ?___flmul 0056  
                             ?___flsub 0034                               ?___fltol 0073  
                           ?__Umul8_16 0073                               ?___lwdiv 0073  
                             ?___lwmod 0073                 PORT_Change_Gain@INTER0 0076  
               PORT_Change_Gain@INTER1 0073                 puts_float@valueMetrics 00A6  
                     ___almod@dividend 0077                              __pstrings 1000  
                          ??_PORT_Init 0073                 __end_of_PORT_Blink_LED 182C  
                     ___lwdiv@quotient 0077                             pnum$text15 0017  
               Get_Newton@sensor_value 00DC                       _PORT_Init_Serial 1906  
                       ??_ADC_GetValue 0074                        ___aldiv@divisor 0073  
                    interrupt_function 0004                        ___aldiv@counter 0020  
                       _PORT_Start_ADC 180C                   __end_of_PORT_putchar 10D1  
                PORT_Choose_Mux@_value 0073       __size_of_Get_Better_Newton_Value 0173  
                             _GO_nDONE 00F9              __size_of_Resistance_Value 00B5  
                     ??_Affichage_brut 0024                            __stringbase 1005  
             __end_of_PORT_Change_Gain 19A9                    __size_of_puts_float 0155  
                      ?_PORT_Blink_LED 0071                           Get_Newton@Rc 00D6  
                         Get_Newton@Vs 00CE                 __end_of_PORT_Start_ADC 1814  
             Get_Newton@sensor_Channel 00C8                       _PORT_Select_Mux0 1814  
                          ??__Umul8_16 0075            __size_of_PORT_Get_Value_Adc 0004  
                     __size_of___aldiv 009D                       __size_of___almod 0087  
                     __size_of___fladd 0288                       __size_of___fldiv 01DD  
                     __size_of___awdiv 0067                       __size_of___awmod 0059  
                     __size_of___flmul 0361                       __size_of___flsub 0024  
                     __size_of___fltol 007C                       __size_of___lwdiv 0044  
                     __size_of___lwmod 003A                     __end_of__stringtab 1006  
Get_Better_Newton_Value@channel_sensor 00E2                               ___xxtofl 10D1  
                  conversion_newton@Rc 00A0                        ___lwdiv@divisor 0073  
                      ___lwdiv@counter 0079                               __ptext10 0800  
                             __ptext11 19A9                               __ptext20 1870  
                             __ptext12 1B79                               __ptext21 0A17  
                             __ptext13 1BF5                               __ptext30 10C5  
                             __ptext22 0C9F                               __ptext14 1D0A  
                             __ptext31 1850                               __ptext23 18DF  
                             __ptext15 1592                               __ptext32 180C  
                             __ptext24 083A                               __ptext16 1C7C  
                             __ptext33 1808                               __ptext25 1894  
                             __ptext17 1DA7                               __ptext34 182C  
                             __ptext26 196A                               __ptext18 1E4B  
                             __ptext35 0010                               __ptext27 1AFD  
                             __ptext19 10D1                               __ptext28 1A3D  
                             __ptext29 1A96                        ___almod@divisor 0073  
                      ___almod@counter 0020                        ?_PORT_Start_ADC 0071  
                        __size_of_main 0026                         _PORT_putString 1894  
                   pnum$text15_split_1 002E                     pnum$text15_split_2 002F  
                   pnum$text15_split_3 0030                   __end_of_ADC_GetValue 1870  
                          Get_Newton@F 00D2                            Get_Newton@R 00DA  
             __size_of_PORT_Choose_Mux 0012                               intlevel1 0000  
                __size_of_PORT_putchar 000C                       ___lwmod@dividend 0075  
               __end_of_PORT_putString 18B9                           ??_puts_float 007C  
              _Get_Better_Newton_Value 0029                              stringcode 1000  
                     _Resistance_Value 1E4B               __end_of_PORT_Init_Serial 1931  
                 PORT_putString@chaine 0076         __end_ofconversion_newton@F_tab 10A6  
               __Umul8_16@multiplicand 0073         __end_ofconversion_newton@R_tab 1056  
                  Voltage_Value@sensor 00A8                        ___lwmod@divisor 0073  
                      ___lwmod@counter 0077                               stringdir 1000  
                   __end_of_puts_float 1592                               stringtab 1000  
                         ___aldiv@sign 0021                           _PORT_putchar 10C5  
                    _TIMER_init_timer1 183E                Resistance_Value@Voltage 00A0  
                        ___fladd@signs 0030                     ?_TIMER_init_timer1 0071  
                         ___almod@sign 0021                           ___fladd@aexp 0031  
                         ___fladd@bexp 0032                        ?_PORT_putString 0071  
                 __Umul8_16@multiplier 007B                    ??_TIMER_init_timer1 0073  
               __size_of_Voltage_Value 008E               Resistance_Value@resultat 00A6  
                    __Umul8_16@product 0077  
