

Microchip MPLAB XC8 Assembler V2.20 build 20200408173844 
                                                                                               Wed Jun 21 17:24:12 2023

Microchip MPLAB XC8 C Compiler v2.20 (Free license) build 20200408173844 Og1 
     1                           	processor	16F707
     2                           	pagewidth 120
     3                           	opt	flic
     4                           	psect	strings,global,class=STRING,delta=2,noexec
     5                           	psect	cinit,global,class=CODE,merge=1,delta=2
     6                           	psect	bssBANK1,global,class=BANK1,space=1,delta=1,noexec
     7                           	psect	cstackBANK3,global,class=BANK3,space=1,delta=1,noexec
     8                           	psect	cstackBANK1,global,class=BANK1,space=1,delta=1,noexec
     9                           	psect	cstackCOMMON,global,class=COMMON,space=1,delta=1,noexec
    10                           	psect	cstackBANK0,global,class=BANK0,space=1,delta=1,noexec
    11                           	psect	maintext,global,class=CODE,split=1,delta=2
    12                           	psect	text1,local,class=CODE,merge=1,delta=2
    13                           	psect	text2,local,class=CODE,merge=1,delta=2
    14                           	psect	text3,local,class=CODE,merge=1,delta=2
    15                           	psect	text4,local,class=CODE,merge=1,delta=2
    16                           	psect	text5,local,class=CODE,merge=1,delta=2
    17                           	psect	text6,local,class=CODE,merge=1,delta=2
    18                           	psect	text7,local,class=CODE,merge=1,delta=2
    19                           	psect	text8,local,class=CODE,merge=1,delta=2
    20                           	psect	text9,local,class=CODE,merge=1,delta=2
    21                           	psect	text10,local,class=CODE,merge=1,delta=2,group=1
    22                           	psect	text11,local,class=CODE,merge=1,delta=2
    23                           	psect	text12,local,class=CODE,merge=1,delta=2,group=1
    24                           	psect	text13,local,class=CODE,merge=1,delta=2,group=1
    25                           	psect	text14,local,class=CODE,merge=1,delta=2,group=1
    26                           	psect	text15,local,class=CODE,merge=1,delta=2,group=1
    27                           	psect	text16,local,class=CODE,merge=1,delta=2,group=1
    28                           	psect	text17,local,class=CODE,merge=1,delta=2,group=1
    29                           	psect	text18,local,class=CODE,merge=1,delta=2
    30                           	psect	text19,local,class=CODE,merge=1,delta=2
    31                           	psect	text20,local,class=CODE,merge=1,delta=2
    32                           	psect	text21,local,class=CODE,merge=1,delta=2
    33                           	psect	text22,local,class=CODE,merge=1,delta=2
    34                           	psect	text23,local,class=CODE,merge=1,delta=2
    35                           	psect	intentry,global,class=CODE,delta=2
    36                           	psect	config,global,abs,ovrld,class=CONFIG,space=4,delta=2,noexec
    37                           	psect	text7_split_1,local,class=CODE,merge=1,delta=2
    38                           	psect	text7_split_2,local,class=CODE,merge=1,delta=2
    39                           	psect	text7_split_3,local,class=CODE,merge=1,delta=2
    40                           	dabs	1,0x7E,2
    41  0000                     
    42                           ; Version 2.20
    43                           ; Generated 12/02/2020 GMT
    44                           ; 
    45                           ; Copyright © 2020, Microchip Technology Inc. and its subsidiaries ("Microchip")
    46                           ; All rights reserved.
    47                           ; 
    48                           ; This software is developed by Microchip Technology Inc. and its subsidiaries ("Microch
      +                          ip").
    49                           ; 
    50                           ; Redistribution and use in source and binary forms, with or without modification, are
    51                           ; permitted provided that the following conditions are met:
    52                           ; 
    53                           ;     1. Redistributions of source code must retain the above copyright notice, this lis
      +                          t of
    54                           ;        conditions and the following disclaimer.
    55                           ; 
    56                           ;     2. Redistributions in binary form must reproduce the above copyright notice, this 
      +                          list
    57                           ;        of conditions and the following disclaimer in the documentation and/or other
    58                           ;        materials provided with the distribution.
    59                           ; 
    60                           ;     3. Microchip's name may not be used to endorse or promote products derived from th
      +                          is
    61                           ;        software without specific prior written permission.
    62                           ; 
    63                           ; THIS SOFTWARE IS PROVIDED BY MICROCHIP "AS IS" AND ANY EXPRESS OR IMPLIED WARRANTIES,
    64                           ; INCLUDING, BUT NOT LIMITED TO, THE IMPLIED WARRANTIES OF MERCHANTABILITY AND FITNESS F
      +                          OR
    65                           ; PURPOSE ARE DISCLAIMED.  IN NO EVENT SHALL MICROCHIP BE LIABLE FOR ANY DIRECT, INDIREC
      +                          T,
    66                           ; INCIDENTAL, SPECIAL, EXEMPLARY, OR CONSEQUENTIAL DAMAGES (INCLUDING BUT NOT LIMITED TO
    67                           ; PROCUREMENT OF SUBSTITUTE GOODS OR SERVICES; LOSS OF USE, DATA OR PROFITS; OR BUSINESS
    68                           ; INTERRUPTION) HOWSOEVER CAUSED AND ON ANY THEORY OF LIABILITY, WHETHER IN CONTRACT, ST
      +                          RICT
    69                           ; LIABILITY, OR TORT (INCLUDING NEGLIGENCE OR OTHERWISE) ARISING IN ANY WAY OUT OF THE U
      +                          SE OF
    70                           ; THIS SOFTWARE, EVEN IF ADVISED OF THE POSSIBILITY OF SUCH DAMAGE.
    71                           ; 
    72                           ; 
    73                           ; Code-generator required, PIC16F707 Definitions
    74                           ; 
    75                           ; SFR Addresses
    76  0000                     	;# 
    77  0001                     	;# 
    78  0002                     	;# 
    79  0003                     	;# 
    80  0004                     	;# 
    81  0005                     	;# 
    82  0006                     	;# 
    83  0007                     	;# 
    84  0008                     	;# 
    85  0009                     	;# 
    86  000A                     	;# 
    87  000B                     	;# 
    88  000C                     	;# 
    89  000D                     	;# 
    90  000E                     	;# 
    91  000E                     	;# 
    92  000F                     	;# 
    93  0010                     	;# 
    94  0011                     	;# 
    95  0012                     	;# 
    96  0013                     	;# 
    97  0014                     	;# 
    98  0015                     	;# 
    99  0015                     	;# 
   100  0016                     	;# 
   101  0017                     	;# 
   102  0018                     	;# 
   103  0019                     	;# 
   104  001A                     	;# 
   105  001B                     	;# 
   106  001B                     	;# 
   107  001C                     	;# 
   108  001D                     	;# 
   109  001E                     	;# 
   110  001F                     	;# 
   111  0081                     	;# 
   112  0085                     	;# 
   113  0086                     	;# 
   114  0087                     	;# 
   115  0088                     	;# 
   116  0089                     	;# 
   117  008C                     	;# 
   118  008D                     	;# 
   119  008E                     	;# 
   120  008F                     	;# 
   121  0090                     	;# 
   122  0091                     	;# 
   123  0092                     	;# 
   124  0093                     	;# 
   125  0093                     	;# 
   126  0094                     	;# 
   127  0095                     	;# 
   128  0096                     	;# 
   129  0097                     	;# 
   130  0098                     	;# 
   131  0099                     	;# 
   132  009A                     	;# 
   133  009A                     	;# 
   134  009B                     	;# 
   135  009C                     	;# 
   136  009D                     	;# 
   137  009E                     	;# 
   138  009F                     	;# 
   139  0105                     	;# 
   140  0106                     	;# 
   141  0107                     	;# 
   142  0108                     	;# 
   143  0109                     	;# 
   144  010C                     	;# 
   145  010D                     	;# 
   146  010E                     	;# 
   147  010F                     	;# 
   148  0110                     	;# 
   149  0111                     	;# 
   150  0112                     	;# 
   151  0113                     	;# 
   152  0114                     	;# 
   153  0185                     	;# 
   154  0186                     	;# 
   155  0187                     	;# 
   156  0188                     	;# 
   157  0189                     	;# 
   158  018C                     	;# 
   159  0000                     	;# 
   160  0001                     	;# 
   161  0002                     	;# 
   162  0003                     	;# 
   163  0004                     	;# 
   164  0005                     	;# 
   165  0006                     	;# 
   166  0007                     	;# 
   167  0008                     	;# 
   168  0009                     	;# 
   169  000A                     	;# 
   170  000B                     	;# 
   171  000C                     	;# 
   172  000D                     	;# 
   173  000E                     	;# 
   174  000E                     	;# 
   175  000F                     	;# 
   176  0010                     	;# 
   177  0011                     	;# 
   178  0012                     	;# 
   179  0013                     	;# 
   180  0014                     	;# 
   181  0015                     	;# 
   182  0015                     	;# 
   183  0016                     	;# 
   184  0017                     	;# 
   185  0018                     	;# 
   186  0019                     	;# 
   187  001A                     	;# 
   188  001B                     	;# 
   189  001B                     	;# 
   190  001C                     	;# 
   191  001D                     	;# 
   192  001E                     	;# 
   193  001F                     	;# 
   194  0081                     	;# 
   195  0085                     	;# 
   196  0086                     	;# 
   197  0087                     	;# 
   198  0088                     	;# 
   199  0089                     	;# 
   200  008C                     	;# 
   201  008D                     	;# 
   202  008E                     	;# 
   203  008F                     	;# 
   204  0090                     	;# 
   205  0091                     	;# 
   206  0092                     	;# 
   207  0093                     	;# 
   208  0093                     	;# 
   209  0094                     	;# 
   210  0095                     	;# 
   211  0096                     	;# 
   212  0097                     	;# 
   213  0098                     	;# 
   214  0099                     	;# 
   215  009A                     	;# 
   216  009A                     	;# 
   217  009B                     	;# 
   218  009C                     	;# 
   219  009D                     	;# 
   220  009E                     	;# 
   221  009F                     	;# 
   222  0105                     	;# 
   223  0106                     	;# 
   224  0107                     	;# 
   225  0108                     	;# 
   226  0109                     	;# 
   227  010C                     	;# 
   228  010D                     	;# 
   229  010E                     	;# 
   230  010F                     	;# 
   231  0110                     	;# 
   232  0111                     	;# 
   233  0112                     	;# 
   234  0113                     	;# 
   235  0114                     	;# 
   236  0185                     	;# 
   237  0186                     	;# 
   238  0187                     	;# 
   239  0188                     	;# 
   240  0189                     	;# 
   241  018C                     	;# 
   242  0000                     	;# 
   243  0001                     	;# 
   244  0002                     	;# 
   245  0003                     	;# 
   246  0004                     	;# 
   247  0005                     	;# 
   248  0006                     	;# 
   249  0007                     	;# 
   250  0008                     	;# 
   251  0009                     	;# 
   252  000A                     	;# 
   253  000B                     	;# 
   254  000C                     	;# 
   255  000D                     	;# 
   256  000E                     	;# 
   257  000E                     	;# 
   258  000F                     	;# 
   259  0010                     	;# 
   260  0011                     	;# 
   261  0012                     	;# 
   262  0013                     	;# 
   263  0014                     	;# 
   264  0015                     	;# 
   265  0015                     	;# 
   266  0016                     	;# 
   267  0017                     	;# 
   268  0018                     	;# 
   269  0019                     	;# 
   270  001A                     	;# 
   271  001B                     	;# 
   272  001B                     	;# 
   273  001C                     	;# 
   274  001D                     	;# 
   275  001E                     	;# 
   276  001F                     	;# 
   277  0081                     	;# 
   278  0085                     	;# 
   279  0086                     	;# 
   280  0087                     	;# 
   281  0088                     	;# 
   282  0089                     	;# 
   283  008C                     	;# 
   284  008D                     	;# 
   285  008E                     	;# 
   286  008F                     	;# 
   287  0090                     	;# 
   288  0091                     	;# 
   289  0092                     	;# 
   290  0093                     	;# 
   291  0093                     	;# 
   292  0094                     	;# 
   293  0095                     	;# 
   294  0096                     	;# 
   295  0097                     	;# 
   296  0098                     	;# 
   297  0099                     	;# 
   298  009A                     	;# 
   299  009A                     	;# 
   300  009B                     	;# 
   301  009C                     	;# 
   302  009D                     	;# 
   303  009E                     	;# 
   304  009F                     	;# 
   305  0105                     	;# 
   306  0106                     	;# 
   307  0107                     	;# 
   308  0108                     	;# 
   309  0109                     	;# 
   310  010C                     	;# 
   311  010D                     	;# 
   312  010E                     	;# 
   313  010F                     	;# 
   314  0110                     	;# 
   315  0111                     	;# 
   316  0112                     	;# 
   317  0113                     	;# 
   318  0114                     	;# 
   319  0185                     	;# 
   320  0186                     	;# 
   321  0187                     	;# 
   322  0188                     	;# 
   323  0189                     	;# 
   324  018C                     	;# 
   325                           
   326                           	psect	strings
   327  1800                     __pstrings:
   328  1800                     stringtab:
   329  1800                     __stringtab:
   330  1800                     stringcode:	
   331                           ;	String table - string pointers are 1 byte each
   332                           
   333  1800                     stringdir:
   334  1800  3018               	movlw	high stringdir
   335  1801  008A               	movwf	10
   336  1802  0804               	movf	4,w
   337  1803  0A84               	incf	4,f
   338  1804  0782               	addwf	2,f
   339  1805                     __stringbase:
   340  1805  3400               	retlw	0
   341  1806                     __end_of__stringtab:
   342  1806                     conversion_newton@R_tab:
   343  1806  3400               	retlw	0
   344  1807  3400               	retlw	0
   345  1808  34FA               	retlw	250
   346  1809  3444               	retlw	68
   347  180A  3400               	retlw	0
   348  180B  3440               	retlw	64
   349  180C  341C               	retlw	28
   350  180D  3445               	retlw	69
   351  180E  3400               	retlw	0
   352  180F  3480               	retlw	128
   353  1810  3422               	retlw	34
   354  1811  3445               	retlw	69
   355  1812  3400               	retlw	0
   356  1813  34C0               	retlw	192
   357  1814  3428               	retlw	40
   358  1815  3445               	retlw	69
   359  1816  3400               	retlw	0
   360  1817  3440               	retlw	64
   361  1818  3435               	retlw	53
   362  1819  3445               	retlw	69
   363  181A  3400               	retlw	0
   364  181B  3400               	retlw	0
   365  181C  3448               	retlw	72
   366  181D  3445               	retlw	69
   367  181E  3400               	retlw	0
   368  181F  3480               	retlw	128
   369  1820  3454               	retlw	84
   370  1821  3445               	retlw	69
   371  1822  3400               	retlw	0
   372  1823  34C0               	retlw	192
   373  1824  345A               	retlw	90
   374  1825  3445               	retlw	69
   375  1826  3400               	retlw	0
   376  1827  34C0               	retlw	192
   377  1828  3473               	retlw	115
   378  1829  3445               	retlw	69
   379  182A  3400               	retlw	0
   380  182B  3460               	retlw	96
   381  182C  3486               	retlw	134
   382  182D  3445               	retlw	69
   383  182E  3400               	retlw	0
   384  182F  3400               	retlw	0
   385  1830  3496               	retlw	150
   386  1831  3445               	retlw	69
   387  1832  3400               	retlw	0
   388  1833  34E0               	retlw	224
   389  1834  34AB               	retlw	171
   390  1835  3445               	retlw	69
   391  1836  3400               	retlw	0
   392  1837  3480               	retlw	128
   393  1838  34D4               	retlw	212
   394  1839  3445               	retlw	69
   395  183A  3400               	retlw	0
   396  183B  34D0               	retlw	208
   397  183C  3404               	retlw	4
   398  183D  3446               	retlw	70
   399  183E  3400               	retlw	0
   400  183F  34E0               	retlw	224
   401  1840  342B               	retlw	43
   402  1841  3446               	retlw	70
   403  1842  3400               	retlw	0
   404  1843  3400               	retlw	0
   405  1844  347A               	retlw	122
   406  1845  3446               	retlw	70
   407  1846  3400               	retlw	0
   408  1847  34F0               	retlw	240
   409  1848  34D2               	retlw	210
   410  1849  3446               	retlw	70
   411  184A  3400               	retlw	0
   412  184B  34C8               	retlw	200
   413  184C  342F               	retlw	47
   414  184D  3447               	retlw	71
   415  184E  3400               	retlw	0
   416  184F  34E8               	retlw	232
   417  1850  347D               	retlw	125
   418  1851  3447               	retlw	71
   419  1852  3400               	retlw	0
   420  1853  348C               	retlw	140
   421  1854  34B9               	retlw	185
   422  1855  3447               	retlw	71
   423  1856                     __end_ofconversion_newton@R_tab:
   424  1856                     conversion_newton@F_tab:
   425  1856  3400               	retlw	0
   426  1857  3400               	retlw	0
   427  1858  348C               	retlw	140
   428  1859  3442               	retlw	66
   429  185A  3400               	retlw	0
   430  185B  3400               	retlw	0
   431  185C  340C               	retlw	12
   432  185D  3442               	retlw	66
   433  185E  3400               	retlw	0
   434  185F  3400               	retlw	0
   435  1860  34F0               	retlw	240
   436  1861  3441               	retlw	65
   437  1862  3400               	retlw	0
   438  1863  3400               	retlw	0
   439  1864  34E0               	retlw	224
   440  1865  3441               	retlw	65
   441  1866  3400               	retlw	0
   442  1867  3400               	retlw	0
   443  1868  34C8               	retlw	200
   444  1869  3441               	retlw	65
   445  186A  3400               	retlw	0
   446  186B  3400               	retlw	0
   447  186C  34A0               	retlw	160
   448  186D  3441               	retlw	65
   449  186E  3400               	retlw	0
   450  186F  3400               	retlw	0
   451  1870  3498               	retlw	152
   452  1871  3441               	retlw	65
   453  1872  3400               	retlw	0
   454  1873  3400               	retlw	0
   455  1874  3490               	retlw	144
   456  1875  3441               	retlw	65
   457  1876  3400               	retlw	0
   458  1877  3400               	retlw	0
   459  1878  3470               	retlw	112
   460  1879  3441               	retlw	65
   461  187A  3400               	retlw	0
   462  187B  3400               	retlw	0
   463  187C  3450               	retlw	80
   464  187D  3441               	retlw	65
   465  187E  3400               	retlw	0
   466  187F  3400               	retlw	0
   467  1880  3420               	retlw	32
   468  1881  3441               	retlw	65
   469  1882  3400               	retlw	0
   470  1883  3400               	retlw	0
   471  1884  34E0               	retlw	224
   472  1885  3440               	retlw	64
   473  1886  34CD               	retlw	205
   474  1887  34CC               	retlw	204
   475  1888  34AC               	retlw	172
   476  1889  3440               	retlw	64
   477  188A  3400               	retlw	0
   478  188B  3400               	retlw	0
   479  188C  3480               	retlw	128
   480  188D  3440               	retlw	64
   481  188E  3400               	retlw	0
   482  188F  3400               	retlw	0
   483  1890  3440               	retlw	64
   484  1891  3440               	retlw	64
   485  1892  34CD               	retlw	205
   486  1893  34CC               	retlw	204
   487  1894  340C               	retlw	12
   488  1895  3440               	retlw	64
   489  1896  3400               	retlw	0
   490  1897  3400               	retlw	0
   491  1898  34C0               	retlw	192
   492  1899  343F               	retlw	63
   493  189A  3466               	retlw	102
   494  189B  3466               	retlw	102
   495  189C  3466               	retlw	102
   496  189D  343F               	retlw	63
   497  189E  3466               	retlw	102
   498  189F  3466               	retlw	102
   499  18A0  34E6               	retlw	230
   500  18A1  343E               	retlw	62
   501  18A2  348F               	retlw	143
   502  18A3  34C2               	retlw	194
   503  18A4  34F5               	retlw	245
   504  18A5  343D               	retlw	61
   505  18A6                     __end_ofconversion_newton@F_tab:
   506  0007                     _PORTCbits	set	7
   507  0019                     _TXREG	set	25
   508  001E                     _ADRES	set	30
   509  0008                     _PORTD	set	8
   510  0006                     _PORTBbits	set	6
   511  001F                     _ADCON0	set	31
   512  0018                     _RCSTA	set	24
   513  006C                     _TMRAIF	set	108
   514  0060                     _TMR1IF	set	96
   515  0080                     _TMR1ON	set	128
   516  0082                     _T1SYNC	set	130
   517  0085                     _T1CKPS1	set	133
   518  0084                     _T1CKPS0	set	132
   519  0086                     _TMRCS0	set	134
   520  0087                     _TMRCS1	set	135
   521  0083                     _T1OSCEN	set	131
   522  00F9                     _GO_nDONE	set	249
   523  009D                     _FVRCON	set	157
   524  009F                     _ADCON1	set	159
   525  0088                     _TRISD	set	136
   526  0085                     _TRISA	set	133
   527  0090                     _OSCCON	set	144
   528  0086                     _TRISB	set	134
   529  0095                     _WPUB	set	149
   530  0098                     _TXSTA	set	152
   531  0099                     _SPBRG	set	153
   532  0087                     _TRISC	set	135
   533  0460                     _TMR1IE	set	1120
   534  047F                     _TMR1GE	set	1151
   535  0110                     _TMRA	set	272
   536  0114                     _DACCON1	set	276
   537  0113                     _DACCON0	set	275
   538  0185                     _ANSELA	set	389
   539  0188                     _ANSELD	set	392
   540  0186                     _ANSELB	set	390
   541                           
   542                           	psect	cinit
   543  07F9                     start_initialization:	
   544                           ; #config settings
   545                           
   546  07F9                     __initialization:
   547                           
   548                           ; Clear objects allocated to BANK1
   549  07F9  1683               	bsf	3,5	;RP0=1, select bank1
   550  07FA  1303               	bcf	3,6	;RP1=0, select bank1
   551  07FB  01D5               	clrf	__pbssBANK1& (0+127)
   552  07FC                     end_of_initialization:	
   553                           ;End of C runtime variable initialization code
   554                           
   555  07FC                     __end_of__initialization:
   556  07FC  0183               	clrf	3
   557  07FD  160A  158A  2B91   	ljmp	_main	;jump to C main() function
   558                           
   559                           	psect	bssBANK1
   560  00D5                     __pbssBANK1:
   561  00D5                     _Fincompt1:
   562  00D5                     	ds	1
   563                           
   564                           	psect	cstackBANK3
   565  0190                     __pcstackBANK3:
   566  0190                     Get_Better_Newton_Value@resultat:
   567                           
   568                           ; 4 bytes @ 0x0
   569  0190                     	ds	4
   570  0194                     Get_Better_Newton_Value@F:
   571                           
   572                           ; 4 bytes @ 0x4
   573  0194                     	ds	4
   574  0198                     _Get_Better_Newton_Value$800:
   575                           
   576                           ; 4 bytes @ 0x8
   577  0198                     	ds	4
   578  019C                     _Get_Better_Newton_Value$801:
   579                           
   580                           ; 4 bytes @ 0xC
   581  019C                     	ds	4
   582  01A0                     Get_Better_Newton_Value@coeffR1:
   583                           
   584                           ; 4 bytes @ 0x10
   585  01A0                     	ds	4
   586  01A4                     Get_Better_Newton_Value@coeffR2:
   587                           
   588                           ; 4 bytes @ 0x14
   589  01A4                     	ds	4
   590  01A8                     Get_Better_Newton_Value@coeffR3:
   591                           
   592                           ; 4 bytes @ 0x18
   593  01A8                     	ds	4
   594  01AC                     Get_Better_Newton_Value@r1:
   595                           
   596                           ; 4 bytes @ 0x1C
   597  01AC                     	ds	4
   598  01B0                     Get_Better_Newton_Value@r2:
   599                           
   600                           ; 4 bytes @ 0x20
   601  01B0                     	ds	4
   602  01B4                     Get_Better_Newton_Value@r3:
   603                           
   604                           ; 4 bytes @ 0x24
   605  01B4                     	ds	4
   606  01B8                     Get_Better_Newton_Value@channel_sensor:
   607                           
   608                           ; 1 bytes @ 0x28
   609  01B8                     	ds	1
   610                           
   611                           	psect	cstackBANK1
   612  00A0                     __pcstackBANK1:
   613  00A0                     ___fldiv@rem:
   614                           
   615                           ; 4 bytes @ 0x0
   616  00A0                     	ds	4
   617  00A4                     ___fldiv@sign:
   618                           
   619                           ; 1 bytes @ 0x4
   620  00A4                     	ds	1
   621  00A5                     ___fldiv@new_exp:
   622                           
   623                           ; 2 bytes @ 0x5
   624  00A5                     	ds	2
   625  00A7                     ___fldiv@grs:
   626                           
   627                           ; 4 bytes @ 0x7
   628  00A7                     	ds	4
   629  00AB                     ___fldiv@bexp:
   630                           
   631                           ; 1 bytes @ 0xB
   632  00AB                     	ds	1
   633  00AC                     ___fldiv@aexp:
   634                           
   635                           ; 1 bytes @ 0xC
   636  00AC                     	ds	1
   637  00AD                     ??_conversion_newton:
   638  00AD                     ??_Voltage_Value:	
   639                           ; 1 bytes @ 0xD
   640                           
   641  00AD                     Resistance_Value@resultat:	
   642                           ; 1 bytes @ 0xD
   643                           
   644                           
   645                           ; 4 bytes @ 0xD
   646  00AD                     	ds	4
   647  00B1                     Voltage_Value@sensor:
   648  00B1                     Resistance_Value@fR:	
   649                           ; 1 bytes @ 0x11
   650                           
   651                           
   652                           ; 4 bytes @ 0x11
   653  00B1                     	ds	1
   654  00B2                     Voltage_Value@voltage_result:
   655                           
   656                           ; 4 bytes @ 0x12
   657  00B2                     	ds	4
   658  00B6                     ?_Get_Newton:
   659  00B6                     Get_Newton@INTER1:	
   660                           ; 4 bytes @ 0x16
   661                           
   662                           
   663                           ; 1 bytes @ 0x16
   664  00B6                     	ds	1
   665  00B7                     Get_Newton@sensor_Channel:
   666                           
   667                           ; 1 bytes @ 0x17
   668  00B7                     	ds	4
   669  00BB                     Get_Newton@Vs:
   670                           
   671                           ; 4 bytes @ 0x1B
   672  00BB                     	ds	4
   673  00BF                     Get_Newton@Rc:
   674                           
   675                           ; 4 bytes @ 0x1F
   676  00BF                     	ds	4
   677  00C3                     Get_Newton@R:
   678                           
   679                           ; 2 bytes @ 0x23
   680  00C3                     	ds	2
   681  00C5                     Get_Newton@INTER0:
   682                           
   683                           ; 1 bytes @ 0x25
   684  00C5                     	ds	1
   685  00C6                     Get_Newton@sensor_value:
   686  00C6                     _conversion_newton$802:	
   687                           ; 1 bytes @ 0x26
   688                           
   689                           
   690                           ; 4 bytes @ 0x26
   691  00C6                     	ds	4
   692  00CA                     conversion_newton@F:
   693                           
   694                           ; 4 bytes @ 0x2A
   695  00CA                     	ds	4
   696  00CE                     conversion_newton@n:
   697                           
   698                           ; 2 bytes @ 0x2E
   699  00CE                     	ds	2
   700  00D0                     ?_Get_Better_Newton_Value:
   701                           
   702                           ; 4 bytes @ 0x30
   703  00D0                     	ds	5
   704                           
   705                           	psect	cstackCOMMON
   706  0071                     __pcstackCOMMON:
   707  0071                     ?_PORT_Init:
   708  0071                     ?_TIMER_init_timer1:	
   709                           ; 1 bytes @ 0x0
   710                           
   711  0071                     ?_PORT_Select_Mux0:	
   712                           ; 1 bytes @ 0x0
   713                           
   714  0071                     ?_PORT_Blink_LED:	
   715                           ; 1 bytes @ 0x0
   716                           
   717  0071                     ?_ADC_GetValue:	
   718                           ; 1 bytes @ 0x0
   719                           
   720  0071                     ?_PORT_Choose_Mux:	
   721                           ; 1 bytes @ 0x0
   722                           
   723  0071                     ?_PORT_Start_ADC:	
   724                           ; 1 bytes @ 0x0
   725                           
   726  0071                     ?_PORT_Get_Value_Adc:	
   727                           ; 1 bytes @ 0x0
   728                           
   729  0071                     ?_main:	
   730                           ; 1 bytes @ 0x0
   731                           
   732  0071                     ?_PORT_Init_Serial:	
   733                           ; 1 bytes @ 0x0
   734                           
   735  0071                     ?_isr:	
   736                           ; 1 bytes @ 0x0
   737                           
   738  0071                     ??_isr:	
   739                           ; 1 bytes @ 0x0
   740                           
   741                           
   742                           ; 1 bytes @ 0x0
   743  0071                     	ds	2
   744  0073                     ?___flge:
   745  0073                     ??_PORT_Init:	
   746                           ; 1 bit 
   747                           
   748  0073                     ??_TIMER_init_timer1:	
   749                           ; 1 bytes @ 0x2
   750                           
   751  0073                     ??_PORT_Select_Mux0:	
   752                           ; 1 bytes @ 0x2
   753                           
   754  0073                     ??_PORT_Blink_LED:	
   755                           ; 1 bytes @ 0x2
   756                           
   757  0073                     ??_PORT_Choose_Mux:	
   758                           ; 1 bytes @ 0x2
   759                           
   760  0073                     ??_PORT_Start_ADC:	
   761                           ; 1 bytes @ 0x2
   762                           
   763  0073                     ??_PORT_Get_Value_Adc:	
   764                           ; 1 bytes @ 0x2
   765                           
   766  0073                     ??_PORT_Init_Serial:	
   767                           ; 1 bytes @ 0x2
   768                           
   769  0073                     ?_PORT_Change_Gain:	
   770                           ; 1 bytes @ 0x2
   771                           
   772  0073                     ?__Umul8_16:	
   773                           ; 2 bytes @ 0x2
   774                           
   775  0073                     ?___xxtofl:	
   776                           ; 2 bytes @ 0x2
   777                           
   778  0073                     PORT_Choose_Mux@_value:	
   779                           ; 4 bytes @ 0x2
   780                           
   781  0073                     PORT_Change_Gain@INTER1:	
   782                           ; 1 bytes @ 0x2
   783                           
   784  0073                     __Umul8_16@multiplicand:	
   785                           ; 1 bytes @ 0x2
   786                           
   787  0073                     ___flge@ff1:	
   788                           ; 1 bytes @ 0x2
   789                           
   790  0073                     ___xxtofl@val:	
   791                           ; 4 bytes @ 0x2
   792                           
   793                           
   794                           ; 4 bytes @ 0x2
   795  0073                     	ds	1
   796  0074                     ??_ADC_GetValue:
   797  0074                     ADC_GetValue@channel:	
   798                           ; 1 bytes @ 0x3
   799                           
   800                           
   801                           ; 1 bytes @ 0x3
   802  0074                     	ds	1
   803  0075                     ??__Umul8_16:
   804  0075                     ADC_GetValue@sensor_value:	
   805                           ; 1 bytes @ 0x4
   806                           
   807                           
   808                           ; 1 bytes @ 0x4
   809  0075                     	ds	1
   810  0076                     ??_PORT_Change_Gain:
   811  0076                     PORT_Change_Gain@INTER0:	
   812                           ; 1 bytes @ 0x5
   813                           
   814                           
   815                           ; 1 bytes @ 0x5
   816  0076                     	ds	1
   817  0077                     ??___xxtofl:
   818  0077                     __Umul8_16@product:	
   819                           ; 1 bytes @ 0x6
   820                           
   821  0077                     ___flge@ff2:	
   822                           ; 2 bytes @ 0x6
   823                           
   824                           
   825                           ; 4 bytes @ 0x6
   826  0077                     	ds	2
   827  0079                     __Umul8_16@word_mpld:
   828                           
   829                           ; 2 bytes @ 0x8
   830  0079                     	ds	2
   831  007B                     __Umul8_16@multiplier:
   832                           
   833                           ; 1 bytes @ 0xA
   834  007B                     	ds	1
   835  007C                     ??_Get_Better_Newton_Value:
   836  007C                     ??_Get_Newton:	
   837                           ; 1 bytes @ 0xB
   838                           
   839  007C                     ??_main:	
   840                           ; 1 bytes @ 0xB
   841                           
   842  007C                     ??_Resistance_Value:	
   843                           ; 1 bytes @ 0xB
   844                           
   845  007C                     ??___flsub:	
   846                           ; 1 bytes @ 0xB
   847                           
   848                           
   849                           	psect	cstackBANK0
   850  0020                     __pcstackBANK0:	
   851                           ; 1 bytes @ 0xB
   852                           
   853  0020                     ??___flge:
   854  0020                     ___xxtofl@sign:	
   855                           ; 1 bytes @ 0x0
   856                           
   857                           
   858                           ; 1 bytes @ 0x0
   859  0020                     	ds	1
   860  0021                     ___xxtofl@exp:
   861                           
   862                           ; 1 bytes @ 0x1
   863  0021                     	ds	1
   864  0022                     ___xxtofl@arg:
   865                           
   866                           ; 4 bytes @ 0x2
   867  0022                     	ds	4
   868  0026                     ?___flmul:
   869  0026                     ___flmul@b:	
   870                           ; 4 bytes @ 0x6
   871                           
   872                           
   873                           ; 4 bytes @ 0x6
   874  0026                     	ds	4
   875  002A                     ___flmul@a:
   876                           
   877                           ; 4 bytes @ 0xA
   878  002A                     	ds	4
   879  002E                     ??___flmul:
   880                           
   881                           ; 1 bytes @ 0xE
   882  002E                     	ds	5
   883  0033                     ___flmul@sign:
   884                           
   885                           ; 1 bytes @ 0x13
   886  0033                     	ds	1
   887  0034                     ___flmul@grs:
   888                           
   889                           ; 4 bytes @ 0x14
   890  0034                     	ds	4
   891  0038                     ___flmul@aexp:
   892                           
   893                           ; 1 bytes @ 0x18
   894  0038                     	ds	1
   895  0039                     ___flmul@bexp:
   896                           
   897                           ; 1 bytes @ 0x19
   898  0039                     	ds	1
   899  003A                     ___flmul@prod:
   900                           
   901                           ; 4 bytes @ 0x1A
   902  003A                     	ds	4
   903  003E                     ___flmul@temp:
   904                           
   905                           ; 2 bytes @ 0x1E
   906  003E                     	ds	2
   907  0040                     ?___fladd:
   908  0040                     ___fladd@b:	
   909                           ; 4 bytes @ 0x20
   910                           
   911                           
   912                           ; 4 bytes @ 0x20
   913  0040                     	ds	4
   914  0044                     ___fladd@a:
   915                           
   916                           ; 4 bytes @ 0x24
   917  0044                     	ds	4
   918  0048                     ??___fladd:
   919                           
   920                           ; 1 bytes @ 0x28
   921  0048                     	ds	8
   922  0050                     ___fladd@signs:
   923                           
   924                           ; 1 bytes @ 0x30
   925  0050                     	ds	1
   926  0051                     ___fladd@aexp:
   927                           
   928                           ; 1 bytes @ 0x31
   929  0051                     	ds	1
   930  0052                     ___fladd@bexp:
   931                           
   932                           ; 1 bytes @ 0x32
   933  0052                     	ds	1
   934  0053                     ___fladd@grs:
   935                           
   936                           ; 1 bytes @ 0x33
   937  0053                     	ds	1
   938  0054                     ?___flsub:
   939  0054                     ___flsub@a:	
   940                           ; 4 bytes @ 0x34
   941                           
   942                           
   943                           ; 4 bytes @ 0x34
   944  0054                     	ds	4
   945  0058                     ___flsub@b:
   946                           
   947                           ; 4 bytes @ 0x38
   948  0058                     	ds	4
   949  005C                     ?___fldiv:
   950  005C                     ___fldiv@a:	
   951                           ; 4 bytes @ 0x3C
   952                           
   953                           
   954                           ; 4 bytes @ 0x3C
   955  005C                     	ds	4
   956  0060                     ___fldiv@b:
   957                           
   958                           ; 4 bytes @ 0x40
   959  0060                     	ds	4
   960  0064                     ??___fldiv:
   961                           
   962                           ; 1 bytes @ 0x44
   963  0064                     	ds	5
   964  0069                     ?_conversion_newton:
   965  0069                     ?_Voltage_Value:	
   966                           ; 4 bytes @ 0x49
   967                           
   968  0069                     ?_Resistance_Value:	
   969                           ; 4 bytes @ 0x49
   970                           
   971  0069                     Resistance_Value@Voltage:	
   972                           ; 4 bytes @ 0x49
   973                           
   974  0069                     conversion_newton@Rc:	
   975                           ; 4 bytes @ 0x49
   976                           
   977                           
   978                           ; 4 bytes @ 0x49
   979  0069                     	ds	4
   980  006D                     Resistance_Value@R:
   981                           
   982                           ; 2 bytes @ 0x4D
   983  006D                     	ds	2
   984                           
   985                           	psect	maintext
   986  1B91                     __pmaintext:	
   987 ;;
   988 ;;Main: autosize = 0, tempsize = 0, incstack = 0, save=0
   989 ;;
   990 ;; *************** function _main *****************
   991 ;; Defined at:
   992 ;;		line 26 in file "main.c"
   993 ;; Parameters:    Size  Location     Type
   994 ;;		None
   995 ;; Auto vars:     Size  Location     Type
   996 ;;  F               4    0        float 
   997 ;; Return value:  Size  Location     Type
   998 ;;                  1    wreg      void 
   999 ;; Registers used:
  1000 ;;		wreg, fsr0l, fsr0h, status,2, status,0, btemp+1, pclath, cstack
  1001 ;; Tracked objects:
  1002 ;;		On entry : B00/0
  1003 ;;		On exit  : 0/0
  1004 ;;		Unchanged: 0/0
  1005 ;; Data sizes:     COMMON   BANK0   BANK1   BANK3   BANK2
  1006 ;;      Params:         0       0       0       0       0
  1007 ;;      Locals:         0       0       4       0       0
  1008 ;;      Temps:          0       0       0       0       0
  1009 ;;      Totals:         0       0       4       0       0
  1010 ;;Total ram usage:        4 bytes
  1011 ;; Hardware stack levels required when called:    6
  1012 ;; This function calls:
  1013 ;;		_Get_Better_Newton_Value
  1014 ;;		_PORT_Blink_LED
  1015 ;;		_PORT_Init
  1016 ;;		_PORT_Select_Mux0
  1017 ;;		_TIMER_init_timer1
  1018 ;; This function is called by:
  1019 ;;		Startup code after reset
  1020 ;; This function uses a non-reentrant model
  1021 ;;
  1022                           
  1023                           
  1024                           ;psect for function _main
  1025  1B91                     _main:
  1026  1B91                     l2661:	
  1027                           ;incstack = 0
  1028                           ; Regs used in _main: [wreg-fsr0h+status,2+status,0+btemp+1+pclath+cstack]
  1029                           
  1030                           
  1031                           ;main.c: 28:     PORT_Init();
  1032  1B91  160A  158A  23DE  160A  158A  	fcall	_PORT_Init
  1033                           
  1034                           ;main.c: 29:     TIMER_init_timer1();
  1035  1B96  120A  158A  2005  160A  158A  	fcall	_TIMER_init_timer1
  1036  1B9B                     l2663:
  1037                           
  1038                           ;main.c: 31:     PORT_Select_Mux0();
  1039  1B9B  160A  158A  232A  160A  158A  	fcall	_PORT_Select_Mux0
  1040  1BA0                     l2665:
  1041  1BA0  1683               	bsf	3,5	;RP0=1, select bank1
  1042  1BA1  1303               	bcf	3,6	;RP1=0, select bank1
  1043  1BA2  0855               	movf	_Fincompt1^(0+128),w
  1044  1BA3  1D03               	btfss	3,2
  1045  1BA4  2BA6               	goto	u4031
  1046  1BA5  2BA7               	goto	u4030
  1047  1BA6                     u4031:
  1048  1BA6  2BA0               	goto	l2665
  1049  1BA7                     u4030:
  1050  1BA7                     l2667:
  1051                           
  1052                           ;main.c: 36:         Fincompt1 = 0;
  1053  1BA7  01D5               	clrf	_Fincompt1^(0+128)
  1054  1BA8                     l2669:
  1055                           
  1056                           ;main.c: 37:         PORT_Blink_LED();
  1057  1BA8  160A  158A  2332  160A  158A  	fcall	_PORT_Blink_LED
  1058  1BAD                     l2671:
  1059  1BAD  3000               	movlw	0
  1060  1BAE  120A  158A  2473  160A  158A  	fcall	_Get_Better_Newton_Value
  1061  1BB3  2BA0               	goto	l2665
  1062  1BB4  120A  118A  280C   	ljmp	start
  1063  1BB7                     __end_of_main:
  1064                           
  1065                           	psect	text1
  1066  0805                     __ptext1:	
  1067 ;; *************** function _TIMER_init_timer1 *****************
  1068 ;; Defined at:
  1069 ;;		line 8 in file "timer.c"
  1070 ;; Parameters:    Size  Location     Type
  1071 ;;		None
  1072 ;; Auto vars:     Size  Location     Type
  1073 ;;		None
  1074 ;; Return value:  Size  Location     Type
  1075 ;;                  1    wreg      void 
  1076 ;; Registers used:
  1077 ;;		wreg
  1078 ;; Tracked objects:
  1079 ;;		On entry : 0/0
  1080 ;;		On exit  : 0/0
  1081 ;;		Unchanged: 0/0
  1082 ;; Data sizes:     COMMON   BANK0   BANK1   BANK3   BANK2
  1083 ;;      Params:         0       0       0       0       0
  1084 ;;      Locals:         0       0       0       0       0
  1085 ;;      Temps:          0       0       0       0       0
  1086 ;;      Totals:         0       0       0       0       0
  1087 ;;Total ram usage:        0 bytes
  1088 ;; Hardware stack levels used:    1
  1089 ;; Hardware stack levels required when called:    1
  1090 ;; This function calls:
  1091 ;;		Nothing
  1092 ;; This function is called by:
  1093 ;;		_main
  1094 ;; This function uses a non-reentrant model
  1095 ;;
  1096                           
  1097                           
  1098                           ;psect for function _TIMER_init_timer1
  1099  0805                     _TIMER_init_timer1:
  1100  0805                     l2609:	
  1101                           ;incstack = 0
  1102                           ; Regs used in _TIMER_init_timer1: [wreg]
  1103                           
  1104                           
  1105                           ;timer.c: 10:     TMRA = 65535-5000;
  1106  0805  3077               	movlw	119
  1107  0806  1283               	bcf	3,5	;RP0=0, select bank2
  1108  0807  1703               	bsf	3,6	;RP1=1, select bank2
  1109  0808  0090               	movwf	16	;volatile
  1110  0809                     l2611:
  1111                           
  1112                           ;timer.c: 24:     T1OSCEN=0;
  1113  0809  1283               	bcf	3,5	;RP0=0, select bank0
  1114  080A  1303               	bcf	3,6	;RP1=0, select bank0
  1115  080B  1190               	bcf	16,3	;volatile
  1116  080C                     l2613:
  1117                           
  1118                           ;timer.c: 36:     TMRCS1=0;
  1119  080C  1390               	bcf	16,7	;volatile
  1120  080D                     l2615:
  1121                           
  1122                           ;timer.c: 37:     TMRCS0=0;
  1123  080D  1310               	bcf	16,6	;volatile
  1124  080E                     l2617:
  1125                           
  1126                           ;timer.c: 46:     T1CKPS0=1;
  1127  080E  1610               	bsf	16,4	;volatile
  1128  080F                     l2619:
  1129                           
  1130                           ;timer.c: 47:     T1CKPS1=1;
  1131  080F  1690               	bsf	16,5	;volatile
  1132  0810                     l2621:
  1133                           
  1134                           ;timer.c: 56:     T1SYNC=1;
  1135  0810  1510               	bsf	16,2	;volatile
  1136  0811                     l2623:
  1137                           
  1138                           ;timer.c: 62:     TMR1ON=1;
  1139  0811  1410               	bsf	16,0	;volatile
  1140  0812                     l2625:
  1141                           
  1142                           ;timer.c: 71:     TMR1GE=0;
  1143  0812  1683               	bsf	3,5	;RP0=1, select bank1
  1144  0813  1303               	bcf	3,6	;RP1=0, select bank1
  1145  0814  138F               	bcf	15,7	;volatile
  1146  0815                     l2627:
  1147                           
  1148                           ;timer.c: 75:     TMR1IE=1;
  1149  0815  140C               	bsf	12,0	;volatile
  1150  0816                     l246:
  1151  0816  0008               	return
  1152  0817                     __end_of_TIMER_init_timer1:
  1153                           
  1154                           	psect	text2
  1155  1B2A                     __ptext2:	
  1156 ;; *************** function _PORT_Select_Mux0 *****************
  1157 ;; Defined at:
  1158 ;;		line 149 in file "port.c"
  1159 ;; Parameters:    Size  Location     Type
  1160 ;;		None
  1161 ;; Auto vars:     Size  Location     Type
  1162 ;;		None
  1163 ;; Return value:  Size  Location     Type
  1164 ;;                  1    wreg      void 
  1165 ;; Registers used:
  1166 ;;		wreg, status,2, status,0, btemp+1
  1167 ;; Tracked objects:
  1168 ;;		On entry : 0/0
  1169 ;;		On exit  : 0/0
  1170 ;;		Unchanged: 0/0
  1171 ;; Data sizes:     COMMON   BANK0   BANK1   BANK3   BANK2
  1172 ;;      Params:         0       0       0       0       0
  1173 ;;      Locals:         0       0       0       0       0
  1174 ;;      Temps:          0       0       0       0       0
  1175 ;;      Totals:         0       0       0       0       0
  1176 ;;Total ram usage:        0 bytes
  1177 ;; Hardware stack levels used:    1
  1178 ;; Hardware stack levels required when called:    1
  1179 ;; This function calls:
  1180 ;;		Nothing
  1181 ;; This function is called by:
  1182 ;;		_main
  1183 ;; This function uses a non-reentrant model
  1184 ;;
  1185                           
  1186                           
  1187                           ;psect for function _PORT_Select_Mux0
  1188  1B2A                     _PORT_Select_Mux0:
  1189  1B2A                     l2629:	
  1190                           ;incstack = 0
  1191                           ; Regs used in _PORT_Select_Mux0: [wreg+status,2+status,0+btemp+1]
  1192                           
  1193                           
  1194                           ;port.c: 150:     PORTD |= 0x20;
  1195  1B2A  1283               	bcf	3,5	;RP0=0, select bank0
  1196  1B2B  1303               	bcf	3,6	;RP1=0, select bank0
  1197  1B2C  1688               	bsf	8,5	;volatile
  1198  1B2D                     l2631:
  1199                           
  1200                           ;port.c: 151:     PORTD &= 0xEF;
  1201  1B2D  30EF               	movlw	239
  1202  1B2E  00FF               	movwf	btemp+1
  1203  1B2F  087F               	movf	btemp+1,w
  1204  1B30  0588               	andwf	8,f	;volatile
  1205  1B31                     l205:
  1206  1B31  0008               	return
  1207  1B32                     __end_of_PORT_Select_Mux0:
  1208                           
  1209                           	psect	text3
  1210  1BDE                     __ptext3:	
  1211 ;; *************** function _PORT_Init *****************
  1212 ;; Defined at:
  1213 ;;		line 44 in file "port.c"
  1214 ;; Parameters:    Size  Location     Type
  1215 ;;		None
  1216 ;; Auto vars:     Size  Location     Type
  1217 ;;		None
  1218 ;; Return value:  Size  Location     Type
  1219 ;;                  1    wreg      void 
  1220 ;; Registers used:
  1221 ;;		wreg, status,2, status,0, pclath, cstack
  1222 ;; Tracked objects:
  1223 ;;		On entry : 0/0
  1224 ;;		On exit  : 0/0
  1225 ;;		Unchanged: 0/0
  1226 ;; Data sizes:     COMMON   BANK0   BANK1   BANK3   BANK2
  1227 ;;      Params:         0       0       0       0       0
  1228 ;;      Locals:         0       0       0       0       0
  1229 ;;      Temps:          1       0       0       0       0
  1230 ;;      Totals:         1       0       0       0       0
  1231 ;;Total ram usage:        1 bytes
  1232 ;; Hardware stack levels used:    1
  1233 ;; Hardware stack levels required when called:    2
  1234 ;; This function calls:
  1235 ;;		_PORT_Init_Serial
  1236 ;; This function is called by:
  1237 ;;		_main
  1238 ;; This function uses a non-reentrant model
  1239 ;;
  1240                           
  1241                           
  1242                           ;psect for function _PORT_Init
  1243  1BDE                     _PORT_Init:
  1244  1BDE                     l2577:	
  1245                           ;incstack = 0
  1246                           ; Regs used in _PORT_Init: [wreg+status,2+status,0+pclath+cstack]
  1247                           
  1248                           
  1249                           ;port.c: 47:     WPUB=0;
  1250  1BDE  1683               	bsf	3,5	;RP0=1, select bank1
  1251  1BDF  1303               	bcf	3,6	;RP1=0, select bank1
  1252  1BE0  0195               	clrf	21	;volatile
  1253                           
  1254                           ;port.c: 48:     ANSELB = 0;
  1255  1BE1  1683               	bsf	3,5	;RP0=1, select bank3
  1256  1BE2  1703               	bsf	3,6	;RP1=1, select bank3
  1257  1BE3  0186               	clrf	6	;volatile
  1258  1BE4                     l2579:
  1259                           
  1260                           ;port.c: 51:     TRISB = 0xFE;
  1261  1BE4  30FE               	movlw	254
  1262  1BE5  1683               	bsf	3,5	;RP0=1, select bank1
  1263  1BE6  1303               	bcf	3,6	;RP1=0, select bank1
  1264  1BE7  0086               	movwf	6	;volatile
  1265  1BE8                     l2581:
  1266                           
  1267                           ;port.c: 54:     OSCCON = 0x30;
  1268  1BE8  3030               	movlw	48
  1269  1BE9  0090               	movwf	16	;volatile
  1270  1BEA                     l2583:	
  1271                           ;port.c: 55:     for( ; (OSCCON & 0xC) != 0xC ; );
  1272                           
  1273  1BEA  300C               	movlw	12
  1274  1BEB  0510               	andwf	16,w	;volatile
  1275  1BEC  00F3               	movwf	??_PORT_Init
  1276  1BED  300C               	movlw	12
  1277  1BEE  0673               	xorwf	??_PORT_Init,w
  1278  1BEF  1D03               	btfss	3,2
  1279  1BF0  2BF2               	goto	u3971
  1280  1BF1  2BF3               	goto	u3970
  1281  1BF2                     u3971:
  1282  1BF2  2BEA               	goto	l2583
  1283  1BF3                     u3970:
  1284  1BF3                     l2585:
  1285                           
  1286                           ;port.c: 59:     ANSELD = 0x00;
  1287  1BF3  1683               	bsf	3,5	;RP0=1, select bank3
  1288  1BF4  1703               	bsf	3,6	;RP1=1, select bank3
  1289  1BF5  0188               	clrf	8	;volatile
  1290  1BF6                     l2587:
  1291                           
  1292                           ;port.c: 62:     TRISA = 0xFF;
  1293  1BF6  30FF               	movlw	255
  1294  1BF7  1683               	bsf	3,5	;RP0=1, select bank1
  1295  1BF8  1303               	bcf	3,6	;RP1=0, select bank1
  1296  1BF9  0085               	movwf	5	;volatile
  1297  1BFA                     l2589:
  1298                           
  1299                           ;port.c: 64:     TRISD = 0xC0;
  1300  1BFA  30C0               	movlw	192
  1301  1BFB  0088               	movwf	8	;volatile
  1302  1BFC                     l2591:
  1303                           
  1304                           ;port.c: 66:     PORT_Init_Serial();
  1305  1BFC  120A  118A  2016  160A  158A  	fcall	_PORT_Init_Serial
  1306  1C01                     l2593:
  1307                           
  1308                           ;port.c: 68:     ANSELA = 0x01;
  1309  1C01  3001               	movlw	1
  1310  1C02  1683               	bsf	3,5	;RP0=1, select bank3
  1311  1C03  1703               	bsf	3,6	;RP1=1, select bank3
  1312  1C04  0085               	movwf	5	;volatile
  1313  1C05                     l2595:
  1314                           
  1315                           ;port.c: 70:     ADCON0=0x01;
  1316  1C05  3001               	movlw	1
  1317  1C06  1283               	bcf	3,5	;RP0=0, select bank0
  1318  1C07  1303               	bcf	3,6	;RP1=0, select bank0
  1319  1C08  009F               	movwf	31	;volatile
  1320  1C09                     l2597:
  1321                           
  1322                           ;port.c: 71:     ADCON1=0x60;
  1323  1C09  3060               	movlw	96
  1324  1C0A  1683               	bsf	3,5	;RP0=1, select bank1
  1325  1C0B  1303               	bcf	3,6	;RP1=0, select bank1
  1326  1C0C  009F               	movwf	31	;volatile
  1327  1C0D                     l2599:
  1328                           
  1329                           ;port.c: 73:     FVRCON=0;
  1330  1C0D  019D               	clrf	29	;volatile
  1331  1C0E                     l2601:
  1332                           
  1333                           ;port.c: 74:     DACCON0=0x0;
  1334  1C0E  1283               	bcf	3,5	;RP0=0, select bank2
  1335  1C0F  1703               	bsf	3,6	;RP1=1, select bank2
  1336  1C10  0193               	clrf	19	;volatile
  1337  1C11                     l2603:
  1338                           
  1339                           ;port.c: 75:     DACCON0=0x60;
  1340  1C11  3060               	movlw	96
  1341  1C12  0093               	movwf	19	;volatile
  1342  1C13                     l2605:
  1343                           
  1344                           ;port.c: 76:     DACCON0|=0x80;
  1345  1C13  1793               	bsf	19,7	;volatile
  1346  1C14                     l2607:
  1347                           
  1348                           ;port.c: 78:     DACCON1=0x18;
  1349  1C14  3018               	movlw	24
  1350  1C15  0094               	movwf	20	;volatile
  1351  1C16                     l174:
  1352  1C16  0008               	return
  1353  1C17                     __end_of_PORT_Init:
  1354                           
  1355                           	psect	text4
  1356  0016                     __ptext4:	
  1357 ;; *************** function _PORT_Init_Serial *****************
  1358 ;; Defined at:
  1359 ;;		line 15 in file "port.c"
  1360 ;; Parameters:    Size  Location     Type
  1361 ;;		None
  1362 ;; Auto vars:     Size  Location     Type
  1363 ;;		None
  1364 ;; Return value:  Size  Location     Type
  1365 ;;                  1    wreg      void 
  1366 ;; Registers used:
  1367 ;;		wreg, status,2
  1368 ;; Tracked objects:
  1369 ;;		On entry : 0/0
  1370 ;;		On exit  : 0/0
  1371 ;;		Unchanged: 0/0
  1372 ;; Data sizes:     COMMON   BANK0   BANK1   BANK3   BANK2
  1373 ;;      Params:         0       0       0       0       0
  1374 ;;      Locals:         0       0       0       0       0
  1375 ;;      Temps:          0       0       0       0       0
  1376 ;;      Totals:         0       0       0       0       0
  1377 ;;Total ram usage:        0 bytes
  1378 ;; Hardware stack levels used:    1
  1379 ;; Hardware stack levels required when called:    1
  1380 ;; This function calls:
  1381 ;;		Nothing
  1382 ;; This function is called by:
  1383 ;;		_PORT_Init
  1384 ;; This function uses a non-reentrant model
  1385 ;;
  1386                           
  1387                           
  1388                           ;psect for function _PORT_Init_Serial
  1389  0016                     _PORT_Init_Serial:
  1390  0016                     l2555:	
  1391                           ;incstack = 0
  1392                           ; Regs used in _PORT_Init_Serial: [wreg+status,2]
  1393                           
  1394                           
  1395                           ;port.c: 18:     TRISC = 0xFC;
  1396  0016  30FC               	movlw	252
  1397  0017  1683               	bsf	3,5	;RP0=1, select bank1
  1398  0018  1303               	bcf	3,6	;RP1=0, select bank1
  1399  0019  0087               	movwf	7	;volatile
  1400                           
  1401                           ;port.c: 21:     SPBRG = 25;
  1402  001A  3019               	movlw	25
  1403  001B  0099               	movwf	25	;volatile
  1404  001C                     l2557:
  1405                           
  1406                           ;port.c: 25:     TXSTA = TXSTA & 0xDF;
  1407  001C  0818               	movf	24,w	;volatile
  1408  001D  39DF               	andlw	223
  1409  001E  0098               	movwf	24	;volatile
  1410  001F                     l2559:
  1411                           
  1412                           ;port.c: 26:     TXSTA = TXSTA | 1;
  1413  001F  0818               	movf	24,w	;volatile
  1414  0020  3801               	iorlw	1
  1415  0021  0098               	movwf	24	;volatile
  1416  0022                     l2561:
  1417                           
  1418                           ;port.c: 27:     TXSTA = TXSTA & 0xFB;
  1419  0022  0818               	movf	24,w	;volatile
  1420  0023  39FB               	andlw	251
  1421  0024  0098               	movwf	24	;volatile
  1422  0025                     l2563:
  1423                           
  1424                           ;port.c: 30:     RCSTA = RCSTA | 0x20;
  1425  0025  1283               	bcf	3,5	;RP0=0, select bank0
  1426  0026  1303               	bcf	3,6	;RP1=0, select bank0
  1427  0027  0818               	movf	24,w	;volatile
  1428  0028  3820               	iorlw	32
  1429  0029  0098               	movwf	24	;volatile
  1430  002A                     l2565:
  1431                           
  1432                           ;port.c: 31:     RCSTA = RCSTA & 0xDF;
  1433  002A  0818               	movf	24,w	;volatile
  1434  002B  39DF               	andlw	223
  1435  002C  0098               	movwf	24	;volatile
  1436  002D                     l2567:
  1437                           
  1438                           ;port.c: 32:     RCSTA = RCSTA | 0x04;
  1439  002D  0818               	movf	24,w	;volatile
  1440  002E  3804               	iorlw	4
  1441  002F  0098               	movwf	24	;volatile
  1442  0030                     l2569:
  1443                           
  1444                           ;port.c: 33:     RCSTA = RCSTA | 0x02;
  1445  0030  0818               	movf	24,w	;volatile
  1446  0031  3802               	iorlw	2
  1447  0032  0098               	movwf	24	;volatile
  1448  0033                     l2571:
  1449                           
  1450                           ;port.c: 35:     TXSTA = TXSTA & 0xEF;
  1451  0033  1683               	bsf	3,5	;RP0=1, select bank1
  1452  0034  1303               	bcf	3,6	;RP1=0, select bank1
  1453  0035  0818               	movf	24,w	;volatile
  1454  0036  39EF               	andlw	239
  1455  0037  0098               	movwf	24	;volatile
  1456  0038                     l2573:
  1457                           
  1458                           ;port.c: 36:     TXSTA = TXSTA | 0x20;
  1459  0038  0818               	movf	24,w	;volatile
  1460  0039  3820               	iorlw	32
  1461  003A  0098               	movwf	24	;volatile
  1462  003B                     l2575:
  1463                           
  1464                           ;port.c: 37:     RCSTA = RCSTA | 0x80;
  1465  003B  1283               	bcf	3,5	;RP0=0, select bank0
  1466  003C  1303               	bcf	3,6	;RP1=0, select bank0
  1467  003D  0818               	movf	24,w	;volatile
  1468  003E  3880               	iorlw	128
  1469  003F  0098               	movwf	24	;volatile
  1470  0040                     l168:
  1471  0040  0008               	return
  1472  0041                     __end_of_PORT_Init_Serial:
  1473                           
  1474                           	psect	text5
  1475  1B32                     __ptext5:	
  1476 ;; *************** function _PORT_Blink_LED *****************
  1477 ;; Defined at:
  1478 ;;		line 84 in file "port.c"
  1479 ;; Parameters:    Size  Location     Type
  1480 ;;		None
  1481 ;; Auto vars:     Size  Location     Type
  1482 ;;		None
  1483 ;; Return value:  Size  Location     Type
  1484 ;;                  1    wreg      void 
  1485 ;; Registers used:
  1486 ;;		status,0
  1487 ;; Tracked objects:
  1488 ;;		On entry : 0/0
  1489 ;;		On exit  : 0/0
  1490 ;;		Unchanged: 0/0
  1491 ;; Data sizes:     COMMON   BANK0   BANK1   BANK3   BANK2
  1492 ;;      Params:         0       0       0       0       0
  1493 ;;      Locals:         0       0       0       0       0
  1494 ;;      Temps:          0       0       0       0       0
  1495 ;;      Totals:         0       0       0       0       0
  1496 ;;Total ram usage:        0 bytes
  1497 ;; Hardware stack levels used:    1
  1498 ;; Hardware stack levels required when called:    1
  1499 ;; This function calls:
  1500 ;;		Nothing
  1501 ;; This function is called by:
  1502 ;;		_main
  1503 ;; This function uses a non-reentrant model
  1504 ;;
  1505                           
  1506                           
  1507                           ;psect for function _PORT_Blink_LED
  1508  1B32                     _PORT_Blink_LED:
  1509  1B32                     l2633:	
  1510                           ;incstack = 0
  1511                           ; Regs used in _PORT_Blink_LED: [status,0]
  1512                           
  1513                           
  1514                           ;port.c: 85:     PORTBbits.RB0 = !PORTBbits.RB0;
  1515  1B32  1003               	clrc
  1516  1B33  1283               	bcf	3,5	;RP0=0, select bank0
  1517  1B34  1303               	bcf	3,6	;RP1=0, select bank0
  1518  1B35  1C06               	btfss	6,0	;volatile
  1519  1B36  1403               	setc
  1520  1B37  1803               	btfsc	3,0
  1521  1B38  2B3A               	goto	u3981
  1522  1B39  2B3E               	goto	u3980
  1523  1B3A                     u3981:
  1524  1B3A  1283               	bcf	3,5	;RP0=0, select bank0
  1525  1B3B  1303               	bcf	3,6	;RP1=0, select bank0
  1526  1B3C  1406               	bsf	6,0	;volatile
  1527  1B3D  2B41               	goto	u3994
  1528  1B3E                     u3980:
  1529  1B3E  1283               	bcf	3,5	;RP0=0, select bank0
  1530  1B3F  1303               	bcf	3,6	;RP1=0, select bank0
  1531  1B40  1006               	bcf	6,0	;volatile
  1532  1B41                     u3994:
  1533  1B41                     l177:
  1534  1B41  0008               	return
  1535  1B42                     __end_of_PORT_Blink_LED:
  1536                           
  1537                           	psect	text6
  1538  0C73                     __ptext6:	
  1539 ;; *************** function _Get_Better_Newton_Value *****************
  1540 ;; Defined at:
  1541 ;;		line 59 in file "main.c"
  1542 ;; Parameters:    Size  Location     Type
  1543 ;;  channel_sens    1    wreg     unsigned char 
  1544 ;; Auto vars:     Size  Location     Type
  1545 ;;  channel_sens    1   40[BANK3 ] unsigned char 
  1546 ;;  r3              4   36[BANK3 ] float 
  1547 ;;  r2              4   32[BANK3 ] float 
  1548 ;;  r1              4   28[BANK3 ] float 
  1549 ;;  coeffR3         4   24[BANK3 ] float 
  1550 ;;  coeffR2         4   20[BANK3 ] float 
  1551 ;;  coeffR1         4   16[BANK3 ] float 
  1552 ;;  F               4    4[BANK3 ] float 
  1553 ;;  resultat        4    0[BANK3 ] float 
  1554 ;; Return value:  Size  Location     Type
  1555 ;;                  4   48[BANK1 ] float 
  1556 ;; Registers used:
  1557 ;;		wreg, fsr0l, fsr0h, status,2, status,0, btemp+1, pclath, cstack
  1558 ;; Tracked objects:
  1559 ;;		On entry : 0/0
  1560 ;;		On exit  : 0/0
  1561 ;;		Unchanged: 0/0
  1562 ;; Data sizes:     COMMON   BANK0   BANK1   BANK3   BANK2
  1563 ;;      Params:         0       0       5       0       0
  1564 ;;      Locals:         0       0       0      41       0
  1565 ;;      Temps:          0       0       0       0       0
  1566 ;;      Totals:         0       0       5      41       0
  1567 ;;Total ram usage:       46 bytes
  1568 ;; Hardware stack levels used:    1
  1569 ;; Hardware stack levels required when called:    5
  1570 ;; This function calls:
  1571 ;;		_Get_Newton
  1572 ;;		___fladd
  1573 ;;		___fldiv
  1574 ;;		___flge
  1575 ;;		___flmul
  1576 ;;		_conversion_newton
  1577 ;; This function is called by:
  1578 ;;		_main
  1579 ;; This function uses a non-reentrant model
  1580 ;;
  1581                           
  1582                           
  1583                           ;psect for function _Get_Better_Newton_Value
  1584  0C73                     _Get_Better_Newton_Value:
  1585                           
  1586                           ;incstack = 0
  1587                           ; Regs used in _Get_Better_Newton_Value: [wreg-fsr0h+status,2+status,0+btemp+1+pclath+cs
      +                          tack]
  1588                           ;Get_Better_Newton_Value@channel_sensor stored from wreg
  1589  0C73  1683               	bsf	3,5	;RP0=1, select bank3
  1590  0C74  1703               	bsf	3,6	;RP1=1, select bank3
  1591  0C75  00B8               	movwf	Get_Better_Newton_Value@channel_sensor^(0+384)
  1592  0C76                     l2635:
  1593                           
  1594                           ;main.c: 62:     float r1, r2, r3;;main.c: 63:     float coeffR1=1,coeffR2=1,coeffR3=1;
  1595  0C76  303F               	movlw	63
  1596  0C77  00A3               	movwf	(Get_Better_Newton_Value@coeffR1+3)^(0+384)
  1597  0C78  3080               	movlw	128
  1598  0C79  00A2               	movwf	(Get_Better_Newton_Value@coeffR1+2)^(0+384)
  1599  0C7A  3000               	movlw	0
  1600  0C7B  00A1               	movwf	(Get_Better_Newton_Value@coeffR1+1)^(0+384)
  1601  0C7C  3000               	movlw	0
  1602  0C7D  00A0               	movwf	Get_Better_Newton_Value@coeffR1^(0+384)
  1603  0C7E  303F               	movlw	63
  1604  0C7F  00A7               	movwf	(Get_Better_Newton_Value@coeffR2+3)^(0+384)
  1605  0C80  3080               	movlw	128
  1606  0C81  00A6               	movwf	(Get_Better_Newton_Value@coeffR2+2)^(0+384)
  1607  0C82  3000               	movlw	0
  1608  0C83  00A5               	movwf	(Get_Better_Newton_Value@coeffR2+1)^(0+384)
  1609  0C84  3000               	movlw	0
  1610  0C85  00A4               	movwf	Get_Better_Newton_Value@coeffR2^(0+384)
  1611  0C86  303F               	movlw	63
  1612  0C87  00AB               	movwf	(Get_Better_Newton_Value@coeffR3+3)^(0+384)
  1613  0C88  3080               	movlw	128
  1614  0C89  00AA               	movwf	(Get_Better_Newton_Value@coeffR3+2)^(0+384)
  1615  0C8A  3000               	movlw	0
  1616  0C8B  00A9               	movwf	(Get_Better_Newton_Value@coeffR3+1)^(0+384)
  1617  0C8C  3000               	movlw	0
  1618  0C8D  00A8               	movwf	Get_Better_Newton_Value@coeffR3^(0+384)
  1619  0C8E                     l2637:
  1620                           
  1621                           ;main.c: 64:     float resultat,F;;main.c: 66:     r1 = Get_Newton(0,0,channel_sensor);
  1622  0C8E  1683               	bsf	3,5	;RP0=1, select bank1
  1623  0C8F  1303               	bcf	3,6	;RP1=0, select bank1
  1624  0C90  01B6               	clrf	Get_Newton@INTER1^(0+128)
  1625  0C91  1683               	bsf	3,5	;RP0=1, select bank3
  1626  0C92  1703               	bsf	3,6	;RP1=1, select bank3
  1627  0C93  0838               	movf	Get_Better_Newton_Value@channel_sensor^(0+384),w
  1628  0C94  00FF               	movwf	btemp+1
  1629  0C95  087F               	movf	btemp+1,w
  1630  0C96  1683               	bsf	3,5	;RP0=1, select bank1
  1631  0C97  1303               	bcf	3,6	;RP1=0, select bank1
  1632  0C98  00B7               	movwf	Get_Newton@sensor_Channel^(0+128)
  1633  0C99  3000               	movlw	0
  1634  0C9A  160A  158A  2417  120A  158A  	fcall	_Get_Newton
  1635  0C9F  1683               	bsf	3,5	;RP0=1, select bank1
  1636  0CA0  1303               	bcf	3,6	;RP1=0, select bank1
  1637  0CA1  0839               	movf	(?_Get_Newton+3)^(0+128),w
  1638  0CA2  1683               	bsf	3,5	;RP0=1, select bank3
  1639  0CA3  1703               	bsf	3,6	;RP1=1, select bank3
  1640  0CA4  00AF               	movwf	(Get_Better_Newton_Value@r1+3)^(0+384)
  1641  0CA5  1683               	bsf	3,5	;RP0=1, select bank1
  1642  0CA6  1303               	bcf	3,6	;RP1=0, select bank1
  1643  0CA7  0838               	movf	(?_Get_Newton+2)^(0+128),w
  1644  0CA8  1683               	bsf	3,5	;RP0=1, select bank3
  1645  0CA9  1703               	bsf	3,6	;RP1=1, select bank3
  1646  0CAA  00AE               	movwf	(Get_Better_Newton_Value@r1+2)^(0+384)
  1647  0CAB  1683               	bsf	3,5	;RP0=1, select bank1
  1648  0CAC  1303               	bcf	3,6	;RP1=0, select bank1
  1649  0CAD  0837               	movf	(?_Get_Newton+1)^(0+128),w
  1650  0CAE  1683               	bsf	3,5	;RP0=1, select bank3
  1651  0CAF  1703               	bsf	3,6	;RP1=1, select bank3
  1652  0CB0  00AD               	movwf	(Get_Better_Newton_Value@r1+1)^(0+384)
  1653  0CB1  1683               	bsf	3,5	;RP0=1, select bank1
  1654  0CB2  1303               	bcf	3,6	;RP1=0, select bank1
  1655  0CB3  0836               	movf	?_Get_Newton^(0+128),w
  1656  0CB4  1683               	bsf	3,5	;RP0=1, select bank3
  1657  0CB5  1703               	bsf	3,6	;RP1=1, select bank3
  1658  0CB6  00AC               	movwf	Get_Better_Newton_Value@r1^(0+384)
  1659  0CB7                     l2639:
  1660                           
  1661                           ;main.c: 67:     r2 = Get_Newton(0,1,channel_sensor);
  1662  0CB7  1683               	bsf	3,5	;RP0=1, select bank1
  1663  0CB8  1303               	bcf	3,6	;RP1=0, select bank1
  1664  0CB9  01B6               	clrf	Get_Newton@INTER1^(0+128)
  1665  0CBA  0AB6               	incf	Get_Newton@INTER1^(0+128),f
  1666  0CBB  1683               	bsf	3,5	;RP0=1, select bank3
  1667  0CBC  1703               	bsf	3,6	;RP1=1, select bank3
  1668  0CBD  0838               	movf	Get_Better_Newton_Value@channel_sensor^(0+384),w
  1669  0CBE  00FF               	movwf	btemp+1
  1670  0CBF  087F               	movf	btemp+1,w
  1671  0CC0  1683               	bsf	3,5	;RP0=1, select bank1
  1672  0CC1  1303               	bcf	3,6	;RP1=0, select bank1
  1673  0CC2  00B7               	movwf	Get_Newton@sensor_Channel^(0+128)
  1674  0CC3  3000               	movlw	0
  1675  0CC4  160A  158A  2417  120A  158A  	fcall	_Get_Newton
  1676  0CC9  1683               	bsf	3,5	;RP0=1, select bank1
  1677  0CCA  1303               	bcf	3,6	;RP1=0, select bank1
  1678  0CCB  0839               	movf	(?_Get_Newton+3)^(0+128),w
  1679  0CCC  1683               	bsf	3,5	;RP0=1, select bank3
  1680  0CCD  1703               	bsf	3,6	;RP1=1, select bank3
  1681  0CCE  00B3               	movwf	(Get_Better_Newton_Value@r2+3)^(0+384)
  1682  0CCF  1683               	bsf	3,5	;RP0=1, select bank1
  1683  0CD0  1303               	bcf	3,6	;RP1=0, select bank1
  1684  0CD1  0838               	movf	(?_Get_Newton+2)^(0+128),w
  1685  0CD2  1683               	bsf	3,5	;RP0=1, select bank3
  1686  0CD3  1703               	bsf	3,6	;RP1=1, select bank3
  1687  0CD4  00B2               	movwf	(Get_Better_Newton_Value@r2+2)^(0+384)
  1688  0CD5  1683               	bsf	3,5	;RP0=1, select bank1
  1689  0CD6  1303               	bcf	3,6	;RP1=0, select bank1
  1690  0CD7  0837               	movf	(?_Get_Newton+1)^(0+128),w
  1691  0CD8  1683               	bsf	3,5	;RP0=1, select bank3
  1692  0CD9  1703               	bsf	3,6	;RP1=1, select bank3
  1693  0CDA  00B1               	movwf	(Get_Better_Newton_Value@r2+1)^(0+384)
  1694  0CDB  1683               	bsf	3,5	;RP0=1, select bank1
  1695  0CDC  1303               	bcf	3,6	;RP1=0, select bank1
  1696  0CDD  0836               	movf	?_Get_Newton^(0+128),w
  1697  0CDE  1683               	bsf	3,5	;RP0=1, select bank3
  1698  0CDF  1703               	bsf	3,6	;RP1=1, select bank3
  1699  0CE0  00B0               	movwf	Get_Better_Newton_Value@r2^(0+384)
  1700  0CE1                     l2641:
  1701                           
  1702                           ;main.c: 68:     r3 = Get_Newton(1,0,channel_sensor);
  1703  0CE1  1683               	bsf	3,5	;RP0=1, select bank1
  1704  0CE2  1303               	bcf	3,6	;RP1=0, select bank1
  1705  0CE3  01B6               	clrf	Get_Newton@INTER1^(0+128)
  1706  0CE4  1683               	bsf	3,5	;RP0=1, select bank3
  1707  0CE5  1703               	bsf	3,6	;RP1=1, select bank3
  1708  0CE6  0838               	movf	Get_Better_Newton_Value@channel_sensor^(0+384),w
  1709  0CE7  00FF               	movwf	btemp+1
  1710  0CE8  087F               	movf	btemp+1,w
  1711  0CE9  1683               	bsf	3,5	;RP0=1, select bank1
  1712  0CEA  1303               	bcf	3,6	;RP1=0, select bank1
  1713  0CEB  00B7               	movwf	Get_Newton@sensor_Channel^(0+128)
  1714  0CEC  3001               	movlw	1
  1715  0CED  160A  158A  2417  120A  158A  	fcall	_Get_Newton
  1716  0CF2  1683               	bsf	3,5	;RP0=1, select bank1
  1717  0CF3  1303               	bcf	3,6	;RP1=0, select bank1
  1718  0CF4  0839               	movf	(?_Get_Newton+3)^(0+128),w
  1719  0CF5  1683               	bsf	3,5	;RP0=1, select bank3
  1720  0CF6  1703               	bsf	3,6	;RP1=1, select bank3
  1721  0CF7  00B7               	movwf	(Get_Better_Newton_Value@r3+3)^(0+384)
  1722  0CF8  1683               	bsf	3,5	;RP0=1, select bank1
  1723  0CF9  1303               	bcf	3,6	;RP1=0, select bank1
  1724  0CFA  0838               	movf	(?_Get_Newton+2)^(0+128),w
  1725  0CFB  1683               	bsf	3,5	;RP0=1, select bank3
  1726  0CFC  1703               	bsf	3,6	;RP1=1, select bank3
  1727  0CFD  00B6               	movwf	(Get_Better_Newton_Value@r3+2)^(0+384)
  1728  0CFE  1683               	bsf	3,5	;RP0=1, select bank1
  1729  0CFF  1303               	bcf	3,6	;RP1=0, select bank1
  1730  0D00  0837               	movf	(?_Get_Newton+1)^(0+128),w
  1731  0D01  1683               	bsf	3,5	;RP0=1, select bank3
  1732  0D02  1703               	bsf	3,6	;RP1=1, select bank3
  1733  0D03  00B5               	movwf	(Get_Better_Newton_Value@r3+1)^(0+384)
  1734  0D04  1683               	bsf	3,5	;RP0=1, select bank1
  1735  0D05  1303               	bcf	3,6	;RP1=0, select bank1
  1736  0D06  0836               	movf	?_Get_Newton^(0+128),w
  1737  0D07  1683               	bsf	3,5	;RP0=1, select bank3
  1738  0D08  1703               	bsf	3,6	;RP1=1, select bank3
  1739  0D09  00B4               	movwf	Get_Better_Newton_Value@r3^(0+384)
  1740  0D0A                     l2643:
  1741                           
  1742                           ;main.c: 70:     if (r1 > 650000)
  1743  0D0A  3049               	movlw	73
  1744  0D0B  00F6               	movwf	___flge@ff1+3
  1745  0D0C  301E               	movlw	30
  1746  0D0D  00F5               	movwf	___flge@ff1+2
  1747  0D0E  30B1               	movlw	177
  1748  0D0F  00F4               	movwf	___flge@ff1+1
  1749  0D10  3000               	movlw	0
  1750  0D11  00F3               	movwf	___flge@ff1
  1751  0D12  082F               	movf	(Get_Better_Newton_Value@r1+3)^(0+384),w
  1752  0D13  00FA               	movwf	___flge@ff2+3
  1753  0D14  082E               	movf	(Get_Better_Newton_Value@r1+2)^(0+384),w
  1754  0D15  00F9               	movwf	___flge@ff2+2
  1755  0D16  082D               	movf	(Get_Better_Newton_Value@r1+1)^(0+384),w
  1756  0D17  00F8               	movwf	___flge@ff2+1
  1757  0D18  082C               	movf	Get_Better_Newton_Value@r1^(0+384),w
  1758  0D19  00F7               	movwf	___flge@ff2
  1759  0D1A  160A  158A  2537  120A  158A  	fcall	___flge
  1760  0D1F  1803               	btfsc	3,0
  1761  0D20  2D22               	goto	u4001
  1762  0D21  2D23               	goto	u4000
  1763  0D22                     u4001:
  1764  0D22  2D60               	goto	l2647
  1765  0D23                     u4000:
  1766  0D23                     l2645:
  1767                           
  1768                           ;main.c: 71:     {;main.c: 72:         coeffR1=650000/r1;
  1769  0D23  1683               	bsf	3,5	;RP0=1, select bank3
  1770  0D24  1703               	bsf	3,6	;RP1=1, select bank3
  1771  0D25  082F               	movf	(Get_Better_Newton_Value@r1+3)^(0+384),w
  1772  0D26  1283               	bcf	3,5	;RP0=0, select bank0
  1773  0D27  1303               	bcf	3,6	;RP1=0, select bank0
  1774  0D28  00DF               	movwf	___fldiv@a+3
  1775  0D29  1683               	bsf	3,5	;RP0=1, select bank3
  1776  0D2A  1703               	bsf	3,6	;RP1=1, select bank3
  1777  0D2B  082E               	movf	(Get_Better_Newton_Value@r1+2)^(0+384),w
  1778  0D2C  1283               	bcf	3,5	;RP0=0, select bank0
  1779  0D2D  1303               	bcf	3,6	;RP1=0, select bank0
  1780  0D2E  00DE               	movwf	___fldiv@a+2
  1781  0D2F  1683               	bsf	3,5	;RP0=1, select bank3
  1782  0D30  1703               	bsf	3,6	;RP1=1, select bank3
  1783  0D31  082D               	movf	(Get_Better_Newton_Value@r1+1)^(0+384),w
  1784  0D32  1283               	bcf	3,5	;RP0=0, select bank0
  1785  0D33  1303               	bcf	3,6	;RP1=0, select bank0
  1786  0D34  00DD               	movwf	___fldiv@a+1
  1787  0D35  1683               	bsf	3,5	;RP0=1, select bank3
  1788  0D36  1703               	bsf	3,6	;RP1=1, select bank3
  1789  0D37  082C               	movf	Get_Better_Newton_Value@r1^(0+384),w
  1790  0D38  1283               	bcf	3,5	;RP0=0, select bank0
  1791  0D39  1303               	bcf	3,6	;RP1=0, select bank0
  1792  0D3A  00DC               	movwf	___fldiv@a
  1793  0D3B  3049               	movlw	73
  1794  0D3C  00E3               	movwf	___fldiv@b+3
  1795  0D3D  301E               	movlw	30
  1796  0D3E  00E2               	movwf	___fldiv@b+2
  1797  0D3F  30B1               	movlw	177
  1798  0D40  00E1               	movwf	___fldiv@b+1
  1799  0D41  3000               	movlw	0
  1800  0D42  00E0               	movwf	___fldiv@b
  1801  0D43  120A  118A  2041  120A  158A  	fcall	___fldiv
  1802  0D48  1283               	bcf	3,5	;RP0=0, select bank0
  1803  0D49  1303               	bcf	3,6	;RP1=0, select bank0
  1804  0D4A  085F               	movf	?___fldiv+3,w
  1805  0D4B  1683               	bsf	3,5	;RP0=1, select bank3
  1806  0D4C  1703               	bsf	3,6	;RP1=1, select bank3
  1807  0D4D  00A3               	movwf	(Get_Better_Newton_Value@coeffR1+3)^(0+384)
  1808  0D4E  1283               	bcf	3,5	;RP0=0, select bank0
  1809  0D4F  1303               	bcf	3,6	;RP1=0, select bank0
  1810  0D50  085E               	movf	?___fldiv+2,w
  1811  0D51  1683               	bsf	3,5	;RP0=1, select bank3
  1812  0D52  1703               	bsf	3,6	;RP1=1, select bank3
  1813  0D53  00A2               	movwf	(Get_Better_Newton_Value@coeffR1+2)^(0+384)
  1814  0D54  1283               	bcf	3,5	;RP0=0, select bank0
  1815  0D55  1303               	bcf	3,6	;RP1=0, select bank0
  1816  0D56  085D               	movf	?___fldiv+1,w
  1817  0D57  1683               	bsf	3,5	;RP0=1, select bank3
  1818  0D58  1703               	bsf	3,6	;RP1=1, select bank3
  1819  0D59  00A1               	movwf	(Get_Better_Newton_Value@coeffR1+1)^(0+384)
  1820  0D5A  1283               	bcf	3,5	;RP0=0, select bank0
  1821  0D5B  1303               	bcf	3,6	;RP1=0, select bank0
  1822  0D5C  085C               	movf	?___fldiv,w
  1823  0D5D  1683               	bsf	3,5	;RP0=1, select bank3
  1824  0D5E  1703               	bsf	3,6	;RP1=1, select bank3
  1825  0D5F  00A0               	movwf	Get_Better_Newton_Value@coeffR1^(0+384)
  1826  0D60                     l2647:
  1827                           
  1828                           ;main.c: 77:     if (r2 > 35000)
  1829  0D60  3047               	movlw	71
  1830  0D61  00F6               	movwf	___flge@ff1+3
  1831  0D62  3008               	movlw	8
  1832  0D63  00F5               	movwf	___flge@ff1+2
  1833  0D64  30B8               	movlw	184
  1834  0D65  00F4               	movwf	___flge@ff1+1
  1835  0D66  3000               	movlw	0
  1836  0D67  00F3               	movwf	___flge@ff1
  1837  0D68  1683               	bsf	3,5	;RP0=1, select bank3
  1838  0D69  1703               	bsf	3,6	;RP1=1, select bank3
  1839  0D6A  0833               	movf	(Get_Better_Newton_Value@r2+3)^(0+384),w
  1840  0D6B  00FA               	movwf	___flge@ff2+3
  1841  0D6C  0832               	movf	(Get_Better_Newton_Value@r2+2)^(0+384),w
  1842  0D6D  00F9               	movwf	___flge@ff2+2
  1843  0D6E  0831               	movf	(Get_Better_Newton_Value@r2+1)^(0+384),w
  1844  0D6F  00F8               	movwf	___flge@ff2+1
  1845  0D70  0830               	movf	Get_Better_Newton_Value@r2^(0+384),w
  1846  0D71  00F7               	movwf	___flge@ff2
  1847  0D72  160A  158A  2537  120A  158A  	fcall	___flge
  1848  0D77  1803               	btfsc	3,0
  1849  0D78  2D7A               	goto	u4011
  1850  0D79  2D7B               	goto	u4010
  1851  0D7A                     u4011:
  1852  0D7A  2DB8               	goto	l2651
  1853  0D7B                     u4010:
  1854  0D7B                     l2649:
  1855                           
  1856                           ;main.c: 78:     {;main.c: 79:         coeffR2= 35000/r2;
  1857  0D7B  1683               	bsf	3,5	;RP0=1, select bank3
  1858  0D7C  1703               	bsf	3,6	;RP1=1, select bank3
  1859  0D7D  0833               	movf	(Get_Better_Newton_Value@r2+3)^(0+384),w
  1860  0D7E  1283               	bcf	3,5	;RP0=0, select bank0
  1861  0D7F  1303               	bcf	3,6	;RP1=0, select bank0
  1862  0D80  00DF               	movwf	___fldiv@a+3
  1863  0D81  1683               	bsf	3,5	;RP0=1, select bank3
  1864  0D82  1703               	bsf	3,6	;RP1=1, select bank3
  1865  0D83  0832               	movf	(Get_Better_Newton_Value@r2+2)^(0+384),w
  1866  0D84  1283               	bcf	3,5	;RP0=0, select bank0
  1867  0D85  1303               	bcf	3,6	;RP1=0, select bank0
  1868  0D86  00DE               	movwf	___fldiv@a+2
  1869  0D87  1683               	bsf	3,5	;RP0=1, select bank3
  1870  0D88  1703               	bsf	3,6	;RP1=1, select bank3
  1871  0D89  0831               	movf	(Get_Better_Newton_Value@r2+1)^(0+384),w
  1872  0D8A  1283               	bcf	3,5	;RP0=0, select bank0
  1873  0D8B  1303               	bcf	3,6	;RP1=0, select bank0
  1874  0D8C  00DD               	movwf	___fldiv@a+1
  1875  0D8D  1683               	bsf	3,5	;RP0=1, select bank3
  1876  0D8E  1703               	bsf	3,6	;RP1=1, select bank3
  1877  0D8F  0830               	movf	Get_Better_Newton_Value@r2^(0+384),w
  1878  0D90  1283               	bcf	3,5	;RP0=0, select bank0
  1879  0D91  1303               	bcf	3,6	;RP1=0, select bank0
  1880  0D92  00DC               	movwf	___fldiv@a
  1881  0D93  3047               	movlw	71
  1882  0D94  00E3               	movwf	___fldiv@b+3
  1883  0D95  3008               	movlw	8
  1884  0D96  00E2               	movwf	___fldiv@b+2
  1885  0D97  30B8               	movlw	184
  1886  0D98  00E1               	movwf	___fldiv@b+1
  1887  0D99  3000               	movlw	0
  1888  0D9A  00E0               	movwf	___fldiv@b
  1889  0D9B  120A  118A  2041  120A  158A  	fcall	___fldiv
  1890  0DA0  1283               	bcf	3,5	;RP0=0, select bank0
  1891  0DA1  1303               	bcf	3,6	;RP1=0, select bank0
  1892  0DA2  085F               	movf	?___fldiv+3,w
  1893  0DA3  1683               	bsf	3,5	;RP0=1, select bank3
  1894  0DA4  1703               	bsf	3,6	;RP1=1, select bank3
  1895  0DA5  00A7               	movwf	(Get_Better_Newton_Value@coeffR2+3)^(0+384)
  1896  0DA6  1283               	bcf	3,5	;RP0=0, select bank0
  1897  0DA7  1303               	bcf	3,6	;RP1=0, select bank0
  1898  0DA8  085E               	movf	?___fldiv+2,w
  1899  0DA9  1683               	bsf	3,5	;RP0=1, select bank3
  1900  0DAA  1703               	bsf	3,6	;RP1=1, select bank3
  1901  0DAB  00A6               	movwf	(Get_Better_Newton_Value@coeffR2+2)^(0+384)
  1902  0DAC  1283               	bcf	3,5	;RP0=0, select bank0
  1903  0DAD  1303               	bcf	3,6	;RP1=0, select bank0
  1904  0DAE  085D               	movf	?___fldiv+1,w
  1905  0DAF  1683               	bsf	3,5	;RP0=1, select bank3
  1906  0DB0  1703               	bsf	3,6	;RP1=1, select bank3
  1907  0DB1  00A5               	movwf	(Get_Better_Newton_Value@coeffR2+1)^(0+384)
  1908  0DB2  1283               	bcf	3,5	;RP0=0, select bank0
  1909  0DB3  1303               	bcf	3,6	;RP1=0, select bank0
  1910  0DB4  085C               	movf	?___fldiv,w
  1911  0DB5  1683               	bsf	3,5	;RP0=1, select bank3
  1912  0DB6  1703               	bsf	3,6	;RP1=1, select bank3
  1913  0DB7  00A4               	movwf	Get_Better_Newton_Value@coeffR2^(0+384)
  1914  0DB8                     l2651:
  1915                           
  1916                           ;main.c: 85:     if (r3 > 103750)
  1917  0DB8  3047               	movlw	71
  1918  0DB9  00F6               	movwf	___flge@ff1+3
  1919  0DBA  30CA               	movlw	202
  1920  0DBB  00F5               	movwf	___flge@ff1+2
  1921  0DBC  30A3               	movlw	163
  1922  0DBD  00F4               	movwf	___flge@ff1+1
  1923  0DBE  3000               	movlw	0
  1924  0DBF  00F3               	movwf	___flge@ff1
  1925  0DC0  1683               	bsf	3,5	;RP0=1, select bank3
  1926  0DC1  1703               	bsf	3,6	;RP1=1, select bank3
  1927  0DC2  0837               	movf	(Get_Better_Newton_Value@r3+3)^(0+384),w
  1928  0DC3  00FA               	movwf	___flge@ff2+3
  1929  0DC4  0836               	movf	(Get_Better_Newton_Value@r3+2)^(0+384),w
  1930  0DC5  00F9               	movwf	___flge@ff2+2
  1931  0DC6  0835               	movf	(Get_Better_Newton_Value@r3+1)^(0+384),w
  1932  0DC7  00F8               	movwf	___flge@ff2+1
  1933  0DC8  0834               	movf	Get_Better_Newton_Value@r3^(0+384),w
  1934  0DC9  00F7               	movwf	___flge@ff2
  1935  0DCA  160A  158A  2537  120A  158A  	fcall	___flge
  1936  0DCF  1803               	btfsc	3,0
  1937  0DD0  2DD2               	goto	u4021
  1938  0DD1  2DD3               	goto	u4020
  1939  0DD2                     u4021:
  1940  0DD2  2E10               	goto	l38
  1941  0DD3                     u4020:
  1942  0DD3                     l2653:
  1943                           
  1944                           ;main.c: 86:     {;main.c: 87:         coeffR3= 103750/r3;
  1945  0DD3  1683               	bsf	3,5	;RP0=1, select bank3
  1946  0DD4  1703               	bsf	3,6	;RP1=1, select bank3
  1947  0DD5  0837               	movf	(Get_Better_Newton_Value@r3+3)^(0+384),w
  1948  0DD6  1283               	bcf	3,5	;RP0=0, select bank0
  1949  0DD7  1303               	bcf	3,6	;RP1=0, select bank0
  1950  0DD8  00DF               	movwf	___fldiv@a+3
  1951  0DD9  1683               	bsf	3,5	;RP0=1, select bank3
  1952  0DDA  1703               	bsf	3,6	;RP1=1, select bank3
  1953  0DDB  0836               	movf	(Get_Better_Newton_Value@r3+2)^(0+384),w
  1954  0DDC  1283               	bcf	3,5	;RP0=0, select bank0
  1955  0DDD  1303               	bcf	3,6	;RP1=0, select bank0
  1956  0DDE  00DE               	movwf	___fldiv@a+2
  1957  0DDF  1683               	bsf	3,5	;RP0=1, select bank3
  1958  0DE0  1703               	bsf	3,6	;RP1=1, select bank3
  1959  0DE1  0835               	movf	(Get_Better_Newton_Value@r3+1)^(0+384),w
  1960  0DE2  1283               	bcf	3,5	;RP0=0, select bank0
  1961  0DE3  1303               	bcf	3,6	;RP1=0, select bank0
  1962  0DE4  00DD               	movwf	___fldiv@a+1
  1963  0DE5  1683               	bsf	3,5	;RP0=1, select bank3
  1964  0DE6  1703               	bsf	3,6	;RP1=1, select bank3
  1965  0DE7  0834               	movf	Get_Better_Newton_Value@r3^(0+384),w
  1966  0DE8  1283               	bcf	3,5	;RP0=0, select bank0
  1967  0DE9  1303               	bcf	3,6	;RP1=0, select bank0
  1968  0DEA  00DC               	movwf	___fldiv@a
  1969  0DEB  3047               	movlw	71
  1970  0DEC  00E3               	movwf	___fldiv@b+3
  1971  0DED  30CA               	movlw	202
  1972  0DEE  00E2               	movwf	___fldiv@b+2
  1973  0DEF  30A3               	movlw	163
  1974  0DF0  00E1               	movwf	___fldiv@b+1
  1975  0DF1  3000               	movlw	0
  1976  0DF2  00E0               	movwf	___fldiv@b
  1977  0DF3  120A  118A  2041  120A  158A  	fcall	___fldiv
  1978  0DF8  1283               	bcf	3,5	;RP0=0, select bank0
  1979  0DF9  1303               	bcf	3,6	;RP1=0, select bank0
  1980  0DFA  085F               	movf	?___fldiv+3,w
  1981  0DFB  1683               	bsf	3,5	;RP0=1, select bank3
  1982  0DFC  1703               	bsf	3,6	;RP1=1, select bank3
  1983  0DFD  00AB               	movwf	(Get_Better_Newton_Value@coeffR3+3)^(0+384)
  1984  0DFE  1283               	bcf	3,5	;RP0=0, select bank0
  1985  0DFF  1303               	bcf	3,6	;RP1=0, select bank0
  1986  0E00  085E               	movf	?___fldiv+2,w
  1987  0E01  1683               	bsf	3,5	;RP0=1, select bank3
  1988  0E02  1703               	bsf	3,6	;RP1=1, select bank3
  1989  0E03  00AA               	movwf	(Get_Better_Newton_Value@coeffR3+2)^(0+384)
  1990  0E04  1283               	bcf	3,5	;RP0=0, select bank0
  1991  0E05  1303               	bcf	3,6	;RP1=0, select bank0
  1992  0E06  085D               	movf	?___fldiv+1,w
  1993  0E07  1683               	bsf	3,5	;RP0=1, select bank3
  1994  0E08  1703               	bsf	3,6	;RP1=1, select bank3
  1995  0E09  00A9               	movwf	(Get_Better_Newton_Value@coeffR3+1)^(0+384)
  1996  0E0A  1283               	bcf	3,5	;RP0=0, select bank0
  1997  0E0B  1303               	bcf	3,6	;RP1=0, select bank0
  1998  0E0C  085C               	movf	?___fldiv,w
  1999  0E0D  1683               	bsf	3,5	;RP0=1, select bank3
  2000  0E0E  1703               	bsf	3,6	;RP1=1, select bank3
  2001  0E0F  00A8               	movwf	Get_Better_Newton_Value@coeffR3^(0+384)
  2002  0E10                     l38:	
  2003                           ;main.c: 88:     }
  2004                           
  2005                           
  2006                           ;main.c: 94:     resultat = ((r1*coeffR1)+(r2*coeffR2)+(r3*coeffR3))/(coeffR1+coeffR2+co
      +                          effR3);
  2007  0E10  1683               	bsf	3,5	;RP0=1, select bank3
  2008  0E11  1703               	bsf	3,6	;RP1=1, select bank3
  2009  0E12  0827               	movf	(Get_Better_Newton_Value@coeffR2+3)^(0+384),w
  2010  0E13  1283               	bcf	3,5	;RP0=0, select bank0
  2011  0E14  1303               	bcf	3,6	;RP1=0, select bank0
  2012  0E15  00C3               	movwf	___fladd@b+3
  2013  0E16  1683               	bsf	3,5	;RP0=1, select bank3
  2014  0E17  1703               	bsf	3,6	;RP1=1, select bank3
  2015  0E18  0826               	movf	(Get_Better_Newton_Value@coeffR2+2)^(0+384),w
  2016  0E19  1283               	bcf	3,5	;RP0=0, select bank0
  2017  0E1A  1303               	bcf	3,6	;RP1=0, select bank0
  2018  0E1B  00C2               	movwf	___fladd@b+2
  2019  0E1C  1683               	bsf	3,5	;RP0=1, select bank3
  2020  0E1D  1703               	bsf	3,6	;RP1=1, select bank3
  2021  0E1E  0825               	movf	(Get_Better_Newton_Value@coeffR2+1)^(0+384),w
  2022  0E1F  1283               	bcf	3,5	;RP0=0, select bank0
  2023  0E20  1303               	bcf	3,6	;RP1=0, select bank0
  2024  0E21  00C1               	movwf	___fladd@b+1
  2025  0E22  1683               	bsf	3,5	;RP0=1, select bank3
  2026  0E23  1703               	bsf	3,6	;RP1=1, select bank3
  2027  0E24  0824               	movf	Get_Better_Newton_Value@coeffR2^(0+384),w
  2028  0E25  1283               	bcf	3,5	;RP0=0, select bank0
  2029  0E26  1303               	bcf	3,6	;RP1=0, select bank0
  2030  0E27  00C0               	movwf	___fladd@b
  2031  0E28  1683               	bsf	3,5	;RP0=1, select bank3
  2032  0E29  1703               	bsf	3,6	;RP1=1, select bank3
  2033  0E2A  0823               	movf	(Get_Better_Newton_Value@coeffR1+3)^(0+384),w
  2034  0E2B  1283               	bcf	3,5	;RP0=0, select bank0
  2035  0E2C  1303               	bcf	3,6	;RP1=0, select bank0
  2036  0E2D  00C7               	movwf	___fladd@a+3
  2037  0E2E  1683               	bsf	3,5	;RP0=1, select bank3
  2038  0E2F  1703               	bsf	3,6	;RP1=1, select bank3
  2039  0E30  0822               	movf	(Get_Better_Newton_Value@coeffR1+2)^(0+384),w
  2040  0E31  1283               	bcf	3,5	;RP0=0, select bank0
  2041  0E32  1303               	bcf	3,6	;RP1=0, select bank0
  2042  0E33  00C6               	movwf	___fladd@a+2
  2043  0E34  1683               	bsf	3,5	;RP0=1, select bank3
  2044  0E35  1703               	bsf	3,6	;RP1=1, select bank3
  2045  0E36  0821               	movf	(Get_Better_Newton_Value@coeffR1+1)^(0+384),w
  2046  0E37  1283               	bcf	3,5	;RP0=0, select bank0
  2047  0E38  1303               	bcf	3,6	;RP1=0, select bank0
  2048  0E39  00C5               	movwf	___fladd@a+1
  2049  0E3A  1683               	bsf	3,5	;RP0=1, select bank3
  2050  0E3B  1703               	bsf	3,6	;RP1=1, select bank3
  2051  0E3C  0820               	movf	Get_Better_Newton_Value@coeffR1^(0+384),w
  2052  0E3D  1283               	bcf	3,5	;RP0=0, select bank0
  2053  0E3E  1303               	bcf	3,6	;RP1=0, select bank0
  2054  0E3F  00C4               	movwf	___fladd@a
  2055  0E40  160A  118A  2578  120A  158A  	fcall	___fladd
  2056  0E45  1283               	bcf	3,5	;RP0=0, select bank0
  2057  0E46  1303               	bcf	3,6	;RP1=0, select bank0
  2058  0E47  0843               	movf	?___fladd+3,w
  2059  0E48  1683               	bsf	3,5	;RP0=1, select bank3
  2060  0E49  1703               	bsf	3,6	;RP1=1, select bank3
  2061  0E4A  009B               	movwf	(_Get_Better_Newton_Value$800+3)^(0+384)
  2062  0E4B  1283               	bcf	3,5	;RP0=0, select bank0
  2063  0E4C  1303               	bcf	3,6	;RP1=0, select bank0
  2064  0E4D  0842               	movf	?___fladd+2,w
  2065  0E4E  1683               	bsf	3,5	;RP0=1, select bank3
  2066  0E4F  1703               	bsf	3,6	;RP1=1, select bank3
  2067  0E50  009A               	movwf	(_Get_Better_Newton_Value$800+2)^(0+384)
  2068  0E51  1283               	bcf	3,5	;RP0=0, select bank0
  2069  0E52  1303               	bcf	3,6	;RP1=0, select bank0
  2070  0E53  0841               	movf	?___fladd+1,w
  2071  0E54  1683               	bsf	3,5	;RP0=1, select bank3
  2072  0E55  1703               	bsf	3,6	;RP1=1, select bank3
  2073  0E56  0099               	movwf	(_Get_Better_Newton_Value$800+1)^(0+384)
  2074  0E57  1283               	bcf	3,5	;RP0=0, select bank0
  2075  0E58  1303               	bcf	3,6	;RP1=0, select bank0
  2076  0E59  0840               	movf	?___fladd,w
  2077  0E5A  1683               	bsf	3,5	;RP0=1, select bank3
  2078  0E5B  1703               	bsf	3,6	;RP1=1, select bank3
  2079  0E5C  0098               	movwf	_Get_Better_Newton_Value$800^(0+384)
  2080                           
  2081                           ;main.c: 94:     resultat = ((r1*coeffR1)+(r2*coeffR2)+(r3*coeffR3))/(coeffR1+coeffR2+co
      +                          effR3);
  2082  0E5D  0827               	movf	(Get_Better_Newton_Value@coeffR2+3)^(0+384),w
  2083  0E5E  1283               	bcf	3,5	;RP0=0, select bank0
  2084  0E5F  1303               	bcf	3,6	;RP1=0, select bank0
  2085  0E60  00A9               	movwf	___flmul@b+3
  2086  0E61  1683               	bsf	3,5	;RP0=1, select bank3
  2087  0E62  1703               	bsf	3,6	;RP1=1, select bank3
  2088  0E63  0826               	movf	(Get_Better_Newton_Value@coeffR2+2)^(0+384),w
  2089  0E64  1283               	bcf	3,5	;RP0=0, select bank0
  2090  0E65  1303               	bcf	3,6	;RP1=0, select bank0
  2091  0E66  00A8               	movwf	___flmul@b+2
  2092  0E67  1683               	bsf	3,5	;RP0=1, select bank3
  2093  0E68  1703               	bsf	3,6	;RP1=1, select bank3
  2094  0E69  0825               	movf	(Get_Better_Newton_Value@coeffR2+1)^(0+384),w
  2095  0E6A  1283               	bcf	3,5	;RP0=0, select bank0
  2096  0E6B  1303               	bcf	3,6	;RP1=0, select bank0
  2097  0E6C  00A7               	movwf	___flmul@b+1
  2098  0E6D  1683               	bsf	3,5	;RP0=1, select bank3
  2099  0E6E  1703               	bsf	3,6	;RP1=1, select bank3
  2100  0E6F  0824               	movf	Get_Better_Newton_Value@coeffR2^(0+384),w
  2101  0E70  1283               	bcf	3,5	;RP0=0, select bank0
  2102  0E71  1303               	bcf	3,6	;RP1=0, select bank0
  2103  0E72  00A6               	movwf	___flmul@b
  2104  0E73  1683               	bsf	3,5	;RP0=1, select bank3
  2105  0E74  1703               	bsf	3,6	;RP1=1, select bank3
  2106  0E75  0833               	movf	(Get_Better_Newton_Value@r2+3)^(0+384),w
  2107  0E76  1283               	bcf	3,5	;RP0=0, select bank0
  2108  0E77  1303               	bcf	3,6	;RP1=0, select bank0
  2109  0E78  00AD               	movwf	___flmul@a+3
  2110  0E79  1683               	bsf	3,5	;RP0=1, select bank3
  2111  0E7A  1703               	bsf	3,6	;RP1=1, select bank3
  2112  0E7B  0832               	movf	(Get_Better_Newton_Value@r2+2)^(0+384),w
  2113  0E7C  1283               	bcf	3,5	;RP0=0, select bank0
  2114  0E7D  1303               	bcf	3,6	;RP1=0, select bank0
  2115  0E7E  00AC               	movwf	___flmul@a+2
  2116  0E7F  1683               	bsf	3,5	;RP0=1, select bank3
  2117  0E80  1703               	bsf	3,6	;RP1=1, select bank3
  2118  0E81  0831               	movf	(Get_Better_Newton_Value@r2+1)^(0+384),w
  2119  0E82  1283               	bcf	3,5	;RP0=0, select bank0
  2120  0E83  1303               	bcf	3,6	;RP1=0, select bank0
  2121  0E84  00AB               	movwf	___flmul@a+1
  2122  0E85  1683               	bsf	3,5	;RP0=1, select bank3
  2123  0E86  1703               	bsf	3,6	;RP1=1, select bank3
  2124  0E87  0830               	movf	Get_Better_Newton_Value@r2^(0+384),w
  2125  0E88  1283               	bcf	3,5	;RP0=0, select bank0
  2126  0E89  1303               	bcf	3,6	;RP1=0, select bank0
  2127  0E8A  00AA               	movwf	___flmul@a
  2128  0E8B  120A  158A  2112  120A  158A  	fcall	___flmul
  2129  0E90  1283               	bcf	3,5	;RP0=0, select bank0
  2130  0E91  1303               	bcf	3,6	;RP1=0, select bank0
  2131  0E92  0829               	movf	?___flmul+3,w
  2132  0E93  00C3               	movwf	___fladd@b+3
  2133  0E94  0828               	movf	?___flmul+2,w
  2134  0E95  00C2               	movwf	___fladd@b+2
  2135  0E96  0827               	movf	?___flmul+1,w
  2136  0E97  00C1               	movwf	___fladd@b+1
  2137  0E98  0826               	movf	?___flmul,w
  2138  0E99  00C0               	movwf	___fladd@b
  2139  0E9A  1683               	bsf	3,5	;RP0=1, select bank3
  2140  0E9B  1703               	bsf	3,6	;RP1=1, select bank3
  2141  0E9C  0823               	movf	(Get_Better_Newton_Value@coeffR1+3)^(0+384),w
  2142  0E9D  1283               	bcf	3,5	;RP0=0, select bank0
  2143  0E9E  1303               	bcf	3,6	;RP1=0, select bank0
  2144  0E9F  00A9               	movwf	___flmul@b+3
  2145  0EA0  1683               	bsf	3,5	;RP0=1, select bank3
  2146  0EA1  1703               	bsf	3,6	;RP1=1, select bank3
  2147  0EA2  0822               	movf	(Get_Better_Newton_Value@coeffR1+2)^(0+384),w
  2148  0EA3  1283               	bcf	3,5	;RP0=0, select bank0
  2149  0EA4  1303               	bcf	3,6	;RP1=0, select bank0
  2150  0EA5  00A8               	movwf	___flmul@b+2
  2151  0EA6  1683               	bsf	3,5	;RP0=1, select bank3
  2152  0EA7  1703               	bsf	3,6	;RP1=1, select bank3
  2153  0EA8  0821               	movf	(Get_Better_Newton_Value@coeffR1+1)^(0+384),w
  2154  0EA9  1283               	bcf	3,5	;RP0=0, select bank0
  2155  0EAA  1303               	bcf	3,6	;RP1=0, select bank0
  2156  0EAB  00A7               	movwf	___flmul@b+1
  2157  0EAC  1683               	bsf	3,5	;RP0=1, select bank3
  2158  0EAD  1703               	bsf	3,6	;RP1=1, select bank3
  2159  0EAE  0820               	movf	Get_Better_Newton_Value@coeffR1^(0+384),w
  2160  0EAF  1283               	bcf	3,5	;RP0=0, select bank0
  2161  0EB0  1303               	bcf	3,6	;RP1=0, select bank0
  2162  0EB1  00A6               	movwf	___flmul@b
  2163  0EB2  1683               	bsf	3,5	;RP0=1, select bank3
  2164  0EB3  1703               	bsf	3,6	;RP1=1, select bank3
  2165  0EB4  082F               	movf	(Get_Better_Newton_Value@r1+3)^(0+384),w
  2166  0EB5  1283               	bcf	3,5	;RP0=0, select bank0
  2167  0EB6  1303               	bcf	3,6	;RP1=0, select bank0
  2168  0EB7  00AD               	movwf	___flmul@a+3
  2169  0EB8  1683               	bsf	3,5	;RP0=1, select bank3
  2170  0EB9  1703               	bsf	3,6	;RP1=1, select bank3
  2171  0EBA  082E               	movf	(Get_Better_Newton_Value@r1+2)^(0+384),w
  2172  0EBB  1283               	bcf	3,5	;RP0=0, select bank0
  2173  0EBC  1303               	bcf	3,6	;RP1=0, select bank0
  2174  0EBD  00AC               	movwf	___flmul@a+2
  2175  0EBE  1683               	bsf	3,5	;RP0=1, select bank3
  2176  0EBF  1703               	bsf	3,6	;RP1=1, select bank3
  2177  0EC0  082D               	movf	(Get_Better_Newton_Value@r1+1)^(0+384),w
  2178  0EC1  1283               	bcf	3,5	;RP0=0, select bank0
  2179  0EC2  1303               	bcf	3,6	;RP1=0, select bank0
  2180  0EC3  00AB               	movwf	___flmul@a+1
  2181  0EC4  1683               	bsf	3,5	;RP0=1, select bank3
  2182  0EC5  1703               	bsf	3,6	;RP1=1, select bank3
  2183  0EC6  082C               	movf	Get_Better_Newton_Value@r1^(0+384),w
  2184  0EC7  1283               	bcf	3,5	;RP0=0, select bank0
  2185  0EC8  1303               	bcf	3,6	;RP1=0, select bank0
  2186  0EC9  00AA               	movwf	___flmul@a
  2187  0ECA  120A  158A  2112  120A  158A  	fcall	___flmul
  2188  0ECF  1283               	bcf	3,5	;RP0=0, select bank0
  2189  0ED0  1303               	bcf	3,6	;RP1=0, select bank0
  2190  0ED1  0829               	movf	?___flmul+3,w
  2191  0ED2  00C7               	movwf	___fladd@a+3
  2192  0ED3  0828               	movf	?___flmul+2,w
  2193  0ED4  00C6               	movwf	___fladd@a+2
  2194  0ED5  0827               	movf	?___flmul+1,w
  2195  0ED6  00C5               	movwf	___fladd@a+1
  2196  0ED7  0826               	movf	?___flmul,w
  2197  0ED8  00C4               	movwf	___fladd@a
  2198  0ED9  160A  118A  2578  120A  158A  	fcall	___fladd
  2199  0EDE  1283               	bcf	3,5	;RP0=0, select bank0
  2200  0EDF  1303               	bcf	3,6	;RP1=0, select bank0
  2201  0EE0  0843               	movf	?___fladd+3,w
  2202  0EE1  1683               	bsf	3,5	;RP0=1, select bank3
  2203  0EE2  1703               	bsf	3,6	;RP1=1, select bank3
  2204  0EE3  009F               	movwf	(_Get_Better_Newton_Value$801+3)^(0+384)
  2205  0EE4  1283               	bcf	3,5	;RP0=0, select bank0
  2206  0EE5  1303               	bcf	3,6	;RP1=0, select bank0
  2207  0EE6  0842               	movf	?___fladd+2,w
  2208  0EE7  1683               	bsf	3,5	;RP0=1, select bank3
  2209  0EE8  1703               	bsf	3,6	;RP1=1, select bank3
  2210  0EE9  009E               	movwf	(_Get_Better_Newton_Value$801+2)^(0+384)
  2211  0EEA  1283               	bcf	3,5	;RP0=0, select bank0
  2212  0EEB  1303               	bcf	3,6	;RP1=0, select bank0
  2213  0EEC  0841               	movf	?___fladd+1,w
  2214  0EED  1683               	bsf	3,5	;RP0=1, select bank3
  2215  0EEE  1703               	bsf	3,6	;RP1=1, select bank3
  2216  0EEF  009D               	movwf	(_Get_Better_Newton_Value$801+1)^(0+384)
  2217  0EF0  1283               	bcf	3,5	;RP0=0, select bank0
  2218  0EF1  1303               	bcf	3,6	;RP1=0, select bank0
  2219  0EF2  0840               	movf	?___fladd,w
  2220  0EF3  1683               	bsf	3,5	;RP0=1, select bank3
  2221  0EF4  1703               	bsf	3,6	;RP1=1, select bank3
  2222  0EF5  009C               	movwf	_Get_Better_Newton_Value$801^(0+384)
  2223                           
  2224                           ;main.c: 94:     resultat = ((r1*coeffR1)+(r2*coeffR2)+(r3*coeffR3))/(coeffR1+coeffR2+co
      +                          effR3);
  2225  0EF6  082B               	movf	(Get_Better_Newton_Value@coeffR3+3)^(0+384),w
  2226  0EF7  1283               	bcf	3,5	;RP0=0, select bank0
  2227  0EF8  1303               	bcf	3,6	;RP1=0, select bank0
  2228  0EF9  00C3               	movwf	___fladd@b+3
  2229  0EFA  1683               	bsf	3,5	;RP0=1, select bank3
  2230  0EFB  1703               	bsf	3,6	;RP1=1, select bank3
  2231  0EFC  082A               	movf	(Get_Better_Newton_Value@coeffR3+2)^(0+384),w
  2232  0EFD  1283               	bcf	3,5	;RP0=0, select bank0
  2233  0EFE  1303               	bcf	3,6	;RP1=0, select bank0
  2234  0EFF  00C2               	movwf	___fladd@b+2
  2235  0F00  1683               	bsf	3,5	;RP0=1, select bank3
  2236  0F01  1703               	bsf	3,6	;RP1=1, select bank3
  2237  0F02  0829               	movf	(Get_Better_Newton_Value@coeffR3+1)^(0+384),w
  2238  0F03  1283               	bcf	3,5	;RP0=0, select bank0
  2239  0F04  1303               	bcf	3,6	;RP1=0, select bank0
  2240  0F05  00C1               	movwf	___fladd@b+1
  2241  0F06  1683               	bsf	3,5	;RP0=1, select bank3
  2242  0F07  1703               	bsf	3,6	;RP1=1, select bank3
  2243  0F08  0828               	movf	Get_Better_Newton_Value@coeffR3^(0+384),w
  2244  0F09  1283               	bcf	3,5	;RP0=0, select bank0
  2245  0F0A  1303               	bcf	3,6	;RP1=0, select bank0
  2246  0F0B  00C0               	movwf	___fladd@b
  2247  0F0C  1683               	bsf	3,5	;RP0=1, select bank3
  2248  0F0D  1703               	bsf	3,6	;RP1=1, select bank3
  2249  0F0E  081B               	movf	(_Get_Better_Newton_Value$800+3)^(0+384),w
  2250  0F0F  1283               	bcf	3,5	;RP0=0, select bank0
  2251  0F10  1303               	bcf	3,6	;RP1=0, select bank0
  2252  0F11  00C7               	movwf	___fladd@a+3
  2253  0F12  1683               	bsf	3,5	;RP0=1, select bank3
  2254  0F13  1703               	bsf	3,6	;RP1=1, select bank3
  2255  0F14  081A               	movf	(_Get_Better_Newton_Value$800+2)^(0+384),w
  2256  0F15  1283               	bcf	3,5	;RP0=0, select bank0
  2257  0F16  1303               	bcf	3,6	;RP1=0, select bank0
  2258  0F17  00C6               	movwf	___fladd@a+2
  2259  0F18  1683               	bsf	3,5	;RP0=1, select bank3
  2260  0F19  1703               	bsf	3,6	;RP1=1, select bank3
  2261  0F1A  0819               	movf	(_Get_Better_Newton_Value$800+1)^(0+384),w
  2262  0F1B  1283               	bcf	3,5	;RP0=0, select bank0
  2263  0F1C  1303               	bcf	3,6	;RP1=0, select bank0
  2264  0F1D  00C5               	movwf	___fladd@a+1
  2265  0F1E  1683               	bsf	3,5	;RP0=1, select bank3
  2266  0F1F  1703               	bsf	3,6	;RP1=1, select bank3
  2267  0F20  0818               	movf	_Get_Better_Newton_Value$800^(0+384),w
  2268  0F21  1283               	bcf	3,5	;RP0=0, select bank0
  2269  0F22  1303               	bcf	3,6	;RP1=0, select bank0
  2270  0F23  00C4               	movwf	___fladd@a
  2271  0F24  160A  118A  2578  120A  158A  	fcall	___fladd
  2272  0F29  1283               	bcf	3,5	;RP0=0, select bank0
  2273  0F2A  1303               	bcf	3,6	;RP1=0, select bank0
  2274  0F2B  0843               	movf	?___fladd+3,w
  2275  0F2C  00DF               	movwf	___fldiv@a+3
  2276  0F2D  0842               	movf	?___fladd+2,w
  2277  0F2E  00DE               	movwf	___fldiv@a+2
  2278  0F2F  0841               	movf	?___fladd+1,w
  2279  0F30  00DD               	movwf	___fldiv@a+1
  2280  0F31  0840               	movf	?___fladd,w
  2281  0F32  00DC               	movwf	___fldiv@a
  2282  0F33  1683               	bsf	3,5	;RP0=1, select bank3
  2283  0F34  1703               	bsf	3,6	;RP1=1, select bank3
  2284  0F35  082B               	movf	(Get_Better_Newton_Value@coeffR3+3)^(0+384),w
  2285  0F36  1283               	bcf	3,5	;RP0=0, select bank0
  2286  0F37  1303               	bcf	3,6	;RP1=0, select bank0
  2287  0F38  00A9               	movwf	___flmul@b+3
  2288  0F39  1683               	bsf	3,5	;RP0=1, select bank3
  2289  0F3A  1703               	bsf	3,6	;RP1=1, select bank3
  2290  0F3B  082A               	movf	(Get_Better_Newton_Value@coeffR3+2)^(0+384),w
  2291  0F3C  1283               	bcf	3,5	;RP0=0, select bank0
  2292  0F3D  1303               	bcf	3,6	;RP1=0, select bank0
  2293  0F3E  00A8               	movwf	___flmul@b+2
  2294  0F3F  1683               	bsf	3,5	;RP0=1, select bank3
  2295  0F40  1703               	bsf	3,6	;RP1=1, select bank3
  2296  0F41  0829               	movf	(Get_Better_Newton_Value@coeffR3+1)^(0+384),w
  2297  0F42  1283               	bcf	3,5	;RP0=0, select bank0
  2298  0F43  1303               	bcf	3,6	;RP1=0, select bank0
  2299  0F44  00A7               	movwf	___flmul@b+1
  2300  0F45  1683               	bsf	3,5	;RP0=1, select bank3
  2301  0F46  1703               	bsf	3,6	;RP1=1, select bank3
  2302  0F47  0828               	movf	Get_Better_Newton_Value@coeffR3^(0+384),w
  2303  0F48  1283               	bcf	3,5	;RP0=0, select bank0
  2304  0F49  1303               	bcf	3,6	;RP1=0, select bank0
  2305  0F4A  00A6               	movwf	___flmul@b
  2306  0F4B  1683               	bsf	3,5	;RP0=1, select bank3
  2307  0F4C  1703               	bsf	3,6	;RP1=1, select bank3
  2308  0F4D  0837               	movf	(Get_Better_Newton_Value@r3+3)^(0+384),w
  2309  0F4E  1283               	bcf	3,5	;RP0=0, select bank0
  2310  0F4F  1303               	bcf	3,6	;RP1=0, select bank0
  2311  0F50  00AD               	movwf	___flmul@a+3
  2312  0F51  1683               	bsf	3,5	;RP0=1, select bank3
  2313  0F52  1703               	bsf	3,6	;RP1=1, select bank3
  2314  0F53  0836               	movf	(Get_Better_Newton_Value@r3+2)^(0+384),w
  2315  0F54  1283               	bcf	3,5	;RP0=0, select bank0
  2316  0F55  1303               	bcf	3,6	;RP1=0, select bank0
  2317  0F56  00AC               	movwf	___flmul@a+2
  2318  0F57  1683               	bsf	3,5	;RP0=1, select bank3
  2319  0F58  1703               	bsf	3,6	;RP1=1, select bank3
  2320  0F59  0835               	movf	(Get_Better_Newton_Value@r3+1)^(0+384),w
  2321  0F5A  1283               	bcf	3,5	;RP0=0, select bank0
  2322  0F5B  1303               	bcf	3,6	;RP1=0, select bank0
  2323  0F5C  00AB               	movwf	___flmul@a+1
  2324  0F5D  1683               	bsf	3,5	;RP0=1, select bank3
  2325  0F5E  1703               	bsf	3,6	;RP1=1, select bank3
  2326  0F5F  0834               	movf	Get_Better_Newton_Value@r3^(0+384),w
  2327  0F60  1283               	bcf	3,5	;RP0=0, select bank0
  2328  0F61  1303               	bcf	3,6	;RP1=0, select bank0
  2329  0F62  00AA               	movwf	___flmul@a
  2330  0F63  120A  158A  2112  120A  158A  	fcall	___flmul
  2331  0F68  1283               	bcf	3,5	;RP0=0, select bank0
  2332  0F69  1303               	bcf	3,6	;RP1=0, select bank0
  2333  0F6A  0829               	movf	?___flmul+3,w
  2334  0F6B  00C3               	movwf	___fladd@b+3
  2335  0F6C  0828               	movf	?___flmul+2,w
  2336  0F6D  00C2               	movwf	___fladd@b+2
  2337  0F6E  0827               	movf	?___flmul+1,w
  2338  0F6F  00C1               	movwf	___fladd@b+1
  2339  0F70  0826               	movf	?___flmul,w
  2340  0F71  00C0               	movwf	___fladd@b
  2341  0F72  1683               	bsf	3,5	;RP0=1, select bank3
  2342  0F73  1703               	bsf	3,6	;RP1=1, select bank3
  2343  0F74  081F               	movf	(_Get_Better_Newton_Value$801+3)^(0+384),w
  2344  0F75  1283               	bcf	3,5	;RP0=0, select bank0
  2345  0F76  1303               	bcf	3,6	;RP1=0, select bank0
  2346  0F77  00C7               	movwf	___fladd@a+3
  2347  0F78  1683               	bsf	3,5	;RP0=1, select bank3
  2348  0F79  1703               	bsf	3,6	;RP1=1, select bank3
  2349  0F7A  081E               	movf	(_Get_Better_Newton_Value$801+2)^(0+384),w
  2350  0F7B  1283               	bcf	3,5	;RP0=0, select bank0
  2351  0F7C  1303               	bcf	3,6	;RP1=0, select bank0
  2352  0F7D  00C6               	movwf	___fladd@a+2
  2353  0F7E  1683               	bsf	3,5	;RP0=1, select bank3
  2354  0F7F  1703               	bsf	3,6	;RP1=1, select bank3
  2355  0F80  081D               	movf	(_Get_Better_Newton_Value$801+1)^(0+384),w
  2356  0F81  1283               	bcf	3,5	;RP0=0, select bank0
  2357  0F82  1303               	bcf	3,6	;RP1=0, select bank0
  2358  0F83  00C5               	movwf	___fladd@a+1
  2359  0F84  1683               	bsf	3,5	;RP0=1, select bank3
  2360  0F85  1703               	bsf	3,6	;RP1=1, select bank3
  2361  0F86  081C               	movf	_Get_Better_Newton_Value$801^(0+384),w
  2362  0F87  1283               	bcf	3,5	;RP0=0, select bank0
  2363  0F88  1303               	bcf	3,6	;RP1=0, select bank0
  2364  0F89  00C4               	movwf	___fladd@a
  2365  0F8A  160A  118A  2578  120A  158A  	fcall	___fladd
  2366  0F8F  1283               	bcf	3,5	;RP0=0, select bank0
  2367  0F90  1303               	bcf	3,6	;RP1=0, select bank0
  2368  0F91  0843               	movf	?___fladd+3,w
  2369  0F92  00E3               	movwf	___fldiv@b+3
  2370  0F93  0842               	movf	?___fladd+2,w
  2371  0F94  00E2               	movwf	___fldiv@b+2
  2372  0F95  0841               	movf	?___fladd+1,w
  2373  0F96  00E1               	movwf	___fldiv@b+1
  2374  0F97  0840               	movf	?___fladd,w
  2375  0F98  00E0               	movwf	___fldiv@b
  2376  0F99  120A  118A  2041  120A  158A  	fcall	___fldiv
  2377  0F9E  1283               	bcf	3,5	;RP0=0, select bank0
  2378  0F9F  1303               	bcf	3,6	;RP1=0, select bank0
  2379  0FA0  085F               	movf	?___fldiv+3,w
  2380  0FA1  1683               	bsf	3,5	;RP0=1, select bank3
  2381  0FA2  1703               	bsf	3,6	;RP1=1, select bank3
  2382  0FA3  0093               	movwf	(Get_Better_Newton_Value@resultat+3)^(0+384)
  2383  0FA4  1283               	bcf	3,5	;RP0=0, select bank0
  2384  0FA5  1303               	bcf	3,6	;RP1=0, select bank0
  2385  0FA6  085E               	movf	?___fldiv+2,w
  2386  0FA7  1683               	bsf	3,5	;RP0=1, select bank3
  2387  0FA8  1703               	bsf	3,6	;RP1=1, select bank3
  2388  0FA9  0092               	movwf	(Get_Better_Newton_Value@resultat+2)^(0+384)
  2389  0FAA  1283               	bcf	3,5	;RP0=0, select bank0
  2390  0FAB  1303               	bcf	3,6	;RP1=0, select bank0
  2391  0FAC  085D               	movf	?___fldiv+1,w
  2392  0FAD  1683               	bsf	3,5	;RP0=1, select bank3
  2393  0FAE  1703               	bsf	3,6	;RP1=1, select bank3
  2394  0FAF  0091               	movwf	(Get_Better_Newton_Value@resultat+1)^(0+384)
  2395  0FB0  1283               	bcf	3,5	;RP0=0, select bank0
  2396  0FB1  1303               	bcf	3,6	;RP1=0, select bank0
  2397  0FB2  085C               	movf	?___fldiv,w
  2398  0FB3  1683               	bsf	3,5	;RP0=1, select bank3
  2399  0FB4  1703               	bsf	3,6	;RP1=1, select bank3
  2400  0FB5  0090               	movwf	Get_Better_Newton_Value@resultat^(0+384)
  2401  0FB6                     l2655:
  2402                           
  2403                           ;main.c: 96:     F = conversion_newton(resultat);
  2404  0FB6  0813               	movf	(Get_Better_Newton_Value@resultat+3)^(0+384),w
  2405  0FB7  1283               	bcf	3,5	;RP0=0, select bank0
  2406  0FB8  1303               	bcf	3,6	;RP1=0, select bank0
  2407  0FB9  00EC               	movwf	conversion_newton@Rc+3
  2408  0FBA  1683               	bsf	3,5	;RP0=1, select bank3
  2409  0FBB  1703               	bsf	3,6	;RP1=1, select bank3
  2410  0FBC  0812               	movf	(Get_Better_Newton_Value@resultat+2)^(0+384),w
  2411  0FBD  1283               	bcf	3,5	;RP0=0, select bank0
  2412  0FBE  1303               	bcf	3,6	;RP1=0, select bank0
  2413  0FBF  00EB               	movwf	conversion_newton@Rc+2
  2414  0FC0  1683               	bsf	3,5	;RP0=1, select bank3
  2415  0FC1  1703               	bsf	3,6	;RP1=1, select bank3
  2416  0FC2  0811               	movf	(Get_Better_Newton_Value@resultat+1)^(0+384),w
  2417  0FC3  1283               	bcf	3,5	;RP0=0, select bank0
  2418  0FC4  1303               	bcf	3,6	;RP1=0, select bank0
  2419  0FC5  00EA               	movwf	conversion_newton@Rc+1
  2420  0FC6  1683               	bsf	3,5	;RP0=1, select bank3
  2421  0FC7  1703               	bsf	3,6	;RP1=1, select bank3
  2422  0FC8  0810               	movf	Get_Better_Newton_Value@resultat^(0+384),w
  2423  0FC9  1283               	bcf	3,5	;RP0=0, select bank0
  2424  0FCA  1303               	bcf	3,6	;RP1=0, select bank0
  2425  0FCB  00E9               	movwf	conversion_newton@Rc
  2426  0FCC  160A  158A  25DB  120A  158A  	fcall	_conversion_newton
  2427  0FD1  1283               	bcf	3,5	;RP0=0, select bank0
  2428  0FD2  1303               	bcf	3,6	;RP1=0, select bank0
  2429  0FD3  086C               	movf	?_conversion_newton+3,w
  2430  0FD4  1683               	bsf	3,5	;RP0=1, select bank3
  2431  0FD5  1703               	bsf	3,6	;RP1=1, select bank3
  2432  0FD6  0097               	movwf	(Get_Better_Newton_Value@F+3)^(0+384)
  2433  0FD7  1283               	bcf	3,5	;RP0=0, select bank0
  2434  0FD8  1303               	bcf	3,6	;RP1=0, select bank0
  2435  0FD9  086B               	movf	?_conversion_newton+2,w
  2436  0FDA  1683               	bsf	3,5	;RP0=1, select bank3
  2437  0FDB  1703               	bsf	3,6	;RP1=1, select bank3
  2438  0FDC  0096               	movwf	(Get_Better_Newton_Value@F+2)^(0+384)
  2439  0FDD  1283               	bcf	3,5	;RP0=0, select bank0
  2440  0FDE  1303               	bcf	3,6	;RP1=0, select bank0
  2441  0FDF  086A               	movf	?_conversion_newton+1,w
  2442  0FE0  1683               	bsf	3,5	;RP0=1, select bank3
  2443  0FE1  1703               	bsf	3,6	;RP1=1, select bank3
  2444  0FE2  0095               	movwf	(Get_Better_Newton_Value@F+1)^(0+384)
  2445  0FE3  1283               	bcf	3,5	;RP0=0, select bank0
  2446  0FE4  1303               	bcf	3,6	;RP1=0, select bank0
  2447  0FE5  0869               	movf	?_conversion_newton,w
  2448  0FE6  1683               	bsf	3,5	;RP0=1, select bank3
  2449  0FE7  1703               	bsf	3,6	;RP1=1, select bank3
  2450  0FE8  0094               	movwf	Get_Better_Newton_Value@F^(0+384)
  2451  0FE9                     l2657:
  2452                           
  2453                           ;main.c: 102:     return F;
  2454  0FE9  0817               	movf	(Get_Better_Newton_Value@F+3)^(0+384),w
  2455  0FEA  1683               	bsf	3,5	;RP0=1, select bank1
  2456  0FEB  1303               	bcf	3,6	;RP1=0, select bank1
  2457  0FEC  00D3               	movwf	(?_Get_Better_Newton_Value+3)^(0+128)
  2458  0FED  1683               	bsf	3,5	;RP0=1, select bank3
  2459  0FEE  1703               	bsf	3,6	;RP1=1, select bank3
  2460  0FEF  0816               	movf	(Get_Better_Newton_Value@F+2)^(0+384),w
  2461  0FF0  1683               	bsf	3,5	;RP0=1, select bank1
  2462  0FF1  1303               	bcf	3,6	;RP1=0, select bank1
  2463  0FF2  00D2               	movwf	(?_Get_Better_Newton_Value+2)^(0+128)
  2464  0FF3  1683               	bsf	3,5	;RP0=1, select bank3
  2465  0FF4  1703               	bsf	3,6	;RP1=1, select bank3
  2466  0FF5  0815               	movf	(Get_Better_Newton_Value@F+1)^(0+384),w
  2467  0FF6  1683               	bsf	3,5	;RP0=1, select bank1
  2468  0FF7  1303               	bcf	3,6	;RP1=0, select bank1
  2469  0FF8  00D1               	movwf	(?_Get_Better_Newton_Value+1)^(0+128)
  2470  0FF9  1683               	bsf	3,5	;RP0=1, select bank3
  2471  0FFA  1703               	bsf	3,6	;RP1=1, select bank3
  2472  0FFB  0814               	movf	Get_Better_Newton_Value@F^(0+384),w
  2473  0FFC  1683               	bsf	3,5	;RP0=1, select bank1
  2474  0FFD  1303               	bcf	3,6	;RP1=0, select bank1
  2475  0FFE  00D0               	movwf	?_Get_Better_Newton_Value^(0+128)
  2476  0FFF                     l39:
  2477  0FFF  0008               	return
  2478  1000                     __end_of_Get_Better_Newton_Value:
  2479                           
  2480                           	psect	text7
  2481  1DDB                     __ptext7:	
  2482 ;; *************** function _conversion_newton *****************
  2483 ;; Defined at:
  2484 ;;		line 209 in file "main.c"
  2485 ;; Parameters:    Size  Location     Type
  2486 ;;  Rc              4   73[BANK0 ] float 
  2487 ;; Auto vars:     Size  Location     Type
  2488 ;;  F               4   42[BANK1 ] float 
  2489 ;;  n               2   46[BANK1 ] int 
  2490 ;; Return value:  Size  Location     Type
  2491 ;;                  4   73[BANK0 ] float 
  2492 ;; Registers used:
  2493 ;;		wreg, fsr0l, fsr0h, status,2, status,0, btemp+1, pclath, cstack
  2494 ;; Tracked objects:
  2495 ;;		On entry : 0/0
  2496 ;;		On exit  : 0/0
  2497 ;;		Unchanged: 0/0
  2498 ;; Data sizes:     COMMON   BANK0   BANK1   BANK3   BANK2
  2499 ;;      Params:         0       4       0       0       0
  2500 ;;      Locals:         0       0      10       0       0
  2501 ;;      Temps:          0       0      25       0       0
  2502 ;;      Totals:         0       4      35       0       0
  2503 ;;Total ram usage:       39 bytes
  2504 ;; Hardware stack levels used:    1
  2505 ;; Hardware stack levels required when called:    3
  2506 ;; This function calls:
  2507 ;;		___fladd
  2508 ;;		___fldiv
  2509 ;;		___flge
  2510 ;;		___flmul
  2511 ;;		___flsub
  2512 ;; This function is called by:
  2513 ;;		_Get_Better_Newton_Value
  2514 ;; This function uses a non-reentrant model
  2515 ;;
  2516                           
  2517                           
  2518                           ;psect for function _conversion_newton
  2519  1DDB                     _conversion_newton:
  2520  1DDB                     l2427:	
  2521                           ;incstack = 0
  2522                           ; Regs used in _conversion_newton: [wreg-fsr0h+status,2+status,0+btemp+1+pclath+cstack]
  2523                           
  2524                           
  2525                           ;main.c: 210:      float F;;main.c: 211:      int n;;main.c: 212:      const float F_tab
      +                          [20]={70,35,30,28,25,20,19,18,15,13,10,7, 5.4, 4, 3, 2.2, 1.5, 0.9, 0.45, 0.12};;main.c:
      +                           213:      const float R_tab[20]={2000,2500,2600,2700,2900,3200,3400,3500,3900,4300,4800
      +                          ,5500,6800,8500,11000,16000,27000,45000,65000,95000};;main.c: 216:      if (Rc <= R_tab[
      +                          1])
  2526  1DDB  3005               	movlw	low (((conversion_newton@R_tab+4)-__stringbase)| (0+32768))
  2527  1DDC  0084               	movwf	4
  2528  1DDD  160A  158A  2000  160A  158A  	fcall	stringdir
  2529  1DE2  1683               	bsf	3,5	;RP0=1, select bank1
  2530  1DE3  1303               	bcf	3,6	;RP1=0, select bank1
  2531  1DE4  00AD               	movwf	??_conversion_newton^(0+128)
  2532  1DE5  160A  158A  2000  160A  158A  	fcall	stringdir
  2533  1DEA  00AE               	movwf	(??_conversion_newton^(0+128)+1)
  2534  1DEB  160A  158A  2000  160A  158A  	fcall	stringdir
  2535  1DF0  00AF               	movwf	(??_conversion_newton^(0+128)+2)
  2536  1DF1  160A  158A  2000  160A  158A  	fcall	stringdir
  2537  1DF6  00B0               	movwf	(??_conversion_newton^(0+128)+3)
  2538  1DF7  0830               	movf	(??_conversion_newton+3)^(0+128),w
  2539  1DF8  00F6               	movwf	___flge@ff1+3
  2540  1DF9  082F               	movf	(??_conversion_newton+2)^(0+128),w
  2541  1DFA  00F5               	movwf	___flge@ff1+2
  2542  1DFB  082E               	movf	(??_conversion_newton+1)^(0+128),w
  2543  1DFC  00F4               	movwf	___flge@ff1+1
  2544  1DFD  082D               	movf	??_conversion_newton^(0+128),w
  2545  1DFE  00F3               	movwf	___flge@ff1
  2546  1DFF  1283               	bcf	3,5	;RP0=0, select bank0
  2547  1E00  1303               	bcf	3,6	;RP1=0, select bank0
  2548  1E01  086C               	movf	conversion_newton@Rc+3,w
  2549  1E02  00FA               	movwf	___flge@ff2+3
  2550  1E03  086B               	movf	conversion_newton@Rc+2,w
  2551  1E04  00F9               	movwf	___flge@ff2+2
  2552  1E05  086A               	movf	conversion_newton@Rc+1,w
  2553  1E06  00F8               	movwf	___flge@ff2+1
  2554  1E07  0869               	movf	conversion_newton@Rc,w
  2555  1E08  00F7               	movwf	___flge@ff2
  2556  1E09  160A  158A  2537  160A  158A  	fcall	___flge
  2557  1E0E  1C03               	btfss	3,0
  2558  1E0F  2E11               	goto	u3521
  2559  1E10  2E12               	goto	u3520
  2560  1E11                     u3521:
  2561  1E11  2E12               	goto	l2431
  2562  1E12                     u3520:
  2563  1E12                     l2429:
  2564  1E12                     l2431:
  2565                           
  2566                           ;main.c: 220:      if ((Rc <= R_tab[2]) && (Rc > R_tab[1]))
  2567  1E12  3009               	movlw	low (((conversion_newton@R_tab+8)-__stringbase)| (0+32768))
  2568  1E13  0084               	movwf	4
  2569  1E14  160A  158A  2000  160A  158A  	fcall	stringdir
  2570  1E19  1683               	bsf	3,5	;RP0=1, select bank1
  2571  1E1A  1303               	bcf	3,6	;RP1=0, select bank1
  2572  1E1B  00AD               	movwf	??_conversion_newton^(0+128)
  2573  1E1C  160A  158A  2000  160A  158A  	fcall	stringdir
  2574  1E21  00AE               	movwf	(??_conversion_newton^(0+128)+1)
  2575  1E22  160A  158A  2000  160A  158A  	fcall	stringdir
  2576  1E27  00AF               	movwf	(??_conversion_newton^(0+128)+2)
  2577  1E28  160A  158A  2000  160A  158A  	fcall	stringdir
  2578  1E2D  00B0               	movwf	(??_conversion_newton^(0+128)+3)
  2579  1E2E  0830               	movf	(??_conversion_newton+3)^(0+128),w
  2580  1E2F  00F6               	movwf	___flge@ff1+3
  2581  1E30  082F               	movf	(??_conversion_newton+2)^(0+128),w
  2582  1E31  00F5               	movwf	___flge@ff1+2
  2583  1E32  082E               	movf	(??_conversion_newton+1)^(0+128),w
  2584  1E33  00F4               	movwf	___flge@ff1+1
  2585  1E34  082D               	movf	??_conversion_newton^(0+128),w
  2586  1E35  00F3               	movwf	___flge@ff1
  2587  1E36  1283               	bcf	3,5	;RP0=0, select bank0
  2588  1E37  1303               	bcf	3,6	;RP1=0, select bank0
  2589  1E38  086C               	movf	conversion_newton@Rc+3,w
  2590  1E39  00FA               	movwf	___flge@ff2+3
  2591  1E3A  086B               	movf	conversion_newton@Rc+2,w
  2592  1E3B  00F9               	movwf	___flge@ff2+2
  2593  1E3C  086A               	movf	conversion_newton@Rc+1,w
  2594  1E3D  00F8               	movwf	___flge@ff2+1
  2595  1E3E  0869               	movf	conversion_newton@Rc,w
  2596  1E3F  00F7               	movwf	___flge@ff2
  2597  1E40  160A  158A  2537  160A  158A  	fcall	___flge
  2598  1E45  1C03               	btfss	3,0
  2599  1E46  2E48               	goto	u3531
  2600  1E47  2E49               	goto	u3530
  2601  1E48                     u3531:
  2602  1E48  2E89               	goto	l2437
  2603  1E49                     u3530:
  2604  1E49                     l2433:
  2605  1E49  3005               	movlw	low (((conversion_newton@R_tab+4)-__stringbase)| (0+32768))
  2606  1E4A  0084               	movwf	4
  2607  1E4B  160A  158A  2000  160A  158A  	fcall	stringdir
  2608  1E50  1683               	bsf	3,5	;RP0=1, select bank1
  2609  1E51  1303               	bcf	3,6	;RP1=0, select bank1
  2610  1E52  00AD               	movwf	??_conversion_newton^(0+128)
  2611  1E53  160A  158A  2000  160A  158A  	fcall	stringdir
  2612  1E58  00AE               	movwf	(??_conversion_newton^(0+128)+1)
  2613  1E59  160A  158A  2000  160A  158A  	fcall	stringdir
  2614  1E5E  00AF               	movwf	(??_conversion_newton^(0+128)+2)
  2615  1E5F  160A  158A  2000  160A  158A  	fcall	stringdir
  2616  1E64  00B0               	movwf	(??_conversion_newton^(0+128)+3)
  2617  1E65  0830               	movf	(??_conversion_newton+3)^(0+128),w
  2618  1E66  00F6               	movwf	___flge@ff1+3
  2619  1E67  082F               	movf	(??_conversion_newton+2)^(0+128),w
  2620  1E68  00F5               	movwf	___flge@ff1+2
  2621  1E69  082E               	movf	(??_conversion_newton+1)^(0+128),w
  2622  1E6A  00F4               	movwf	___flge@ff1+1
  2623  1E6B  082D               	movf	??_conversion_newton^(0+128),w
  2624  1E6C  00F3               	movwf	___flge@ff1
  2625  1E6D  1283               	bcf	3,5	;RP0=0, select bank0
  2626  1E6E  1303               	bcf	3,6	;RP1=0, select bank0
  2627  1E6F  086C               	movf	conversion_newton@Rc+3,w
  2628  1E70  00FA               	movwf	___flge@ff2+3
  2629  1E71  086B               	movf	conversion_newton@Rc+2,w
  2630  1E72  00F9               	movwf	___flge@ff2+2
  2631  1E73  086A               	movf	conversion_newton@Rc+1,w
  2632  1E74  00F8               	movwf	___flge@ff2+1
  2633  1E75  0869               	movf	conversion_newton@Rc,w
  2634  1E76  00F7               	movwf	___flge@ff2
  2635  1E77  160A  158A  2537  160A  158A  	fcall	___flge
  2636  1E7C  1803               	btfsc	3,0
  2637  1E7D  2E7F               	goto	u3541
  2638  1E7E  2E80               	goto	u3540
  2639  1E7F                     u3541:
  2640  1E7F  2E89               	goto	l2437
  2641  1E80                     u3540:
  2642  1E80                     l2435:
  2643                           
  2644                           ;main.c: 221:          {;main.c: 222:          n = 1;
  2645  1E80  3001               	movlw	1
  2646  1E81  1683               	bsf	3,5	;RP0=1, select bank1
  2647  1E82  1303               	bcf	3,6	;RP1=0, select bank1
  2648  1E83  00CE               	movwf	conversion_newton@n^(0+128)
  2649  1E84  3000               	movlw	0
  2650  1E85  00CF               	movwf	(conversion_newton@n^(0+128)+1)
  2651  1E86                     L1:
  2652                           
  2653                           ;main.c: 223:          }
  2654  1E86  120A  118A  2D9D   	goto	l2541
  2655  1E89                     l2437:
  2656  1E89  300D               	movlw	low (((conversion_newton@R_tab+12)-__stringbase)| (0+32768))
  2657  1E8A  0084               	movwf	4
  2658  1E8B  160A  158A  2000  160A  158A  	fcall	stringdir
  2659  1E90  1683               	bsf	3,5	;RP0=1, select bank1
  2660  1E91  1303               	bcf	3,6	;RP1=0, select bank1
  2661  1E92  00AD               	movwf	??_conversion_newton^(0+128)
  2662  1E93  160A  158A  2000  160A  158A  	fcall	stringdir
  2663  1E98  00AE               	movwf	(??_conversion_newton^(0+128)+1)
  2664  1E99  160A  158A  2000  160A  158A  	fcall	stringdir
  2665  1E9E  00AF               	movwf	(??_conversion_newton^(0+128)+2)
  2666  1E9F  160A  158A  2000  160A  158A  	fcall	stringdir
  2667  1EA4  00B0               	movwf	(??_conversion_newton^(0+128)+3)
  2668  1EA5  0830               	movf	(??_conversion_newton+3)^(0+128),w
  2669  1EA6  00F6               	movwf	___flge@ff1+3
  2670  1EA7  082F               	movf	(??_conversion_newton+2)^(0+128),w
  2671  1EA8  00F5               	movwf	___flge@ff1+2
  2672  1EA9  082E               	movf	(??_conversion_newton+1)^(0+128),w
  2673  1EAA  00F4               	movwf	___flge@ff1+1
  2674  1EAB  082D               	movf	??_conversion_newton^(0+128),w
  2675  1EAC  00F3               	movwf	___flge@ff1
  2676  1EAD  1283               	bcf	3,5	;RP0=0, select bank0
  2677  1EAE  1303               	bcf	3,6	;RP1=0, select bank0
  2678  1EAF  086C               	movf	conversion_newton@Rc+3,w
  2679  1EB0  00FA               	movwf	___flge@ff2+3
  2680  1EB1  086B               	movf	conversion_newton@Rc+2,w
  2681  1EB2  00F9               	movwf	___flge@ff2+2
  2682  1EB3  086A               	movf	conversion_newton@Rc+1,w
  2683  1EB4  00F8               	movwf	___flge@ff2+1
  2684  1EB5  0869               	movf	conversion_newton@Rc,w
  2685  1EB6  00F7               	movwf	___flge@ff2
  2686  1EB7  160A  158A  2537  160A  158A  	fcall	___flge
  2687  1EBC  1C03               	btfss	3,0
  2688  1EBD  2EBF               	goto	u3551
  2689  1EBE  2EC2               	goto	u3550
  2690  1EBF                     u3551:
  2691  1EBF  160A  118A  2B2B   	goto	l2443
  2692  1EC2                     u3550:
  2693  1EC2                     l2439:
  2694  1EC2  3009               	movlw	low (((conversion_newton@R_tab+8)-__stringbase)| (0+32768))
  2695  1EC3  0084               	movwf	4
  2696  1EC4  160A  158A  2000  160A  158A  	fcall	stringdir
  2697  1EC9  1683               	bsf	3,5	;RP0=1, select bank1
  2698  1ECA  1303               	bcf	3,6	;RP1=0, select bank1
  2699  1ECB  00AD               	movwf	??_conversion_newton^(0+128)
  2700  1ECC  160A  158A  2000  160A  158A  	fcall	stringdir
  2701  1ED1  00AE               	movwf	(??_conversion_newton^(0+128)+1)
  2702  1ED2  160A  158A  2000  160A  158A  	fcall	stringdir
  2703  1ED7  00AF               	movwf	(??_conversion_newton^(0+128)+2)
  2704  1ED8  160A  158A  2000  160A  158A  	fcall	stringdir
  2705  1EDD  00B0               	movwf	(??_conversion_newton^(0+128)+3)
  2706  1EDE  0830               	movf	(??_conversion_newton+3)^(0+128),w
  2707  1EDF  00F6               	movwf	___flge@ff1+3
  2708  1EE0  082F               	movf	(??_conversion_newton+2)^(0+128),w
  2709  1EE1  00F5               	movwf	___flge@ff1+2
  2710  1EE2  082E               	movf	(??_conversion_newton+1)^(0+128),w
  2711  1EE3  00F4               	movwf	___flge@ff1+1
  2712  1EE4  082D               	movf	??_conversion_newton^(0+128),w
  2713  1EE5  00F3               	movwf	___flge@ff1
  2714  1EE6  1283               	bcf	3,5	;RP0=0, select bank0
  2715  1EE7  1303               	bcf	3,6	;RP1=0, select bank0
  2716  1EE8  086C               	movf	conversion_newton@Rc+3,w
  2717  1EE9  00FA               	movwf	___flge@ff2+3
  2718  1EEA  086B               	movf	conversion_newton@Rc+2,w
  2719  1EEB  00F9               	movwf	___flge@ff2+2
  2720  1EEC  086A               	movf	conversion_newton@Rc+1,w
  2721  1EED  00F8               	movwf	___flge@ff2+1
  2722  1EEE  0869               	movf	conversion_newton@Rc,w
  2723  1EEF  00F7               	movwf	___flge@ff2
  2724  1EF0  160A  158A  2537  160A  158A  	fcall	___flge
  2725  1EF5  1803               	btfsc	3,0
  2726  1EF6  2EF8               	goto	u3561
  2727  1EF7  2EF9               	goto	u3560
  2728  1EF8                     u3561:
  2729  1EF8  2EBF               	goto	u3551
  2730  1EF9                     u3560:
  2731  1EF9                     l2441:
  2732                           
  2733                           ;main.c: 225:          {;main.c: 226:          n = 2;
  2734  1EF9  3002               	movlw	2
  2735  1EFA  1683               	bsf	3,5	;RP0=1, select bank1
  2736  1EFB  1303               	bcf	3,6	;RP1=0, select bank1
  2737  1EFC  00CE               	movwf	conversion_newton@n^(0+128)
  2738  1EFD  3000               	movlw	0
  2739  1EFE  00CF               	movwf	(conversion_newton@n^(0+128)+1)
  2740                           
  2741                           ;main.c: 227:          }
  2742  1EFF  2E86               	goto	L1
  2743                           
  2744                           	psect	text8
  2745  1C17                     __ptext8:	
  2746 ;; *************** function _Get_Newton *****************
  2747 ;; Defined at:
  2748 ;;		line 314 in file "main.c"
  2749 ;; Parameters:    Size  Location     Type
  2750 ;;  INTER0          1    wreg     unsigned char 
  2751 ;;  INTER1          1   22[BANK1 ] unsigned char 
  2752 ;;  sensor_Chann    1   23[BANK1 ] unsigned char 
  2753 ;; Auto vars:     Size  Location     Type
  2754 ;;  INTER0          1   37[BANK1 ] unsigned char 
  2755 ;;  Rc              4   31[BANK1 ] float 
  2756 ;;  Vs              4   27[BANK1 ] float 
  2757 ;;  F               4    0        float 
  2758 ;;  R               2   35[BANK1 ] unsigned int 
  2759 ;;  sensor_value    1   38[BANK1 ] unsigned char 
  2760 ;; Return value:  Size  Location     Type
  2761 ;;                  4   22[BANK1 ] float 
  2762 ;; Registers used:
  2763 ;;		wreg, status,2, status,0, btemp+1, pclath, cstack
  2764 ;; Tracked objects:
  2765 ;;		On entry : 0/0
  2766 ;;		On exit  : 0/0
  2767 ;;		Unchanged: 0/0
  2768 ;; Data sizes:     COMMON   BANK0   BANK1   BANK3   BANK2
  2769 ;;      Params:         0       0       5       0       0
  2770 ;;      Locals:         0       0      12       0       0
  2771 ;;      Temps:          0       0       0       0       0
  2772 ;;      Totals:         0       0      17       0       0
  2773 ;;Total ram usage:       17 bytes
  2774 ;; Hardware stack levels used:    1
  2775 ;; Hardware stack levels required when called:    4
  2776 ;; This function calls:
  2777 ;;		_ADC_GetValue
  2778 ;;		_PORT_Change_Gain
  2779 ;;		_Resistance_Value
  2780 ;;		_Voltage_Value
  2781 ;; This function is called by:
  2782 ;;		_Get_Better_Newton_Value
  2783 ;; This function uses a non-reentrant model
  2784 ;;
  2785                           
  2786                           
  2787                           ;psect for function _Get_Newton
  2788  1C17                     _Get_Newton:
  2789                           
  2790                           ;incstack = 0
  2791                           ; Regs used in _Get_Newton: [wreg+status,2+status,0+btemp+1+pclath+cstack]
  2792                           ;Get_Newton@INTER0 stored from wreg
  2793  1C17  1683               	bsf	3,5	;RP0=1, select bank1
  2794  1C18  1303               	bcf	3,6	;RP1=0, select bank1
  2795  1C19  00C5               	movwf	Get_Newton@INTER0^(0+128)
  2796  1C1A                     l2421:
  2797                           
  2798                           ;main.c: 316:     unsigned char sensor_value;;main.c: 317:     unsigned int R;;main.c: 3
      +                          18:     float Vs,F,Rc;;main.c: 320:     R = PORT_Change_Gain(INTER0,INTER1);
  2799  1C1A  0836               	movf	Get_Newton@INTER1^(0+128),w
  2800  1C1B  00FF               	movwf	btemp+1
  2801  1C1C  087F               	movf	btemp+1,w
  2802  1C1D  00F3               	movwf	PORT_Change_Gain@INTER1
  2803  1C1E  0845               	movf	Get_Newton@INTER0^(0+128),w
  2804  1C1F  120A  158A  2017  160A  158A  	fcall	_PORT_Change_Gain
  2805  1C24  0874               	movf	?_PORT_Change_Gain+1,w
  2806  1C25  1683               	bsf	3,5	;RP0=1, select bank1
  2807  1C26  1303               	bcf	3,6	;RP1=0, select bank1
  2808  1C27  00C4               	movwf	(Get_Newton@R+1)^(0+128)
  2809  1C28  0873               	movf	?_PORT_Change_Gain,w
  2810  1C29  00C3               	movwf	Get_Newton@R^(0+128)
  2811                           
  2812                           ;main.c: 326:     sensor_value = ADC_GetValue(sensor_Channel);
  2813  1C2A  0837               	movf	Get_Newton@sensor_Channel^(0+128),w
  2814  1C2B  160A  158A  23B7  160A  158A  	fcall	_ADC_GetValue
  2815  1C30  00FF               	movwf	btemp+1
  2816  1C31  087F               	movf	btemp+1,w
  2817  1C32  1683               	bsf	3,5	;RP0=1, select bank1
  2818  1C33  1303               	bcf	3,6	;RP1=0, select bank1
  2819  1C34  00C6               	movwf	Get_Newton@sensor_value^(0+128)
  2820                           
  2821                           ;main.c: 331:     Vs = Voltage_Value(sensor_value);
  2822  1C35  0846               	movf	Get_Newton@sensor_value^(0+128),w
  2823  1C36  160A  158A  249B  160A  158A  	fcall	_Voltage_Value
  2824  1C3B  1283               	bcf	3,5	;RP0=0, select bank0
  2825  1C3C  1303               	bcf	3,6	;RP1=0, select bank0
  2826  1C3D  086C               	movf	?_Voltage_Value+3,w
  2827  1C3E  1683               	bsf	3,5	;RP0=1, select bank1
  2828  1C3F  1303               	bcf	3,6	;RP1=0, select bank1
  2829  1C40  00BE               	movwf	(Get_Newton@Vs+3)^(0+128)
  2830  1C41  1283               	bcf	3,5	;RP0=0, select bank0
  2831  1C42  1303               	bcf	3,6	;RP1=0, select bank0
  2832  1C43  086B               	movf	?_Voltage_Value+2,w
  2833  1C44  1683               	bsf	3,5	;RP0=1, select bank1
  2834  1C45  1303               	bcf	3,6	;RP1=0, select bank1
  2835  1C46  00BD               	movwf	(Get_Newton@Vs+2)^(0+128)
  2836  1C47  1283               	bcf	3,5	;RP0=0, select bank0
  2837  1C48  1303               	bcf	3,6	;RP1=0, select bank0
  2838  1C49  086A               	movf	?_Voltage_Value+1,w
  2839  1C4A  1683               	bsf	3,5	;RP0=1, select bank1
  2840  1C4B  1303               	bcf	3,6	;RP1=0, select bank1
  2841  1C4C  00BC               	movwf	(Get_Newton@Vs+1)^(0+128)
  2842  1C4D  1283               	bcf	3,5	;RP0=0, select bank0
  2843  1C4E  1303               	bcf	3,6	;RP1=0, select bank0
  2844  1C4F  0869               	movf	?_Voltage_Value,w
  2845  1C50  1683               	bsf	3,5	;RP0=1, select bank1
  2846  1C51  1303               	bcf	3,6	;RP1=0, select bank1
  2847  1C52  00BB               	movwf	Get_Newton@Vs^(0+128)
  2848                           
  2849                           ;main.c: 336:     Rc = Resistance_Value(Vs, R);
  2850  1C53  083E               	movf	(Get_Newton@Vs+3)^(0+128),w
  2851  1C54  1283               	bcf	3,5	;RP0=0, select bank0
  2852  1C55  1303               	bcf	3,6	;RP1=0, select bank0
  2853  1C56  00EC               	movwf	Resistance_Value@Voltage+3
  2854  1C57  1683               	bsf	3,5	;RP0=1, select bank1
  2855  1C58  1303               	bcf	3,6	;RP1=0, select bank1
  2856  1C59  083D               	movf	(Get_Newton@Vs+2)^(0+128),w
  2857  1C5A  1283               	bcf	3,5	;RP0=0, select bank0
  2858  1C5B  1303               	bcf	3,6	;RP1=0, select bank0
  2859  1C5C  00EB               	movwf	Resistance_Value@Voltage+2
  2860  1C5D  1683               	bsf	3,5	;RP0=1, select bank1
  2861  1C5E  1303               	bcf	3,6	;RP1=0, select bank1
  2862  1C5F  083C               	movf	(Get_Newton@Vs+1)^(0+128),w
  2863  1C60  1283               	bcf	3,5	;RP0=0, select bank0
  2864  1C61  1303               	bcf	3,6	;RP1=0, select bank0
  2865  1C62  00EA               	movwf	Resistance_Value@Voltage+1
  2866  1C63  1683               	bsf	3,5	;RP0=1, select bank1
  2867  1C64  1303               	bcf	3,6	;RP1=0, select bank1
  2868  1C65  083B               	movf	Get_Newton@Vs^(0+128),w
  2869  1C66  1283               	bcf	3,5	;RP0=0, select bank0
  2870  1C67  1303               	bcf	3,6	;RP1=0, select bank0
  2871  1C68  00E9               	movwf	Resistance_Value@Voltage
  2872  1C69  1683               	bsf	3,5	;RP0=1, select bank1
  2873  1C6A  1303               	bcf	3,6	;RP1=0, select bank1
  2874  1C6B  0844               	movf	(Get_Newton@R+1)^(0+128),w
  2875  1C6C  1283               	bcf	3,5	;RP0=0, select bank0
  2876  1C6D  1303               	bcf	3,6	;RP1=0, select bank0
  2877  1C6E  00EE               	movwf	Resistance_Value@R+1
  2878  1C6F  1683               	bsf	3,5	;RP0=1, select bank1
  2879  1C70  1303               	bcf	3,6	;RP1=0, select bank1
  2880  1C71  0843               	movf	Get_Newton@R^(0+128),w
  2881  1C72  1283               	bcf	3,5	;RP0=0, select bank0
  2882  1C73  1303               	bcf	3,6	;RP1=0, select bank0
  2883  1C74  00ED               	movwf	Resistance_Value@R
  2884  1C75  160A  118A  202B  160A  158A  	fcall	_Resistance_Value
  2885  1C7A  1283               	bcf	3,5	;RP0=0, select bank0
  2886  1C7B  1303               	bcf	3,6	;RP1=0, select bank0
  2887  1C7C  086C               	movf	?_Resistance_Value+3,w
  2888  1C7D  1683               	bsf	3,5	;RP0=1, select bank1
  2889  1C7E  1303               	bcf	3,6	;RP1=0, select bank1
  2890  1C7F  00C2               	movwf	(Get_Newton@Rc+3)^(0+128)
  2891  1C80  1283               	bcf	3,5	;RP0=0, select bank0
  2892  1C81  1303               	bcf	3,6	;RP1=0, select bank0
  2893  1C82  086B               	movf	?_Resistance_Value+2,w
  2894  1C83  1683               	bsf	3,5	;RP0=1, select bank1
  2895  1C84  1303               	bcf	3,6	;RP1=0, select bank1
  2896  1C85  00C1               	movwf	(Get_Newton@Rc+2)^(0+128)
  2897  1C86  1283               	bcf	3,5	;RP0=0, select bank0
  2898  1C87  1303               	bcf	3,6	;RP1=0, select bank0
  2899  1C88  086A               	movf	?_Resistance_Value+1,w
  2900  1C89  1683               	bsf	3,5	;RP0=1, select bank1
  2901  1C8A  1303               	bcf	3,6	;RP1=0, select bank1
  2902  1C8B  00C0               	movwf	(Get_Newton@Rc+1)^(0+128)
  2903  1C8C  1283               	bcf	3,5	;RP0=0, select bank0
  2904  1C8D  1303               	bcf	3,6	;RP1=0, select bank0
  2905  1C8E  0869               	movf	?_Resistance_Value,w
  2906  1C8F  1683               	bsf	3,5	;RP0=1, select bank1
  2907  1C90  1303               	bcf	3,6	;RP1=0, select bank1
  2908  1C91  00BF               	movwf	Get_Newton@Rc^(0+128)
  2909  1C92                     l2423:
  2910                           
  2911                           ;main.c: 351:     return Rc;
  2912  1C92  0842               	movf	(Get_Newton@Rc+3)^(0+128),w
  2913  1C93  00B9               	movwf	(?_Get_Newton+3)^(0+128)
  2914  1C94  0841               	movf	(Get_Newton@Rc+2)^(0+128),w
  2915  1C95  00B8               	movwf	(?_Get_Newton+2)^(0+128)
  2916  1C96  0840               	movf	(Get_Newton@Rc+1)^(0+128),w
  2917  1C97  00B7               	movwf	(?_Get_Newton+1)^(0+128)
  2918  1C98  083F               	movf	Get_Newton@Rc^(0+128),w
  2919  1C99  00B6               	movwf	?_Get_Newton^(0+128)
  2920  1C9A                     l105:
  2921  1C9A  0008               	return
  2922  1C9B                     __end_of_Get_Newton:
  2923                           
  2924                           	psect	text9
  2925  1C9B                     __ptext9:	
  2926 ;; *************** function _Voltage_Value *****************
  2927 ;; Defined at:
  2928 ;;		line 182 in file "main.c"
  2929 ;; Parameters:    Size  Location     Type
  2930 ;;  sensor          1    wreg     unsigned char 
  2931 ;; Auto vars:     Size  Location     Type
  2932 ;;  sensor          1   17[BANK1 ] unsigned char 
  2933 ;;  voltage_resu    4   18[BANK1 ] float 
  2934 ;; Return value:  Size  Location     Type
  2935 ;;                  4   73[BANK0 ] float 
  2936 ;; Registers used:
  2937 ;;		wreg, status,2, status,0, btemp+1, pclath, cstack
  2938 ;; Tracked objects:
  2939 ;;		On entry : 0/0
  2940 ;;		On exit  : 0/0
  2941 ;;		Unchanged: 0/0
  2942 ;; Data sizes:     COMMON   BANK0   BANK1   BANK3   BANK2
  2943 ;;      Params:         0       4       0       0       0
  2944 ;;      Locals:         0       0       5       0       0
  2945 ;;      Temps:          0       0       4       0       0
  2946 ;;      Totals:         0       4       9       0       0
  2947 ;;Total ram usage:       13 bytes
  2948 ;; Hardware stack levels used:    1
  2949 ;; Hardware stack levels required when called:    3
  2950 ;; This function calls:
  2951 ;;		___fldiv
  2952 ;;		___flge
  2953 ;;		___flmul
  2954 ;;		___xxtofl
  2955 ;; This function is called by:
  2956 ;;		_Get_Newton
  2957 ;; This function uses a non-reentrant model
  2958 ;;
  2959                           
  2960                           
  2961                           ;psect for function _Voltage_Value
  2962  1C9B                     _Voltage_Value:
  2963                           
  2964                           ;incstack = 0
  2965                           ; Regs used in _Voltage_Value: [wreg+status,2+status,0+btemp+1+pclath+cstack]
  2966                           ;Voltage_Value@sensor stored from wreg
  2967  1C9B  1683               	bsf	3,5	;RP0=1, select bank1
  2968  1C9C  1303               	bcf	3,6	;RP1=0, select bank1
  2969  1C9D  00B1               	movwf	Voltage_Value@sensor^(0+128)
  2970  1C9E                     l2353:
  2971                           
  2972                           ;main.c: 184:     float voltage_result;;main.c: 185:     voltage_result = (float) sensor
      +                           * 5.0/256;
  2973  1C9E  3043               	movlw	67
  2974  1C9F  1283               	bcf	3,5	;RP0=0, select bank0
  2975  1CA0  1303               	bcf	3,6	;RP1=0, select bank0
  2976  1CA1  00DF               	movwf	___fldiv@a+3
  2977  1CA2  3080               	movlw	128
  2978  1CA3  00DE               	movwf	___fldiv@a+2
  2979  1CA4  3000               	movlw	0
  2980  1CA5  00DD               	movwf	___fldiv@a+1
  2981  1CA6  3000               	movlw	0
  2982  1CA7  00DC               	movwf	___fldiv@a
  2983  1CA8  3040               	movlw	64
  2984  1CA9  00A9               	movwf	___flmul@b+3
  2985  1CAA  30A0               	movlw	160
  2986  1CAB  00A8               	movwf	___flmul@b+2
  2987  1CAC  3000               	movlw	0
  2988  1CAD  00A7               	movwf	___flmul@b+1
  2989  1CAE  3000               	movlw	0
  2990  1CAF  00A6               	movwf	___flmul@b
  2991  1CB0  1683               	bsf	3,5	;RP0=1, select bank1
  2992  1CB1  1303               	bcf	3,6	;RP1=0, select bank1
  2993  1CB2  0831               	movf	Voltage_Value@sensor^(0+128),w
  2994  1CB3  00AD               	movwf	??_Voltage_Value^(0+128)
  2995  1CB4  01AE               	clrf	(??_Voltage_Value^(0+128)+1)
  2996  1CB5  01AF               	clrf	(??_Voltage_Value^(0+128)+2)
  2997  1CB6  01B0               	clrf	(??_Voltage_Value^(0+128)+3)
  2998  1CB7  0830               	movf	(??_Voltage_Value+3)^(0+128),w
  2999  1CB8  00F6               	movwf	___xxtofl@val+3
  3000  1CB9  082F               	movf	(??_Voltage_Value+2)^(0+128),w
  3001  1CBA  00F5               	movwf	___xxtofl@val+2
  3002  1CBB  082E               	movf	(??_Voltage_Value+1)^(0+128),w
  3003  1CBC  00F4               	movwf	___xxtofl@val+1
  3004  1CBD  082D               	movf	??_Voltage_Value^(0+128),w
  3005  1CBE  00F3               	movwf	___xxtofl@val
  3006  1CBF  3000               	movlw	0
  3007  1CC0  120A  158A  2056  160A  158A  	fcall	___xxtofl
  3008  1CC5  0876               	movf	?___xxtofl+3,w
  3009  1CC6  1283               	bcf	3,5	;RP0=0, select bank0
  3010  1CC7  1303               	bcf	3,6	;RP1=0, select bank0
  3011  1CC8  00AD               	movwf	___flmul@a+3
  3012  1CC9  0875               	movf	?___xxtofl+2,w
  3013  1CCA  00AC               	movwf	___flmul@a+2
  3014  1CCB  0874               	movf	?___xxtofl+1,w
  3015  1CCC  00AB               	movwf	___flmul@a+1
  3016  1CCD  0873               	movf	?___xxtofl,w
  3017  1CCE  00AA               	movwf	___flmul@a
  3018  1CCF  120A  158A  2112  160A  158A  	fcall	___flmul
  3019  1CD4  1283               	bcf	3,5	;RP0=0, select bank0
  3020  1CD5  1303               	bcf	3,6	;RP1=0, select bank0
  3021  1CD6  0829               	movf	?___flmul+3,w
  3022  1CD7  00E3               	movwf	___fldiv@b+3
  3023  1CD8  0828               	movf	?___flmul+2,w
  3024  1CD9  00E2               	movwf	___fldiv@b+2
  3025  1CDA  0827               	movf	?___flmul+1,w
  3026  1CDB  00E1               	movwf	___fldiv@b+1
  3027  1CDC  0826               	movf	?___flmul,w
  3028  1CDD  00E0               	movwf	___fldiv@b
  3029  1CDE  120A  118A  2041  160A  158A  	fcall	___fldiv
  3030  1CE3  1283               	bcf	3,5	;RP0=0, select bank0
  3031  1CE4  1303               	bcf	3,6	;RP1=0, select bank0
  3032  1CE5  085F               	movf	?___fldiv+3,w
  3033  1CE6  1683               	bsf	3,5	;RP0=1, select bank1
  3034  1CE7  1303               	bcf	3,6	;RP1=0, select bank1
  3035  1CE8  00B5               	movwf	(Voltage_Value@voltage_result+3)^(0+128)
  3036  1CE9  1283               	bcf	3,5	;RP0=0, select bank0
  3037  1CEA  1303               	bcf	3,6	;RP1=0, select bank0
  3038  1CEB  085E               	movf	?___fldiv+2,w
  3039  1CEC  1683               	bsf	3,5	;RP0=1, select bank1
  3040  1CED  1303               	bcf	3,6	;RP1=0, select bank1
  3041  1CEE  00B4               	movwf	(Voltage_Value@voltage_result+2)^(0+128)
  3042  1CEF  1283               	bcf	3,5	;RP0=0, select bank0
  3043  1CF0  1303               	bcf	3,6	;RP1=0, select bank0
  3044  1CF1  085D               	movf	?___fldiv+1,w
  3045  1CF2  1683               	bsf	3,5	;RP0=1, select bank1
  3046  1CF3  1303               	bcf	3,6	;RP1=0, select bank1
  3047  1CF4  00B3               	movwf	(Voltage_Value@voltage_result+1)^(0+128)
  3048  1CF5  1283               	bcf	3,5	;RP0=0, select bank0
  3049  1CF6  1303               	bcf	3,6	;RP1=0, select bank0
  3050  1CF7  085C               	movf	?___fldiv,w
  3051  1CF8  1683               	bsf	3,5	;RP0=1, select bank1
  3052  1CF9  1303               	bcf	3,6	;RP1=0, select bank1
  3053  1CFA  00B2               	movwf	Voltage_Value@voltage_result^(0+128)
  3054  1CFB                     l2355:
  3055                           
  3056                           ;main.c: 186:     if (voltage_result <= 0)
  3057  1CFB  3000               	movlw	0
  3058  1CFC  00F6               	movwf	___flge@ff1+3
  3059  1CFD  3000               	movlw	0
  3060  1CFE  00F5               	movwf	___flge@ff1+2
  3061  1CFF  3000               	movlw	0
  3062  1D00  00F4               	movwf	___flge@ff1+1
  3063  1D01  3000               	movlw	0
  3064  1D02  00F3               	movwf	___flge@ff1
  3065  1D03  0835               	movf	(Voltage_Value@voltage_result+3)^(0+128),w
  3066  1D04  00FA               	movwf	___flge@ff2+3
  3067  1D05  0834               	movf	(Voltage_Value@voltage_result+2)^(0+128),w
  3068  1D06  00F9               	movwf	___flge@ff2+2
  3069  1D07  0833               	movf	(Voltage_Value@voltage_result+1)^(0+128),w
  3070  1D08  00F8               	movwf	___flge@ff2+1
  3071  1D09  0832               	movf	Voltage_Value@voltage_result^(0+128),w
  3072  1D0A  00F7               	movwf	___flge@ff2
  3073  1D0B  160A  158A  2537  160A  158A  	fcall	___flge
  3074  1D10  1C03               	btfss	3,0
  3075  1D11  2D13               	goto	u3431
  3076  1D12  2D14               	goto	u3430
  3077  1D13                     u3431:
  3078  1D13  2D1E               	goto	l51
  3079  1D14                     u3430:
  3080  1D14                     l2357:
  3081                           
  3082                           ;main.c: 187:         voltage_result = 0.01;
  3083  1D14  303C               	movlw	60
  3084  1D15  1683               	bsf	3,5	;RP0=1, select bank1
  3085  1D16  1303               	bcf	3,6	;RP1=0, select bank1
  3086  1D17  00B5               	movwf	(Voltage_Value@voltage_result+3)^(0+128)
  3087  1D18  3023               	movlw	35
  3088  1D19  00B4               	movwf	(Voltage_Value@voltage_result+2)^(0+128)
  3089  1D1A  30D7               	movlw	215
  3090  1D1B  00B3               	movwf	(Voltage_Value@voltage_result+1)^(0+128)
  3091  1D1C  300A               	movlw	10
  3092  1D1D  00B2               	movwf	Voltage_Value@voltage_result^(0+128)
  3093  1D1E                     l51:
  3094                           
  3095                           ;main.c: 188:     return voltage_result;
  3096  1D1E  1683               	bsf	3,5	;RP0=1, select bank1
  3097  1D1F  1303               	bcf	3,6	;RP1=0, select bank1
  3098  1D20  0835               	movf	(Voltage_Value@voltage_result+3)^(0+128),w
  3099  1D21  1283               	bcf	3,5	;RP0=0, select bank0
  3100  1D22  1303               	bcf	3,6	;RP1=0, select bank0
  3101  1D23  00EC               	movwf	?_Voltage_Value+3
  3102  1D24  1683               	bsf	3,5	;RP0=1, select bank1
  3103  1D25  1303               	bcf	3,6	;RP1=0, select bank1
  3104  1D26  0834               	movf	(Voltage_Value@voltage_result+2)^(0+128),w
  3105  1D27  1283               	bcf	3,5	;RP0=0, select bank0
  3106  1D28  1303               	bcf	3,6	;RP1=0, select bank0
  3107  1D29  00EB               	movwf	?_Voltage_Value+2
  3108  1D2A  1683               	bsf	3,5	;RP0=1, select bank1
  3109  1D2B  1303               	bcf	3,6	;RP1=0, select bank1
  3110  1D2C  0833               	movf	(Voltage_Value@voltage_result+1)^(0+128),w
  3111  1D2D  1283               	bcf	3,5	;RP0=0, select bank0
  3112  1D2E  1303               	bcf	3,6	;RP1=0, select bank0
  3113  1D2F  00EA               	movwf	?_Voltage_Value+1
  3114  1D30  1683               	bsf	3,5	;RP0=1, select bank1
  3115  1D31  1303               	bcf	3,6	;RP1=0, select bank1
  3116  1D32  0832               	movf	Voltage_Value@voltage_result^(0+128),w
  3117  1D33  1283               	bcf	3,5	;RP0=0, select bank0
  3118  1D34  1303               	bcf	3,6	;RP1=0, select bank0
  3119  1D35  00E9               	movwf	?_Voltage_Value
  3120  1D36                     l52:
  3121  1D36  0008               	return
  3122  1D37                     __end_of_Voltage_Value:
  3123                           
  3124                           	psect	text10
  3125  1D37                     __ptext10:	
  3126 ;; *************** function ___flge *****************
  3127 ;; Defined at:
  3128 ;;		line 4 in file "C:\Program Files\Microchip\xc8\v2.20\pic\sources\c90\common\flge.c"
  3129 ;; Parameters:    Size  Location     Type
  3130 ;;  ff1             4    2[COMMON] float 
  3131 ;;  ff2             4    6[COMMON] float 
  3132 ;; Auto vars:     Size  Location     Type
  3133 ;;		None
  3134 ;; Return value:  Size  Location     Type
  3135 ;;		None               void
  3136 ;; Registers used:
  3137 ;;		wreg, status,2, status,0
  3138 ;; Tracked objects:
  3139 ;;		On entry : 0/0
  3140 ;;		On exit  : 0/0
  3141 ;;		Unchanged: 0/0
  3142 ;; Data sizes:     COMMON   BANK0   BANK1   BANK3   BANK2
  3143 ;;      Params:         8       0       0       0       0
  3144 ;;      Locals:         0       0       0       0       0
  3145 ;;      Temps:          0       4       0       0       0
  3146 ;;      Totals:         8       4       0       0       0
  3147 ;;Total ram usage:       12 bytes
  3148 ;; Hardware stack levels used:    1
  3149 ;; Hardware stack levels required when called:    1
  3150 ;; This function calls:
  3151 ;;		Nothing
  3152 ;; This function is called by:
  3153 ;;		_Get_Better_Newton_Value
  3154 ;;		_Voltage_Value
  3155 ;;		_conversion_newton
  3156 ;; This function uses a non-reentrant model
  3157 ;;
  3158                           
  3159                           
  3160                           ;psect for function ___flge
  3161  1D37                     ___flge:
  3162  1D37                     l1993:	
  3163                           ;incstack = 0
  3164                           ; Regs used in ___flge: [wreg+status,2+status,0]
  3165                           
  3166  1D37  3000               	movlw	0
  3167  1D38  0573               	andwf	___flge@ff1,w
  3168  1D39  1283               	bcf	3,5	;RP0=0, select bank0
  3169  1D3A  1303               	bcf	3,6	;RP1=0, select bank0
  3170  1D3B  00A0               	movwf	??___flge
  3171  1D3C  3000               	movlw	0
  3172  1D3D  0574               	andwf	___flge@ff1+1,w
  3173  1D3E  00A1               	movwf	??___flge+1
  3174  1D3F  3080               	movlw	128
  3175  1D40  0575               	andwf	___flge@ff1+2,w
  3176  1D41  00A2               	movwf	??___flge+2
  3177  1D42  307F               	movlw	127
  3178  1D43  0576               	andwf	___flge@ff1+3,w
  3179  1D44  00A3               	movwf	??___flge+3
  3180  1D45  0823               	movf	??___flge+3,w
  3181  1D46  0422               	iorwf	??___flge+2,w
  3182  1D47  0421               	iorwf	??___flge+1,w
  3183  1D48  0420               	iorwf	??___flge,w
  3184  1D49  1D03               	skipz
  3185  1D4A  2D4C               	goto	u2551
  3186  1D4B  2D4D               	goto	u2550
  3187  1D4C                     u2551:
  3188  1D4C  2D55               	goto	l431
  3189  1D4D                     u2550:
  3190  1D4D                     l1995:
  3191  1D4D  3000               	movlw	0
  3192  1D4E  00F6               	movwf	___flge@ff1+3
  3193  1D4F  3000               	movlw	0
  3194  1D50  00F5               	movwf	___flge@ff1+2
  3195  1D51  3000               	movlw	0
  3196  1D52  00F4               	movwf	___flge@ff1+1
  3197  1D53  3000               	movlw	0
  3198  1D54  00F3               	movwf	___flge@ff1
  3199  1D55                     l431:
  3200  1D55  3000               	movlw	0
  3201  1D56  0577               	andwf	___flge@ff2,w
  3202  1D57  00A0               	movwf	??___flge
  3203  1D58  3000               	movlw	0
  3204  1D59  0578               	andwf	___flge@ff2+1,w
  3205  1D5A  00A1               	movwf	??___flge+1
  3206  1D5B  3080               	movlw	128
  3207  1D5C  0579               	andwf	___flge@ff2+2,w
  3208  1D5D  00A2               	movwf	??___flge+2
  3209  1D5E  307F               	movlw	127
  3210  1D5F  057A               	andwf	___flge@ff2+3,w
  3211  1D60  00A3               	movwf	??___flge+3
  3212  1D61  0823               	movf	??___flge+3,w
  3213  1D62  0422               	iorwf	??___flge+2,w
  3214  1D63  0421               	iorwf	??___flge+1,w
  3215  1D64  0420               	iorwf	??___flge,w
  3216  1D65  1D03               	skipz
  3217  1D66  2D68               	goto	u2561
  3218  1D67  2D69               	goto	u2560
  3219  1D68                     u2561:
  3220  1D68  2D71               	goto	l1999
  3221  1D69                     u2560:
  3222  1D69                     l1997:
  3223  1D69  3000               	movlw	0
  3224  1D6A  00FA               	movwf	___flge@ff2+3
  3225  1D6B  3000               	movlw	0
  3226  1D6C  00F9               	movwf	___flge@ff2+2
  3227  1D6D  3000               	movlw	0
  3228  1D6E  00F8               	movwf	___flge@ff2+1
  3229  1D6F  3000               	movlw	0
  3230  1D70  00F7               	movwf	___flge@ff2
  3231  1D71                     l1999:
  3232  1D71  1FF6               	btfss	___flge@ff1+3,7
  3233  1D72  2D74               	goto	u2571
  3234  1D73  2D75               	goto	u2570
  3235  1D74                     u2571:
  3236  1D74  2D99               	goto	l2003
  3237  1D75                     u2570:
  3238  1D75                     l2001:
  3239  1D75  3000               	movlw	0
  3240  1D76  00A0               	movwf	??___flge
  3241  1D77  3000               	movlw	0
  3242  1D78  00A1               	movwf	??___flge+1
  3243  1D79  3000               	movlw	0
  3244  1D7A  00A2               	movwf	??___flge+2
  3245  1D7B  3080               	movlw	128
  3246  1D7C  00A3               	movwf	??___flge+3
  3247  1D7D  0873               	movf	___flge@ff1,w
  3248  1D7E  02A0               	subwf	??___flge,f
  3249  1D7F  0874               	movf	___flge@ff1+1,w
  3250  1D80  1C03               	skipc
  3251  1D81  0F74               	incfsz	___flge@ff1+1,w
  3252  1D82  2D84               	goto	u2581
  3253  1D83  2D85               	goto	u2582
  3254  1D84                     u2581:
  3255  1D84  02A1               	subwf	??___flge+1,f
  3256  1D85                     u2582:
  3257  1D85  0875               	movf	___flge@ff1+2,w
  3258  1D86  1C03               	skipc
  3259  1D87  0F75               	incfsz	___flge@ff1+2,w
  3260  1D88  2D8A               	goto	u2583
  3261  1D89  2D8B               	goto	u2584
  3262  1D8A                     u2583:
  3263  1D8A  02A2               	subwf	??___flge+2,f
  3264  1D8B                     u2584:
  3265  1D8B  0876               	movf	___flge@ff1+3,w
  3266  1D8C  1C03               	skipc
  3267  1D8D  0F76               	incfsz	___flge@ff1+3,w
  3268  1D8E  2D90               	goto	u2585
  3269  1D8F  2D91               	goto	u2586
  3270  1D90                     u2585:
  3271  1D90  02A3               	subwf	??___flge+3,f
  3272  1D91                     u2586:
  3273  1D91  0823               	movf	??___flge+3,w
  3274  1D92  00F6               	movwf	___flge@ff1+3
  3275  1D93  0822               	movf	??___flge+2,w
  3276  1D94  00F5               	movwf	___flge@ff1+2
  3277  1D95  0821               	movf	??___flge+1,w
  3278  1D96  00F4               	movwf	___flge@ff1+1
  3279  1D97  0820               	movf	??___flge,w
  3280  1D98  00F3               	movwf	___flge@ff1
  3281  1D99                     l2003:
  3282  1D99  1FFA               	btfss	___flge@ff2+3,7
  3283  1D9A  2D9C               	goto	u2591
  3284  1D9B  2D9D               	goto	u2590
  3285  1D9C                     u2591:
  3286  1D9C  2DC1               	goto	l434
  3287  1D9D                     u2590:
  3288  1D9D                     l2005:
  3289  1D9D  3000               	movlw	0
  3290  1D9E  00A0               	movwf	??___flge
  3291  1D9F  3000               	movlw	0
  3292  1DA0  00A1               	movwf	??___flge+1
  3293  1DA1  3000               	movlw	0
  3294  1DA2  00A2               	movwf	??___flge+2
  3295  1DA3  3080               	movlw	128
  3296  1DA4  00A3               	movwf	??___flge+3
  3297  1DA5  0877               	movf	___flge@ff2,w
  3298  1DA6  02A0               	subwf	??___flge,f
  3299  1DA7  0878               	movf	___flge@ff2+1,w
  3300  1DA8  1C03               	skipc
  3301  1DA9  0F78               	incfsz	___flge@ff2+1,w
  3302  1DAA  2DAC               	goto	u2601
  3303  1DAB  2DAD               	goto	u2602
  3304  1DAC                     u2601:
  3305  1DAC  02A1               	subwf	??___flge+1,f
  3306  1DAD                     u2602:
  3307  1DAD  0879               	movf	___flge@ff2+2,w
  3308  1DAE  1C03               	skipc
  3309  1DAF  0F79               	incfsz	___flge@ff2+2,w
  3310  1DB0  2DB2               	goto	u2603
  3311  1DB1  2DB3               	goto	u2604
  3312  1DB2                     u2603:
  3313  1DB2  02A2               	subwf	??___flge+2,f
  3314  1DB3                     u2604:
  3315  1DB3  087A               	movf	___flge@ff2+3,w
  3316  1DB4  1C03               	skipc
  3317  1DB5  0F7A               	incfsz	___flge@ff2+3,w
  3318  1DB6  2DB8               	goto	u2605
  3319  1DB7  2DB9               	goto	u2606
  3320  1DB8                     u2605:
  3321  1DB8  02A3               	subwf	??___flge+3,f
  3322  1DB9                     u2606:
  3323  1DB9  0823               	movf	??___flge+3,w
  3324  1DBA  00FA               	movwf	___flge@ff2+3
  3325  1DBB  0822               	movf	??___flge+2,w
  3326  1DBC  00F9               	movwf	___flge@ff2+2
  3327  1DBD  0821               	movf	??___flge+1,w
  3328  1DBE  00F8               	movwf	___flge@ff2+1
  3329  1DBF  0820               	movf	??___flge,w
  3330  1DC0  00F7               	movwf	___flge@ff2
  3331  1DC1                     l434:
  3332  1DC1  3080               	movlw	128
  3333  1DC2  06F6               	xorwf	___flge@ff1+3,f
  3334  1DC3  3080               	movlw	128
  3335  1DC4  06FA               	xorwf	___flge@ff2+3,f
  3336  1DC5  087A               	movf	___flge@ff2+3,w
  3337  1DC6  0276               	subwf	___flge@ff1+3,w
  3338  1DC7  1D03               	skipz
  3339  1DC8  2DD3               	goto	u2615
  3340  1DC9  0879               	movf	___flge@ff2+2,w
  3341  1DCA  0275               	subwf	___flge@ff1+2,w
  3342  1DCB  1D03               	skipz
  3343  1DCC  2DD3               	goto	u2615
  3344  1DCD  0878               	movf	___flge@ff2+1,w
  3345  1DCE  0274               	subwf	___flge@ff1+1,w
  3346  1DCF  1D03               	skipz
  3347  1DD0  2DD3               	goto	u2615
  3348  1DD1  0877               	movf	___flge@ff2,w
  3349  1DD2  0273               	subwf	___flge@ff1,w
  3350  1DD3                     u2615:
  3351  1DD3  1803               	skipnc
  3352  1DD4  2DD6               	goto	u2611
  3353  1DD5  2DD7               	goto	u2610
  3354  1DD6                     u2611:
  3355  1DD6  2DD9               	goto	l2009
  3356  1DD7                     u2610:
  3357  1DD7                     l2007:
  3358  1DD7  1003               	clrc
  3359  1DD8  2DDA               	goto	l435
  3360  1DD9                     l2009:
  3361  1DD9  1403               	setc
  3362  1DDA                     l435:
  3363  1DDA  0008               	return
  3364  1DDB                     __end_of___flge:
  3365                           
  3366                           	psect	text11
  3367  102B                     __ptext11:	
  3368 ;; *************** function _Resistance_Value *****************
  3369 ;; Defined at:
  3370 ;;		line 197 in file "main.c"
  3371 ;; Parameters:    Size  Location     Type
  3372 ;;  Voltage         4   73[BANK0 ] float 
  3373 ;;  R               2   77[BANK0 ] unsigned int 
  3374 ;; Auto vars:     Size  Location     Type
  3375 ;;  fR              4   17[BANK1 ] float 
  3376 ;;  resultat        4   13[BANK1 ] float 
  3377 ;; Return value:  Size  Location     Type
  3378 ;;                  4   73[BANK0 ] float 
  3379 ;; Registers used:
  3380 ;;		wreg, status,2, status,0, btemp+1, pclath, cstack
  3381 ;; Tracked objects:
  3382 ;;		On entry : 0/0
  3383 ;;		On exit  : 0/0
  3384 ;;		Unchanged: 0/0
  3385 ;; Data sizes:     COMMON   BANK0   BANK1   BANK3   BANK2
  3386 ;;      Params:         0       6       0       0       0
  3387 ;;      Locals:         0       0       8       0       0
  3388 ;;      Temps:          0       0       0       0       0
  3389 ;;      Totals:         0       6       8       0       0
  3390 ;;Total ram usage:       14 bytes
  3391 ;; Hardware stack levels used:    1
  3392 ;; Hardware stack levels required when called:    3
  3393 ;; This function calls:
  3394 ;;		___fldiv
  3395 ;;		___flmul
  3396 ;;		___flsub
  3397 ;;		___xxtofl
  3398 ;; This function is called by:
  3399 ;;		_Get_Newton
  3400 ;; This function uses a non-reentrant model
  3401 ;;
  3402                           
  3403                           
  3404                           ;psect for function _Resistance_Value
  3405  102B                     _Resistance_Value:
  3406  102B                     l2361:	
  3407                           ;incstack = 0
  3408                           ; Regs used in _Resistance_Value: [wreg+status,2+status,0+btemp+1+pclath+cstack]
  3409                           
  3410                           
  3411                           ;main.c: 198:     float resultat;;main.c: 199:     float fR = (float) R;
  3412  102B  1283               	bcf	3,5	;RP0=0, select bank0
  3413  102C  1303               	bcf	3,6	;RP1=0, select bank0
  3414  102D  086D               	movf	Resistance_Value@R,w
  3415  102E  00F3               	movwf	___xxtofl@val
  3416  102F  086E               	movf	Resistance_Value@R+1,w
  3417  1030  00F4               	movwf	___xxtofl@val+1
  3418  1031  01F5               	clrf	___xxtofl@val+2
  3419  1032  01F6               	clrf	___xxtofl@val+3
  3420  1033  3000               	movlw	0
  3421  1034  120A  158A  2056  160A  118A  	fcall	___xxtofl
  3422  1039  0876               	movf	?___xxtofl+3,w
  3423  103A  1683               	bsf	3,5	;RP0=1, select bank1
  3424  103B  1303               	bcf	3,6	;RP1=0, select bank1
  3425  103C  00B4               	movwf	(Resistance_Value@fR+3)^(0+128)
  3426  103D  0875               	movf	?___xxtofl+2,w
  3427  103E  00B3               	movwf	(Resistance_Value@fR+2)^(0+128)
  3428  103F  0874               	movf	?___xxtofl+1,w
  3429  1040  00B2               	movwf	(Resistance_Value@fR+1)^(0+128)
  3430  1041  0873               	movf	?___xxtofl,w
  3431  1042  00B1               	movwf	Resistance_Value@fR^(0+128)
  3432                           
  3433                           ;main.c: 200:     resultat = (float) (fR * 5.0)/(5.0 -(2*Voltage));
  3434  1043  3040               	movlw	64
  3435  1044  1283               	bcf	3,5	;RP0=0, select bank0
  3436  1045  1303               	bcf	3,6	;RP1=0, select bank0
  3437  1046  00A9               	movwf	___flmul@b+3
  3438  1047  3000               	movlw	0
  3439  1048  00A8               	movwf	___flmul@b+2
  3440  1049  3000               	movlw	0
  3441  104A  00A7               	movwf	___flmul@b+1
  3442  104B  3000               	movlw	0
  3443  104C  00A6               	movwf	___flmul@b
  3444  104D  086C               	movf	Resistance_Value@Voltage+3,w
  3445  104E  00AD               	movwf	___flmul@a+3
  3446  104F  086B               	movf	Resistance_Value@Voltage+2,w
  3447  1050  00AC               	movwf	___flmul@a+2
  3448  1051  086A               	movf	Resistance_Value@Voltage+1,w
  3449  1052  00AB               	movwf	___flmul@a+1
  3450  1053  0869               	movf	Resistance_Value@Voltage,w
  3451  1054  00AA               	movwf	___flmul@a
  3452  1055  120A  158A  2112  160A  118A  	fcall	___flmul
  3453  105A  1283               	bcf	3,5	;RP0=0, select bank0
  3454  105B  1303               	bcf	3,6	;RP1=0, select bank0
  3455  105C  0829               	movf	?___flmul+3,w
  3456  105D  00D7               	movwf	___flsub@a+3
  3457  105E  0828               	movf	?___flmul+2,w
  3458  105F  00D6               	movwf	___flsub@a+2
  3459  1060  0827               	movf	?___flmul+1,w
  3460  1061  00D5               	movwf	___flsub@a+1
  3461  1062  0826               	movf	?___flmul,w
  3462  1063  00D4               	movwf	___flsub@a
  3463  1064  3040               	movlw	64
  3464  1065  00DB               	movwf	___flsub@b+3
  3465  1066  30A0               	movlw	160
  3466  1067  00DA               	movwf	___flsub@b+2
  3467  1068  3000               	movlw	0
  3468  1069  00D9               	movwf	___flsub@b+1
  3469  106A  3000               	movlw	0
  3470  106B  00D8               	movwf	___flsub@b
  3471  106C  160A  158A  236D  160A  118A  	fcall	___flsub
  3472  1071  1283               	bcf	3,5	;RP0=0, select bank0
  3473  1072  1303               	bcf	3,6	;RP1=0, select bank0
  3474  1073  0857               	movf	?___flsub+3,w
  3475  1074  00DF               	movwf	___fldiv@a+3
  3476  1075  0856               	movf	?___flsub+2,w
  3477  1076  00DE               	movwf	___fldiv@a+2
  3478  1077  0855               	movf	?___flsub+1,w
  3479  1078  00DD               	movwf	___fldiv@a+1
  3480  1079  0854               	movf	?___flsub,w
  3481  107A  00DC               	movwf	___fldiv@a
  3482  107B  3040               	movlw	64
  3483  107C  00A9               	movwf	___flmul@b+3
  3484  107D  30A0               	movlw	160
  3485  107E  00A8               	movwf	___flmul@b+2
  3486  107F  3000               	movlw	0
  3487  1080  00A7               	movwf	___flmul@b+1
  3488  1081  3000               	movlw	0
  3489  1082  00A6               	movwf	___flmul@b
  3490  1083  1683               	bsf	3,5	;RP0=1, select bank1
  3491  1084  1303               	bcf	3,6	;RP1=0, select bank1
  3492  1085  0834               	movf	(Resistance_Value@fR+3)^(0+128),w
  3493  1086  1283               	bcf	3,5	;RP0=0, select bank0
  3494  1087  1303               	bcf	3,6	;RP1=0, select bank0
  3495  1088  00AD               	movwf	___flmul@a+3
  3496  1089  1683               	bsf	3,5	;RP0=1, select bank1
  3497  108A  1303               	bcf	3,6	;RP1=0, select bank1
  3498  108B  0833               	movf	(Resistance_Value@fR+2)^(0+128),w
  3499  108C  1283               	bcf	3,5	;RP0=0, select bank0
  3500  108D  1303               	bcf	3,6	;RP1=0, select bank0
  3501  108E  00AC               	movwf	___flmul@a+2
  3502  108F  1683               	bsf	3,5	;RP0=1, select bank1
  3503  1090  1303               	bcf	3,6	;RP1=0, select bank1
  3504  1091  0832               	movf	(Resistance_Value@fR+1)^(0+128),w
  3505  1092  1283               	bcf	3,5	;RP0=0, select bank0
  3506  1093  1303               	bcf	3,6	;RP1=0, select bank0
  3507  1094  00AB               	movwf	___flmul@a+1
  3508  1095  1683               	bsf	3,5	;RP0=1, select bank1
  3509  1096  1303               	bcf	3,6	;RP1=0, select bank1
  3510  1097  0831               	movf	Resistance_Value@fR^(0+128),w
  3511  1098  1283               	bcf	3,5	;RP0=0, select bank0
  3512  1099  1303               	bcf	3,6	;RP1=0, select bank0
  3513  109A  00AA               	movwf	___flmul@a
  3514  109B  120A  158A  2112  160A  118A  	fcall	___flmul
  3515  10A0  1283               	bcf	3,5	;RP0=0, select bank0
  3516  10A1  1303               	bcf	3,6	;RP1=0, select bank0
  3517  10A2  0829               	movf	?___flmul+3,w
  3518  10A3  00E3               	movwf	___fldiv@b+3
  3519  10A4  0828               	movf	?___flmul+2,w
  3520  10A5  00E2               	movwf	___fldiv@b+2
  3521  10A6  0827               	movf	?___flmul+1,w
  3522  10A7  00E1               	movwf	___fldiv@b+1
  3523  10A8  0826               	movf	?___flmul,w
  3524  10A9  00E0               	movwf	___fldiv@b
  3525  10AA  120A  118A  2041  160A  118A  	fcall	___fldiv
  3526  10AF  1283               	bcf	3,5	;RP0=0, select bank0
  3527  10B0  1303               	bcf	3,6	;RP1=0, select bank0
  3528  10B1  085F               	movf	?___fldiv+3,w
  3529  10B2  1683               	bsf	3,5	;RP0=1, select bank1
  3530  10B3  1303               	bcf	3,6	;RP1=0, select bank1
  3531  10B4  00B0               	movwf	(Resistance_Value@resultat+3)^(0+128)
  3532  10B5  1283               	bcf	3,5	;RP0=0, select bank0
  3533  10B6  1303               	bcf	3,6	;RP1=0, select bank0
  3534  10B7  085E               	movf	?___fldiv+2,w
  3535  10B8  1683               	bsf	3,5	;RP0=1, select bank1
  3536  10B9  1303               	bcf	3,6	;RP1=0, select bank1
  3537  10BA  00AF               	movwf	(Resistance_Value@resultat+2)^(0+128)
  3538  10BB  1283               	bcf	3,5	;RP0=0, select bank0
  3539  10BC  1303               	bcf	3,6	;RP1=0, select bank0
  3540  10BD  085D               	movf	?___fldiv+1,w
  3541  10BE  1683               	bsf	3,5	;RP0=1, select bank1
  3542  10BF  1303               	bcf	3,6	;RP1=0, select bank1
  3543  10C0  00AE               	movwf	(Resistance_Value@resultat+1)^(0+128)
  3544  10C1  1283               	bcf	3,5	;RP0=0, select bank0
  3545  10C2  1303               	bcf	3,6	;RP1=0, select bank0
  3546  10C3  085C               	movf	?___fldiv,w
  3547  10C4  1683               	bsf	3,5	;RP0=1, select bank1
  3548  10C5  1303               	bcf	3,6	;RP1=0, select bank1
  3549  10C6  00AD               	movwf	Resistance_Value@resultat^(0+128)
  3550  10C7                     l2363:
  3551                           
  3552                           ;main.c: 201:     return resultat;
  3553  10C7  0830               	movf	(Resistance_Value@resultat+3)^(0+128),w
  3554  10C8  1283               	bcf	3,5	;RP0=0, select bank0
  3555  10C9  1303               	bcf	3,6	;RP1=0, select bank0
  3556  10CA  00EC               	movwf	?_Resistance_Value+3
  3557  10CB  1683               	bsf	3,5	;RP0=1, select bank1
  3558  10CC  1303               	bcf	3,6	;RP1=0, select bank1
  3559  10CD  082F               	movf	(Resistance_Value@resultat+2)^(0+128),w
  3560  10CE  1283               	bcf	3,5	;RP0=0, select bank0
  3561  10CF  1303               	bcf	3,6	;RP1=0, select bank0
  3562  10D0  00EB               	movwf	?_Resistance_Value+2
  3563  10D1  1683               	bsf	3,5	;RP0=1, select bank1
  3564  10D2  1303               	bcf	3,6	;RP1=0, select bank1
  3565  10D3  082E               	movf	(Resistance_Value@resultat+1)^(0+128),w
  3566  10D4  1283               	bcf	3,5	;RP0=0, select bank0
  3567  10D5  1303               	bcf	3,6	;RP1=0, select bank0
  3568  10D6  00EA               	movwf	?_Resistance_Value+1
  3569  10D7  1683               	bsf	3,5	;RP0=1, select bank1
  3570  10D8  1303               	bcf	3,6	;RP1=0, select bank1
  3571  10D9  082D               	movf	Resistance_Value@resultat^(0+128),w
  3572  10DA  1283               	bcf	3,5	;RP0=0, select bank0
  3573  10DB  1303               	bcf	3,6	;RP1=0, select bank0
  3574  10DC  00E9               	movwf	?_Resistance_Value
  3575  10DD                     l55:
  3576  10DD  0008               	return
  3577  10DE                     __end_of_Resistance_Value:
  3578                           
  3579                           	psect	text12
  3580  0856                     __ptext12:	
  3581 ;; *************** function ___xxtofl *****************
  3582 ;; Defined at:
  3583 ;;		line 10 in file "C:\Program Files\Microchip\xc8\v2.20\pic\sources\c90\common\xxtofl.c"
  3584 ;; Parameters:    Size  Location     Type
  3585 ;;  sign            1    wreg     unsigned char 
  3586 ;;  val             4    2[COMMON] long 
  3587 ;; Auto vars:     Size  Location     Type
  3588 ;;  sign            1    0[BANK0 ] unsigned char 
  3589 ;;  arg             4    2[BANK0 ] unsigned long 
  3590 ;;  exp             1    1[BANK0 ] unsigned char 
  3591 ;; Return value:  Size  Location     Type
  3592 ;;                  4    2[COMMON] unsigned char 
  3593 ;; Registers used:
  3594 ;;		wreg, status,2, status,0, btemp+1
  3595 ;; Tracked objects:
  3596 ;;		On entry : 0/0
  3597 ;;		On exit  : 0/0
  3598 ;;		Unchanged: 0/0
  3599 ;; Data sizes:     COMMON   BANK0   BANK1   BANK3   BANK2
  3600 ;;      Params:         4       0       0       0       0
  3601 ;;      Locals:         0       6       0       0       0
  3602 ;;      Temps:          4       0       0       0       0
  3603 ;;      Totals:         8       6       0       0       0
  3604 ;;Total ram usage:       14 bytes
  3605 ;; Hardware stack levels used:    1
  3606 ;; Hardware stack levels required when called:    1
  3607 ;; This function calls:
  3608 ;;		Nothing
  3609 ;; This function is called by:
  3610 ;;		_Voltage_Value
  3611 ;;		_Resistance_Value
  3612 ;; This function uses a non-reentrant model
  3613 ;;
  3614                           
  3615                           
  3616                           ;psect for function ___xxtofl
  3617  0856                     ___xxtofl:
  3618                           
  3619                           ;incstack = 0
  3620                           ; Regs used in ___xxtofl: [wreg+status,2+status,0+btemp+1]
  3621                           ;___xxtofl@sign stored from wreg
  3622  0856  1283               	bcf	3,5	;RP0=0, select bank0
  3623  0857  1303               	bcf	3,6	;RP1=0, select bank0
  3624  0858  00A0               	movwf	___xxtofl@sign
  3625  0859                     l2305:
  3626  0859  0820               	movf	___xxtofl@sign,w
  3627  085A  1903               	btfsc	3,2
  3628  085B  285D               	goto	u3291
  3629  085C  285E               	goto	u3290
  3630  085D                     u3291:
  3631  085D  2872               	goto	l2311
  3632  085E                     u3290:
  3633  085E                     l2307:
  3634  085E  1FF6               	btfss	___xxtofl@val+3,7
  3635  085F  2861               	goto	u3301
  3636  0860  2862               	goto	u3300
  3637  0861                     u3301:
  3638  0861  2872               	goto	l2311
  3639  0862                     u3300:
  3640  0862                     l2309:
  3641  0862  0973               	comf	___xxtofl@val,w
  3642  0863  00A2               	movwf	___xxtofl@arg
  3643  0864  0974               	comf	___xxtofl@val+1,w
  3644  0865  00A3               	movwf	___xxtofl@arg+1
  3645  0866  0975               	comf	___xxtofl@val+2,w
  3646  0867  00A4               	movwf	___xxtofl@arg+2
  3647  0868  0976               	comf	___xxtofl@val+3,w
  3648  0869  00A5               	movwf	___xxtofl@arg+3
  3649  086A  0AA2               	incf	___xxtofl@arg,f
  3650  086B  1903               	skipnz
  3651  086C  0AA3               	incf	___xxtofl@arg+1,f
  3652  086D  1903               	skipnz
  3653  086E  0AA4               	incf	___xxtofl@arg+2,f
  3654  086F  1903               	skipnz
  3655  0870  0AA5               	incf	___xxtofl@arg+3,f
  3656  0871  287A               	goto	l690
  3657  0872                     l2311:
  3658  0872  0876               	movf	___xxtofl@val+3,w
  3659  0873  00A5               	movwf	___xxtofl@arg+3
  3660  0874  0875               	movf	___xxtofl@val+2,w
  3661  0875  00A4               	movwf	___xxtofl@arg+2
  3662  0876  0874               	movf	___xxtofl@val+1,w
  3663  0877  00A3               	movwf	___xxtofl@arg+1
  3664  0878  0873               	movf	___xxtofl@val,w
  3665  0879  00A2               	movwf	___xxtofl@arg
  3666  087A                     l690:
  3667  087A  0876               	movf	___xxtofl@val+3,w
  3668  087B  0475               	iorwf	___xxtofl@val+2,w
  3669  087C  0474               	iorwf	___xxtofl@val+1,w
  3670  087D  0473               	iorwf	___xxtofl@val,w
  3671  087E  1D03               	skipz
  3672  087F  2881               	goto	u3311
  3673  0880  2882               	goto	u3310
  3674  0881                     u3311:
  3675  0881  288B               	goto	l2317
  3676  0882                     u3310:
  3677  0882                     l2313:
  3678  0882  3000               	movlw	0
  3679  0883  00F6               	movwf	?___xxtofl+3
  3680  0884  3000               	movlw	0
  3681  0885  00F5               	movwf	?___xxtofl+2
  3682  0886  3000               	movlw	0
  3683  0887  00F4               	movwf	?___xxtofl+1
  3684  0888  3000               	movlw	0
  3685  0889  00F3               	movwf	?___xxtofl
  3686  088A  2911               	goto	l692
  3687  088B                     l2317:
  3688  088B  3096               	movlw	150
  3689  088C  00FF               	movwf	btemp+1
  3690  088D  087F               	movf	btemp+1,w
  3691  088E  00A1               	movwf	___xxtofl@exp
  3692  088F  289D               	goto	l2323
  3693  0890                     l2319:
  3694  0890  3001               	movlw	1
  3695  0891  00FF               	movwf	btemp+1
  3696  0892  087F               	movf	btemp+1,w
  3697  0893  07A1               	addwf	___xxtofl@exp,f
  3698  0894                     l2321:
  3699  0894  3001               	movlw	1
  3700  0895                     u3325:
  3701  0895  1003               	clrc
  3702  0896  0CA5               	rrf	___xxtofl@arg+3,f
  3703  0897  0CA4               	rrf	___xxtofl@arg+2,f
  3704  0898  0CA3               	rrf	___xxtofl@arg+1,f
  3705  0899  0CA2               	rrf	___xxtofl@arg,f
  3706  089A  3EFF               	addlw	-1
  3707  089B  1D03               	skipz
  3708  089C  2895               	goto	u3325
  3709  089D                     l2323:
  3710  089D  30FE               	movlw	254
  3711  089E  0525               	andwf	___xxtofl@arg+3,w
  3712  089F  1D03               	btfss	3,2
  3713  08A0  28A2               	goto	u3331
  3714  08A1  28A3               	goto	u3330
  3715  08A2                     u3331:
  3716  08A2  2890               	goto	l2319
  3717  08A3                     u3330:
  3718  08A3  28BF               	goto	l2331
  3719  08A4                     l2325:
  3720  08A4  3001               	movlw	1
  3721  08A5  00FF               	movwf	btemp+1
  3722  08A6  087F               	movf	btemp+1,w
  3723  08A7  07A1               	addwf	___xxtofl@exp,f
  3724  08A8                     l2327:
  3725  08A8  3001               	movlw	1
  3726  08A9  07A2               	addwf	___xxtofl@arg,f
  3727  08AA  3000               	movlw	0
  3728  08AB  1803               	skipnc
  3729  08AC  3001               	movlw	1
  3730  08AD  07A3               	addwf	___xxtofl@arg+1,f
  3731  08AE  3000               	movlw	0
  3732  08AF  1803               	skipnc
  3733  08B0  3001               	movlw	1
  3734  08B1  07A4               	addwf	___xxtofl@arg+2,f
  3735  08B2  3000               	movlw	0
  3736  08B3  1803               	skipnc
  3737  08B4  3001               	movlw	1
  3738  08B5  07A5               	addwf	___xxtofl@arg+3,f
  3739  08B6                     l2329:
  3740  08B6  3001               	movlw	1
  3741  08B7                     u3345:
  3742  08B7  1003               	clrc
  3743  08B8  0CA5               	rrf	___xxtofl@arg+3,f
  3744  08B9  0CA4               	rrf	___xxtofl@arg+2,f
  3745  08BA  0CA3               	rrf	___xxtofl@arg+1,f
  3746  08BB  0CA2               	rrf	___xxtofl@arg,f
  3747  08BC  3EFF               	addlw	-1
  3748  08BD  1D03               	skipz
  3749  08BE  28B7               	goto	u3345
  3750  08BF                     l2331:
  3751  08BF  30FF               	movlw	255
  3752  08C0  0525               	andwf	___xxtofl@arg+3,w
  3753  08C1  1D03               	btfss	3,2
  3754  08C2  28C4               	goto	u3351
  3755  08C3  28C5               	goto	u3350
  3756  08C4                     u3351:
  3757  08C4  28A4               	goto	l2325
  3758  08C5                     u3350:
  3759  08C5  28D1               	goto	l2335
  3760  08C6                     l2333:
  3761  08C6  3001               	movlw	1
  3762  08C7  02A1               	subwf	___xxtofl@exp,f
  3763  08C8  3001               	movlw	1
  3764  08C9  00F7               	movwf	??___xxtofl
  3765  08CA                     u3365:
  3766  08CA  1003               	clrc
  3767  08CB  0DA2               	rlf	___xxtofl@arg,f
  3768  08CC  0DA3               	rlf	___xxtofl@arg+1,f
  3769  08CD  0DA4               	rlf	___xxtofl@arg+2,f
  3770  08CE  0DA5               	rlf	___xxtofl@arg+3,f
  3771  08CF  0BF7               	decfsz	??___xxtofl,f
  3772  08D0  28CA               	goto	u3365
  3773  08D1                     l2335:
  3774  08D1  1BA4               	btfsc	___xxtofl@arg+2,7
  3775  08D2  28D4               	goto	u3371
  3776  08D3  28D5               	goto	u3370
  3777  08D4                     u3371:
  3778  08D4  28DB               	goto	l703
  3779  08D5                     u3370:
  3780  08D5                     l2337:
  3781  08D5  3002               	movlw	2
  3782  08D6  0221               	subwf	___xxtofl@exp,w
  3783  08D7  1803               	skipnc
  3784  08D8  28DA               	goto	u3381
  3785  08D9  28DB               	goto	u3380
  3786  08DA                     u3381:
  3787  08DA  28C6               	goto	l2333
  3788  08DB                     u3380:
  3789  08DB                     l703:
  3790  08DB  1821               	btfsc	___xxtofl@exp,0
  3791  08DC  28DE               	goto	u3391
  3792  08DD  28DF               	goto	u3390
  3793  08DE                     u3391:
  3794  08DE  28E7               	goto	l704
  3795  08DF                     u3390:
  3796  08DF                     l2339:
  3797  08DF  30FF               	movlw	255
  3798  08E0  05A2               	andwf	___xxtofl@arg,f
  3799  08E1  30FF               	movlw	255
  3800  08E2  05A3               	andwf	___xxtofl@arg+1,f
  3801  08E3  307F               	movlw	127
  3802  08E4  05A4               	andwf	___xxtofl@arg+2,f
  3803  08E5  30FF               	movlw	255
  3804  08E6  05A5               	andwf	___xxtofl@arg+3,f
  3805  08E7                     l704:
  3806  08E7  1003               	clrc
  3807  08E8  0CA1               	rrf	___xxtofl@exp,f
  3808  08E9                     l2341:
  3809  08E9  0821               	movf	___xxtofl@exp,w
  3810  08EA  00F7               	movwf	??___xxtofl
  3811  08EB  01F8               	clrf	??___xxtofl+1
  3812  08EC  01F9               	clrf	??___xxtofl+2
  3813  08ED  01FA               	clrf	??___xxtofl+3
  3814  08EE  3018               	movlw	24
  3815  08EF                     u3405:
  3816  08EF  1003               	clrc
  3817  08F0  0DF7               	rlf	??___xxtofl,f
  3818  08F1  0DF8               	rlf	??___xxtofl+1,f
  3819  08F2  0DF9               	rlf	??___xxtofl+2,f
  3820  08F3  0DFA               	rlf	??___xxtofl+3,f
  3821  08F4                     u3400:
  3822  08F4  3EFF               	addlw	-1
  3823  08F5  1D03               	skipz
  3824  08F6  28EF               	goto	u3405
  3825  08F7  0877               	movf	??___xxtofl,w
  3826  08F8  04A2               	iorwf	___xxtofl@arg,f
  3827  08F9  0878               	movf	??___xxtofl+1,w
  3828  08FA  04A3               	iorwf	___xxtofl@arg+1,f
  3829  08FB  0879               	movf	??___xxtofl+2,w
  3830  08FC  04A4               	iorwf	___xxtofl@arg+2,f
  3831  08FD  087A               	movf	??___xxtofl+3,w
  3832  08FE  04A5               	iorwf	___xxtofl@arg+3,f
  3833  08FF                     l2343:
  3834  08FF  0820               	movf	___xxtofl@sign,w
  3835  0900  1903               	btfsc	3,2
  3836  0901  2903               	goto	u3411
  3837  0902  2904               	goto	u3410
  3838  0903                     u3411:
  3839  0903  2909               	goto	l2349
  3840  0904                     u3410:
  3841  0904                     l2345:
  3842  0904  1FF6               	btfss	___xxtofl@val+3,7
  3843  0905  2907               	goto	u3421
  3844  0906  2908               	goto	u3420
  3845  0907                     u3421:
  3846  0907  2909               	goto	l2349
  3847  0908                     u3420:
  3848  0908                     l2347:
  3849  0908  17A5               	bsf	___xxtofl@arg+3,7
  3850  0909                     l2349:
  3851  0909  0825               	movf	___xxtofl@arg+3,w
  3852  090A  00F6               	movwf	?___xxtofl+3
  3853  090B  0824               	movf	___xxtofl@arg+2,w
  3854  090C  00F5               	movwf	?___xxtofl+2
  3855  090D  0823               	movf	___xxtofl@arg+1,w
  3856  090E  00F4               	movwf	?___xxtofl+1
  3857  090F  0822               	movf	___xxtofl@arg,w
  3858  0910  00F3               	movwf	?___xxtofl
  3859  0911                     l692:
  3860  0911  0008               	return
  3861  0912                     __end_of___xxtofl:
  3862                           
  3863                           	psect	text13
  3864  1B6D                     __ptext13:	
  3865 ;; *************** function ___flsub *****************
  3866 ;; Defined at:
  3867 ;;		line 242 in file "C:\Program Files\Microchip\xc8\v2.20\pic\sources\c90\common\sprcadd.c"
  3868 ;; Parameters:    Size  Location     Type
  3869 ;;  a               4   52[BANK0 ] unsigned char 
  3870 ;;  b               4   56[BANK0 ] unsigned char 
  3871 ;; Auto vars:     Size  Location     Type
  3872 ;;		None
  3873 ;; Return value:  Size  Location     Type
  3874 ;;                  4   52[BANK0 ] unsigned char 
  3875 ;; Registers used:
  3876 ;;		wreg, status,2, status,0, btemp+1, pclath, cstack
  3877 ;; Tracked objects:
  3878 ;;		On entry : 0/0
  3879 ;;		On exit  : 0/0
  3880 ;;		Unchanged: 0/0
  3881 ;; Data sizes:     COMMON   BANK0   BANK1   BANK3   BANK2
  3882 ;;      Params:         0       8       0       0       0
  3883 ;;      Locals:         0       0       0       0       0
  3884 ;;      Temps:          0       0       0       0       0
  3885 ;;      Totals:         0       8       0       0       0
  3886 ;;Total ram usage:        8 bytes
  3887 ;; Hardware stack levels used:    1
  3888 ;; Hardware stack levels required when called:    2
  3889 ;; This function calls:
  3890 ;;		___fladd
  3891 ;; This function is called by:
  3892 ;;		_Resistance_Value
  3893 ;;		_conversion_newton
  3894 ;; This function uses a non-reentrant model
  3895 ;;
  3896                           
  3897                           
  3898                           ;psect for function ___flsub
  3899  1B6D                     ___flsub:
  3900  1B6D                     l2013:	
  3901                           ;incstack = 0
  3902                           ; Regs used in ___flsub: [wreg+status,2+status,0+btemp+1+pclath+cstack]
  3903                           
  3904  1B6D  3080               	movlw	128
  3905  1B6E  1283               	bcf	3,5	;RP0=0, select bank0
  3906  1B6F  1303               	bcf	3,6	;RP1=0, select bank0
  3907  1B70  06D7               	xorwf	___flsub@a+3,f
  3908  1B71                     l2015:
  3909  1B71  085B               	movf	___flsub@b+3,w
  3910  1B72  00C3               	movwf	___fladd@b+3
  3911  1B73  085A               	movf	___flsub@b+2,w
  3912  1B74  00C2               	movwf	___fladd@b+2
  3913  1B75  0859               	movf	___flsub@b+1,w
  3914  1B76  00C1               	movwf	___fladd@b+1
  3915  1B77  0858               	movf	___flsub@b,w
  3916  1B78  00C0               	movwf	___fladd@b
  3917  1B79  0857               	movf	___flsub@a+3,w
  3918  1B7A  00C7               	movwf	___fladd@a+3
  3919  1B7B  0856               	movf	___flsub@a+2,w
  3920  1B7C  00C6               	movwf	___fladd@a+2
  3921  1B7D  0855               	movf	___flsub@a+1,w
  3922  1B7E  00C5               	movwf	___fladd@a+1
  3923  1B7F  0854               	movf	___flsub@a,w
  3924  1B80  00C4               	movwf	___fladd@a
  3925  1B81  160A  118A  2578  160A  158A  	fcall	___fladd
  3926  1B86  1283               	bcf	3,5	;RP0=0, select bank0
  3927  1B87  1303               	bcf	3,6	;RP1=0, select bank0
  3928  1B88  0843               	movf	?___fladd+3,w
  3929  1B89  00D7               	movwf	?___flsub+3
  3930  1B8A  0842               	movf	?___fladd+2,w
  3931  1B8B  00D6               	movwf	?___flsub+2
  3932  1B8C  0841               	movf	?___fladd+1,w
  3933  1B8D  00D5               	movwf	?___flsub+1
  3934  1B8E  0840               	movf	?___fladd,w
  3935  1B8F  00D4               	movwf	?___flsub
  3936  1B90                     l596:
  3937  1B90  0008               	return
  3938  1B91                     __end_of___flsub:
  3939                           
  3940                           	psect	text14
  3941  1578                     __ptext14:	
  3942 ;; *************** function ___fladd *****************
  3943 ;; Defined at:
  3944 ;;		line 10 in file "C:\Program Files\Microchip\xc8\v2.20\pic\sources\c90\common\sprcadd.c"
  3945 ;; Parameters:    Size  Location     Type
  3946 ;;  b               4   32[BANK0 ] unsigned char 
  3947 ;;  a               4   36[BANK0 ] unsigned char 
  3948 ;; Auto vars:     Size  Location     Type
  3949 ;;  grs             1   51[BANK0 ] unsigned char 
  3950 ;;  bexp            1   50[BANK0 ] unsigned char 
  3951 ;;  aexp            1   49[BANK0 ] unsigned char 
  3952 ;;  signs           1   48[BANK0 ] unsigned char 
  3953 ;; Return value:  Size  Location     Type
  3954 ;;                  4   32[BANK0 ] unsigned char 
  3955 ;; Registers used:
  3956 ;;		wreg, status,2, status,0, btemp+1
  3957 ;; Tracked objects:
  3958 ;;		On entry : 0/0
  3959 ;;		On exit  : 0/0
  3960 ;;		Unchanged: 0/0
  3961 ;; Data sizes:     COMMON   BANK0   BANK1   BANK3   BANK2
  3962 ;;      Params:         0       8       0       0       0
  3963 ;;      Locals:         0       4       0       0       0
  3964 ;;      Temps:          0       8       0       0       0
  3965 ;;      Totals:         0      20       0       0       0
  3966 ;;Total ram usage:       20 bytes
  3967 ;; Hardware stack levels used:    1
  3968 ;; Hardware stack levels required when called:    1
  3969 ;; This function calls:
  3970 ;;		Nothing
  3971 ;; This function is called by:
  3972 ;;		_Get_Better_Newton_Value
  3973 ;;		_conversion_newton
  3974 ;;		___flsub
  3975 ;; This function uses a non-reentrant model
  3976 ;;
  3977                           
  3978                           
  3979                           ;psect for function ___fladd
  3980  1578                     ___fladd:
  3981  1578                     l1767:	
  3982                           ;incstack = 0
  3983                           ; Regs used in ___fladd: [wreg+status,2+status,0+btemp+1]
  3984                           
  3985  1578  1283               	bcf	3,5	;RP0=0, select bank0
  3986  1579  1303               	bcf	3,6	;RP1=0, select bank0
  3987  157A  0843               	movf	___fladd@b+3,w
  3988  157B  3980               	andlw	128
  3989  157C  00FF               	movwf	btemp+1
  3990  157D  087F               	movf	btemp+1,w
  3991  157E  00D0               	movwf	___fladd@signs
  3992  157F                     l1769:
  3993  157F  0843               	movf	___fladd@b+3,w
  3994  1580  00C8               	movwf	??___fladd
  3995  1581  0748               	addwf	??___fladd,w
  3996  1582  00FF               	movwf	btemp+1
  3997  1583  087F               	movf	btemp+1,w
  3998  1584  00D2               	movwf	___fladd@bexp
  3999  1585                     l1771:
  4000  1585  1FC2               	btfss	___fladd@b+2,7
  4001  1586  2D88               	goto	u2041
  4002  1587  2D89               	goto	u2040
  4003  1588                     u2041:
  4004  1588  2D8A               	goto	l1775
  4005  1589                     u2040:
  4006  1589                     l1773:
  4007  1589  1452               	bsf	___fladd@bexp,0
  4008  158A                     l1775:
  4009  158A  0852               	movf	___fladd@bexp,w
  4010  158B  1903               	btfsc	3,2
  4011  158C  2D8E               	goto	u2051
  4012  158D  2D8F               	goto	u2050
  4013  158E                     u2051:
  4014  158E  2D9F               	goto	l1785
  4015  158F                     u2050:
  4016  158F                     l1777:
  4017  158F  0A52               	incf	___fladd@bexp,w
  4018  1590  1D03               	btfss	3,2
  4019  1591  2D93               	goto	u2061
  4020  1592  2D94               	goto	u2060
  4021  1593                     u2061:
  4022  1593  2D9C               	goto	l1781
  4023  1594                     u2060:
  4024  1594                     l1779:
  4025  1594  3000               	movlw	0
  4026  1595  00C3               	movwf	___fladd@b+3
  4027  1596  3000               	movlw	0
  4028  1597  00C2               	movwf	___fladd@b+2
  4029  1598  3000               	movlw	0
  4030  1599  00C1               	movwf	___fladd@b+1
  4031  159A  3000               	movlw	0
  4032  159B  00C0               	movwf	___fladd@b
  4033  159C                     l1781:
  4034  159C  17C2               	bsf	___fladd@b+2,7
  4035  159D                     l1783:
  4036  159D  01C3               	clrf	___fladd@b+3
  4037  159E  2DA7               	goto	l1787
  4038  159F                     l1785:
  4039  159F  3000               	movlw	0
  4040  15A0  00C3               	movwf	___fladd@b+3
  4041  15A1  3000               	movlw	0
  4042  15A2  00C2               	movwf	___fladd@b+2
  4043  15A3  3000               	movlw	0
  4044  15A4  00C1               	movwf	___fladd@b+1
  4045  15A5  3000               	movlw	0
  4046  15A6  00C0               	movwf	___fladd@b
  4047  15A7                     l1787:
  4048  15A7  0847               	movf	___fladd@a+3,w
  4049  15A8  3980               	andlw	128
  4050  15A9  00FF               	movwf	btemp+1
  4051  15AA  087F               	movf	btemp+1,w
  4052  15AB  00D1               	movwf	___fladd@aexp
  4053  15AC                     l1789:
  4054  15AC  0851               	movf	___fladd@aexp,w
  4055  15AD  0650               	xorwf	___fladd@signs,w
  4056  15AE  1903               	skipnz
  4057  15AF  2DB1               	goto	u2071
  4058  15B0  2DB2               	goto	u2070
  4059  15B1                     u2071:
  4060  15B1  2DB3               	goto	l1793
  4061  15B2                     u2070:
  4062  15B2                     l1791:
  4063  15B2  1750               	bsf	___fladd@signs,6
  4064  15B3                     l1793:
  4065  15B3  0847               	movf	___fladd@a+3,w
  4066  15B4  00C8               	movwf	??___fladd
  4067  15B5  0748               	addwf	??___fladd,w
  4068  15B6  00FF               	movwf	btemp+1
  4069  15B7  087F               	movf	btemp+1,w
  4070  15B8  00D1               	movwf	___fladd@aexp
  4071  15B9                     l1795:
  4072  15B9  1FC6               	btfss	___fladd@a+2,7
  4073  15BA  2DBC               	goto	u2081
  4074  15BB  2DBD               	goto	u2080
  4075  15BC                     u2081:
  4076  15BC  2DBE               	goto	l1799
  4077  15BD                     u2080:
  4078  15BD                     l1797:
  4079  15BD  1451               	bsf	___fladd@aexp,0
  4080  15BE                     l1799:
  4081  15BE  0851               	movf	___fladd@aexp,w
  4082  15BF  1903               	btfsc	3,2
  4083  15C0  2DC2               	goto	u2091
  4084  15C1  2DC3               	goto	u2090
  4085  15C2                     u2091:
  4086  15C2  2DD3               	goto	l1809
  4087  15C3                     u2090:
  4088  15C3                     l1801:
  4089  15C3  0A51               	incf	___fladd@aexp,w
  4090  15C4  1D03               	btfss	3,2
  4091  15C5  2DC7               	goto	u2101
  4092  15C6  2DC8               	goto	u2100
  4093  15C7                     u2101:
  4094  15C7  2DD0               	goto	l1805
  4095  15C8                     u2100:
  4096  15C8                     l1803:
  4097  15C8  3000               	movlw	0
  4098  15C9  00C7               	movwf	___fladd@a+3
  4099  15CA  3000               	movlw	0
  4100  15CB  00C6               	movwf	___fladd@a+2
  4101  15CC  3000               	movlw	0
  4102  15CD  00C5               	movwf	___fladd@a+1
  4103  15CE  3000               	movlw	0
  4104  15CF  00C4               	movwf	___fladd@a
  4105  15D0                     l1805:
  4106  15D0  17C6               	bsf	___fladd@a+2,7
  4107  15D1                     l1807:
  4108  15D1  01C7               	clrf	___fladd@a+3
  4109  15D2  2DDB               	goto	l550
  4110  15D3                     l1809:
  4111  15D3  3000               	movlw	0
  4112  15D4  00C7               	movwf	___fladd@a+3
  4113  15D5  3000               	movlw	0
  4114  15D6  00C6               	movwf	___fladd@a+2
  4115  15D7  3000               	movlw	0
  4116  15D8  00C5               	movwf	___fladd@a+1
  4117  15D9  3000               	movlw	0
  4118  15DA  00C4               	movwf	___fladd@a
  4119  15DB                     l550:
  4120  15DB  0852               	movf	___fladd@bexp,w
  4121  15DC  0251               	subwf	___fladd@aexp,w
  4122  15DD  1803               	skipnc
  4123  15DE  2DE0               	goto	u2111
  4124  15DF  2DE1               	goto	u2110
  4125  15E0                     u2111:
  4126  15E0  2E25               	goto	l1845
  4127  15E1                     u2110:
  4128  15E1                     l1811:
  4129  15E1  1F50               	btfss	___fladd@signs,6
  4130  15E2  2DE4               	goto	u2121
  4131  15E3  2DE5               	goto	u2120
  4132  15E4                     u2121:
  4133  15E4  2DE9               	goto	l1815
  4134  15E5                     u2120:
  4135  15E5                     l1813:
  4136  15E5  3080               	movlw	128
  4137  15E6  00FF               	movwf	btemp+1
  4138  15E7  087F               	movf	btemp+1,w
  4139  15E8  06D0               	xorwf	___fladd@signs,f
  4140  15E9                     l1815:
  4141  15E9  0852               	movf	___fladd@bexp,w
  4142  15EA  00FF               	movwf	btemp+1
  4143  15EB  087F               	movf	btemp+1,w
  4144  15EC  00D3               	movwf	___fladd@grs
  4145  15ED                     l1817:
  4146  15ED  0851               	movf	___fladd@aexp,w
  4147  15EE  00FF               	movwf	btemp+1
  4148  15EF  087F               	movf	btemp+1,w
  4149  15F0  00D2               	movwf	___fladd@bexp
  4150  15F1                     l1819:
  4151  15F1  0853               	movf	___fladd@grs,w
  4152  15F2  00FF               	movwf	btemp+1
  4153  15F3  087F               	movf	btemp+1,w
  4154  15F4  00D1               	movwf	___fladd@aexp
  4155  15F5                     l1821:
  4156  15F5  0840               	movf	___fladd@b,w
  4157  15F6  00FF               	movwf	btemp+1
  4158  15F7  087F               	movf	btemp+1,w
  4159  15F8  00D3               	movwf	___fladd@grs
  4160  15F9                     l1823:
  4161  15F9  0844               	movf	___fladd@a,w
  4162  15FA  00FF               	movwf	btemp+1
  4163  15FB  087F               	movf	btemp+1,w
  4164  15FC  00C0               	movwf	___fladd@b
  4165  15FD                     l1825:
  4166  15FD  0853               	movf	___fladd@grs,w
  4167  15FE  00FF               	movwf	btemp+1
  4168  15FF  087F               	movf	btemp+1,w
  4169  1600  00C4               	movwf	___fladd@a
  4170  1601                     l1827:
  4171  1601  0841               	movf	___fladd@b+1,w
  4172  1602  00FF               	movwf	btemp+1
  4173  1603  087F               	movf	btemp+1,w
  4174  1604  00D3               	movwf	___fladd@grs
  4175  1605                     l1829:
  4176  1605  0845               	movf	___fladd@a+1,w
  4177  1606  00FF               	movwf	btemp+1
  4178  1607  087F               	movf	btemp+1,w
  4179  1608  00C1               	movwf	___fladd@b+1
  4180  1609                     l1831:
  4181  1609  0853               	movf	___fladd@grs,w
  4182  160A  00FF               	movwf	btemp+1
  4183  160B  087F               	movf	btemp+1,w
  4184  160C  00C5               	movwf	___fladd@a+1
  4185  160D                     l1833:
  4186  160D  0842               	movf	___fladd@b+2,w
  4187  160E  00FF               	movwf	btemp+1
  4188  160F  087F               	movf	btemp+1,w
  4189  1610  00D3               	movwf	___fladd@grs
  4190  1611                     l1835:
  4191  1611  0846               	movf	___fladd@a+2,w
  4192  1612  00FF               	movwf	btemp+1
  4193  1613  087F               	movf	btemp+1,w
  4194  1614  00C2               	movwf	___fladd@b+2
  4195  1615                     l1837:
  4196  1615  0853               	movf	___fladd@grs,w
  4197  1616  00FF               	movwf	btemp+1
  4198  1617  087F               	movf	btemp+1,w
  4199  1618  00C6               	movwf	___fladd@a+2
  4200  1619                     l1839:
  4201  1619  0843               	movf	___fladd@b+3,w
  4202  161A  00FF               	movwf	btemp+1
  4203  161B  087F               	movf	btemp+1,w
  4204  161C  00D3               	movwf	___fladd@grs
  4205  161D                     l1841:
  4206  161D  0847               	movf	___fladd@a+3,w
  4207  161E  00FF               	movwf	btemp+1
  4208  161F  087F               	movf	btemp+1,w
  4209  1620  00C3               	movwf	___fladd@b+3
  4210  1621                     l1843:
  4211  1621  0853               	movf	___fladd@grs,w
  4212  1622  00FF               	movwf	btemp+1
  4213  1623  087F               	movf	btemp+1,w
  4214  1624  00C7               	movwf	___fladd@a+3
  4215  1625                     l1845:
  4216  1625  01D3               	clrf	___fladd@grs
  4217  1626                     l1847:
  4218  1626  0851               	movf	___fladd@aexp,w
  4219  1627  00C8               	movwf	??___fladd
  4220  1628  01C9               	clrf	??___fladd+1
  4221  1629  0849               	movf	??___fladd+1,w
  4222  162A  00CB               	movwf	??___fladd+3
  4223  162B  0852               	movf	___fladd@bexp,w
  4224  162C  0248               	subwf	??___fladd,w
  4225  162D  00CA               	movwf	??___fladd+2
  4226  162E  1C03               	skipc
  4227  162F  03CB               	decf	??___fladd+3,f
  4228  1630  084B               	movf	??___fladd+3,w
  4229  1631  3A80               	xorlw	128
  4230  1632  00FF               	movwf	btemp+1
  4231  1633  3080               	movlw	128
  4232  1634  027F               	subwf	btemp+1,w
  4233  1635  1D03               	skipz
  4234  1636  2E39               	goto	u2135
  4235  1637  301A               	movlw	26
  4236  1638  024A               	subwf	??___fladd+2,w
  4237  1639                     u2135:
  4238  1639  1C03               	skipc
  4239  163A  2E3C               	goto	u2131
  4240  163B  2E3D               	goto	u2130
  4241  163C                     u2131:
  4242  163C  2E7A               	goto	l1867
  4243  163D                     u2130:
  4244  163D                     l1849:
  4245  163D  1283               	bcf	3,5	;RP0=0, select bank0
  4246  163E  1303               	bcf	3,6	;RP1=0, select bank0
  4247  163F  0843               	movf	___fladd@b+3,w
  4248  1640  0442               	iorwf	___fladd@b+2,w
  4249  1641  0441               	iorwf	___fladd@b+1,w
  4250  1642  0440               	iorwf	___fladd@b,w
  4251  1643  1D03               	skipz
  4252  1644  2E46               	goto	u2141
  4253  1645  2E48               	goto	u2140
  4254  1646                     u2141:
  4255  1646  3001               	movlw	1
  4256  1647  2E49               	goto	u2150
  4257  1648                     u2140:
  4258  1648  3000               	movlw	0
  4259  1649                     u2150:
  4260  1649  00FF               	movwf	btemp+1
  4261  164A  087F               	movf	btemp+1,w
  4262  164B  00D3               	movwf	___fladd@grs
  4263  164C                     l1851:
  4264  164C  3000               	movlw	0
  4265  164D  00C3               	movwf	___fladd@b+3
  4266  164E  3000               	movlw	0
  4267  164F  00C2               	movwf	___fladd@b+2
  4268  1650  3000               	movlw	0
  4269  1651  00C1               	movwf	___fladd@b+1
  4270  1652  3000               	movlw	0
  4271  1653  00C0               	movwf	___fladd@b
  4272  1654                     l1853:
  4273  1654  0851               	movf	___fladd@aexp,w
  4274  1655  00FF               	movwf	btemp+1
  4275  1656  087F               	movf	btemp+1,w
  4276  1657  00D2               	movwf	___fladd@bexp
  4277  1658  2E82               	goto	l554
  4278  1659                     l556:
  4279  1659  1C53               	btfss	___fladd@grs,0
  4280  165A  2E5C               	goto	u2161
  4281  165B  2E5D               	goto	u2160
  4282  165C                     u2161:
  4283  165C  2E66               	goto	l1857
  4284  165D                     u2160:
  4285  165D                     l1855:
  4286  165D  0853               	movf	___fladd@grs,w
  4287  165E  00C8               	movwf	??___fladd
  4288  165F  1003               	clrc
  4289  1660  0C48               	rrf	??___fladd,w
  4290  1661  3801               	iorlw	1
  4291  1662  00FF               	movwf	btemp+1
  4292  1663  087F               	movf	btemp+1,w
  4293  1664  00D3               	movwf	___fladd@grs
  4294  1665  2E68               	goto	l1859
  4295  1666                     l1857:
  4296  1666  1003               	clrc
  4297  1667  0CD3               	rrf	___fladd@grs,f
  4298  1668                     l1859:
  4299  1668  1C40               	btfss	___fladd@b,0
  4300  1669  2E6B               	goto	u2171
  4301  166A  2E6C               	goto	u2170
  4302  166B                     u2171:
  4303  166B  2E6D               	goto	l1863
  4304  166C                     u2170:
  4305  166C                     l1861:
  4306  166C  17D3               	bsf	___fladd@grs,7
  4307  166D                     l1863:
  4308  166D  3001               	movlw	1
  4309  166E  00C8               	movwf	??___fladd
  4310  166F                     u2185:
  4311  166F  0D43               	rlf	___fladd@b+3,w
  4312  1670  0CC3               	rrf	___fladd@b+3,f
  4313  1671  0CC2               	rrf	___fladd@b+2,f
  4314  1672  0CC1               	rrf	___fladd@b+1,f
  4315  1673  0CC0               	rrf	___fladd@b,f
  4316  1674  0BC8               	decfsz	??___fladd& (0+127),f
  4317  1675  2E6F               	goto	u2185
  4318  1676                     l1865:
  4319  1676  3001               	movlw	1
  4320  1677  00FF               	movwf	btemp+1
  4321  1678  087F               	movf	btemp+1,w
  4322  1679  07D2               	addwf	___fladd@bexp,f
  4323  167A                     l1867:
  4324  167A  1283               	bcf	3,5	;RP0=0, select bank0
  4325  167B  1303               	bcf	3,6	;RP1=0, select bank0
  4326  167C  0851               	movf	___fladd@aexp,w
  4327  167D  0252               	subwf	___fladd@bexp,w
  4328  167E  1C03               	skipc
  4329  167F  2E81               	goto	u2191
  4330  1680  2E82               	goto	u2190
  4331  1681                     u2191:
  4332  1681  2E59               	goto	l556
  4333  1682                     u2190:
  4334  1682                     l554:
  4335  1682  1B50               	btfsc	___fladd@signs,6
  4336  1683  2E85               	goto	u2201
  4337  1684  2E86               	goto	u2200
  4338  1685                     u2201:
  4339  1685  2ED1               	goto	l1893
  4340  1686                     u2200:
  4341  1686                     l1869:
  4342  1686  0852               	movf	___fladd@bexp,w
  4343  1687  1D03               	btfss	3,2
  4344  1688  2E8A               	goto	u2211
  4345  1689  2E8B               	goto	u2210
  4346  168A                     u2211:
  4347  168A  2E94               	goto	l1875
  4348  168B                     u2210:
  4349  168B                     l1871:
  4350  168B  3000               	movlw	0
  4351  168C  00C3               	movwf	?___fladd+3
  4352  168D  3000               	movlw	0
  4353  168E  00C2               	movwf	?___fladd+2
  4354  168F  3000               	movlw	0
  4355  1690  00C1               	movwf	?___fladd+1
  4356  1691  3000               	movlw	0
  4357  1692  00C0               	movwf	?___fladd
  4358  1693  2FFF               	goto	l563
  4359  1694                     l1875:
  4360  1694  0844               	movf	___fladd@a,w
  4361  1695  07C0               	addwf	___fladd@b,f
  4362  1696  0845               	movf	___fladd@a+1,w
  4363  1697  1103               	clrz
  4364  1698  1803               	skipnc
  4365  1699  3E01               	addlw	1
  4366  169A  1903               	skipnz
  4367  169B  2E9D               	goto	u2221
  4368  169C  07C1               	addwf	___fladd@b+1,f
  4369  169D                     u2221:
  4370  169D  0846               	movf	___fladd@a+2,w
  4371  169E  1103               	clrz
  4372  169F  1803               	skipnc
  4373  16A0  3E01               	addlw	1
  4374  16A1  1903               	skipnz
  4375  16A2  2EA4               	goto	u2222
  4376  16A3  07C2               	addwf	___fladd@b+2,f
  4377  16A4                     u2222:
  4378  16A4  0847               	movf	___fladd@a+3,w
  4379  16A5  1103               	clrz
  4380  16A6  1803               	skipnc
  4381  16A7  3E01               	addlw	1
  4382  16A8  1903               	skipnz
  4383  16A9  2EAB               	goto	u2223
  4384  16AA  07C3               	addwf	___fladd@b+3,f
  4385  16AB                     u2223:
  4386  16AB                     l1877:
  4387  16AB  1C43               	btfss	___fladd@b+3,0
  4388  16AC  2EAE               	goto	u2231
  4389  16AD  2EAF               	goto	u2230
  4390  16AE                     u2231:
  4391  16AE  2F85               	goto	l1929
  4392  16AF                     u2230:
  4393  16AF                     l1879:
  4394  16AF  1C53               	btfss	___fladd@grs,0
  4395  16B0  2EB2               	goto	u2241
  4396  16B1  2EB3               	goto	u2240
  4397  16B2                     u2241:
  4398  16B2  2EBC               	goto	l1883
  4399  16B3                     u2240:
  4400  16B3                     l1881:
  4401  16B3  0853               	movf	___fladd@grs,w
  4402  16B4  00C8               	movwf	??___fladd
  4403  16B5  1003               	clrc
  4404  16B6  0C48               	rrf	??___fladd,w
  4405  16B7  3801               	iorlw	1
  4406  16B8  00FF               	movwf	btemp+1
  4407  16B9  087F               	movf	btemp+1,w
  4408  16BA  00D3               	movwf	___fladd@grs
  4409  16BB  2EBE               	goto	l1885
  4410  16BC                     l1883:
  4411  16BC  1003               	clrc
  4412  16BD  0CD3               	rrf	___fladd@grs,f
  4413  16BE                     l1885:
  4414  16BE  1C40               	btfss	___fladd@b,0
  4415  16BF  2EC1               	goto	u2251
  4416  16C0  2EC2               	goto	u2250
  4417  16C1                     u2251:
  4418  16C1  2EC3               	goto	l1889
  4419  16C2                     u2250:
  4420  16C2                     l1887:
  4421  16C2  17D3               	bsf	___fladd@grs,7
  4422  16C3                     l1889:
  4423  16C3  3001               	movlw	1
  4424  16C4  00C8               	movwf	??___fladd
  4425  16C5                     u2265:
  4426  16C5  0D43               	rlf	___fladd@b+3,w
  4427  16C6  0CC3               	rrf	___fladd@b+3,f
  4428  16C7  0CC2               	rrf	___fladd@b+2,f
  4429  16C8  0CC1               	rrf	___fladd@b+1,f
  4430  16C9  0CC0               	rrf	___fladd@b,f
  4431  16CA  0BC8               	decfsz	??___fladd& (0+127),f
  4432  16CB  2EC5               	goto	u2265
  4433  16CC                     l1891:
  4434  16CC  3001               	movlw	1
  4435  16CD  00FF               	movwf	btemp+1
  4436  16CE  087F               	movf	btemp+1,w
  4437  16CF  07D2               	addwf	___fladd@bexp,f
  4438  16D0  2F85               	goto	l1929
  4439  16D1                     l1893:
  4440  16D1  0843               	movf	___fladd@b+3,w
  4441  16D2  3A80               	xorlw	128
  4442  16D3  00FF               	movwf	btemp+1
  4443  16D4  0847               	movf	___fladd@a+3,w
  4444  16D5  3A80               	xorlw	128
  4445  16D6  027F               	subwf	btemp+1,w
  4446  16D7  1D03               	skipz
  4447  16D8  2EE3               	goto	u2273
  4448  16D9  0846               	movf	___fladd@a+2,w
  4449  16DA  0242               	subwf	___fladd@b+2,w
  4450  16DB  1D03               	skipz
  4451  16DC  2EE3               	goto	u2273
  4452  16DD  0845               	movf	___fladd@a+1,w
  4453  16DE  0241               	subwf	___fladd@b+1,w
  4454  16DF  1D03               	skipz
  4455  16E0  2EE3               	goto	u2273
  4456  16E1  0844               	movf	___fladd@a,w
  4457  16E2  0240               	subwf	___fladd@b,w
  4458  16E3                     u2273:
  4459  16E3  1803               	skipnc
  4460  16E4  2EE6               	goto	u2271
  4461  16E5  2EE7               	goto	u2270
  4462  16E6                     u2271:
  4463  16E6  2F3F               	goto	l1905
  4464  16E7                     u2270:
  4465  16E7                     l1895:
  4466  16E7  30FF               	movlw	255
  4467  16E8  00C8               	movwf	??___fladd
  4468  16E9  30FF               	movlw	255
  4469  16EA  00C9               	movwf	??___fladd+1
  4470  16EB  30FF               	movlw	255
  4471  16EC  00CA               	movwf	??___fladd+2
  4472  16ED  30FF               	movlw	255
  4473  16EE  00CB               	movwf	??___fladd+3
  4474  16EF  0844               	movf	___fladd@a,w
  4475  16F0  00CC               	movwf	??___fladd+4
  4476  16F1  0845               	movf	___fladd@a+1,w
  4477  16F2  00CD               	movwf	??___fladd+5
  4478  16F3  0846               	movf	___fladd@a+2,w
  4479  16F4  00CE               	movwf	??___fladd+6
  4480  16F5  0847               	movf	___fladd@a+3,w
  4481  16F6  00CF               	movwf	??___fladd+7
  4482  16F7  0840               	movf	___fladd@b,w
  4483  16F8  02CC               	subwf	??___fladd+4,f
  4484  16F9  0841               	movf	___fladd@b+1,w
  4485  16FA  1C03               	skipc
  4486  16FB  0F41               	incfsz	___fladd@b+1,w
  4487  16FC  2EFE               	goto	u2281
  4488  16FD  2EFF               	goto	u2282
  4489  16FE                     u2281:
  4490  16FE  02CD               	subwf	??___fladd+5,f
  4491  16FF                     u2282:
  4492  16FF  0842               	movf	___fladd@b+2,w
  4493  1700  1C03               	skipc
  4494  1701  0F42               	incfsz	___fladd@b+2,w
  4495  1702  2F04               	goto	u2283
  4496  1703  2F05               	goto	u2284
  4497  1704                     u2283:
  4498  1704  02CE               	subwf	??___fladd+6,f
  4499  1705                     u2284:
  4500  1705  0843               	movf	___fladd@b+3,w
  4501  1706  1C03               	skipc
  4502  1707  0F43               	incfsz	___fladd@b+3,w
  4503  1708  2F0A               	goto	u2285
  4504  1709  2F0B               	goto	u2286
  4505  170A                     u2285:
  4506  170A  02CF               	subwf	??___fladd+7,f
  4507  170B                     u2286:
  4508  170B  084C               	movf	??___fladd+4,w
  4509  170C  07C8               	addwf	??___fladd,f
  4510  170D  084D               	movf	??___fladd+5,w
  4511  170E  1803               	skipnc
  4512  170F  0F4D               	incfsz	??___fladd+5,w
  4513  1710  2F12               	goto	u2290
  4514  1711  2F13               	goto	u2291
  4515  1712                     u2290:
  4516  1712  07C9               	addwf	??___fladd+1,f
  4517  1713                     u2291:
  4518  1713  084E               	movf	??___fladd+6,w
  4519  1714  1803               	skipnc
  4520  1715  0F4E               	incfsz	??___fladd+6,w
  4521  1716  2F18               	goto	u2292
  4522  1717  2F19               	goto	u2293
  4523  1718                     u2292:
  4524  1718  07CA               	addwf	??___fladd+2,f
  4525  1719                     u2293:
  4526  1719  084F               	movf	??___fladd+7,w
  4527  171A  1803               	skipnc
  4528  171B  0A4F               	incf	??___fladd+7,w
  4529  171C  07CB               	addwf	??___fladd+3,f
  4530  171D  084B               	movf	??___fladd+3,w
  4531  171E  00C3               	movwf	___fladd@b+3
  4532  171F  084A               	movf	??___fladd+2,w
  4533  1720  00C2               	movwf	___fladd@b+2
  4534  1721  0849               	movf	??___fladd+1,w
  4535  1722  00C1               	movwf	___fladd@b+1
  4536  1723  0848               	movf	??___fladd,w
  4537  1724  00C0               	movwf	___fladd@b
  4538  1725                     l1897:
  4539  1725  3080               	movlw	128
  4540  1726  00FF               	movwf	btemp+1
  4541  1727  087F               	movf	btemp+1,w
  4542  1728  06D0               	xorwf	___fladd@signs,f
  4543  1729                     l1899:
  4544  1729  09D3               	comf	___fladd@grs,f
  4545  172A  0AD3               	incf	___fladd@grs,f
  4546  172B                     l1901:
  4547  172B  0853               	movf	___fladd@grs,w
  4548  172C  1D03               	btfss	3,2
  4549  172D  2F2F               	goto	u2301
  4550  172E  2F30               	goto	u2300
  4551  172F                     u2301:
  4552  172F  2F4D               	goto	l571
  4553  1730                     u2300:
  4554  1730                     l1903:
  4555  1730  3001               	movlw	1
  4556  1731  07C0               	addwf	___fladd@b,f
  4557  1732  3000               	movlw	0
  4558  1733  1803               	skipnc
  4559  1734  3001               	movlw	1
  4560  1735  07C1               	addwf	___fladd@b+1,f
  4561  1736  3000               	movlw	0
  4562  1737  1803               	skipnc
  4563  1738  3001               	movlw	1
  4564  1739  07C2               	addwf	___fladd@b+2,f
  4565  173A  3000               	movlw	0
  4566  173B  1803               	skipnc
  4567  173C  3001               	movlw	1
  4568  173D  07C3               	addwf	___fladd@b+3,f
  4569  173E  2F4D               	goto	l571
  4570  173F                     l1905:
  4571  173F  0844               	movf	___fladd@a,w
  4572  1740  02C0               	subwf	___fladd@b,f
  4573  1741  0845               	movf	___fladd@a+1,w
  4574  1742  1C03               	skipc
  4575  1743  0F45               	incfsz	___fladd@a+1,w
  4576  1744  02C1               	subwf	___fladd@b+1,f
  4577  1745  0846               	movf	___fladd@a+2,w
  4578  1746  1C03               	skipc
  4579  1747  0F46               	incfsz	___fladd@a+2,w
  4580  1748  02C2               	subwf	___fladd@b+2,f
  4581  1749  0847               	movf	___fladd@a+3,w
  4582  174A  1C03               	skipc
  4583  174B  0F47               	incfsz	___fladd@a+3,w
  4584  174C  02C3               	subwf	___fladd@b+3,f
  4585  174D                     l571:
  4586  174D  0843               	movf	___fladd@b+3,w
  4587  174E  0442               	iorwf	___fladd@b+2,w
  4588  174F  0441               	iorwf	___fladd@b+1,w
  4589  1750  0440               	iorwf	___fladd@b,w
  4590  1751  1D03               	skipz
  4591  1752  2F54               	goto	u2311
  4592  1753  2F55               	goto	u2310
  4593  1754                     u2311:
  4594  1754  2F81               	goto	l1927
  4595  1755                     u2310:
  4596  1755                     l1907:
  4597  1755  0853               	movf	___fladd@grs,w
  4598  1756  1D03               	btfss	3,2
  4599  1757  2F59               	goto	u2321
  4600  1758  2F5A               	goto	u2320
  4601  1759                     u2321:
  4602  1759  2F81               	goto	l1927
  4603  175A                     u2320:
  4604  175A                     l1909:
  4605  175A  3000               	movlw	0
  4606  175B  00C3               	movwf	?___fladd+3
  4607  175C  3000               	movlw	0
  4608  175D  00C2               	movwf	?___fladd+2
  4609  175E  3000               	movlw	0
  4610  175F  00C1               	movwf	?___fladd+1
  4611  1760  3000               	movlw	0
  4612  1761  00C0               	movwf	?___fladd
  4613  1762  2FFF               	goto	l563
  4614  1763                     l1913:
  4615  1763  3001               	movlw	1
  4616  1764  00C8               	movwf	??___fladd
  4617  1765                     u2335:
  4618  1765  1003               	clrc
  4619  1766  0DC0               	rlf	___fladd@b,f
  4620  1767  0DC1               	rlf	___fladd@b+1,f
  4621  1768  0DC2               	rlf	___fladd@b+2,f
  4622  1769  0DC3               	rlf	___fladd@b+3,f
  4623  176A  0BC8               	decfsz	??___fladd,f
  4624  176B  2F65               	goto	u2335
  4625  176C                     l1915:
  4626  176C  1FD3               	btfss	___fladd@grs,7
  4627  176D  2F6F               	goto	u2341
  4628  176E  2F70               	goto	u2340
  4629  176F                     u2341:
  4630  176F  2F71               	goto	l575
  4631  1770                     u2340:
  4632  1770                     l1917:
  4633  1770  1440               	bsf	___fladd@b,0
  4634  1771                     l575:
  4635  1771  1C53               	btfss	___fladd@grs,0
  4636  1772  2F74               	goto	u2351
  4637  1773  2F75               	goto	u2350
  4638  1774                     u2351:
  4639  1774  2F78               	goto	l1921
  4640  1775                     u2350:
  4641  1775                     l1919:
  4642  1775  1403               	setc
  4643  1776  0DD3               	rlf	___fladd@grs,f
  4644  1777  2F7A               	goto	l1923
  4645  1778                     l1921:
  4646  1778  1003               	clrc
  4647  1779  0DD3               	rlf	___fladd@grs,f
  4648  177A                     l1923:
  4649  177A  0852               	movf	___fladd@bexp,w
  4650  177B  1903               	btfsc	3,2
  4651  177C  2F7E               	goto	u2361
  4652  177D  2F7F               	goto	u2360
  4653  177E                     u2361:
  4654  177E  2F81               	goto	l1927
  4655  177F                     u2360:
  4656  177F                     l1925:
  4657  177F  3001               	movlw	1
  4658  1780  02D2               	subwf	___fladd@bexp,f
  4659  1781                     l1927:
  4660  1781  1FC2               	btfss	___fladd@b+2,7
  4661  1782  2F84               	goto	u2371
  4662  1783  2F85               	goto	u2370
  4663  1784                     u2371:
  4664  1784  2F63               	goto	l1913
  4665  1785                     u2370:
  4666  1785                     l1929:
  4667  1785  01D1               	clrf	___fladd@aexp
  4668  1786                     l1931:
  4669  1786  1FD3               	btfss	___fladd@grs,7
  4670  1787  2F89               	goto	u2381
  4671  1788  2F8A               	goto	u2380
  4672  1789                     u2381:
  4673  1789  2F98               	goto	l1939
  4674  178A                     u2380:
  4675  178A                     l1933:
  4676  178A  0853               	movf	___fladd@grs,w
  4677  178B  397F               	andlw	127
  4678  178C  1903               	btfsc	3,2
  4679  178D  2F8F               	goto	u2391
  4680  178E  2F90               	goto	u2390
  4681  178F                     u2391:
  4682  178F  2F93               	goto	l581
  4683  1790                     u2390:
  4684  1790                     l1935:
  4685  1790  01D1               	clrf	___fladd@aexp
  4686  1791  0AD1               	incf	___fladd@aexp,f
  4687  1792  2F98               	goto	l1939
  4688  1793                     l581:
  4689  1793  1C40               	btfss	___fladd@b,0
  4690  1794  2F96               	goto	u2401
  4691  1795  2F97               	goto	u2400
  4692  1796                     u2401:
  4693  1796  2F98               	goto	l1939
  4694  1797                     u2400:
  4695  1797  2F90               	goto	l1935
  4696  1798                     l1939:
  4697  1798  0851               	movf	___fladd@aexp,w
  4698  1799  1903               	btfsc	3,2
  4699  179A  2F9C               	goto	u2411
  4700  179B  2F9D               	goto	u2410
  4701  179C                     u2411:
  4702  179C  2FD1               	goto	l1949
  4703  179D                     u2410:
  4704  179D                     l1941:
  4705  179D  3001               	movlw	1
  4706  179E  07C0               	addwf	___fladd@b,f
  4707  179F  3000               	movlw	0
  4708  17A0  1803               	skipnc
  4709  17A1  3001               	movlw	1
  4710  17A2  07C1               	addwf	___fladd@b+1,f
  4711  17A3  3000               	movlw	0
  4712  17A4  1803               	skipnc
  4713  17A5  3001               	movlw	1
  4714  17A6  07C2               	addwf	___fladd@b+2,f
  4715  17A7  3000               	movlw	0
  4716  17A8  1803               	skipnc
  4717  17A9  3001               	movlw	1
  4718  17AA  07C3               	addwf	___fladd@b+3,f
  4719  17AB                     l1943:
  4720  17AB  1C43               	btfss	___fladd@b+3,0
  4721  17AC  2FAE               	goto	u2421
  4722  17AD  2FAF               	goto	u2420
  4723  17AE                     u2421:
  4724  17AE  2FD1               	goto	l1949
  4725  17AF                     u2420:
  4726  17AF                     l1945:
  4727  17AF  0840               	movf	___fladd@b,w
  4728  17B0  00C8               	movwf	??___fladd
  4729  17B1  0841               	movf	___fladd@b+1,w
  4730  17B2  00C9               	movwf	??___fladd+1
  4731  17B3  0842               	movf	___fladd@b+2,w
  4732  17B4  00CA               	movwf	??___fladd+2
  4733  17B5  0843               	movf	___fladd@b+3,w
  4734  17B6  00CB               	movwf	??___fladd+3
  4735  17B7  3001               	movlw	1
  4736  17B8  00CC               	movwf	??___fladd+4
  4737  17B9                     u2435:
  4738  17B9  0D4B               	rlf	??___fladd+3,w
  4739  17BA  0CCB               	rrf	??___fladd+3,f
  4740  17BB  0CCA               	rrf	??___fladd+2,f
  4741  17BC  0CC9               	rrf	??___fladd+1,f
  4742  17BD  0CC8               	rrf	??___fladd,f
  4743  17BE                     u2430:
  4744  17BE  0BCC               	decfsz	??___fladd+4,f
  4745  17BF  2FB9               	goto	u2435
  4746  17C0  084B               	movf	??___fladd+3,w
  4747  17C1  00C3               	movwf	___fladd@b+3
  4748  17C2  084A               	movf	??___fladd+2,w
  4749  17C3  00C2               	movwf	___fladd@b+2
  4750  17C4  0849               	movf	??___fladd+1,w
  4751  17C5  00C1               	movwf	___fladd@b+1
  4752  17C6  0848               	movf	??___fladd,w
  4753  17C7  00C0               	movwf	___fladd@b
  4754  17C8  0A52               	incf	___fladd@bexp,w
  4755  17C9  1903               	btfsc	3,2
  4756  17CA  2FCC               	goto	u2441
  4757  17CB  2FCD               	goto	u2440
  4758  17CC                     u2441:
  4759  17CC  2FD1               	goto	l1949
  4760  17CD                     u2440:
  4761  17CD                     l1947:
  4762  17CD  3001               	movlw	1
  4763  17CE  00FF               	movwf	btemp+1
  4764  17CF  087F               	movf	btemp+1,w
  4765  17D0  07D2               	addwf	___fladd@bexp,f
  4766  17D1                     l1949:
  4767  17D1  0A52               	incf	___fladd@bexp,w
  4768  17D2  1903               	btfsc	3,2
  4769  17D3  2FD5               	goto	u2451
  4770  17D4  2FD6               	goto	u2450
  4771  17D5                     u2451:
  4772  17D5  2FDB               	goto	l1953
  4773  17D6                     u2450:
  4774  17D6                     l1951:
  4775  17D6  0852               	movf	___fladd@bexp,w
  4776  17D7  1D03               	btfss	3,2
  4777  17D8  2FDA               	goto	u2461
  4778  17D9  2FDB               	goto	u2460
  4779  17DA                     u2461:
  4780  17DA  2FE9               	goto	l1959
  4781  17DB                     u2460:
  4782  17DB                     l1953:
  4783  17DB  3000               	movlw	0
  4784  17DC  00C3               	movwf	___fladd@b+3
  4785  17DD  3000               	movlw	0
  4786  17DE  00C2               	movwf	___fladd@b+2
  4787  17DF  3000               	movlw	0
  4788  17E0  00C1               	movwf	___fladd@b+1
  4789  17E1  3000               	movlw	0
  4790  17E2  00C0               	movwf	___fladd@b
  4791  17E3                     l1955:
  4792  17E3  0852               	movf	___fladd@bexp,w
  4793  17E4  1D03               	btfss	3,2
  4794  17E5  2FE7               	goto	u2471
  4795  17E6  2FE8               	goto	u2470
  4796  17E7                     u2471:
  4797  17E7  2FE9               	goto	l1959
  4798  17E8                     u2470:
  4799  17E8                     l1957:
  4800  17E8  01D0               	clrf	___fladd@signs
  4801  17E9                     l1959:
  4802  17E9  1C52               	btfss	___fladd@bexp,0
  4803  17EA  2FEC               	goto	u2481
  4804  17EB  2FED               	goto	u2480
  4805  17EC                     u2481:
  4806  17EC  2FEF               	goto	l1963
  4807  17ED                     u2480:
  4808  17ED                     l1961:
  4809  17ED  17C2               	bsf	___fladd@b+2,7
  4810  17EE  2FF3               	goto	l592
  4811  17EF                     l1963:
  4812  17EF  307F               	movlw	127
  4813  17F0  00FF               	movwf	btemp+1
  4814  17F1  087F               	movf	btemp+1,w
  4815  17F2  05C2               	andwf	___fladd@b+2,f
  4816  17F3                     l592:
  4817  17F3  0852               	movf	___fladd@bexp,w
  4818  17F4  00C8               	movwf	??___fladd
  4819  17F5  1003               	clrc
  4820  17F6  0C48               	rrf	??___fladd,w
  4821  17F7  00FF               	movwf	btemp+1
  4822  17F8  087F               	movf	btemp+1,w
  4823  17F9  00C3               	movwf	___fladd@b+3
  4824  17FA                     l1965:
  4825  17FA  1FD0               	btfss	___fladd@signs,7
  4826  17FB  2FFD               	goto	u2491
  4827  17FC  2FFE               	goto	u2490
  4828  17FD                     u2491:
  4829  17FD  2FFF               	goto	l593
  4830  17FE                     u2490:
  4831  17FE                     l1967:
  4832  17FE  17C3               	bsf	___fladd@b+3,7
  4833  17FF                     l593:
  4834  17FF                     l563:
  4835  17FF  0008               	return
  4836  1800                     __end_of___fladd:
  4837                           
  4838                           	psect	text15
  4839  0912                     __ptext15:	
  4840 ;; *************** function ___flmul *****************
  4841 ;; Defined at:
  4842 ;;		line 8 in file "C:\Program Files\Microchip\xc8\v2.20\pic\sources\c90\common\sprcmul.c"
  4843 ;; Parameters:    Size  Location     Type
  4844 ;;  b               4    6[BANK0 ] unsigned char 
  4845 ;;  a               4   10[BANK0 ] unsigned char 
  4846 ;; Auto vars:     Size  Location     Type
  4847 ;;  prod            4   26[BANK0 ] struct .
  4848 ;;  grs             4   20[BANK0 ] unsigned long 
  4849 ;;  temp            2   30[BANK0 ] struct .
  4850 ;;  bexp            1   25[BANK0 ] unsigned char 
  4851 ;;  aexp            1   24[BANK0 ] unsigned char 
  4852 ;;  sign            1   19[BANK0 ] unsigned char 
  4853 ;; Return value:  Size  Location     Type
  4854 ;;                  4    6[BANK0 ] unsigned char 
  4855 ;; Registers used:
  4856 ;;		wreg, status,2, status,0, btemp+1, pclath, cstack
  4857 ;; Tracked objects:
  4858 ;;		On entry : 0/0
  4859 ;;		On exit  : 0/0
  4860 ;;		Unchanged: 0/0
  4861 ;; Data sizes:     COMMON   BANK0   BANK1   BANK3   BANK2
  4862 ;;      Params:         0       8       0       0       0
  4863 ;;      Locals:         0      13       0       0       0
  4864 ;;      Temps:          0       5       0       0       0
  4865 ;;      Totals:         0      26       0       0       0
  4866 ;;Total ram usage:       26 bytes
  4867 ;; Hardware stack levels used:    1
  4868 ;; Hardware stack levels required when called:    2
  4869 ;; This function calls:
  4870 ;;		__Umul8_16
  4871 ;; This function is called by:
  4872 ;;		_Get_Better_Newton_Value
  4873 ;;		_Voltage_Value
  4874 ;;		_Resistance_Value
  4875 ;;		_conversion_newton
  4876 ;;		_puts_float
  4877 ;; This function uses a non-reentrant model
  4878 ;;
  4879                           
  4880                           
  4881                           ;psect for function ___flmul
  4882  0912                     ___flmul:
  4883  0912                     l2163:	
  4884                           ;incstack = 0
  4885                           ; Regs used in ___flmul: [wreg+status,2+status,0+btemp+1+pclath+cstack]
  4886                           
  4887  0912  1283               	bcf	3,5	;RP0=0, select bank0
  4888  0913  1303               	bcf	3,6	;RP1=0, select bank0
  4889  0914  0829               	movf	___flmul@b+3,w
  4890  0915  3980               	andlw	128
  4891  0916  00FF               	movwf	btemp+1
  4892  0917  087F               	movf	btemp+1,w
  4893  0918  00B3               	movwf	___flmul@sign
  4894  0919                     l2165:
  4895  0919  0829               	movf	___flmul@b+3,w
  4896  091A  00AE               	movwf	??___flmul
  4897  091B  072E               	addwf	??___flmul,w
  4898  091C  00FF               	movwf	btemp+1
  4899  091D  087F               	movf	btemp+1,w
  4900  091E  00B9               	movwf	___flmul@bexp
  4901  091F                     l2167:
  4902  091F  1FA8               	btfss	___flmul@b+2,7
  4903  0920  2922               	goto	u2921
  4904  0921  2923               	goto	u2920
  4905  0922                     u2921:
  4906  0922  2924               	goto	l2171
  4907  0923                     u2920:
  4908  0923                     l2169:
  4909  0923  1439               	bsf	___flmul@bexp,0
  4910  0924                     l2171:
  4911  0924  0839               	movf	___flmul@bexp,w
  4912  0925  1903               	btfsc	3,2
  4913  0926  2928               	goto	u2931
  4914  0927  2929               	goto	u2930
  4915  0928                     u2931:
  4916  0928  2938               	goto	l2179
  4917  0929                     u2930:
  4918  0929                     l2173:
  4919  0929  0A39               	incf	___flmul@bexp,w
  4920  092A  1D03               	btfss	3,2
  4921  092B  292D               	goto	u2941
  4922  092C  292E               	goto	u2940
  4923  092D                     u2941:
  4924  092D  2936               	goto	l2177
  4925  092E                     u2940:
  4926  092E                     l2175:
  4927  092E  3000               	movlw	0
  4928  092F  00A9               	movwf	___flmul@b+3
  4929  0930  3000               	movlw	0
  4930  0931  00A8               	movwf	___flmul@b+2
  4931  0932  3000               	movlw	0
  4932  0933  00A7               	movwf	___flmul@b+1
  4933  0934  3000               	movlw	0
  4934  0935  00A6               	movwf	___flmul@b
  4935  0936                     l2177:
  4936  0936  17A8               	bsf	___flmul@b+2,7
  4937  0937  2940               	goto	l2181
  4938  0938                     l2179:
  4939  0938  3000               	movlw	0
  4940  0939  00A9               	movwf	___flmul@b+3
  4941  093A  3000               	movlw	0
  4942  093B  00A8               	movwf	___flmul@b+2
  4943  093C  3000               	movlw	0
  4944  093D  00A7               	movwf	___flmul@b+1
  4945  093E  3000               	movlw	0
  4946  093F  00A6               	movwf	___flmul@b
  4947  0940                     l2181:
  4948  0940  082D               	movf	___flmul@a+3,w
  4949  0941  3980               	andlw	128
  4950  0942  00FF               	movwf	btemp+1
  4951  0943  087F               	movf	btemp+1,w
  4952  0944  06B3               	xorwf	___flmul@sign,f
  4953  0945                     l2183:
  4954  0945  082D               	movf	___flmul@a+3,w
  4955  0946  00AE               	movwf	??___flmul
  4956  0947  072E               	addwf	??___flmul,w
  4957  0948  00FF               	movwf	btemp+1
  4958  0949  087F               	movf	btemp+1,w
  4959  094A  00B8               	movwf	___flmul@aexp
  4960  094B                     l2185:
  4961  094B  1FAC               	btfss	___flmul@a+2,7
  4962  094C  294E               	goto	u2951
  4963  094D  294F               	goto	u2950
  4964  094E                     u2951:
  4965  094E  2950               	goto	l2189
  4966  094F                     u2950:
  4967  094F                     l2187:
  4968  094F  1438               	bsf	___flmul@aexp,0
  4969  0950                     l2189:
  4970  0950  0838               	movf	___flmul@aexp,w
  4971  0951  1903               	btfsc	3,2
  4972  0952  2954               	goto	u2961
  4973  0953  2955               	goto	u2960
  4974  0954                     u2961:
  4975  0954  2964               	goto	l2197
  4976  0955                     u2960:
  4977  0955                     l2191:
  4978  0955  0A38               	incf	___flmul@aexp,w
  4979  0956  1D03               	btfss	3,2
  4980  0957  2959               	goto	u2971
  4981  0958  295A               	goto	u2970
  4982  0959                     u2971:
  4983  0959  2962               	goto	l2195
  4984  095A                     u2970:
  4985  095A                     l2193:
  4986  095A  3000               	movlw	0
  4987  095B  00AD               	movwf	___flmul@a+3
  4988  095C  3000               	movlw	0
  4989  095D  00AC               	movwf	___flmul@a+2
  4990  095E  3000               	movlw	0
  4991  095F  00AB               	movwf	___flmul@a+1
  4992  0960  3000               	movlw	0
  4993  0961  00AA               	movwf	___flmul@a
  4994  0962                     l2195:
  4995  0962  17AC               	bsf	___flmul@a+2,7
  4996  0963  296C               	goto	l2199
  4997  0964                     l2197:
  4998  0964  3000               	movlw	0
  4999  0965  00AD               	movwf	___flmul@a+3
  5000  0966  3000               	movlw	0
  5001  0967  00AC               	movwf	___flmul@a+2
  5002  0968  3000               	movlw	0
  5003  0969  00AB               	movwf	___flmul@a+1
  5004  096A  3000               	movlw	0
  5005  096B  00AA               	movwf	___flmul@a
  5006  096C                     l2199:
  5007  096C  0838               	movf	___flmul@aexp,w
  5008  096D  1903               	btfsc	3,2
  5009  096E  2970               	goto	u2981
  5010  096F  2971               	goto	u2980
  5011  0970                     u2981:
  5012  0970  2976               	goto	l2203
  5013  0971                     u2980:
  5014  0971                     l2201:
  5015  0971  0839               	movf	___flmul@bexp,w
  5016  0972  1D03               	btfss	3,2
  5017  0973  2975               	goto	u2991
  5018  0974  2976               	goto	u2990
  5019  0975                     u2991:
  5020  0975  297F               	goto	l2207
  5021  0976                     u2990:
  5022  0976                     l2203:
  5023  0976  3000               	movlw	0
  5024  0977  00A9               	movwf	?___flmul+3
  5025  0978  3000               	movlw	0
  5026  0979  00A8               	movwf	?___flmul+2
  5027  097A  3000               	movlw	0
  5028  097B  00A7               	movwf	?___flmul+1
  5029  097C  3000               	movlw	0
  5030  097D  00A6               	movwf	?___flmul
  5031  097E  2C72               	goto	l646
  5032  097F                     l2207:
  5033  097F  0826               	movf	___flmul@b,w
  5034  0980  00FF               	movwf	btemp+1
  5035  0981  087F               	movf	btemp+1,w
  5036  0982  00F3               	movwf	__Umul8_16@multiplicand
  5037  0983  082C               	movf	___flmul@a+2,w
  5038  0984  160A  118A  2004  120A  158A  	fcall	__Umul8_16
  5039  0989  0874               	movf	?__Umul8_16+1,w
  5040  098A  1283               	bcf	3,5	;RP0=0, select bank0
  5041  098B  1303               	bcf	3,6	;RP1=0, select bank0
  5042  098C  00BF               	movwf	___flmul@temp+1
  5043  098D  0873               	movf	?__Umul8_16,w
  5044  098E  00BE               	movwf	___flmul@temp
  5045  098F                     l2209:
  5046  098F  083E               	movf	___flmul@temp,w
  5047  0990  00AE               	movwf	??___flmul
  5048  0991  01AF               	clrf	??___flmul+1
  5049  0992  01B0               	clrf	??___flmul+2
  5050  0993  01B1               	clrf	??___flmul+3
  5051  0994  0831               	movf	??___flmul+3,w
  5052  0995  00B7               	movwf	___flmul@grs+3
  5053  0996  0830               	movf	??___flmul+2,w
  5054  0997  00B6               	movwf	___flmul@grs+2
  5055  0998  082F               	movf	??___flmul+1,w
  5056  0999  00B5               	movwf	___flmul@grs+1
  5057  099A  082E               	movf	??___flmul,w
  5058  099B  00B4               	movwf	___flmul@grs
  5059  099C                     l2211:
  5060  099C  083F               	movf	___flmul@temp+1,w
  5061  099D  00AE               	movwf	??___flmul
  5062  099E  01AF               	clrf	??___flmul+1
  5063  099F  01B0               	clrf	??___flmul+2
  5064  09A0  01B1               	clrf	??___flmul+3
  5065  09A1  0831               	movf	??___flmul+3,w
  5066  09A2  00BD               	movwf	___flmul@prod+3
  5067  09A3  0830               	movf	??___flmul+2,w
  5068  09A4  00BC               	movwf	___flmul@prod+2
  5069  09A5  082F               	movf	??___flmul+1,w
  5070  09A6  00BB               	movwf	___flmul@prod+1
  5071  09A7  082E               	movf	??___flmul,w
  5072  09A8  00BA               	movwf	___flmul@prod
  5073  09A9  0827               	movf	___flmul@b+1,w
  5074  09AA  00FF               	movwf	btemp+1
  5075  09AB  087F               	movf	btemp+1,w
  5076  09AC  00F3               	movwf	__Umul8_16@multiplicand
  5077  09AD  082B               	movf	___flmul@a+1,w
  5078  09AE  160A  118A  2004  120A  158A  	fcall	__Umul8_16
  5079  09B3  0874               	movf	?__Umul8_16+1,w
  5080  09B4  1283               	bcf	3,5	;RP0=0, select bank0
  5081  09B5  1303               	bcf	3,6	;RP1=0, select bank0
  5082  09B6  00BF               	movwf	___flmul@temp+1
  5083  09B7  0873               	movf	?__Umul8_16,w
  5084  09B8  00BE               	movwf	___flmul@temp
  5085  09B9                     l2213:
  5086  09B9  083E               	movf	___flmul@temp,w
  5087  09BA  00AE               	movwf	??___flmul
  5088  09BB  01AF               	clrf	??___flmul+1
  5089  09BC  01B0               	clrf	??___flmul+2
  5090  09BD  01B1               	clrf	??___flmul+3
  5091  09BE  082E               	movf	??___flmul,w
  5092  09BF  07B4               	addwf	___flmul@grs,f
  5093  09C0  082F               	movf	??___flmul+1,w
  5094  09C1  1103               	clrz
  5095  09C2  1803               	skipnc
  5096  09C3  3E01               	addlw	1
  5097  09C4  1903               	skipnz
  5098  09C5  29C7               	goto	u3001
  5099  09C6  07B5               	addwf	___flmul@grs+1,f
  5100  09C7                     u3001:
  5101  09C7  0830               	movf	??___flmul+2,w
  5102  09C8  1103               	clrz
  5103  09C9  1803               	skipnc
  5104  09CA  3E01               	addlw	1
  5105  09CB  1903               	skipnz
  5106  09CC  29CE               	goto	u3002
  5107  09CD  07B6               	addwf	___flmul@grs+2,f
  5108  09CE                     u3002:
  5109  09CE  0831               	movf	??___flmul+3,w
  5110  09CF  1103               	clrz
  5111  09D0  1803               	skipnc
  5112  09D1  3E01               	addlw	1
  5113  09D2  1903               	skipnz
  5114  09D3  29D5               	goto	u3003
  5115  09D4  07B7               	addwf	___flmul@grs+3,f
  5116  09D5                     u3003:
  5117  09D5                     l2215:
  5118  09D5  083F               	movf	___flmul@temp+1,w
  5119  09D6  00AE               	movwf	??___flmul
  5120  09D7  01AF               	clrf	??___flmul+1
  5121  09D8  01B0               	clrf	??___flmul+2
  5122  09D9  01B1               	clrf	??___flmul+3
  5123  09DA  082E               	movf	??___flmul,w
  5124  09DB  07BA               	addwf	___flmul@prod,f
  5125  09DC  082F               	movf	??___flmul+1,w
  5126  09DD  1103               	clrz
  5127  09DE  1803               	skipnc
  5128  09DF  3E01               	addlw	1
  5129  09E0  1903               	skipnz
  5130  09E1  29E3               	goto	u3011
  5131  09E2  07BB               	addwf	___flmul@prod+1,f
  5132  09E3                     u3011:
  5133  09E3  0830               	movf	??___flmul+2,w
  5134  09E4  1103               	clrz
  5135  09E5  1803               	skipnc
  5136  09E6  3E01               	addlw	1
  5137  09E7  1903               	skipnz
  5138  09E8  29EA               	goto	u3012
  5139  09E9  07BC               	addwf	___flmul@prod+2,f
  5140  09EA                     u3012:
  5141  09EA  0831               	movf	??___flmul+3,w
  5142  09EB  1103               	clrz
  5143  09EC  1803               	skipnc
  5144  09ED  3E01               	addlw	1
  5145  09EE  1903               	skipnz
  5146  09EF  29F1               	goto	u3013
  5147  09F0  07BD               	addwf	___flmul@prod+3,f
  5148  09F1                     u3013:
  5149  09F1  0828               	movf	___flmul@b+2,w
  5150  09F2  00FF               	movwf	btemp+1
  5151  09F3  087F               	movf	btemp+1,w
  5152  09F4  00F3               	movwf	__Umul8_16@multiplicand
  5153  09F5  082A               	movf	___flmul@a,w
  5154  09F6  160A  118A  2004  120A  158A  	fcall	__Umul8_16
  5155  09FB  0874               	movf	?__Umul8_16+1,w
  5156  09FC  1283               	bcf	3,5	;RP0=0, select bank0
  5157  09FD  1303               	bcf	3,6	;RP1=0, select bank0
  5158  09FE  00BF               	movwf	___flmul@temp+1
  5159  09FF  0873               	movf	?__Umul8_16,w
  5160  0A00  00BE               	movwf	___flmul@temp
  5161  0A01                     l2217:
  5162  0A01  083E               	movf	___flmul@temp,w
  5163  0A02  00AE               	movwf	??___flmul
  5164  0A03  01AF               	clrf	??___flmul+1
  5165  0A04  01B0               	clrf	??___flmul+2
  5166  0A05  01B1               	clrf	??___flmul+3
  5167  0A06  082E               	movf	??___flmul,w
  5168  0A07  07B4               	addwf	___flmul@grs,f
  5169  0A08  082F               	movf	??___flmul+1,w
  5170  0A09  1103               	clrz
  5171  0A0A  1803               	skipnc
  5172  0A0B  3E01               	addlw	1
  5173  0A0C  1903               	skipnz
  5174  0A0D  2A0F               	goto	u3021
  5175  0A0E  07B5               	addwf	___flmul@grs+1,f
  5176  0A0F                     u3021:
  5177  0A0F  0830               	movf	??___flmul+2,w
  5178  0A10  1103               	clrz
  5179  0A11  1803               	skipnc
  5180  0A12  3E01               	addlw	1
  5181  0A13  1903               	skipnz
  5182  0A14  2A16               	goto	u3022
  5183  0A15  07B6               	addwf	___flmul@grs+2,f
  5184  0A16                     u3022:
  5185  0A16  0831               	movf	??___flmul+3,w
  5186  0A17  1103               	clrz
  5187  0A18  1803               	skipnc
  5188  0A19  3E01               	addlw	1
  5189  0A1A  1903               	skipnz
  5190  0A1B  2A1D               	goto	u3023
  5191  0A1C  07B7               	addwf	___flmul@grs+3,f
  5192  0A1D                     u3023:
  5193  0A1D                     l2219:
  5194  0A1D  083F               	movf	___flmul@temp+1,w
  5195  0A1E  00AE               	movwf	??___flmul
  5196  0A1F  01AF               	clrf	??___flmul+1
  5197  0A20  01B0               	clrf	??___flmul+2
  5198  0A21  01B1               	clrf	??___flmul+3
  5199  0A22  082E               	movf	??___flmul,w
  5200  0A23  07BA               	addwf	___flmul@prod,f
  5201  0A24  082F               	movf	??___flmul+1,w
  5202  0A25  1103               	clrz
  5203  0A26  1803               	skipnc
  5204  0A27  3E01               	addlw	1
  5205  0A28  1903               	skipnz
  5206  0A29  2A2B               	goto	u3031
  5207  0A2A  07BB               	addwf	___flmul@prod+1,f
  5208  0A2B                     u3031:
  5209  0A2B  0830               	movf	??___flmul+2,w
  5210  0A2C  1103               	clrz
  5211  0A2D  1803               	skipnc
  5212  0A2E  3E01               	addlw	1
  5213  0A2F  1903               	skipnz
  5214  0A30  2A32               	goto	u3032
  5215  0A31  07BC               	addwf	___flmul@prod+2,f
  5216  0A32                     u3032:
  5217  0A32  0831               	movf	??___flmul+3,w
  5218  0A33  1103               	clrz
  5219  0A34  1803               	skipnc
  5220  0A35  3E01               	addlw	1
  5221  0A36  1903               	skipnz
  5222  0A37  2A39               	goto	u3033
  5223  0A38  07BD               	addwf	___flmul@prod+3,f
  5224  0A39                     u3033:
  5225  0A39                     l2221:
  5226  0A39  3008               	movlw	8
  5227  0A3A  00AE               	movwf	??___flmul
  5228  0A3B                     u3045:
  5229  0A3B  1003               	clrc
  5230  0A3C  0DB4               	rlf	___flmul@grs,f
  5231  0A3D  0DB5               	rlf	___flmul@grs+1,f
  5232  0A3E  0DB6               	rlf	___flmul@grs+2,f
  5233  0A3F  0DB7               	rlf	___flmul@grs+3,f
  5234  0A40  0BAE               	decfsz	??___flmul,f
  5235  0A41  2A3B               	goto	u3045
  5236  0A42                     l2223:
  5237  0A42  0827               	movf	___flmul@b+1,w
  5238  0A43  00FF               	movwf	btemp+1
  5239  0A44  087F               	movf	btemp+1,w
  5240  0A45  00F3               	movwf	__Umul8_16@multiplicand
  5241  0A46  082A               	movf	___flmul@a,w
  5242  0A47  160A  118A  2004  120A  158A  	fcall	__Umul8_16
  5243  0A4C  0874               	movf	?__Umul8_16+1,w
  5244  0A4D  1283               	bcf	3,5	;RP0=0, select bank0
  5245  0A4E  1303               	bcf	3,6	;RP1=0, select bank0
  5246  0A4F  00BF               	movwf	___flmul@temp+1
  5247  0A50  0873               	movf	?__Umul8_16,w
  5248  0A51  00BE               	movwf	___flmul@temp
  5249  0A52                     l2225:
  5250  0A52  083E               	movf	___flmul@temp,w
  5251  0A53  00AE               	movwf	??___flmul
  5252  0A54  083F               	movf	___flmul@temp+1,w
  5253  0A55  00AF               	movwf	??___flmul+1
  5254  0A56  01B0               	clrf	??___flmul+2
  5255  0A57  01B1               	clrf	??___flmul+3
  5256  0A58  082E               	movf	??___flmul,w
  5257  0A59  07B4               	addwf	___flmul@grs,f
  5258  0A5A  082F               	movf	??___flmul+1,w
  5259  0A5B  1103               	clrz
  5260  0A5C  1803               	skipnc
  5261  0A5D  3E01               	addlw	1
  5262  0A5E  1903               	skipnz
  5263  0A5F  2A61               	goto	u3051
  5264  0A60  07B5               	addwf	___flmul@grs+1,f
  5265  0A61                     u3051:
  5266  0A61  0830               	movf	??___flmul+2,w
  5267  0A62  1103               	clrz
  5268  0A63  1803               	skipnc
  5269  0A64  3E01               	addlw	1
  5270  0A65  1903               	skipnz
  5271  0A66  2A68               	goto	u3052
  5272  0A67  07B6               	addwf	___flmul@grs+2,f
  5273  0A68                     u3052:
  5274  0A68  0831               	movf	??___flmul+3,w
  5275  0A69  1103               	clrz
  5276  0A6A  1803               	skipnc
  5277  0A6B  3E01               	addlw	1
  5278  0A6C  1903               	skipnz
  5279  0A6D  2A6F               	goto	u3053
  5280  0A6E  07B7               	addwf	___flmul@grs+3,f
  5281  0A6F                     u3053:
  5282  0A6F                     l2227:
  5283  0A6F  0826               	movf	___flmul@b,w
  5284  0A70  00FF               	movwf	btemp+1
  5285  0A71  087F               	movf	btemp+1,w
  5286  0A72  00F3               	movwf	__Umul8_16@multiplicand
  5287  0A73  082B               	movf	___flmul@a+1,w
  5288  0A74  160A  118A  2004  120A  158A  	fcall	__Umul8_16
  5289  0A79  0874               	movf	?__Umul8_16+1,w
  5290  0A7A  1283               	bcf	3,5	;RP0=0, select bank0
  5291  0A7B  1303               	bcf	3,6	;RP1=0, select bank0
  5292  0A7C  00BF               	movwf	___flmul@temp+1
  5293  0A7D  0873               	movf	?__Umul8_16,w
  5294  0A7E  00BE               	movwf	___flmul@temp
  5295  0A7F                     l2229:
  5296  0A7F  083E               	movf	___flmul@temp,w
  5297  0A80  00AE               	movwf	??___flmul
  5298  0A81  083F               	movf	___flmul@temp+1,w
  5299  0A82  00AF               	movwf	??___flmul+1
  5300  0A83  01B0               	clrf	??___flmul+2
  5301  0A84  01B1               	clrf	??___flmul+3
  5302  0A85  082E               	movf	??___flmul,w
  5303  0A86  07B4               	addwf	___flmul@grs,f
  5304  0A87  082F               	movf	??___flmul+1,w
  5305  0A88  1103               	clrz
  5306  0A89  1803               	skipnc
  5307  0A8A  3E01               	addlw	1
  5308  0A8B  1903               	skipnz
  5309  0A8C  2A8E               	goto	u3061
  5310  0A8D  07B5               	addwf	___flmul@grs+1,f
  5311  0A8E                     u3061:
  5312  0A8E  0830               	movf	??___flmul+2,w
  5313  0A8F  1103               	clrz
  5314  0A90  1803               	skipnc
  5315  0A91  3E01               	addlw	1
  5316  0A92  1903               	skipnz
  5317  0A93  2A95               	goto	u3062
  5318  0A94  07B6               	addwf	___flmul@grs+2,f
  5319  0A95                     u3062:
  5320  0A95  0831               	movf	??___flmul+3,w
  5321  0A96  1103               	clrz
  5322  0A97  1803               	skipnc
  5323  0A98  3E01               	addlw	1
  5324  0A99  1903               	skipnz
  5325  0A9A  2A9C               	goto	u3063
  5326  0A9B  07B7               	addwf	___flmul@grs+3,f
  5327  0A9C                     u3063:
  5328  0A9C                     l2231:
  5329  0A9C  3008               	movlw	8
  5330  0A9D  00AE               	movwf	??___flmul
  5331  0A9E                     u3075:
  5332  0A9E  1003               	clrc
  5333  0A9F  0DB4               	rlf	___flmul@grs,f
  5334  0AA0  0DB5               	rlf	___flmul@grs+1,f
  5335  0AA1  0DB6               	rlf	___flmul@grs+2,f
  5336  0AA2  0DB7               	rlf	___flmul@grs+3,f
  5337  0AA3  0BAE               	decfsz	??___flmul,f
  5338  0AA4  2A9E               	goto	u3075
  5339  0AA5  0826               	movf	___flmul@b,w
  5340  0AA6  00FF               	movwf	btemp+1
  5341  0AA7  087F               	movf	btemp+1,w
  5342  0AA8  00F3               	movwf	__Umul8_16@multiplicand
  5343  0AA9  082A               	movf	___flmul@a,w
  5344  0AAA  160A  118A  2004  120A  158A  	fcall	__Umul8_16
  5345  0AAF  0874               	movf	?__Umul8_16+1,w
  5346  0AB0  1283               	bcf	3,5	;RP0=0, select bank0
  5347  0AB1  1303               	bcf	3,6	;RP1=0, select bank0
  5348  0AB2  00BF               	movwf	___flmul@temp+1
  5349  0AB3  0873               	movf	?__Umul8_16,w
  5350  0AB4  00BE               	movwf	___flmul@temp
  5351  0AB5                     l2233:
  5352  0AB5  083E               	movf	___flmul@temp,w
  5353  0AB6  00AE               	movwf	??___flmul
  5354  0AB7  083F               	movf	___flmul@temp+1,w
  5355  0AB8  00AF               	movwf	??___flmul+1
  5356  0AB9  01B0               	clrf	??___flmul+2
  5357  0ABA  01B1               	clrf	??___flmul+3
  5358  0ABB  082E               	movf	??___flmul,w
  5359  0ABC  07B4               	addwf	___flmul@grs,f
  5360  0ABD  082F               	movf	??___flmul+1,w
  5361  0ABE  1103               	clrz
  5362  0ABF  1803               	skipnc
  5363  0AC0  3E01               	addlw	1
  5364  0AC1  1903               	skipnz
  5365  0AC2  2AC4               	goto	u3081
  5366  0AC3  07B5               	addwf	___flmul@grs+1,f
  5367  0AC4                     u3081:
  5368  0AC4  0830               	movf	??___flmul+2,w
  5369  0AC5  1103               	clrz
  5370  0AC6  1803               	skipnc
  5371  0AC7  3E01               	addlw	1
  5372  0AC8  1903               	skipnz
  5373  0AC9  2ACB               	goto	u3082
  5374  0ACA  07B6               	addwf	___flmul@grs+2,f
  5375  0ACB                     u3082:
  5376  0ACB  0831               	movf	??___flmul+3,w
  5377  0ACC  1103               	clrz
  5378  0ACD  1803               	skipnc
  5379  0ACE  3E01               	addlw	1
  5380  0ACF  1903               	skipnz
  5381  0AD0  2AD2               	goto	u3083
  5382  0AD1  07B7               	addwf	___flmul@grs+3,f
  5383  0AD2                     u3083:
  5384  0AD2                     l2235:
  5385  0AD2  0827               	movf	___flmul@b+1,w
  5386  0AD3  00FF               	movwf	btemp+1
  5387  0AD4  087F               	movf	btemp+1,w
  5388  0AD5  00F3               	movwf	__Umul8_16@multiplicand
  5389  0AD6  082C               	movf	___flmul@a+2,w
  5390  0AD7  160A  118A  2004  120A  158A  	fcall	__Umul8_16
  5391  0ADC  0874               	movf	?__Umul8_16+1,w
  5392  0ADD  1283               	bcf	3,5	;RP0=0, select bank0
  5393  0ADE  1303               	bcf	3,6	;RP1=0, select bank0
  5394  0ADF  00BF               	movwf	___flmul@temp+1
  5395  0AE0  0873               	movf	?__Umul8_16,w
  5396  0AE1  00BE               	movwf	___flmul@temp
  5397  0AE2  083E               	movf	___flmul@temp,w
  5398  0AE3  00AE               	movwf	??___flmul
  5399  0AE4  083F               	movf	___flmul@temp+1,w
  5400  0AE5  00AF               	movwf	??___flmul+1
  5401  0AE6  01B0               	clrf	??___flmul+2
  5402  0AE7  01B1               	clrf	??___flmul+3
  5403  0AE8  082E               	movf	??___flmul,w
  5404  0AE9  07BA               	addwf	___flmul@prod,f
  5405  0AEA  082F               	movf	??___flmul+1,w
  5406  0AEB  1103               	clrz
  5407  0AEC  1803               	skipnc
  5408  0AED  3E01               	addlw	1
  5409  0AEE  1903               	skipnz
  5410  0AEF  2AF1               	goto	u3091
  5411  0AF0  07BB               	addwf	___flmul@prod+1,f
  5412  0AF1                     u3091:
  5413  0AF1  0830               	movf	??___flmul+2,w
  5414  0AF2  1103               	clrz
  5415  0AF3  1803               	skipnc
  5416  0AF4  3E01               	addlw	1
  5417  0AF5  1903               	skipnz
  5418  0AF6  2AF8               	goto	u3092
  5419  0AF7  07BC               	addwf	___flmul@prod+2,f
  5420  0AF8                     u3092:
  5421  0AF8  0831               	movf	??___flmul+3,w
  5422  0AF9  1103               	clrz
  5423  0AFA  1803               	skipnc
  5424  0AFB  3E01               	addlw	1
  5425  0AFC  1903               	skipnz
  5426  0AFD  2AFF               	goto	u3093
  5427  0AFE  07BD               	addwf	___flmul@prod+3,f
  5428  0AFF                     u3093:
  5429  0AFF                     l2237:
  5430  0AFF  0828               	movf	___flmul@b+2,w
  5431  0B00  00FF               	movwf	btemp+1
  5432  0B01  087F               	movf	btemp+1,w
  5433  0B02  00F3               	movwf	__Umul8_16@multiplicand
  5434  0B03  082B               	movf	___flmul@a+1,w
  5435  0B04  160A  118A  2004  120A  158A  	fcall	__Umul8_16
  5436  0B09  0874               	movf	?__Umul8_16+1,w
  5437  0B0A  1283               	bcf	3,5	;RP0=0, select bank0
  5438  0B0B  1303               	bcf	3,6	;RP1=0, select bank0
  5439  0B0C  00BF               	movwf	___flmul@temp+1
  5440  0B0D  0873               	movf	?__Umul8_16,w
  5441  0B0E  00BE               	movwf	___flmul@temp
  5442  0B0F                     l2239:
  5443  0B0F  083E               	movf	___flmul@temp,w
  5444  0B10  00AE               	movwf	??___flmul
  5445  0B11  083F               	movf	___flmul@temp+1,w
  5446  0B12  00AF               	movwf	??___flmul+1
  5447  0B13  01B0               	clrf	??___flmul+2
  5448  0B14  01B1               	clrf	??___flmul+3
  5449  0B15  082E               	movf	??___flmul,w
  5450  0B16  07BA               	addwf	___flmul@prod,f
  5451  0B17  082F               	movf	??___flmul+1,w
  5452  0B18  1103               	clrz
  5453  0B19  1803               	skipnc
  5454  0B1A  3E01               	addlw	1
  5455  0B1B  1903               	skipnz
  5456  0B1C  2B1E               	goto	u3101
  5457  0B1D  07BB               	addwf	___flmul@prod+1,f
  5458  0B1E                     u3101:
  5459  0B1E  0830               	movf	??___flmul+2,w
  5460  0B1F  1103               	clrz
  5461  0B20  1803               	skipnc
  5462  0B21  3E01               	addlw	1
  5463  0B22  1903               	skipnz
  5464  0B23  2B25               	goto	u3102
  5465  0B24  07BC               	addwf	___flmul@prod+2,f
  5466  0B25                     u3102:
  5467  0B25  0831               	movf	??___flmul+3,w
  5468  0B26  1103               	clrz
  5469  0B27  1803               	skipnc
  5470  0B28  3E01               	addlw	1
  5471  0B29  1903               	skipnz
  5472  0B2A  2B2C               	goto	u3103
  5473  0B2B  07BD               	addwf	___flmul@prod+3,f
  5474  0B2C                     u3103:
  5475  0B2C  0828               	movf	___flmul@b+2,w
  5476  0B2D  00FF               	movwf	btemp+1
  5477  0B2E  087F               	movf	btemp+1,w
  5478  0B2F  00F3               	movwf	__Umul8_16@multiplicand
  5479  0B30  082C               	movf	___flmul@a+2,w
  5480  0B31  160A  118A  2004  120A  158A  	fcall	__Umul8_16
  5481  0B36  0874               	movf	?__Umul8_16+1,w
  5482  0B37  1283               	bcf	3,5	;RP0=0, select bank0
  5483  0B38  1303               	bcf	3,6	;RP1=0, select bank0
  5484  0B39  00BF               	movwf	___flmul@temp+1
  5485  0B3A  0873               	movf	?__Umul8_16,w
  5486  0B3B  00BE               	movwf	___flmul@temp
  5487  0B3C                     l2241:
  5488  0B3C  083E               	movf	___flmul@temp,w
  5489  0B3D  00AE               	movwf	??___flmul
  5490  0B3E  083F               	movf	___flmul@temp+1,w
  5491  0B3F  00AF               	movwf	??___flmul+1
  5492  0B40  01B0               	clrf	??___flmul+2
  5493  0B41  01B1               	clrf	??___flmul+3
  5494  0B42  3008               	movlw	8
  5495  0B43                     u3115:
  5496  0B43  1003               	clrc
  5497  0B44  0DAE               	rlf	??___flmul,f
  5498  0B45  0DAF               	rlf	??___flmul+1,f
  5499  0B46  0DB0               	rlf	??___flmul+2,f
  5500  0B47  0DB1               	rlf	??___flmul+3,f
  5501  0B48                     u3110:
  5502  0B48  3EFF               	addlw	-1
  5503  0B49  1D03               	skipz
  5504  0B4A  2B43               	goto	u3115
  5505  0B4B  082E               	movf	??___flmul,w
  5506  0B4C  07BA               	addwf	___flmul@prod,f
  5507  0B4D  082F               	movf	??___flmul+1,w
  5508  0B4E  1103               	clrz
  5509  0B4F  1803               	skipnc
  5510  0B50  3E01               	addlw	1
  5511  0B51  1903               	skipnz
  5512  0B52  2B54               	goto	u3121
  5513  0B53  07BB               	addwf	___flmul@prod+1,f
  5514  0B54                     u3121:
  5515  0B54  0830               	movf	??___flmul+2,w
  5516  0B55  1103               	clrz
  5517  0B56  1803               	skipnc
  5518  0B57  3E01               	addlw	1
  5519  0B58  1903               	skipnz
  5520  0B59  2B5B               	goto	u3122
  5521  0B5A  07BC               	addwf	___flmul@prod+2,f
  5522  0B5B                     u3122:
  5523  0B5B  0831               	movf	??___flmul+3,w
  5524  0B5C  1103               	clrz
  5525  0B5D  1803               	skipnc
  5526  0B5E  3E01               	addlw	1
  5527  0B5F  1903               	skipnz
  5528  0B60  2B62               	goto	u3123
  5529  0B61  07BD               	addwf	___flmul@prod+3,f
  5530  0B62                     u3123:
  5531  0B62                     l2243:
  5532  0B62  0834               	movf	___flmul@grs,w
  5533  0B63  00AE               	movwf	??___flmul
  5534  0B64  0835               	movf	___flmul@grs+1,w
  5535  0B65  00AF               	movwf	??___flmul+1
  5536  0B66  0836               	movf	___flmul@grs+2,w
  5537  0B67  00B0               	movwf	??___flmul+2
  5538  0B68  0837               	movf	___flmul@grs+3,w
  5539  0B69  00B1               	movwf	??___flmul+3
  5540  0B6A  3018               	movlw	24
  5541  0B6B                     u3135:
  5542  0B6B  1003               	clrc
  5543  0B6C  0CB1               	rrf	??___flmul+3,f
  5544  0B6D  0CB0               	rrf	??___flmul+2,f
  5545  0B6E  0CAF               	rrf	??___flmul+1,f
  5546  0B6F  0CAE               	rrf	??___flmul,f
  5547  0B70                     u3130:
  5548  0B70  3EFF               	addlw	-1
  5549  0B71  1D03               	skipz
  5550  0B72  2B6B               	goto	u3135
  5551  0B73  082E               	movf	??___flmul,w
  5552  0B74  07BA               	addwf	___flmul@prod,f
  5553  0B75  082F               	movf	??___flmul+1,w
  5554  0B76  1103               	clrz
  5555  0B77  1803               	skipnc
  5556  0B78  3E01               	addlw	1
  5557  0B79  1903               	skipnz
  5558  0B7A  2B7C               	goto	u3141
  5559  0B7B  07BB               	addwf	___flmul@prod+1,f
  5560  0B7C                     u3141:
  5561  0B7C  0830               	movf	??___flmul+2,w
  5562  0B7D  1103               	clrz
  5563  0B7E  1803               	skipnc
  5564  0B7F  3E01               	addlw	1
  5565  0B80  1903               	skipnz
  5566  0B81  2B83               	goto	u3142
  5567  0B82  07BC               	addwf	___flmul@prod+2,f
  5568  0B83                     u3142:
  5569  0B83  0831               	movf	??___flmul+3,w
  5570  0B84  1103               	clrz
  5571  0B85  1803               	skipnc
  5572  0B86  3E01               	addlw	1
  5573  0B87  1903               	skipnz
  5574  0B88  2B8A               	goto	u3143
  5575  0B89  07BD               	addwf	___flmul@prod+3,f
  5576  0B8A                     u3143:
  5577  0B8A                     l2245:
  5578  0B8A  3008               	movlw	8
  5579  0B8B  00AE               	movwf	??___flmul
  5580  0B8C                     u3155:
  5581  0B8C  1003               	clrc
  5582  0B8D  0DB4               	rlf	___flmul@grs,f
  5583  0B8E  0DB5               	rlf	___flmul@grs+1,f
  5584  0B8F  0DB6               	rlf	___flmul@grs+2,f
  5585  0B90  0DB7               	rlf	___flmul@grs+3,f
  5586  0B91  0BAE               	decfsz	??___flmul,f
  5587  0B92  2B8C               	goto	u3155
  5588  0B93                     l2247:
  5589  0B93  0839               	movf	___flmul@bexp,w
  5590  0B94  0738               	addwf	___flmul@aexp,w
  5591  0B95  00AE               	movwf	??___flmul
  5592  0B96  01AF               	clrf	??___flmul+1
  5593  0B97  0DAF               	rlf	??___flmul+1,f
  5594  0B98  082E               	movf	??___flmul,w
  5595  0B99  3E82               	addlw	130
  5596  0B9A  00BE               	movwf	___flmul@temp
  5597  0B9B  082F               	movf	??___flmul+1,w
  5598  0B9C  1803               	skipnc
  5599  0B9D  3E01               	addlw	1
  5600  0B9E  3EFF               	addlw	255
  5601  0B9F  00BF               	movwf	___flmul@temp+1
  5602  0BA0  2BBE               	goto	l2259
  5603  0BA1                     l2249:
  5604  0BA1  3001               	movlw	1
  5605  0BA2  00AE               	movwf	??___flmul
  5606  0BA3                     u3165:
  5607  0BA3  1003               	clrc
  5608  0BA4  0DBA               	rlf	___flmul@prod,f
  5609  0BA5  0DBB               	rlf	___flmul@prod+1,f
  5610  0BA6  0DBC               	rlf	___flmul@prod+2,f
  5611  0BA7  0DBD               	rlf	___flmul@prod+3,f
  5612  0BA8  0BAE               	decfsz	??___flmul,f
  5613  0BA9  2BA3               	goto	u3165
  5614  0BAA                     l2251:
  5615  0BAA  1FB7               	btfss	___flmul@grs+3,7
  5616  0BAB  2BAD               	goto	u3171
  5617  0BAC  2BAE               	goto	u3170
  5618  0BAD                     u3171:
  5619  0BAD  2BAF               	goto	l2255
  5620  0BAE                     u3170:
  5621  0BAE                     l2253:
  5622  0BAE  143A               	bsf	___flmul@prod,0
  5623  0BAF                     l2255:
  5624  0BAF  3001               	movlw	1
  5625  0BB0  00AE               	movwf	??___flmul
  5626  0BB1                     u3185:
  5627  0BB1  1003               	clrc
  5628  0BB2  0DB4               	rlf	___flmul@grs,f
  5629  0BB3  0DB5               	rlf	___flmul@grs+1,f
  5630  0BB4  0DB6               	rlf	___flmul@grs+2,f
  5631  0BB5  0DB7               	rlf	___flmul@grs+3,f
  5632  0BB6  0BAE               	decfsz	??___flmul,f
  5633  0BB7  2BB1               	goto	u3185
  5634  0BB8                     l2257:
  5635  0BB8  30FF               	movlw	255
  5636  0BB9  07BE               	addwf	___flmul@temp,f
  5637  0BBA  1803               	skipnc
  5638  0BBB  0ABF               	incf	___flmul@temp+1,f
  5639  0BBC  30FF               	movlw	255
  5640  0BBD  07BF               	addwf	___flmul@temp+1,f
  5641  0BBE                     l2259:
  5642  0BBE  1FBC               	btfss	___flmul@prod+2,7
  5643  0BBF  2BC1               	goto	u3191
  5644  0BC0  2BC2               	goto	u3190
  5645  0BC1                     u3191:
  5646  0BC1  2BA1               	goto	l2249
  5647  0BC2                     u3190:
  5648  0BC2                     l2261:
  5649  0BC2  01B8               	clrf	___flmul@aexp
  5650  0BC3                     l2263:
  5651  0BC3  1FB7               	btfss	___flmul@grs+3,7
  5652  0BC4  2BC6               	goto	u3201
  5653  0BC5  2BC7               	goto	u3200
  5654  0BC6                     u3201:
  5655  0BC6  2BE3               	goto	l2271
  5656  0BC7                     u3200:
  5657  0BC7                     l2265:
  5658  0BC7  30FF               	movlw	255
  5659  0BC8  0534               	andwf	___flmul@grs,w
  5660  0BC9  00AE               	movwf	??___flmul
  5661  0BCA  30FF               	movlw	255
  5662  0BCB  0535               	andwf	___flmul@grs+1,w
  5663  0BCC  00AF               	movwf	??___flmul+1
  5664  0BCD  30FF               	movlw	255
  5665  0BCE  0536               	andwf	___flmul@grs+2,w
  5666  0BCF  00B0               	movwf	??___flmul+2
  5667  0BD0  307F               	movlw	127
  5668  0BD1  0537               	andwf	___flmul@grs+3,w
  5669  0BD2  00B1               	movwf	??___flmul+3
  5670  0BD3  0831               	movf	??___flmul+3,w
  5671  0BD4  0430               	iorwf	??___flmul+2,w
  5672  0BD5  042F               	iorwf	??___flmul+1,w
  5673  0BD6  042E               	iorwf	??___flmul,w
  5674  0BD7  1903               	skipnz
  5675  0BD8  2BDA               	goto	u3211
  5676  0BD9  2BDB               	goto	u3210
  5677  0BDA                     u3211:
  5678  0BDA  2BDE               	goto	l652
  5679  0BDB                     u3210:
  5680  0BDB                     l2267:
  5681  0BDB  01B8               	clrf	___flmul@aexp
  5682  0BDC  0AB8               	incf	___flmul@aexp,f
  5683  0BDD  2BE3               	goto	l2271
  5684  0BDE                     l652:
  5685  0BDE  1C3A               	btfss	___flmul@prod,0
  5686  0BDF  2BE1               	goto	u3221
  5687  0BE0  2BE2               	goto	u3220
  5688  0BE1                     u3221:
  5689  0BE1  2BE3               	goto	l2271
  5690  0BE2                     u3220:
  5691  0BE2  2BDB               	goto	l2267
  5692  0BE3                     l2271:
  5693  0BE3  0838               	movf	___flmul@aexp,w
  5694  0BE4  1903               	btfsc	3,2
  5695  0BE5  2BE7               	goto	u3231
  5696  0BE6  2BE8               	goto	u3230
  5697  0BE7                     u3231:
  5698  0BE7  2C19               	goto	l2281
  5699  0BE8                     u3230:
  5700  0BE8                     l2273:
  5701  0BE8  3001               	movlw	1
  5702  0BE9  07BA               	addwf	___flmul@prod,f
  5703  0BEA  3000               	movlw	0
  5704  0BEB  1803               	skipnc
  5705  0BEC  3001               	movlw	1
  5706  0BED  07BB               	addwf	___flmul@prod+1,f
  5707  0BEE  3000               	movlw	0
  5708  0BEF  1803               	skipnc
  5709  0BF0  3001               	movlw	1
  5710  0BF1  07BC               	addwf	___flmul@prod+2,f
  5711  0BF2  3000               	movlw	0
  5712  0BF3  1803               	skipnc
  5713  0BF4  3001               	movlw	1
  5714  0BF5  07BD               	addwf	___flmul@prod+3,f
  5715  0BF6                     l2275:
  5716  0BF6  1C3D               	btfss	___flmul@prod+3,0
  5717  0BF7  2BF9               	goto	u3241
  5718  0BF8  2BFA               	goto	u3240
  5719  0BF9                     u3241:
  5720  0BF9  2C19               	goto	l2281
  5721  0BFA                     u3240:
  5722  0BFA                     l2277:
  5723  0BFA  083A               	movf	___flmul@prod,w
  5724  0BFB  00AE               	movwf	??___flmul
  5725  0BFC  083B               	movf	___flmul@prod+1,w
  5726  0BFD  00AF               	movwf	??___flmul+1
  5727  0BFE  083C               	movf	___flmul@prod+2,w
  5728  0BFF  00B0               	movwf	??___flmul+2
  5729  0C00  083D               	movf	___flmul@prod+3,w
  5730  0C01  00B1               	movwf	??___flmul+3
  5731  0C02  3001               	movlw	1
  5732  0C03  00B2               	movwf	??___flmul+4
  5733  0C04                     u3255:
  5734  0C04  0D31               	rlf	??___flmul+3,w
  5735  0C05  0CB1               	rrf	??___flmul+3,f
  5736  0C06  0CB0               	rrf	??___flmul+2,f
  5737  0C07  0CAF               	rrf	??___flmul+1,f
  5738  0C08  0CAE               	rrf	??___flmul,f
  5739  0C09                     u3250:
  5740  0C09  0BB2               	decfsz	??___flmul+4,f
  5741  0C0A  2C04               	goto	u3255
  5742  0C0B  0831               	movf	??___flmul+3,w
  5743  0C0C  00BD               	movwf	___flmul@prod+3
  5744  0C0D  0830               	movf	??___flmul+2,w
  5745  0C0E  00BC               	movwf	___flmul@prod+2
  5746  0C0F  082F               	movf	??___flmul+1,w
  5747  0C10  00BB               	movwf	___flmul@prod+1
  5748  0C11  082E               	movf	??___flmul,w
  5749  0C12  00BA               	movwf	___flmul@prod
  5750  0C13                     l2279:
  5751  0C13  3001               	movlw	1
  5752  0C14  07BE               	addwf	___flmul@temp,f
  5753  0C15  1803               	skipnc
  5754  0C16  0ABF               	incf	___flmul@temp+1,f
  5755  0C17  3000               	movlw	0
  5756  0C18  07BF               	addwf	___flmul@temp+1,f
  5757  0C19                     l2281:
  5758  0C19  083F               	movf	___flmul@temp+1,w
  5759  0C1A  3A80               	xorlw	128
  5760  0C1B  00FF               	movwf	btemp+1
  5761  0C1C  3080               	movlw	128
  5762  0C1D  027F               	subwf	btemp+1,w
  5763  0C1E  1D03               	skipz
  5764  0C1F  2C22               	goto	u3265
  5765  0C20  30FF               	movlw	255
  5766  0C21  023E               	subwf	___flmul@temp,w
  5767  0C22                     u3265:
  5768  0C22  1C03               	skipc
  5769  0C23  2C25               	goto	u3261
  5770  0C24  2C26               	goto	u3260
  5771  0C25                     u3261:
  5772  0C25  2C31               	goto	l2285
  5773  0C26                     u3260:
  5774  0C26                     l2283:
  5775  0C26  307F               	movlw	127
  5776  0C27  1283               	bcf	3,5	;RP0=0, select bank0
  5777  0C28  1303               	bcf	3,6	;RP1=0, select bank0
  5778  0C29  00BD               	movwf	___flmul@prod+3
  5779  0C2A  3080               	movlw	128
  5780  0C2B  00BC               	movwf	___flmul@prod+2
  5781  0C2C  3000               	movlw	0
  5782  0C2D  00BB               	movwf	___flmul@prod+1
  5783  0C2E  3000               	movlw	0
  5784  0C2F  00BA               	movwf	___flmul@prod
  5785  0C30  2C66               	goto	l658
  5786  0C31                     l2285:
  5787  0C31  1283               	bcf	3,5	;RP0=0, select bank0
  5788  0C32  1303               	bcf	3,6	;RP1=0, select bank0
  5789  0C33  083F               	movf	___flmul@temp+1,w
  5790  0C34  3A80               	xorlw	128
  5791  0C35  00FF               	movwf	btemp+1
  5792  0C36  3080               	movlw	128
  5793  0C37  027F               	subwf	btemp+1,w
  5794  0C38  1D03               	skipz
  5795  0C39  2C3C               	goto	u3275
  5796  0C3A  3001               	movlw	1
  5797  0C3B  023E               	subwf	___flmul@temp,w
  5798  0C3C                     u3275:
  5799  0C3C  1803               	skipnc
  5800  0C3D  2C3F               	goto	u3271
  5801  0C3E  2C40               	goto	u3270
  5802  0C3F                     u3271:
  5803  0C3F  2C4C               	goto	l2291
  5804  0C40                     u3270:
  5805  0C40                     l2287:
  5806  0C40  3000               	movlw	0
  5807  0C41  1283               	bcf	3,5	;RP0=0, select bank0
  5808  0C42  1303               	bcf	3,6	;RP1=0, select bank0
  5809  0C43  00BD               	movwf	___flmul@prod+3
  5810  0C44  3000               	movlw	0
  5811  0C45  00BC               	movwf	___flmul@prod+2
  5812  0C46  3000               	movlw	0
  5813  0C47  00BB               	movwf	___flmul@prod+1
  5814  0C48  3000               	movlw	0
  5815  0C49  00BA               	movwf	___flmul@prod
  5816  0C4A                     l2289:
  5817  0C4A  01B3               	clrf	___flmul@sign
  5818  0C4B  2C66               	goto	l658
  5819  0C4C                     l2291:
  5820  0C4C  1283               	bcf	3,5	;RP0=0, select bank0
  5821  0C4D  1303               	bcf	3,6	;RP1=0, select bank0
  5822  0C4E  083E               	movf	___flmul@temp,w
  5823  0C4F  00FF               	movwf	btemp+1
  5824  0C50  087F               	movf	btemp+1,w
  5825  0C51  00B9               	movwf	___flmul@bexp
  5826  0C52                     l2293:
  5827  0C52  30FF               	movlw	255
  5828  0C53  05BA               	andwf	___flmul@prod,f
  5829  0C54  30FF               	movlw	255
  5830  0C55  05BB               	andwf	___flmul@prod+1,f
  5831  0C56  307F               	movlw	127
  5832  0C57  05BC               	andwf	___flmul@prod+2,f
  5833  0C58  3000               	movlw	0
  5834  0C59  05BD               	andwf	___flmul@prod+3,f
  5835  0C5A                     l2295:
  5836  0C5A  1C39               	btfss	___flmul@bexp,0
  5837  0C5B  2C5D               	goto	u3281
  5838  0C5C  2C5E               	goto	u3280
  5839  0C5D                     u3281:
  5840  0C5D  2C5F               	goto	l2299
  5841  0C5E                     u3280:
  5842  0C5E                     l2297:
  5843  0C5E  17BC               	bsf	___flmul@prod+2,7
  5844  0C5F                     l2299:
  5845  0C5F  0839               	movf	___flmul@bexp,w
  5846  0C60  00AE               	movwf	??___flmul
  5847  0C61  1003               	clrc
  5848  0C62  0C2E               	rrf	??___flmul,w
  5849  0C63  00FF               	movwf	btemp+1
  5850  0C64  087F               	movf	btemp+1,w
  5851  0C65  00BD               	movwf	___flmul@prod+3
  5852  0C66                     l658:
  5853  0C66  0833               	movf	___flmul@sign,w
  5854  0C67  00FF               	movwf	btemp+1
  5855  0C68  087F               	movf	btemp+1,w
  5856  0C69  04BD               	iorwf	___flmul@prod+3,f
  5857  0C6A                     l2301:
  5858  0C6A  083D               	movf	___flmul@prod+3,w
  5859  0C6B  00A9               	movwf	?___flmul+3
  5860  0C6C  083C               	movf	___flmul@prod+2,w
  5861  0C6D  00A8               	movwf	?___flmul+2
  5862  0C6E  083B               	movf	___flmul@prod+1,w
  5863  0C6F  00A7               	movwf	?___flmul+1
  5864  0C70  083A               	movf	___flmul@prod,w
  5865  0C71  00A6               	movwf	?___flmul
  5866  0C72                     l646:
  5867  0C72  0008               	return
  5868  0C73                     __end_of___flmul:
  5869                           
  5870                           	psect	text16
  5871  1004                     __ptext16:	
  5872 ;; *************** function __Umul8_16 *****************
  5873 ;; Defined at:
  5874 ;;		line 4 in file "C:\Program Files\Microchip\xc8\v2.20\pic\sources\c90\common\Umul8_16.c"
  5875 ;; Parameters:    Size  Location     Type
  5876 ;;  multiplier      1    wreg     unsigned char 
  5877 ;;  multiplicand    1    2[COMMON] unsigned char 
  5878 ;; Auto vars:     Size  Location     Type
  5879 ;;  multiplier      1   10[COMMON] unsigned char 
  5880 ;;  word_mpld       2    8[COMMON] unsigned int 
  5881 ;;  product         2    6[COMMON] unsigned int 
  5882 ;; Return value:  Size  Location     Type
  5883 ;;                  2    2[COMMON] unsigned int 
  5884 ;; Registers used:
  5885 ;;		wreg, status,2, status,0
  5886 ;; Tracked objects:
  5887 ;;		On entry : 0/0
  5888 ;;		On exit  : 0/0
  5889 ;;		Unchanged: 0/0
  5890 ;; Data sizes:     COMMON   BANK0   BANK1   BANK3   BANK2
  5891 ;;      Params:         2       0       0       0       0
  5892 ;;      Locals:         5       0       0       0       0
  5893 ;;      Temps:          2       0       0       0       0
  5894 ;;      Totals:         9       0       0       0       0
  5895 ;;Total ram usage:        9 bytes
  5896 ;; Hardware stack levels used:    1
  5897 ;; Hardware stack levels required when called:    1
  5898 ;; This function calls:
  5899 ;;		Nothing
  5900 ;; This function is called by:
  5901 ;;		___flmul
  5902 ;; This function uses a non-reentrant model
  5903 ;;
  5904                           
  5905                           
  5906                           ;psect for function __Umul8_16
  5907  1004                     __Umul8_16:
  5908                           
  5909                           ;incstack = 0
  5910                           ; Regs used in __Umul8_16: [wreg+status,2+status,0]
  5911                           ;__Umul8_16@multiplier stored from wreg
  5912  1004  00FB               	movwf	__Umul8_16@multiplier
  5913  1005                     l1969:
  5914  1005  01F7               	clrf	__Umul8_16@product
  5915  1006  01F8               	clrf	__Umul8_16@product+1
  5916  1007                     l1971:
  5917  1007  0873               	movf	__Umul8_16@multiplicand,w
  5918  1008  00F5               	movwf	??__Umul8_16
  5919  1009  01F6               	clrf	??__Umul8_16+1
  5920  100A  0875               	movf	??__Umul8_16,w
  5921  100B  00F9               	movwf	__Umul8_16@word_mpld
  5922  100C  0876               	movf	??__Umul8_16+1,w
  5923  100D  00FA               	movwf	__Umul8_16@word_mpld+1
  5924  100E                     l1973:
  5925  100E  1C7B               	btfss	__Umul8_16@multiplier,0
  5926  100F  2811               	goto	u2501
  5927  1010  2812               	goto	u2500
  5928  1011                     u2501:
  5929  1011  2818               	goto	l665
  5930  1012                     u2500:
  5931  1012                     l1975:
  5932  1012  0879               	movf	__Umul8_16@word_mpld,w
  5933  1013  07F7               	addwf	__Umul8_16@product,f
  5934  1014  1803               	skipnc
  5935  1015  0AF8               	incf	__Umul8_16@product+1,f
  5936  1016  087A               	movf	__Umul8_16@word_mpld+1,w
  5937  1017  07F8               	addwf	__Umul8_16@product+1,f
  5938  1018                     l665:
  5939  1018  3001               	movlw	1
  5940  1019                     u2515:
  5941  1019  1003               	clrc
  5942  101A  0DF9               	rlf	__Umul8_16@word_mpld,f
  5943  101B  0DFA               	rlf	__Umul8_16@word_mpld+1,f
  5944  101C  3EFF               	addlw	-1
  5945  101D  1D03               	skipz
  5946  101E  2819               	goto	u2515
  5947  101F  1003               	clrc
  5948  1020  0CFB               	rrf	__Umul8_16@multiplier,f
  5949  1021                     l1977:
  5950  1021  087B               	movf	__Umul8_16@multiplier,w
  5951  1022  1D03               	btfss	3,2
  5952  1023  2825               	goto	u2521
  5953  1024  2826               	goto	u2520
  5954  1025                     u2521:
  5955  1025  280E               	goto	l1973
  5956  1026                     u2520:
  5957  1026                     l1979:
  5958  1026  0878               	movf	__Umul8_16@product+1,w
  5959  1027  00F4               	movwf	?__Umul8_16+1
  5960  1028  0877               	movf	__Umul8_16@product,w
  5961  1029  00F3               	movwf	?__Umul8_16
  5962  102A                     l667:
  5963  102A  0008               	return
  5964  102B                     __end_of__Umul8_16:
  5965                           
  5966                           	psect	text17
  5967  0041                     __ptext17:	
  5968 ;; *************** function ___fldiv *****************
  5969 ;; Defined at:
  5970 ;;		line 8 in file "C:\Program Files\Microchip\xc8\v2.20\pic\sources\c90\common\sprcdiv.c"
  5971 ;; Parameters:    Size  Location     Type
  5972 ;;  a               4   60[BANK0 ] unsigned int 
  5973 ;;  b               4   64[BANK0 ] unsigned int 
  5974 ;; Auto vars:     Size  Location     Type
  5975 ;;  grs             4    7[BANK1 ] unsigned long 
  5976 ;;  rem             4    0[BANK1 ] unsigned long 
  5977 ;;  new_exp         2    5[BANK1 ] int 
  5978 ;;  aexp            1   12[BANK1 ] unsigned char 
  5979 ;;  bexp            1   11[BANK1 ] unsigned char 
  5980 ;;  sign            1    4[BANK1 ] unsigned char 
  5981 ;; Return value:  Size  Location     Type
  5982 ;;                  4   60[BANK0 ] unsigned char 
  5983 ;; Registers used:
  5984 ;;		wreg, status,2, status,0, btemp+1
  5985 ;; Tracked objects:
  5986 ;;		On entry : 0/0
  5987 ;;		On exit  : 0/0
  5988 ;;		Unchanged: 0/0
  5989 ;; Data sizes:     COMMON   BANK0   BANK1   BANK3   BANK2
  5990 ;;      Params:         0       8       0       0       0
  5991 ;;      Locals:         0       0      13       0       0
  5992 ;;      Temps:          0       5       0       0       0
  5993 ;;      Totals:         0      13      13       0       0
  5994 ;;Total ram usage:       26 bytes
  5995 ;; Hardware stack levels used:    1
  5996 ;; Hardware stack levels required when called:    1
  5997 ;; This function calls:
  5998 ;;		Nothing
  5999 ;; This function is called by:
  6000 ;;		_Get_Better_Newton_Value
  6001 ;;		_Voltage_Value
  6002 ;;		_Resistance_Value
  6003 ;;		_conversion_newton
  6004 ;; This function uses a non-reentrant model
  6005 ;;
  6006                           
  6007                           
  6008                           ;psect for function ___fldiv
  6009  0041                     ___fldiv:
  6010  0041                     l2019:	
  6011                           ;incstack = 0
  6012                           ; Regs used in ___fldiv: [wreg+status,2+status,0+btemp+1]
  6013                           
  6014  0041  1283               	bcf	3,5	;RP0=0, select bank0
  6015  0042  1303               	bcf	3,6	;RP1=0, select bank0
  6016  0043  0863               	movf	___fldiv@b+3,w
  6017  0044  3980               	andlw	128
  6018  0045  00FF               	movwf	btemp+1
  6019  0046  087F               	movf	btemp+1,w
  6020  0047  1683               	bsf	3,5	;RP0=1, select bank1
  6021  0048  1303               	bcf	3,6	;RP1=0, select bank1
  6022  0049  00A4               	movwf	___fldiv@sign^(0+128)
  6023  004A                     l2021:
  6024  004A  1283               	bcf	3,5	;RP0=0, select bank0
  6025  004B  1303               	bcf	3,6	;RP1=0, select bank0
  6026  004C  0863               	movf	___fldiv@b+3,w
  6027  004D  00E4               	movwf	??___fldiv
  6028  004E  0764               	addwf	??___fldiv,w
  6029  004F  00FF               	movwf	btemp+1
  6030  0050  087F               	movf	btemp+1,w
  6031  0051  1683               	bsf	3,5	;RP0=1, select bank1
  6032  0052  1303               	bcf	3,6	;RP1=0, select bank1
  6033  0053  00AB               	movwf	___fldiv@bexp^(0+128)
  6034  0054                     l2023:
  6035  0054  1283               	bcf	3,5	;RP0=0, select bank0
  6036  0055  1303               	bcf	3,6	;RP1=0, select bank0
  6037  0056  1FE2               	btfss	___fldiv@b+2,7
  6038  0057  2859               	goto	u2621
  6039  0058  285A               	goto	u2620
  6040  0059                     u2621:
  6041  0059  285D               	goto	l2027
  6042  005A                     u2620:
  6043  005A                     l2025:
  6044  005A  1683               	bsf	3,5	;RP0=1, select bank1
  6045  005B  1303               	bcf	3,6	;RP1=0, select bank1
  6046  005C  142B               	bsf	___fldiv@bexp^(0+128),0
  6047  005D                     l2027:
  6048  005D  1683               	bsf	3,5	;RP0=1, select bank1
  6049  005E  1303               	bcf	3,6	;RP1=0, select bank1
  6050  005F  082B               	movf	___fldiv@bexp^(0+128),w
  6051  0060  1903               	btfsc	3,2
  6052  0061  2863               	goto	u2631
  6053  0062  2864               	goto	u2630
  6054  0063                     u2631:
  6055  0063  2877               	goto	l2037
  6056  0064                     u2630:
  6057  0064                     l2029:
  6058  0064  0A2B               	incf	___fldiv@bexp^(0+128),w
  6059  0065  1D03               	btfss	3,2
  6060  0066  2868               	goto	u2641
  6061  0067  2869               	goto	u2640
  6062  0068                     u2641:
  6063  0068  2873               	goto	l2033
  6064  0069                     u2640:
  6065  0069                     l2031:
  6066  0069  3000               	movlw	0
  6067  006A  1283               	bcf	3,5	;RP0=0, select bank0
  6068  006B  1303               	bcf	3,6	;RP1=0, select bank0
  6069  006C  00E3               	movwf	___fldiv@b+3
  6070  006D  3000               	movlw	0
  6071  006E  00E2               	movwf	___fldiv@b+2
  6072  006F  3000               	movlw	0
  6073  0070  00E1               	movwf	___fldiv@b+1
  6074  0071  3000               	movlw	0
  6075  0072  00E0               	movwf	___fldiv@b
  6076  0073                     l2033:
  6077  0073  1283               	bcf	3,5	;RP0=0, select bank0
  6078  0074  17E2               	bsf	___fldiv@b+2,7
  6079  0075                     l2035:
  6080  0075  01E3               	clrf	___fldiv@b+3
  6081  0076  2881               	goto	l2039
  6082  0077                     l2037:
  6083  0077  3000               	movlw	0
  6084  0078  1283               	bcf	3,5	;RP0=0, select bank0
  6085  0079  1303               	bcf	3,6	;RP1=0, select bank0
  6086  007A  00E3               	movwf	___fldiv@b+3
  6087  007B  3000               	movlw	0
  6088  007C  00E2               	movwf	___fldiv@b+2
  6089  007D  3000               	movlw	0
  6090  007E  00E1               	movwf	___fldiv@b+1
  6091  007F  3000               	movlw	0
  6092  0080  00E0               	movwf	___fldiv@b
  6093  0081                     l2039:
  6094  0081  085F               	movf	___fldiv@a+3,w
  6095  0082  3980               	andlw	128
  6096  0083  00FF               	movwf	btemp+1
  6097  0084  087F               	movf	btemp+1,w
  6098  0085  1683               	bsf	3,5	;RP0=1, select bank1
  6099  0086  1303               	bcf	3,6	;RP1=0, select bank1
  6100  0087  06A4               	xorwf	___fldiv@sign^(0+128),f
  6101  0088                     l2041:
  6102  0088  1283               	bcf	3,5	;RP0=0, select bank0
  6103  0089  1303               	bcf	3,6	;RP1=0, select bank0
  6104  008A  085F               	movf	___fldiv@a+3,w
  6105  008B  00E4               	movwf	??___fldiv
  6106  008C  0764               	addwf	??___fldiv,w
  6107  008D  00FF               	movwf	btemp+1
  6108  008E  087F               	movf	btemp+1,w
  6109  008F  1683               	bsf	3,5	;RP0=1, select bank1
  6110  0090  1303               	bcf	3,6	;RP1=0, select bank1
  6111  0091  00AC               	movwf	___fldiv@aexp^(0+128)
  6112  0092                     l2043:
  6113  0092  1283               	bcf	3,5	;RP0=0, select bank0
  6114  0093  1303               	bcf	3,6	;RP1=0, select bank0
  6115  0094  1FDE               	btfss	___fldiv@a+2,7
  6116  0095  2897               	goto	u2651
  6117  0096  2898               	goto	u2650
  6118  0097                     u2651:
  6119  0097  289B               	goto	l2047
  6120  0098                     u2650:
  6121  0098                     l2045:
  6122  0098  1683               	bsf	3,5	;RP0=1, select bank1
  6123  0099  1303               	bcf	3,6	;RP1=0, select bank1
  6124  009A  142C               	bsf	___fldiv@aexp^(0+128),0
  6125  009B                     l2047:
  6126  009B  1683               	bsf	3,5	;RP0=1, select bank1
  6127  009C  1303               	bcf	3,6	;RP1=0, select bank1
  6128  009D  082C               	movf	___fldiv@aexp^(0+128),w
  6129  009E  1903               	btfsc	3,2
  6130  009F  28A1               	goto	u2661
  6131  00A0  28A2               	goto	u2660
  6132  00A1                     u2661:
  6133  00A1  28B5               	goto	l2057
  6134  00A2                     u2660:
  6135  00A2                     l2049:
  6136  00A2  0A2C               	incf	___fldiv@aexp^(0+128),w
  6137  00A3  1D03               	btfss	3,2
  6138  00A4  28A6               	goto	u2671
  6139  00A5  28A7               	goto	u2670
  6140  00A6                     u2671:
  6141  00A6  28B1               	goto	l2053
  6142  00A7                     u2670:
  6143  00A7                     l2051:
  6144  00A7  3000               	movlw	0
  6145  00A8  1283               	bcf	3,5	;RP0=0, select bank0
  6146  00A9  1303               	bcf	3,6	;RP1=0, select bank0
  6147  00AA  00DF               	movwf	___fldiv@a+3
  6148  00AB  3000               	movlw	0
  6149  00AC  00DE               	movwf	___fldiv@a+2
  6150  00AD  3000               	movlw	0
  6151  00AE  00DD               	movwf	___fldiv@a+1
  6152  00AF  3000               	movlw	0
  6153  00B0  00DC               	movwf	___fldiv@a
  6154  00B1                     l2053:
  6155  00B1  1283               	bcf	3,5	;RP0=0, select bank0
  6156  00B2  17DE               	bsf	___fldiv@a+2,7
  6157  00B3                     l2055:
  6158  00B3  01DF               	clrf	___fldiv@a+3
  6159  00B4  28BF               	goto	l606
  6160  00B5                     l2057:
  6161  00B5  3000               	movlw	0
  6162  00B6  1283               	bcf	3,5	;RP0=0, select bank0
  6163  00B7  1303               	bcf	3,6	;RP1=0, select bank0
  6164  00B8  00DF               	movwf	___fldiv@a+3
  6165  00B9  3000               	movlw	0
  6166  00BA  00DE               	movwf	___fldiv@a+2
  6167  00BB  3000               	movlw	0
  6168  00BC  00DD               	movwf	___fldiv@a+1
  6169  00BD  3000               	movlw	0
  6170  00BE  00DC               	movwf	___fldiv@a
  6171  00BF                     l606:
  6172  00BF  085F               	movf	___fldiv@a+3,w
  6173  00C0  045E               	iorwf	___fldiv@a+2,w
  6174  00C1  045D               	iorwf	___fldiv@a+1,w
  6175  00C2  045C               	iorwf	___fldiv@a,w
  6176  00C3  1D03               	skipz
  6177  00C4  28C6               	goto	u2681
  6178  00C5  28C7               	goto	u2680
  6179  00C6                     u2681:
  6180  00C6  28E4               	goto	l2067
  6181  00C7                     u2680:
  6182  00C7                     l2059:
  6183  00C7  3000               	movlw	0
  6184  00C8  00E3               	movwf	___fldiv@b+3
  6185  00C9  3000               	movlw	0
  6186  00CA  00E2               	movwf	___fldiv@b+2
  6187  00CB  3000               	movlw	0
  6188  00CC  00E1               	movwf	___fldiv@b+1
  6189  00CD  3000               	movlw	0
  6190  00CE  00E0               	movwf	___fldiv@b
  6191  00CF  3080               	movlw	128
  6192  00D0  04E2               	iorwf	___fldiv@b+2,f
  6193  00D1  307F               	movlw	127
  6194  00D2  04E3               	iorwf	___fldiv@b+3,f
  6195  00D3                     l2061:
  6196  00D3  1683               	bsf	3,5	;RP0=1, select bank1
  6197  00D4  1303               	bcf	3,6	;RP1=0, select bank1
  6198  00D5  0824               	movf	___fldiv@sign^(0+128),w
  6199  00D6  00FF               	movwf	btemp+1
  6200  00D7  087F               	movf	btemp+1,w
  6201  00D8  1283               	bcf	3,5	;RP0=0, select bank0
  6202  00D9  1303               	bcf	3,6	;RP1=0, select bank0
  6203  00DA  04E3               	iorwf	___fldiv@b+3,f
  6204  00DB                     l2063:
  6205  00DB  0863               	movf	___fldiv@b+3,w
  6206  00DC  00DF               	movwf	?___fldiv+3
  6207  00DD  0862               	movf	___fldiv@b+2,w
  6208  00DE  00DE               	movwf	?___fldiv+2
  6209  00DF  0861               	movf	___fldiv@b+1,w
  6210  00E0  00DD               	movwf	?___fldiv+1
  6211  00E1  0860               	movf	___fldiv@b,w
  6212  00E2  00DC               	movwf	?___fldiv
  6213  00E3  2AD8               	goto	l608
  6214  00E4                     l2067:
  6215  00E4  1683               	bsf	3,5	;RP0=1, select bank1
  6216  00E5  1303               	bcf	3,6	;RP1=0, select bank1
  6217  00E6  082B               	movf	___fldiv@bexp^(0+128),w
  6218  00E7  1D03               	btfss	3,2
  6219  00E8  28EA               	goto	u2691
  6220  00E9  28EB               	goto	u2690
  6221  00EA                     u2691:
  6222  00EA  28F6               	goto	l2073
  6223  00EB                     u2690:
  6224  00EB                     l2069:
  6225  00EB  3000               	movlw	0
  6226  00EC  1283               	bcf	3,5	;RP0=0, select bank0
  6227  00ED  1303               	bcf	3,6	;RP1=0, select bank0
  6228  00EE  00DF               	movwf	?___fldiv+3
  6229  00EF  3000               	movlw	0
  6230  00F0  00DE               	movwf	?___fldiv+2
  6231  00F1  3000               	movlw	0
  6232  00F2  00DD               	movwf	?___fldiv+1
  6233  00F3  3000               	movlw	0
  6234  00F4  00DC               	movwf	?___fldiv
  6235  00F5  2AD8               	goto	l608
  6236  00F6                     l2073:
  6237  00F6  082B               	movf	___fldiv@bexp^(0+128),w
  6238  00F7  1283               	bcf	3,5	;RP0=0, select bank0
  6239  00F8  1303               	bcf	3,6	;RP1=0, select bank0
  6240  00F9  00E4               	movwf	??___fldiv
  6241  00FA  01E5               	clrf	??___fldiv+1
  6242  00FB  0865               	movf	??___fldiv+1,w
  6243  00FC  00E7               	movwf	??___fldiv+3
  6244  00FD  1683               	bsf	3,5	;RP0=1, select bank1
  6245  00FE  1303               	bcf	3,6	;RP1=0, select bank1
  6246  00FF  082C               	movf	___fldiv@aexp^(0+128),w
  6247  0100  1283               	bcf	3,5	;RP0=0, select bank0
  6248  0101  1303               	bcf	3,6	;RP1=0, select bank0
  6249  0102  0264               	subwf	??___fldiv,w
  6250  0103  00E6               	movwf	??___fldiv+2
  6251  0104  1C03               	skipc
  6252  0105  03E7               	decf	??___fldiv+3,f
  6253  0106  0866               	movf	??___fldiv+2,w
  6254  0107  3E7F               	addlw	127
  6255  0108  1683               	bsf	3,5	;RP0=1, select bank1
  6256  0109  1303               	bcf	3,6	;RP1=0, select bank1
  6257  010A  00A5               	movwf	___fldiv@new_exp^(0+128)
  6258  010B  1283               	bcf	3,5	;RP0=0, select bank0
  6259  010C  1303               	bcf	3,6	;RP1=0, select bank0
  6260  010D  0867               	movf	??___fldiv+3,w
  6261  010E  1803               	skipnc
  6262  010F  3E01               	addlw	1
  6263  0110  3E00               	addlw	0
  6264  0111  1683               	bsf	3,5	;RP0=1, select bank1
  6265  0112  1303               	bcf	3,6	;RP1=0, select bank1
  6266  0113  00A6               	movwf	(___fldiv@new_exp+1)^(0+128)
  6267  0114                     l2075:
  6268  0114  1283               	bcf	3,5	;RP0=0, select bank0
  6269  0115  1303               	bcf	3,6	;RP1=0, select bank0
  6270  0116  0863               	movf	___fldiv@b+3,w
  6271  0117  1683               	bsf	3,5	;RP0=1, select bank1
  6272  0118  1303               	bcf	3,6	;RP1=0, select bank1
  6273  0119  00A3               	movwf	(___fldiv@rem+3)^(0+128)
  6274  011A  1283               	bcf	3,5	;RP0=0, select bank0
  6275  011B  1303               	bcf	3,6	;RP1=0, select bank0
  6276  011C  0862               	movf	___fldiv@b+2,w
  6277  011D  1683               	bsf	3,5	;RP0=1, select bank1
  6278  011E  1303               	bcf	3,6	;RP1=0, select bank1
  6279  011F  00A2               	movwf	(___fldiv@rem+2)^(0+128)
  6280  0120  1283               	bcf	3,5	;RP0=0, select bank0
  6281  0121  1303               	bcf	3,6	;RP1=0, select bank0
  6282  0122  0861               	movf	___fldiv@b+1,w
  6283  0123  1683               	bsf	3,5	;RP0=1, select bank1
  6284  0124  1303               	bcf	3,6	;RP1=0, select bank1
  6285  0125  00A1               	movwf	(___fldiv@rem+1)^(0+128)
  6286  0126  1283               	bcf	3,5	;RP0=0, select bank0
  6287  0127  1303               	bcf	3,6	;RP1=0, select bank0
  6288  0128  0860               	movf	___fldiv@b,w
  6289  0129  1683               	bsf	3,5	;RP0=1, select bank1
  6290  012A  1303               	bcf	3,6	;RP1=0, select bank1
  6291  012B  00A0               	movwf	___fldiv@rem^(0+128)
  6292  012C                     l2077:
  6293  012C  3000               	movlw	0
  6294  012D  1283               	bcf	3,5	;RP0=0, select bank0
  6295  012E  1303               	bcf	3,6	;RP1=0, select bank0
  6296  012F  00E3               	movwf	___fldiv@b+3
  6297  0130  3000               	movlw	0
  6298  0131  00E2               	movwf	___fldiv@b+2
  6299  0132  3000               	movlw	0
  6300  0133  00E1               	movwf	___fldiv@b+1
  6301  0134  3000               	movlw	0
  6302  0135  00E0               	movwf	___fldiv@b
  6303  0136                     l2079:
  6304  0136  3000               	movlw	0
  6305  0137  1683               	bsf	3,5	;RP0=1, select bank1
  6306  0138  1303               	bcf	3,6	;RP1=0, select bank1
  6307  0139  00AA               	movwf	(___fldiv@grs+3)^(0+128)
  6308  013A  3000               	movlw	0
  6309  013B  00A9               	movwf	(___fldiv@grs+2)^(0+128)
  6310  013C  3000               	movlw	0
  6311  013D  00A8               	movwf	(___fldiv@grs+1)^(0+128)
  6312  013E  3000               	movlw	0
  6313  013F  00A7               	movwf	___fldiv@grs^(0+128)
  6314  0140                     l2081:
  6315  0140  01AC               	clrf	___fldiv@aexp^(0+128)
  6316  0141  29C4               	goto	l2101
  6317  0142                     l2083:
  6318  0142  082C               	movf	___fldiv@aexp^(0+128),w
  6319  0143  1903               	btfsc	3,2
  6320  0144  2946               	goto	u2701
  6321  0145  2947               	goto	u2700
  6322  0146                     u2701:
  6323  0146  2976               	goto	l2093
  6324  0147                     u2700:
  6325  0147                     l2085:
  6326  0147  3001               	movlw	1
  6327  0148  1283               	bcf	3,5	;RP0=0, select bank0
  6328  0149  1303               	bcf	3,6	;RP1=0, select bank0
  6329  014A  00E4               	movwf	??___fldiv
  6330  014B                     u2715:
  6331  014B  1003               	clrc
  6332  014C  1683               	bsf	3,5	;RP0=1, select bank1
  6333  014D  1303               	bcf	3,6	;RP1=0, select bank1
  6334  014E  0DA0               	rlf	___fldiv@rem^(0+128),f
  6335  014F  0DA1               	rlf	(___fldiv@rem+1)^(0+128),f
  6336  0150  0DA2               	rlf	(___fldiv@rem+2)^(0+128),f
  6337  0151  0DA3               	rlf	(___fldiv@rem+3)^(0+128),f
  6338  0152  1283               	bcf	3,5	;RP0=0, select bank0
  6339  0153  1303               	bcf	3,6	;RP1=0, select bank0
  6340  0154  0BE4               	decfsz	??___fldiv,f
  6341  0155  294B               	goto	u2715
  6342  0156  3001               	movlw	1
  6343  0157  00E4               	movwf	??___fldiv
  6344  0158                     u2725:
  6345  0158  1003               	clrc
  6346  0159  0DE0               	rlf	___fldiv@b,f
  6347  015A  0DE1               	rlf	___fldiv@b+1,f
  6348  015B  0DE2               	rlf	___fldiv@b+2,f
  6349  015C  0DE3               	rlf	___fldiv@b+3,f
  6350  015D  0BE4               	decfsz	??___fldiv,f
  6351  015E  2958               	goto	u2725
  6352  015F                     l2087:
  6353  015F  1683               	bsf	3,5	;RP0=1, select bank1
  6354  0160  1303               	bcf	3,6	;RP1=0, select bank1
  6355  0161  1FAA               	btfss	(___fldiv@grs+3)^(0+128),7
  6356  0162  2964               	goto	u2731
  6357  0163  2965               	goto	u2730
  6358  0164                     u2731:
  6359  0164  2968               	goto	l2091
  6360  0165                     u2730:
  6361  0165                     l2089:
  6362  0165  1283               	bcf	3,5	;RP0=0, select bank0
  6363  0166  1303               	bcf	3,6	;RP1=0, select bank0
  6364  0167  1460               	bsf	___fldiv@b,0
  6365  0168                     l2091:
  6366  0168  3001               	movlw	1
  6367  0169  1283               	bcf	3,5	;RP0=0, select bank0
  6368  016A  00E4               	movwf	??___fldiv
  6369  016B                     u2745:
  6370  016B  1003               	clrc
  6371  016C  1683               	bsf	3,5	;RP0=1, select bank1
  6372  016D  1303               	bcf	3,6	;RP1=0, select bank1
  6373  016E  0DA7               	rlf	___fldiv@grs^(0+128),f
  6374  016F  0DA8               	rlf	(___fldiv@grs+1)^(0+128),f
  6375  0170  0DA9               	rlf	(___fldiv@grs+2)^(0+128),f
  6376  0171  0DAA               	rlf	(___fldiv@grs+3)^(0+128),f
  6377  0172  1283               	bcf	3,5	;RP0=0, select bank0
  6378  0173  1303               	bcf	3,6	;RP1=0, select bank0
  6379  0174  0BE4               	decfsz	??___fldiv,f
  6380  0175  296B               	goto	u2745
  6381  0176                     l2093:
  6382  0176  1283               	bcf	3,5	;RP0=0, select bank0
  6383  0177  085F               	movf	___fldiv@a+3,w
  6384  0178  1683               	bsf	3,5	;RP0=1, select bank1
  6385  0179  1303               	bcf	3,6	;RP1=0, select bank1
  6386  017A  0223               	subwf	(___fldiv@rem+3)^(0+128),w
  6387  017B  1D03               	skipz
  6388  017C  2993               	goto	u2755
  6389  017D  1283               	bcf	3,5	;RP0=0, select bank0
  6390  017E  1303               	bcf	3,6	;RP1=0, select bank0
  6391  017F  085E               	movf	___fldiv@a+2,w
  6392  0180  1683               	bsf	3,5	;RP0=1, select bank1
  6393  0181  1303               	bcf	3,6	;RP1=0, select bank1
  6394  0182  0222               	subwf	(___fldiv@rem+2)^(0+128),w
  6395  0183  1D03               	skipz
  6396  0184  2993               	goto	u2755
  6397  0185  1283               	bcf	3,5	;RP0=0, select bank0
  6398  0186  1303               	bcf	3,6	;RP1=0, select bank0
  6399  0187  085D               	movf	___fldiv@a+1,w
  6400  0188  1683               	bsf	3,5	;RP0=1, select bank1
  6401  0189  1303               	bcf	3,6	;RP1=0, select bank1
  6402  018A  0221               	subwf	(___fldiv@rem+1)^(0+128),w
  6403  018B  1D03               	skipz
  6404  018C  2993               	goto	u2755
  6405  018D  1283               	bcf	3,5	;RP0=0, select bank0
  6406  018E  1303               	bcf	3,6	;RP1=0, select bank0
  6407  018F  085C               	movf	___fldiv@a,w
  6408  0190  1683               	bsf	3,5	;RP0=1, select bank1
  6409  0191  1303               	bcf	3,6	;RP1=0, select bank1
  6410  0192  0220               	subwf	___fldiv@rem^(0+128),w
  6411  0193                     u2755:
  6412  0193  1C03               	skipc
  6413  0194  2996               	goto	u2751
  6414  0195  2997               	goto	u2750
  6415  0196                     u2751:
  6416  0196  29C0               	goto	l2099
  6417  0197                     u2750:
  6418  0197                     l2095:
  6419  0197  172A               	bsf	(___fldiv@grs^(0+128)+3),6
  6420  0198                     l2097:
  6421  0198  1283               	bcf	3,5	;RP0=0, select bank0
  6422  0199  1303               	bcf	3,6	;RP1=0, select bank0
  6423  019A  085C               	movf	___fldiv@a,w
  6424  019B  1683               	bsf	3,5	;RP0=1, select bank1
  6425  019C  1303               	bcf	3,6	;RP1=0, select bank1
  6426  019D  02A0               	subwf	___fldiv@rem^(0+128),f
  6427  019E  1283               	bcf	3,5	;RP0=0, select bank0
  6428  019F  1303               	bcf	3,6	;RP1=0, select bank0
  6429  01A0  085D               	movf	___fldiv@a+1,w
  6430  01A1  1C03               	skipc
  6431  01A2  0F5D               	incfsz	___fldiv@a+1,w
  6432  01A3  29A5               	goto	u2765
  6433  01A4  29A8               	goto	u2766
  6434  01A5                     u2765:
  6435  01A5  1683               	bsf	3,5	;RP0=1, select bank1
  6436  01A6  1303               	bcf	3,6	;RP1=0, select bank1
  6437  01A7  02A1               	subwf	(___fldiv@rem+1)^(0+128),f
  6438  01A8                     u2766:
  6439  01A8  1283               	bcf	3,5	;RP0=0, select bank0
  6440  01A9  1303               	bcf	3,6	;RP1=0, select bank0
  6441  01AA  085E               	movf	___fldiv@a+2,w
  6442  01AB  1C03               	skipc
  6443  01AC  0F5E               	incfsz	___fldiv@a+2,w
  6444  01AD  29AF               	goto	u2767
  6445  01AE  29B2               	goto	u2768
  6446  01AF                     u2767:
  6447  01AF  1683               	bsf	3,5	;RP0=1, select bank1
  6448  01B0  1303               	bcf	3,6	;RP1=0, select bank1
  6449  01B1  02A2               	subwf	(___fldiv@rem+2)^(0+128),f
  6450  01B2                     u2768:
  6451  01B2  1283               	bcf	3,5	;RP0=0, select bank0
  6452  01B3  1303               	bcf	3,6	;RP1=0, select bank0
  6453  01B4  085F               	movf	___fldiv@a+3,w
  6454  01B5  1C03               	skipc
  6455  01B6  0F5F               	incfsz	___fldiv@a+3,w
  6456  01B7  29B9               	goto	u2769
  6457  01B8  29BC               	goto	u2760
  6458  01B9                     u2769:
  6459  01B9  1683               	bsf	3,5	;RP0=1, select bank1
  6460  01BA  1303               	bcf	3,6	;RP1=0, select bank1
  6461  01BB  02A3               	subwf	(___fldiv@rem+3)^(0+128),f
  6462  01BC                     u2760:
  6463  01BC  1283               	bcf	3,5	;RP0=0, select bank0
  6464  01BD  1303               	bcf	3,6	;RP1=0, select bank0
  6465  01BE  1683               	bsf	3,5	;RP0=1, select bank1
  6466  01BF  1303               	bcf	3,6	;RP1=0, select bank1
  6467  01C0                     l2099:
  6468  01C0  3001               	movlw	1
  6469  01C1  00FF               	movwf	btemp+1
  6470  01C2  087F               	movf	btemp+1,w
  6471  01C3  07AC               	addwf	___fldiv@aexp^(0+128),f
  6472  01C4                     l2101:
  6473  01C4  301A               	movlw	26
  6474  01C5  022C               	subwf	___fldiv@aexp^(0+128),w
  6475  01C6  1C03               	skipc
  6476  01C7  29C9               	goto	u2771
  6477  01C8  29CA               	goto	u2770
  6478  01C9                     u2771:
  6479  01C9  2942               	goto	l2083
  6480  01CA                     u2770:
  6481  01CA                     l2103:
  6482  01CA  0823               	movf	(___fldiv@rem+3)^(0+128),w
  6483  01CB  0422               	iorwf	(___fldiv@rem+2)^(0+128),w
  6484  01CC  0421               	iorwf	(___fldiv@rem+1)^(0+128),w
  6485  01CD  0420               	iorwf	___fldiv@rem^(0+128),w
  6486  01CE  1903               	skipnz
  6487  01CF  29D1               	goto	u2781
  6488  01D0  29D2               	goto	u2780
  6489  01D1                     u2781:
  6490  01D1  29FC               	goto	l2117
  6491  01D2                     u2780:
  6492  01D2                     l2105:
  6493  01D2  1427               	bsf	___fldiv@grs^(0+128),0
  6494  01D3  29FC               	goto	l2117
  6495  01D4                     l2107:
  6496  01D4  3001               	movlw	1
  6497  01D5  00E4               	movwf	??___fldiv
  6498  01D6                     u2795:
  6499  01D6  1003               	clrc
  6500  01D7  0DE0               	rlf	___fldiv@b,f
  6501  01D8  0DE1               	rlf	___fldiv@b+1,f
  6502  01D9  0DE2               	rlf	___fldiv@b+2,f
  6503  01DA  0DE3               	rlf	___fldiv@b+3,f
  6504  01DB  0BE4               	decfsz	??___fldiv,f
  6505  01DC  29D6               	goto	u2795
  6506  01DD                     l2109:
  6507  01DD  1683               	bsf	3,5	;RP0=1, select bank1
  6508  01DE  1303               	bcf	3,6	;RP1=0, select bank1
  6509  01DF  1FAA               	btfss	(___fldiv@grs+3)^(0+128),7
  6510  01E0  29E2               	goto	u2801
  6511  01E1  29E3               	goto	u2800
  6512  01E2                     u2801:
  6513  01E2  29E6               	goto	l2113
  6514  01E3                     u2800:
  6515  01E3                     l2111:
  6516  01E3  1283               	bcf	3,5	;RP0=0, select bank0
  6517  01E4  1303               	bcf	3,6	;RP1=0, select bank0
  6518  01E5  1460               	bsf	___fldiv@b,0
  6519  01E6                     l2113:
  6520  01E6  3001               	movlw	1
  6521  01E7  1283               	bcf	3,5	;RP0=0, select bank0
  6522  01E8  00E4               	movwf	??___fldiv
  6523  01E9                     u2815:
  6524  01E9  1003               	clrc
  6525  01EA  1683               	bsf	3,5	;RP0=1, select bank1
  6526  01EB  1303               	bcf	3,6	;RP1=0, select bank1
  6527  01EC  0DA7               	rlf	___fldiv@grs^(0+128),f
  6528  01ED  0DA8               	rlf	(___fldiv@grs+1)^(0+128),f
  6529  01EE  0DA9               	rlf	(___fldiv@grs+2)^(0+128),f
  6530  01EF  0DAA               	rlf	(___fldiv@grs+3)^(0+128),f
  6531  01F0  1283               	bcf	3,5	;RP0=0, select bank0
  6532  01F1  1303               	bcf	3,6	;RP1=0, select bank0
  6533  01F2  0BE4               	decfsz	??___fldiv,f
  6534  01F3  29E9               	goto	u2815
  6535  01F4                     l2115:
  6536  01F4  30FF               	movlw	255
  6537  01F5  1683               	bsf	3,5	;RP0=1, select bank1
  6538  01F6  1303               	bcf	3,6	;RP1=0, select bank1
  6539  01F7  07A5               	addwf	___fldiv@new_exp^(0+128),f
  6540  01F8  1803               	skipnc
  6541  01F9  0AA6               	incf	(___fldiv@new_exp+1)^(0+128),f
  6542  01FA  30FF               	movlw	255
  6543  01FB  07A6               	addwf	(___fldiv@new_exp+1)^(0+128),f
  6544  01FC                     l2117:
  6545  01FC  1283               	bcf	3,5	;RP0=0, select bank0
  6546  01FD  1303               	bcf	3,6	;RP1=0, select bank0
  6547  01FE  1FE2               	btfss	___fldiv@b+2,7
  6548  01FF  2A01               	goto	u2821
  6549  0200  2A02               	goto	u2820
  6550  0201                     u2821:
  6551  0201  29D4               	goto	l2107
  6552  0202                     u2820:
  6553  0202                     l2119:
  6554  0202  1683               	bsf	3,5	;RP0=1, select bank1
  6555  0203  1303               	bcf	3,6	;RP1=0, select bank1
  6556  0204  01AC               	clrf	___fldiv@aexp^(0+128)
  6557  0205                     l2121:
  6558  0205  1FAA               	btfss	(___fldiv@grs+3)^(0+128),7
  6559  0206  2A08               	goto	u2831
  6560  0207  2A09               	goto	u2830
  6561  0208                     u2831:
  6562  0208  2A35               	goto	l2129
  6563  0209                     u2830:
  6564  0209                     l2123:
  6565  0209  30FF               	movlw	255
  6566  020A  0527               	andwf	___fldiv@grs^(0+128),w
  6567  020B  1283               	bcf	3,5	;RP0=0, select bank0
  6568  020C  1303               	bcf	3,6	;RP1=0, select bank0
  6569  020D  00E4               	movwf	??___fldiv
  6570  020E  30FF               	movlw	255
  6571  020F  1683               	bsf	3,5	;RP0=1, select bank1
  6572  0210  1303               	bcf	3,6	;RP1=0, select bank1
  6573  0211  0528               	andwf	(___fldiv@grs+1)^(0+128),w
  6574  0212  1283               	bcf	3,5	;RP0=0, select bank0
  6575  0213  1303               	bcf	3,6	;RP1=0, select bank0
  6576  0214  00E5               	movwf	??___fldiv+1
  6577  0215  30FF               	movlw	255
  6578  0216  1683               	bsf	3,5	;RP0=1, select bank1
  6579  0217  1303               	bcf	3,6	;RP1=0, select bank1
  6580  0218  0529               	andwf	(___fldiv@grs+2)^(0+128),w
  6581  0219  1283               	bcf	3,5	;RP0=0, select bank0
  6582  021A  1303               	bcf	3,6	;RP1=0, select bank0
  6583  021B  00E6               	movwf	??___fldiv+2
  6584  021C  307F               	movlw	127
  6585  021D  1683               	bsf	3,5	;RP0=1, select bank1
  6586  021E  1303               	bcf	3,6	;RP1=0, select bank1
  6587  021F  052A               	andwf	(___fldiv@grs+3)^(0+128),w
  6588  0220  1283               	bcf	3,5	;RP0=0, select bank0
  6589  0221  1303               	bcf	3,6	;RP1=0, select bank0
  6590  0222  00E7               	movwf	??___fldiv+3
  6591  0223  0867               	movf	??___fldiv+3,w
  6592  0224  0466               	iorwf	??___fldiv+2,w
  6593  0225  0465               	iorwf	??___fldiv+1,w
  6594  0226  0464               	iorwf	??___fldiv,w
  6595  0227  1903               	skipnz
  6596  0228  2A2A               	goto	u2841
  6597  0229  2A2B               	goto	u2840
  6598  022A                     u2841:
  6599  022A  2A30               	goto	l622
  6600  022B                     u2840:
  6601  022B                     l2125:
  6602  022B  1683               	bsf	3,5	;RP0=1, select bank1
  6603  022C  1303               	bcf	3,6	;RP1=0, select bank1
  6604  022D  01AC               	clrf	___fldiv@aexp^(0+128)
  6605  022E  0AAC               	incf	___fldiv@aexp^(0+128),f
  6606  022F  2A35               	goto	l2129
  6607  0230                     l622:
  6608  0230  1C60               	btfss	___fldiv@b,0
  6609  0231  2A33               	goto	u2851
  6610  0232  2A34               	goto	u2850
  6611  0233                     u2851:
  6612  0233  2A35               	goto	l2129
  6613  0234                     u2850:
  6614  0234  2A2B               	goto	l2125
  6615  0235                     l2129:
  6616  0235  1683               	bsf	3,5	;RP0=1, select bank1
  6617  0236  1303               	bcf	3,6	;RP1=0, select bank1
  6618  0237  082C               	movf	___fldiv@aexp^(0+128),w
  6619  0238  1903               	btfsc	3,2
  6620  0239  2A3B               	goto	u2861
  6621  023A  2A3C               	goto	u2860
  6622  023B                     u2861:
  6623  023B  2A71               	goto	l2139
  6624  023C                     u2860:
  6625  023C                     l2131:
  6626  023C  3001               	movlw	1
  6627  023D  1283               	bcf	3,5	;RP0=0, select bank0
  6628  023E  1303               	bcf	3,6	;RP1=0, select bank0
  6629  023F  07E0               	addwf	___fldiv@b,f
  6630  0240  3000               	movlw	0
  6631  0241  1803               	skipnc
  6632  0242  3001               	movlw	1
  6633  0243  07E1               	addwf	___fldiv@b+1,f
  6634  0244  3000               	movlw	0
  6635  0245  1803               	skipnc
  6636  0246  3001               	movlw	1
  6637  0247  07E2               	addwf	___fldiv@b+2,f
  6638  0248  3000               	movlw	0
  6639  0249  1803               	skipnc
  6640  024A  3001               	movlw	1
  6641  024B  07E3               	addwf	___fldiv@b+3,f
  6642  024C                     l2133:
  6643  024C  1C63               	btfss	___fldiv@b+3,0
  6644  024D  2A4F               	goto	u2871
  6645  024E  2A50               	goto	u2870
  6646  024F                     u2871:
  6647  024F  2A71               	goto	l2139
  6648  0250                     u2870:
  6649  0250                     l2135:
  6650  0250  0860               	movf	___fldiv@b,w
  6651  0251  00E4               	movwf	??___fldiv
  6652  0252  0861               	movf	___fldiv@b+1,w
  6653  0253  00E5               	movwf	??___fldiv+1
  6654  0254  0862               	movf	___fldiv@b+2,w
  6655  0255  00E6               	movwf	??___fldiv+2
  6656  0256  0863               	movf	___fldiv@b+3,w
  6657  0257  00E7               	movwf	??___fldiv+3
  6658  0258  3001               	movlw	1
  6659  0259  00E8               	movwf	??___fldiv+4
  6660  025A                     u2885:
  6661  025A  0D67               	rlf	??___fldiv+3,w
  6662  025B  0CE7               	rrf	??___fldiv+3,f
  6663  025C  0CE6               	rrf	??___fldiv+2,f
  6664  025D  0CE5               	rrf	??___fldiv+1,f
  6665  025E  0CE4               	rrf	??___fldiv,f
  6666  025F                     u2880:
  6667  025F  0BE8               	decfsz	??___fldiv+4,f
  6668  0260  2A5A               	goto	u2885
  6669  0261  0867               	movf	??___fldiv+3,w
  6670  0262  00E3               	movwf	___fldiv@b+3
  6671  0263  0866               	movf	??___fldiv+2,w
  6672  0264  00E2               	movwf	___fldiv@b+2
  6673  0265  0865               	movf	??___fldiv+1,w
  6674  0266  00E1               	movwf	___fldiv@b+1
  6675  0267  0864               	movf	??___fldiv,w
  6676  0268  00E0               	movwf	___fldiv@b
  6677  0269                     l2137:
  6678  0269  3001               	movlw	1
  6679  026A  1683               	bsf	3,5	;RP0=1, select bank1
  6680  026B  1303               	bcf	3,6	;RP1=0, select bank1
  6681  026C  07A5               	addwf	___fldiv@new_exp^(0+128),f
  6682  026D  1803               	skipnc
  6683  026E  0AA6               	incf	(___fldiv@new_exp+1)^(0+128),f
  6684  026F  3000               	movlw	0
  6685  0270  07A6               	addwf	(___fldiv@new_exp+1)^(0+128),f
  6686  0271                     l2139:
  6687  0271  1683               	bsf	3,5	;RP0=1, select bank1
  6688  0272  1303               	bcf	3,6	;RP1=0, select bank1
  6689  0273  0826               	movf	(___fldiv@new_exp+1)^(0+128),w
  6690  0274  3A80               	xorlw	128
  6691  0275  00FF               	movwf	btemp+1
  6692  0276  3080               	movlw	128
  6693  0277  027F               	subwf	btemp+1,w
  6694  0278  1D03               	skipz
  6695  0279  2A7C               	goto	u2895
  6696  027A  30FF               	movlw	255
  6697  027B  0225               	subwf	___fldiv@new_exp^(0+128),w
  6698  027C                     u2895:
  6699  027C  1C03               	skipc
  6700  027D  2A7F               	goto	u2891
  6701  027E  2A80               	goto	u2890
  6702  027F                     u2891:
  6703  027F  2A90               	goto	l2143
  6704  0280                     u2890:
  6705  0280                     l2141:
  6706  0280  30FF               	movlw	255
  6707  0281  1683               	bsf	3,5	;RP0=1, select bank1
  6708  0282  1303               	bcf	3,6	;RP1=0, select bank1
  6709  0283  00A5               	movwf	___fldiv@new_exp^(0+128)
  6710  0284  3000               	movlw	0
  6711  0285  00A6               	movwf	(___fldiv@new_exp^(0+128)+1)
  6712  0286  3000               	movlw	0
  6713  0287  1283               	bcf	3,5	;RP0=0, select bank0
  6714  0288  1303               	bcf	3,6	;RP1=0, select bank0
  6715  0289  00E3               	movwf	___fldiv@b+3
  6716  028A  3000               	movlw	0
  6717  028B  00E2               	movwf	___fldiv@b+2
  6718  028C  3000               	movlw	0
  6719  028D  00E1               	movwf	___fldiv@b+1
  6720  028E  3000               	movlw	0
  6721  028F  00E0               	movwf	___fldiv@b
  6722  0290                     l2143:
  6723  0290  1683               	bsf	3,5	;RP0=1, select bank1
  6724  0291  1303               	bcf	3,6	;RP1=0, select bank1
  6725  0292  0826               	movf	(___fldiv@new_exp+1)^(0+128),w
  6726  0293  3A80               	xorlw	128
  6727  0294  00FF               	movwf	btemp+1
  6728  0295  3080               	movlw	128
  6729  0296  027F               	subwf	btemp+1,w
  6730  0297  1D03               	skipz
  6731  0298  2A9B               	goto	u2905
  6732  0299  3001               	movlw	1
  6733  029A  0225               	subwf	___fldiv@new_exp^(0+128),w
  6734  029B                     u2905:
  6735  029B  1803               	skipnc
  6736  029C  2A9E               	goto	u2901
  6737  029D  2A9F               	goto	u2900
  6738  029E                     u2901:
  6739  029E  2AB0               	goto	l2151
  6740  029F                     u2900:
  6741  029F                     l2145:
  6742  029F  1683               	bsf	3,5	;RP0=1, select bank1
  6743  02A0  1303               	bcf	3,6	;RP1=0, select bank1
  6744  02A1  01A5               	clrf	___fldiv@new_exp^(0+128)
  6745  02A2  01A6               	clrf	(___fldiv@new_exp+1)^(0+128)
  6746  02A3                     l2147:
  6747  02A3  3000               	movlw	0
  6748  02A4  1283               	bcf	3,5	;RP0=0, select bank0
  6749  02A5  1303               	bcf	3,6	;RP1=0, select bank0
  6750  02A6  00E3               	movwf	___fldiv@b+3
  6751  02A7  3000               	movlw	0
  6752  02A8  00E2               	movwf	___fldiv@b+2
  6753  02A9  3000               	movlw	0
  6754  02AA  00E1               	movwf	___fldiv@b+1
  6755  02AB  3000               	movlw	0
  6756  02AC  00E0               	movwf	___fldiv@b
  6757  02AD                     l2149:
  6758  02AD  1683               	bsf	3,5	;RP0=1, select bank1
  6759  02AE  1303               	bcf	3,6	;RP1=0, select bank1
  6760  02AF  01A4               	clrf	___fldiv@sign^(0+128)
  6761  02B0                     l2151:
  6762  02B0  1683               	bsf	3,5	;RP0=1, select bank1
  6763  02B1  1303               	bcf	3,6	;RP1=0, select bank1
  6764  02B2  0825               	movf	___fldiv@new_exp^(0+128),w
  6765  02B3  00FF               	movwf	btemp+1
  6766  02B4  087F               	movf	btemp+1,w
  6767  02B5  00AB               	movwf	___fldiv@bexp^(0+128)
  6768  02B6                     l2153:
  6769  02B6  1C2B               	btfss	___fldiv@bexp^(0+128),0
  6770  02B7  2AB9               	goto	u2911
  6771  02B8  2ABA               	goto	u2910
  6772  02B9                     u2911:
  6773  02B9  2ABE               	goto	l2157
  6774  02BA                     u2910:
  6775  02BA                     l2155:
  6776  02BA  1283               	bcf	3,5	;RP0=0, select bank0
  6777  02BB  1303               	bcf	3,6	;RP1=0, select bank0
  6778  02BC  17E2               	bsf	___fldiv@b+2,7
  6779  02BD  2AC4               	goto	l630
  6780  02BE                     l2157:
  6781  02BE  307F               	movlw	127
  6782  02BF  00FF               	movwf	btemp+1
  6783  02C0  087F               	movf	btemp+1,w
  6784  02C1  1283               	bcf	3,5	;RP0=0, select bank0
  6785  02C2  1303               	bcf	3,6	;RP1=0, select bank0
  6786  02C3  05E2               	andwf	___fldiv@b+2,f
  6787  02C4                     l630:
  6788  02C4  1683               	bsf	3,5	;RP0=1, select bank1
  6789  02C5  1303               	bcf	3,6	;RP1=0, select bank1
  6790  02C6  082B               	movf	___fldiv@bexp^(0+128),w
  6791  02C7  1283               	bcf	3,5	;RP0=0, select bank0
  6792  02C8  1303               	bcf	3,6	;RP1=0, select bank0
  6793  02C9  00E4               	movwf	??___fldiv
  6794  02CA  1003               	clrc
  6795  02CB  0C64               	rrf	??___fldiv,w
  6796  02CC  00FF               	movwf	btemp+1
  6797  02CD  087F               	movf	btemp+1,w
  6798  02CE  00E3               	movwf	___fldiv@b+3
  6799  02CF  1683               	bsf	3,5	;RP0=1, select bank1
  6800  02D0  1303               	bcf	3,6	;RP1=0, select bank1
  6801  02D1  0824               	movf	___fldiv@sign^(0+128),w
  6802  02D2  00FF               	movwf	btemp+1
  6803  02D3  087F               	movf	btemp+1,w
  6804  02D4  1283               	bcf	3,5	;RP0=0, select bank0
  6805  02D5  1303               	bcf	3,6	;RP1=0, select bank0
  6806  02D6  04E3               	iorwf	___fldiv@b+3,f
  6807  02D7  28DB               	goto	l2063
  6808  02D8                     l608:
  6809  02D8  0008               	return
  6810  02D9                     __end_of___fldiv:
  6811                           
  6812                           	psect	text18
  6813  0817                     __ptext18:	
  6814 ;; *************** function _PORT_Change_Gain *****************
  6815 ;; Defined at:
  6816 ;;		line 173 in file "port.c"
  6817 ;; Parameters:    Size  Location     Type
  6818 ;;  INTER0          1    wreg     unsigned char 
  6819 ;;  INTER1          1    2[COMMON] unsigned char 
  6820 ;; Auto vars:     Size  Location     Type
  6821 ;;  INTER0          1    5[COMMON] unsigned char 
  6822 ;; Return value:  Size  Location     Type
  6823 ;;                  2    2[COMMON] unsigned int 
  6824 ;; Registers used:
  6825 ;;		wreg, status,2, status,0
  6826 ;; Tracked objects:
  6827 ;;		On entry : 0/0
  6828 ;;		On exit  : 0/0
  6829 ;;		Unchanged: 0/0
  6830 ;; Data sizes:     COMMON   BANK0   BANK1   BANK3   BANK2
  6831 ;;      Params:         3       0       0       0       0
  6832 ;;      Locals:         1       0       0       0       0
  6833 ;;      Temps:          0       0       0       0       0
  6834 ;;      Totals:         4       0       0       0       0
  6835 ;;Total ram usage:        4 bytes
  6836 ;; Hardware stack levels used:    1
  6837 ;; Hardware stack levels required when called:    1
  6838 ;; This function calls:
  6839 ;;		Nothing
  6840 ;; This function is called by:
  6841 ;;		_Get_Newton
  6842 ;; This function uses a non-reentrant model
  6843 ;;
  6844                           
  6845                           
  6846                           ;psect for function _PORT_Change_Gain
  6847  0817                     _PORT_Change_Gain:
  6848                           
  6849                           ;incstack = 0
  6850                           ; Regs used in _PORT_Change_Gain: [wreg+status,2+status,0]
  6851                           ;PORT_Change_Gain@INTER0 stored from wreg
  6852  0817  00F6               	movwf	PORT_Change_Gain@INTER0
  6853  0818                     l2367:
  6854                           
  6855                           ;port.c: 174:     PORTCbits.RC0 = INTER0;
  6856  0818  0C76               	rrf	PORT_Change_Gain@INTER0,w
  6857  0819  1283               	bcf	3,5	;RP0=0, select bank0
  6858  081A  1303               	bcf	3,6	;RP1=0, select bank0
  6859  081B  1C03               	skipc
  6860  081C  1007               	bcf	7,0	;volatile
  6861  081D  1803               	skipnc
  6862  081E  1407               	bsf	7,0	;volatile
  6863                           
  6864                           ;port.c: 175:     PORTCbits.RC1 = INTER1;
  6865  081F  0C73               	rrf	PORT_Change_Gain@INTER1,w
  6866  0820  1C03               	skipc
  6867  0821  1087               	bcf	7,1	;volatile
  6868  0822  1803               	skipnc
  6869  0823  1487               	bsf	7,1	;volatile
  6870  0824                     l2369:
  6871                           
  6872                           ;port.c: 176:     if (INTER0 == 0 && INTER1 == 0)
  6873  0824  0876               	movf	PORT_Change_Gain@INTER0,w
  6874  0825  1D03               	btfss	3,2
  6875  0826  2828               	goto	u3441
  6876  0827  2829               	goto	u3440
  6877  0828                     u3441:
  6878  0828  2833               	goto	l2379
  6879  0829                     u3440:
  6880  0829                     l2371:
  6881  0829  0873               	movf	PORT_Change_Gain@INTER1,w
  6882  082A  1D03               	btfss	3,2
  6883  082B  282D               	goto	u3451
  6884  082C  282E               	goto	u3450
  6885  082D                     u3451:
  6886  082D  2833               	goto	l2379
  6887  082E                     u3450:
  6888  082E                     l2373:
  6889                           
  6890                           ;port.c: 177:         return 52000;
  6891  082E  3020               	movlw	32
  6892  082F  00F3               	movwf	?_PORT_Change_Gain
  6893  0830  30CB               	movlw	203
  6894  0831  00F4               	movwf	?_PORT_Change_Gain+1
  6895  0832  2855               	goto	l212
  6896  0833                     l2379:
  6897  0833  0876               	movf	PORT_Change_Gain@INTER0,w
  6898  0834  1D03               	btfss	3,2
  6899  0835  2837               	goto	u3461
  6900  0836  2838               	goto	u3460
  6901  0837                     u3461:
  6902  0837  2842               	goto	l2389
  6903  0838                     u3460:
  6904  0838                     l2381:
  6905  0838  0373               	decf	PORT_Change_Gain@INTER1,w
  6906  0839  1D03               	btfss	3,2
  6907  083A  283C               	goto	u3471
  6908  083B  283D               	goto	u3470
  6909  083C                     u3471:
  6910  083C  2842               	goto	l2389
  6911  083D                     u3470:
  6912  083D                     l2383:
  6913                           
  6914                           ;port.c: 179:         return 2800;
  6915  083D  30F0               	movlw	240
  6916  083E  00F3               	movwf	?_PORT_Change_Gain
  6917  083F  300A               	movlw	10
  6918  0840  00F4               	movwf	?_PORT_Change_Gain+1
  6919  0841  2855               	goto	l212
  6920  0842                     l2389:
  6921  0842  0376               	decf	PORT_Change_Gain@INTER0,w
  6922  0843  1D03               	btfss	3,2
  6923  0844  2846               	goto	u3481
  6924  0845  2847               	goto	u3480
  6925  0846                     u3481:
  6926  0846  2851               	goto	l2399
  6927  0847                     u3480:
  6928  0847                     l2391:
  6929  0847  0873               	movf	PORT_Change_Gain@INTER1,w
  6930  0848  1D03               	btfss	3,2
  6931  0849  284B               	goto	u3491
  6932  084A  284C               	goto	u3490
  6933  084B                     u3491:
  6934  084B  2851               	goto	l2399
  6935  084C                     u3490:
  6936  084C                     l2393:
  6937                           
  6938                           ;port.c: 181:         return 8300;
  6939  084C  306C               	movlw	108
  6940  084D  00F3               	movwf	?_PORT_Change_Gain
  6941  084E  3020               	movlw	32
  6942  084F  00F4               	movwf	?_PORT_Change_Gain+1
  6943  0850  2855               	goto	l212
  6944  0851                     l2399:
  6945                           
  6946                           ;port.c: 183:         return 3000;
  6947  0851  30B8               	movlw	184
  6948  0852  00F3               	movwf	?_PORT_Change_Gain
  6949  0853  300B               	movlw	11
  6950  0854  00F4               	movwf	?_PORT_Change_Gain+1
  6951  0855                     l212:
  6952  0855  0008               	return
  6953  0856                     __end_of_PORT_Change_Gain:
  6954                           
  6955                           	psect	text19
  6956  1BB7                     __ptext19:	
  6957 ;; *************** function _ADC_GetValue *****************
  6958 ;; Defined at:
  6959 ;;		line 16 in file "adc.c"
  6960 ;; Parameters:    Size  Location     Type
  6961 ;;  channel         1    wreg     unsigned char 
  6962 ;; Auto vars:     Size  Location     Type
  6963 ;;  channel         1    3[COMMON] unsigned char 
  6964 ;;  sensor_value    1    4[COMMON] unsigned char 
  6965 ;; Return value:  Size  Location     Type
  6966 ;;                  1    wreg      unsigned char 
  6967 ;; Registers used:
  6968 ;;		wreg, status,2, status,0, btemp+1, pclath, cstack
  6969 ;; Tracked objects:
  6970 ;;		On entry : 0/0
  6971 ;;		On exit  : 0/0
  6972 ;;		Unchanged: 0/0
  6973 ;; Data sizes:     COMMON   BANK0   BANK1   BANK3   BANK2
  6974 ;;      Params:         0       0       0       0       0
  6975 ;;      Locals:         2       0       0       0       0
  6976 ;;      Temps:          0       0       0       0       0
  6977 ;;      Totals:         2       0       0       0       0
  6978 ;;Total ram usage:        2 bytes
  6979 ;; Hardware stack levels used:    1
  6980 ;; Hardware stack levels required when called:    2
  6981 ;; This function calls:
  6982 ;;		_PORT_Choose_Mux
  6983 ;;		_PORT_Get_Value_Adc
  6984 ;;		_PORT_Start_ADC
  6985 ;; This function is called by:
  6986 ;;		_Get_Newton
  6987 ;; This function uses a non-reentrant model
  6988 ;;
  6989                           
  6990                           
  6991                           ;psect for function _ADC_GetValue
  6992  1BB7                     _ADC_GetValue:
  6993                           
  6994                           ;incstack = 0
  6995                           ; Regs used in _ADC_GetValue: [wreg+status,2+status,0+btemp+1+pclath+cstack]
  6996                           ;ADC_GetValue@channel stored from wreg
  6997  1BB7  00F4               	movwf	ADC_GetValue@channel
  6998  1BB8                     l2403:
  6999                           
  7000                           ;adc.c: 18:     unsigned char sensor_value;;adc.c: 19:     PORT_Choose_Mux(channel);
  7001  1BB8  0874               	movf	ADC_GetValue@channel,w
  7002  1BB9  160A  158A  2342  160A  158A  	fcall	_PORT_Choose_Mux
  7003  1BBE                     l2405:
  7004                           
  7005                           ;adc.c: 20:     PORT_Start_ADC();
  7006  1BBE  160A  158A  2322  160A  158A  	fcall	_PORT_Start_ADC
  7007  1BC3                     l2407:
  7008                           
  7009                           ;adc.c: 21:     sensor_value = PORT_Get_Value_Adc();
  7010  1BC3  120A  118A  2012  160A  158A  	fcall	_PORT_Get_Value_Adc
  7011  1BC8  00FF               	movwf	btemp+1
  7012  1BC9  087F               	movf	btemp+1,w
  7013  1BCA  00F5               	movwf	ADC_GetValue@sensor_value
  7014  1BCB                     l2409:
  7015                           
  7016                           ;adc.c: 22:     if (sensor_value > 127) {
  7017  1BCB  3080               	movlw	128
  7018  1BCC  0275               	subwf	ADC_GetValue@sensor_value,w
  7019  1BCD  1C03               	skipc
  7020  1BCE  2BD0               	goto	u3501
  7021  1BCF  2BD1               	goto	u3500
  7022  1BD0                     u3501:
  7023  1BD0  2BD6               	goto	l2413
  7024  1BD1                     u3500:
  7025  1BD1                     l2411:
  7026                           
  7027                           ;adc.c: 23:         sensor_value = 127;
  7028  1BD1  307F               	movlw	127
  7029  1BD2  00FF               	movwf	btemp+1
  7030  1BD3  087F               	movf	btemp+1,w
  7031  1BD4  00F5               	movwf	ADC_GetValue@sensor_value
  7032                           
  7033                           ;adc.c: 24:     }
  7034  1BD5  2BDC               	goto	l2417
  7035  1BD6                     l2413:
  7036  1BD6  0875               	movf	ADC_GetValue@sensor_value,w
  7037  1BD7  1D03               	btfss	3,2
  7038  1BD8  2BDA               	goto	u3511
  7039  1BD9  2BDB               	goto	u3510
  7040  1BDA                     u3511:
  7041  1BDA  2BDC               	goto	l2417
  7042  1BDB                     u3510:
  7043  1BDB                     l2415:
  7044                           
  7045                           ;adc.c: 26:         sensor_value = 0;
  7046  1BDB  01F5               	clrf	ADC_GetValue@sensor_value
  7047  1BDC                     l2417:
  7048                           
  7049                           ;adc.c: 28:     return sensor_value;
  7050  1BDC  0875               	movf	ADC_GetValue@sensor_value,w
  7051  1BDD                     l117:
  7052  1BDD  0008               	return
  7053  1BDE                     __end_of_ADC_GetValue:
  7054                           
  7055                           	psect	text20
  7056  1B22                     __ptext20:	
  7057 ;; *************** function _PORT_Start_ADC *****************
  7058 ;; Defined at:
  7059 ;;		line 104 in file "port.c"
  7060 ;; Parameters:    Size  Location     Type
  7061 ;;		None
  7062 ;; Auto vars:     Size  Location     Type
  7063 ;;		None
  7064 ;; Return value:  Size  Location     Type
  7065 ;;                  1    wreg      void 
  7066 ;; Registers used:
  7067 ;;		None
  7068 ;; Tracked objects:
  7069 ;;		On entry : 0/0
  7070 ;;		On exit  : 0/0
  7071 ;;		Unchanged: 0/0
  7072 ;; Data sizes:     COMMON   BANK0   BANK1   BANK3   BANK2
  7073 ;;      Params:         0       0       0       0       0
  7074 ;;      Locals:         0       0       0       0       0
  7075 ;;      Temps:          0       0       0       0       0
  7076 ;;      Totals:         0       0       0       0       0
  7077 ;;Total ram usage:        0 bytes
  7078 ;; Hardware stack levels used:    1
  7079 ;; Hardware stack levels required when called:    1
  7080 ;; This function calls:
  7081 ;;		Nothing
  7082 ;; This function is called by:
  7083 ;;		_ADC_GetValue
  7084 ;; This function uses a non-reentrant model
  7085 ;;
  7086                           
  7087                           
  7088                           ;psect for function _PORT_Start_ADC
  7089  1B22                     _PORT_Start_ADC:
  7090  1B22                     l1987:	
  7091                           ;incstack = 0
  7092                           ; Regs used in _PORT_Start_ADC: []
  7093                           
  7094                           
  7095                           ;port.c: 105:     GO_nDONE=1;
  7096  1B22  1283               	bcf	3,5	;RP0=0, select bank0
  7097  1B23  1303               	bcf	3,6	;RP1=0, select bank0
  7098  1B24  149F               	bsf	31,1	;volatile
  7099  1B25                     l184:	
  7100                           ;port.c: 106:     while(GO_nDONE);
  7101                           
  7102  1B25  189F               	btfsc	31,1	;volatile
  7103  1B26  2B28               	goto	u2541
  7104  1B27  2B29               	goto	u2540
  7105  1B28                     u2541:
  7106  1B28  2B25               	goto	l184
  7107  1B29                     u2540:
  7108  1B29                     l187:
  7109  1B29  0008               	return
  7110  1B2A                     __end_of_PORT_Start_ADC:
  7111                           
  7112                           	psect	text21
  7113  0012                     __ptext21:	
  7114 ;; *************** function _PORT_Get_Value_Adc *****************
  7115 ;; Defined at:
  7116 ;;		line 118 in file "port.c"
  7117 ;; Parameters:    Size  Location     Type
  7118 ;;		None
  7119 ;; Auto vars:     Size  Location     Type
  7120 ;;		None
  7121 ;; Return value:  Size  Location     Type
  7122 ;;                  1    wreg      unsigned char 
  7123 ;; Registers used:
  7124 ;;		wreg
  7125 ;; Tracked objects:
  7126 ;;		On entry : 0/0
  7127 ;;		On exit  : 0/0
  7128 ;;		Unchanged: 0/0
  7129 ;; Data sizes:     COMMON   BANK0   BANK1   BANK3   BANK2
  7130 ;;      Params:         0       0       0       0       0
  7131 ;;      Locals:         0       0       0       0       0
  7132 ;;      Temps:          0       0       0       0       0
  7133 ;;      Totals:         0       0       0       0       0
  7134 ;;Total ram usage:        0 bytes
  7135 ;; Hardware stack levels used:    1
  7136 ;; Hardware stack levels required when called:    1
  7137 ;; This function calls:
  7138 ;;		Nothing
  7139 ;; This function is called by:
  7140 ;;		_ADC_GetValue
  7141 ;; This function uses a non-reentrant model
  7142 ;;
  7143                           
  7144                           
  7145                           ;psect for function _PORT_Get_Value_Adc
  7146  0012                     _PORT_Get_Value_Adc:
  7147  0012                     l1989:	
  7148                           ;incstack = 0
  7149                           ; Regs used in _PORT_Get_Value_Adc: [wreg]
  7150                           
  7151                           
  7152                           ;port.c: 119:     return ADRES;
  7153  0012  1283               	bcf	3,5	;RP0=0, select bank0
  7154  0013  1303               	bcf	3,6	;RP1=0, select bank0
  7155  0014  081E               	movf	30,w	;volatile
  7156  0015                     l190:
  7157  0015  0008               	return
  7158  0016                     __end_of_PORT_Get_Value_Adc:
  7159                           
  7160                           	psect	text22
  7161  1B42                     __ptext22:	
  7162 ;; *************** function _PORT_Choose_Mux *****************
  7163 ;; Defined at:
  7164 ;;		line 94 in file "port.c"
  7165 ;; Parameters:    Size  Location     Type
  7166 ;;  _value          1    wreg     unsigned char 
  7167 ;; Auto vars:     Size  Location     Type
  7168 ;;  _value          1    2[COMMON] unsigned char 
  7169 ;; Return value:  Size  Location     Type
  7170 ;;                  1    wreg      void 
  7171 ;; Registers used:
  7172 ;;		wreg, status,2, status,0, btemp+1
  7173 ;; Tracked objects:
  7174 ;;		On entry : 0/0
  7175 ;;		On exit  : 0/0
  7176 ;;		Unchanged: 0/0
  7177 ;; Data sizes:     COMMON   BANK0   BANK1   BANK3   BANK2
  7178 ;;      Params:         0       0       0       0       0
  7179 ;;      Locals:         1       0       0       0       0
  7180 ;;      Temps:          0       0       0       0       0
  7181 ;;      Totals:         1       0       0       0       0
  7182 ;;Total ram usage:        1 bytes
  7183 ;; Hardware stack levels used:    1
  7184 ;; Hardware stack levels required when called:    1
  7185 ;; This function calls:
  7186 ;;		Nothing
  7187 ;; This function is called by:
  7188 ;;		_ADC_GetValue
  7189 ;; This function uses a non-reentrant model
  7190 ;;
  7191                           
  7192                           
  7193                           ;psect for function _PORT_Choose_Mux
  7194  1B42                     _PORT_Choose_Mux:
  7195                           
  7196                           ;incstack = 0
  7197                           ; Regs used in _PORT_Choose_Mux: [wreg+status,2+status,0+btemp+1]
  7198                           ;PORT_Choose_Mux@_value stored from wreg
  7199  1B42  00F3               	movwf	PORT_Choose_Mux@_value
  7200  1B43                     l1983:
  7201                           
  7202                           ;port.c: 95:     if (_value <= 0x0F) {
  7203  1B43  3010               	movlw	16
  7204  1B44  0273               	subwf	PORT_Choose_Mux@_value,w
  7205  1B45  1803               	skipnc
  7206  1B46  2B48               	goto	u2531
  7207  1B47  2B49               	goto	u2530
  7208  1B48                     u2531:
  7209  1B48  2B53               	goto	l181
  7210  1B49                     u2530:
  7211  1B49                     l1985:
  7212                           
  7213                           ;port.c: 96:         PORTD &= 0xF0;
  7214  1B49  30F0               	movlw	240
  7215  1B4A  00FF               	movwf	btemp+1
  7216  1B4B  087F               	movf	btemp+1,w
  7217  1B4C  1283               	bcf	3,5	;RP0=0, select bank0
  7218  1B4D  1303               	bcf	3,6	;RP1=0, select bank0
  7219  1B4E  0588               	andwf	8,f	;volatile
  7220                           
  7221                           ;port.c: 97:         PORTD |= _value;
  7222  1B4F  0873               	movf	PORT_Choose_Mux@_value,w	;volatile
  7223  1B50  00FF               	movwf	btemp+1
  7224  1B51  087F               	movf	btemp+1,w
  7225  1B52  0488               	iorwf	8,f	;volatile
  7226  1B53                     l181:
  7227  1B53  0008               	return
  7228  1B54                     __end_of_PORT_Choose_Mux:
  7229                           
  7230                           	psect	text23
  7231  1B54                     __ptext23:	
  7232 ;; *************** function _isr *****************
  7233 ;; Defined at:
  7234 ;;		line 78 in file "timer.c"
  7235 ;; Parameters:    Size  Location     Type
  7236 ;;		None
  7237 ;; Auto vars:     Size  Location     Type
  7238 ;;		None
  7239 ;; Return value:  Size  Location     Type
  7240 ;;                  1    wreg      void 
  7241 ;; Registers used:
  7242 ;;		None
  7243 ;; Tracked objects:
  7244 ;;		On entry : 0/0
  7245 ;;		On exit  : 0/0
  7246 ;;		Unchanged: 0/0
  7247 ;; Data sizes:     COMMON   BANK0   BANK1   BANK3   BANK2
  7248 ;;      Params:         0       0       0       0       0
  7249 ;;      Locals:         0       0       0       0       0
  7250 ;;      Temps:          2       0       0       0       0
  7251 ;;      Totals:         2       0       0       0       0
  7252 ;;Total ram usage:        2 bytes
  7253 ;; Hardware stack levels used:    1
  7254 ;; This function calls:
  7255 ;;		Nothing
  7256 ;; This function is called by:
  7257 ;;		Interrupt level 1
  7258 ;; This function uses a non-reentrant model
  7259 ;;
  7260                           
  7261                           
  7262                           ;psect for function _isr
  7263  1B54                     _isr:
  7264  1B54                     i1l2711:
  7265                           
  7266                           ;timer.c: 85: if (TMR1IF)
  7267  1B54  1283               	bcf	3,5	;RP0=0, select bank0
  7268  1B55  1303               	bcf	3,6	;RP1=0, select bank0
  7269  1B56  1C0C               	btfss	12,0	;volatile
  7270  1B57  2B59               	goto	u404_21
  7271  1B58  2B5A               	goto	u404_20
  7272  1B59                     u404_21:
  7273  1B59  2B61               	goto	i1l251
  7274  1B5A                     u404_20:
  7275  1B5A                     i1l2713:
  7276                           
  7277                           ;timer.c: 86:      {;timer.c: 88:      Fincompt1 = 1;
  7278  1B5A  1683               	bsf	3,5	;RP0=1, select bank1
  7279  1B5B  1303               	bcf	3,6	;RP1=0, select bank1
  7280  1B5C  01D5               	clrf	_Fincompt1^(0+128)
  7281  1B5D  0AD5               	incf	_Fincompt1^(0+128),f
  7282                           
  7283                           ;timer.c: 91:      TMR1IF=0;
  7284  1B5E  1283               	bcf	3,5	;RP0=0, select bank0
  7285  1B5F  1303               	bcf	3,6	;RP1=0, select bank0
  7286  1B60  100C               	bcf	12,0	;volatile
  7287  1B61                     i1l251:	
  7288                           ;timer.c: 92:      }
  7289                           
  7290                           
  7291                           ;timer.c: 94: if (TMRAIF)
  7292  1B61  1E0D               	btfss	13,4	;volatile
  7293  1B62  2B64               	goto	u405_21
  7294  1B63  2B65               	goto	u405_20
  7295  1B64                     u405_21:
  7296  1B64  2B66               	goto	i1l253
  7297  1B65                     u405_20:
  7298  1B65                     i1l2715:
  7299                           
  7300                           ;timer.c: 95:      {;timer.c: 100:      TMRAIF=0;
  7301  1B65  120D               	bcf	13,4	;volatile
  7302  1B66                     i1l253:
  7303  1B66  0872               	movf	??_isr+1,w
  7304  1B67  008A               	movwf	10
  7305  1B68  0E71               	swapf	??_isr^(0+4294967168),w
  7306  1B69  0083               	movwf	3
  7307  1B6A  0EFE               	swapf	btemp,f
  7308  1B6B  0E7E               	swapf	btemp,w
  7309  1B6C  0009               	retfie
  7310  1B6D                     __end_of_isr:
  7311  007E                     btemp	set	126	;btemp
  7312  007E                     wtemp0	set	126
  7313                           
  7314                           	psect	intentry
  7315  0004                     __pintentry:	
  7316                           ;incstack = 0
  7317                           ; Regs used in _isr: []
  7318                           
  7319  0004                     interrupt_function:
  7320  007E                     saved_w	set	btemp
  7321  0004  00FE               	movwf	btemp
  7322  0005  0E03               	swapf	3,w
  7323  0006  00F1               	movwf	??_isr
  7324  0007  080A               	movf	10,w
  7325  0008  00F2               	movwf	??_isr+1
  7326  0009  160A  158A  2B54   	ljmp	_isr
  7327                           
  7328                           	psect	config
  7329                           
  7330                           ;Config register CONFIG @ 0x2007
  7331                           ;	Oscillator Selection bits
  7332                           ;	FOSC = INTOSC, INTOSC oscillator: CLKOUT function on RA6/OSC2/CLKOUT pin, I/O function
      +                            on RA7/OSC1/CLKIN
  7333                           ;	Watchdog Timer Enable bit
  7334                           ;	WDTE = OFF, WDT disabled and can be enabled by SWDTEN bit of the WDTCON register
  7335                           ;	Power-up Timer Enable bit
  7336                           ;	PWRTE = OFF, PWRT disabled
  7337                           ;	RE3/MCLR Pin Function Select bit
  7338                           ;	MCLRE = ON, RE3/MCLR pin function is MCLR
  7339                           ;	Code Protection bit
  7340                           ;	CP = OFF, Program memory code protection is disabled
  7341                           ;	Brown-out Reset Selection bits
  7342                           ;	BOREN = ON, BOR enabled
  7343                           ;	Brown-out Reset Voltage Selection bit
  7344                           ;	BORV = 19, Brown-out Reset Voltage (VBOR) set to 1.9 V nominal
  7345                           ;	INTOSC PLLEN Enable Bit
  7346                           ;	PLLEN = ON, INTOSC Frequency is 16 MHz (32x)
  7347  2007                     	org	8199
  7348  2007  3FF5               	dw	16373
  7349                           
  7350                           ;Config register CONFIG2 @ 0x2008
  7351                           ;	Voltage Regulator Capacitor Enable bits
  7352                           ;	VCAPEN = OFF, All VCAP pin functions are disabled
  7353  2008                     	org	8200
  7354  2008  FFFF               	dw	65535
  7355                           
  7356                           	psect	text7_split_1
  7357  132B                     l2443:
  7358  132B  3011               	movlw	low (((conversion_newton@R_tab+16)-__stringbase)| (0+32768))
  7359  132C  0084               	movwf	4
  7360  132D  160A  158A  2000  160A  118A  	fcall	stringdir
  7361  1332  1683               	bsf	3,5	;RP0=1, select bank1
  7362  1333  1303               	bcf	3,6	;RP1=0, select bank1
  7363  1334  00AD               	movwf	??_conversion_newton^(0+128)
  7364  1335  160A  158A  2000  160A  118A  	fcall	stringdir
  7365  133A  00AE               	movwf	(??_conversion_newton^(0+128)+1)
  7366  133B  160A  158A  2000  160A  118A  	fcall	stringdir
  7367  1340  00AF               	movwf	(??_conversion_newton^(0+128)+2)
  7368  1341  160A  158A  2000  160A  118A  	fcall	stringdir
  7369  1346  00B0               	movwf	(??_conversion_newton^(0+128)+3)
  7370  1347  0830               	movf	(??_conversion_newton+3)^(0+128),w
  7371  1348  00F6               	movwf	___flge@ff1+3
  7372  1349  082F               	movf	(??_conversion_newton+2)^(0+128),w
  7373  134A  00F5               	movwf	___flge@ff1+2
  7374  134B  082E               	movf	(??_conversion_newton+1)^(0+128),w
  7375  134C  00F4               	movwf	___flge@ff1+1
  7376  134D  082D               	movf	??_conversion_newton^(0+128),w
  7377  134E  00F3               	movwf	___flge@ff1
  7378  134F  1283               	bcf	3,5	;RP0=0, select bank0
  7379  1350  1303               	bcf	3,6	;RP1=0, select bank0
  7380  1351  086C               	movf	conversion_newton@Rc+3,w
  7381  1352  00FA               	movwf	___flge@ff2+3
  7382  1353  086B               	movf	conversion_newton@Rc+2,w
  7383  1354  00F9               	movwf	___flge@ff2+2
  7384  1355  086A               	movf	conversion_newton@Rc+1,w
  7385  1356  00F8               	movwf	___flge@ff2+1
  7386  1357  0869               	movf	conversion_newton@Rc,w
  7387  1358  00F7               	movwf	___flge@ff2
  7388  1359  160A  158A  2537  160A  118A  	fcall	___flge
  7389  135E  1C03               	btfss	3,0
  7390  135F  2B61               	goto	u3571
  7391  1360  2B62               	goto	u3570
  7392  1361                     u3571:
  7393  1361  2BA2               	goto	l2449
  7394  1362                     u3570:
  7395  1362                     l2445:
  7396  1362  300D               	movlw	low (((conversion_newton@R_tab+12)-__stringbase)| (0+32768))
  7397  1363  0084               	movwf	4
  7398  1364  160A  158A  2000  160A  118A  	fcall	stringdir
  7399  1369  1683               	bsf	3,5	;RP0=1, select bank1
  7400  136A  1303               	bcf	3,6	;RP1=0, select bank1
  7401  136B  00AD               	movwf	??_conversion_newton^(0+128)
  7402  136C  160A  158A  2000  160A  118A  	fcall	stringdir
  7403  1371  00AE               	movwf	(??_conversion_newton^(0+128)+1)
  7404  1372  160A  158A  2000  160A  118A  	fcall	stringdir
  7405  1377  00AF               	movwf	(??_conversion_newton^(0+128)+2)
  7406  1378  160A  158A  2000  160A  118A  	fcall	stringdir
  7407  137D  00B0               	movwf	(??_conversion_newton^(0+128)+3)
  7408  137E  0830               	movf	(??_conversion_newton+3)^(0+128),w
  7409  137F  00F6               	movwf	___flge@ff1+3
  7410  1380  082F               	movf	(??_conversion_newton+2)^(0+128),w
  7411  1381  00F5               	movwf	___flge@ff1+2
  7412  1382  082E               	movf	(??_conversion_newton+1)^(0+128),w
  7413  1383  00F4               	movwf	___flge@ff1+1
  7414  1384  082D               	movf	??_conversion_newton^(0+128),w
  7415  1385  00F3               	movwf	___flge@ff1
  7416  1386  1283               	bcf	3,5	;RP0=0, select bank0
  7417  1387  1303               	bcf	3,6	;RP1=0, select bank0
  7418  1388  086C               	movf	conversion_newton@Rc+3,w
  7419  1389  00FA               	movwf	___flge@ff2+3
  7420  138A  086B               	movf	conversion_newton@Rc+2,w
  7421  138B  00F9               	movwf	___flge@ff2+2
  7422  138C  086A               	movf	conversion_newton@Rc+1,w
  7423  138D  00F8               	movwf	___flge@ff2+1
  7424  138E  0869               	movf	conversion_newton@Rc,w
  7425  138F  00F7               	movwf	___flge@ff2
  7426  1390  160A  158A  2537  160A  118A  	fcall	___flge
  7427  1395  1803               	btfsc	3,0
  7428  1396  2B98               	goto	u3581
  7429  1397  2B99               	goto	u3580
  7430  1398                     u3581:
  7431  1398  2BA2               	goto	l2449
  7432  1399                     u3580:
  7433  1399                     l2447:
  7434                           
  7435                           ;main.c: 229:          {;main.c: 230:          n = 3;
  7436  1399  3003               	movlw	3
  7437  139A  1683               	bsf	3,5	;RP0=1, select bank1
  7438  139B  1303               	bcf	3,6	;RP1=0, select bank1
  7439  139C  00CE               	movwf	conversion_newton@n^(0+128)
  7440  139D  3000               	movlw	0
  7441  139E  00CF               	movwf	(conversion_newton@n^(0+128)+1)
  7442  139F                     L2:
  7443                           
  7444                           ;main.c: 231:          }
  7445  139F  120A  118A  2D9D   	goto	l2541
  7446  13A2                     l2449:
  7447  13A2  3015               	movlw	low (((conversion_newton@R_tab+20)-__stringbase)| (0+32768))
  7448  13A3  0084               	movwf	4
  7449  13A4  160A  158A  2000  160A  118A  	fcall	stringdir
  7450  13A9  1683               	bsf	3,5	;RP0=1, select bank1
  7451  13AA  1303               	bcf	3,6	;RP1=0, select bank1
  7452  13AB  00AD               	movwf	??_conversion_newton^(0+128)
  7453  13AC  160A  158A  2000  160A  118A  	fcall	stringdir
  7454  13B1  00AE               	movwf	(??_conversion_newton^(0+128)+1)
  7455  13B2  160A  158A  2000  160A  118A  	fcall	stringdir
  7456  13B7  00AF               	movwf	(??_conversion_newton^(0+128)+2)
  7457  13B8  160A  158A  2000  160A  118A  	fcall	stringdir
  7458  13BD  00B0               	movwf	(??_conversion_newton^(0+128)+3)
  7459  13BE  0830               	movf	(??_conversion_newton+3)^(0+128),w
  7460  13BF  00F6               	movwf	___flge@ff1+3
  7461  13C0  082F               	movf	(??_conversion_newton+2)^(0+128),w
  7462  13C1  00F5               	movwf	___flge@ff1+2
  7463  13C2  082E               	movf	(??_conversion_newton+1)^(0+128),w
  7464  13C3  00F4               	movwf	___flge@ff1+1
  7465  13C4  082D               	movf	??_conversion_newton^(0+128),w
  7466  13C5  00F3               	movwf	___flge@ff1
  7467  13C6  1283               	bcf	3,5	;RP0=0, select bank0
  7468  13C7  1303               	bcf	3,6	;RP1=0, select bank0
  7469  13C8  086C               	movf	conversion_newton@Rc+3,w
  7470  13C9  00FA               	movwf	___flge@ff2+3
  7471  13CA  086B               	movf	conversion_newton@Rc+2,w
  7472  13CB  00F9               	movwf	___flge@ff2+2
  7473  13CC  086A               	movf	conversion_newton@Rc+1,w
  7474  13CD  00F8               	movwf	___flge@ff2+1
  7475  13CE  0869               	movf	conversion_newton@Rc,w
  7476  13CF  00F7               	movwf	___flge@ff2
  7477  13D0  160A  158A  2537  160A  118A  	fcall	___flge
  7478  13D5  1C03               	btfss	3,0
  7479  13D6  2BD8               	goto	u3591
  7480  13D7  2BD9               	goto	u3590
  7481  13D8                     u3591:
  7482  13D8  2C17               	goto	l2455
  7483  13D9                     u3590:
  7484  13D9                     l2451:
  7485  13D9  3011               	movlw	low (((conversion_newton@R_tab+16)-__stringbase)| (0+32768))
  7486  13DA  0084               	movwf	4
  7487  13DB  160A  158A  2000  160A  118A  	fcall	stringdir
  7488  13E0  1683               	bsf	3,5	;RP0=1, select bank1
  7489  13E1  1303               	bcf	3,6	;RP1=0, select bank1
  7490  13E2  00AD               	movwf	??_conversion_newton^(0+128)
  7491  13E3  160A  158A  2000  160A  118A  	fcall	stringdir
  7492  13E8  00AE               	movwf	(??_conversion_newton^(0+128)+1)
  7493  13E9  160A  158A  2000  160A  118A  	fcall	stringdir
  7494  13EE  00AF               	movwf	(??_conversion_newton^(0+128)+2)
  7495  13EF  160A  158A  2000  160A  118A  	fcall	stringdir
  7496  13F4  00B0               	movwf	(??_conversion_newton^(0+128)+3)
  7497  13F5  0830               	movf	(??_conversion_newton+3)^(0+128),w
  7498  13F6  00F6               	movwf	___flge@ff1+3
  7499  13F7  082F               	movf	(??_conversion_newton+2)^(0+128),w
  7500  13F8  00F5               	movwf	___flge@ff1+2
  7501  13F9  082E               	movf	(??_conversion_newton+1)^(0+128),w
  7502  13FA  00F4               	movwf	___flge@ff1+1
  7503  13FB  082D               	movf	??_conversion_newton^(0+128),w
  7504  13FC  00F3               	movwf	___flge@ff1
  7505  13FD  1283               	bcf	3,5	;RP0=0, select bank0
  7506  13FE  1303               	bcf	3,6	;RP1=0, select bank0
  7507  13FF  086C               	movf	conversion_newton@Rc+3,w
  7508  1400  00FA               	movwf	___flge@ff2+3
  7509  1401  086B               	movf	conversion_newton@Rc+2,w
  7510  1402  00F9               	movwf	___flge@ff2+2
  7511  1403  086A               	movf	conversion_newton@Rc+1,w
  7512  1404  00F8               	movwf	___flge@ff2+1
  7513  1405  0869               	movf	conversion_newton@Rc,w
  7514  1406  00F7               	movwf	___flge@ff2
  7515  1407  160A  158A  2537  160A  118A  	fcall	___flge
  7516  140C  1803               	btfsc	3,0
  7517  140D  2C0F               	goto	u3601
  7518  140E  2C10               	goto	u3600
  7519  140F                     u3601:
  7520  140F  2C17               	goto	l2455
  7521  1410                     u3600:
  7522  1410                     l2453:
  7523                           
  7524                           ;main.c: 233:          {;main.c: 234:          n = 4;
  7525  1410  3004               	movlw	4
  7526  1411  1683               	bsf	3,5	;RP0=1, select bank1
  7527  1412  1303               	bcf	3,6	;RP1=0, select bank1
  7528  1413  00CE               	movwf	conversion_newton@n^(0+128)
  7529  1414  3000               	movlw	0
  7530  1415  00CF               	movwf	(conversion_newton@n^(0+128)+1)
  7531                           
  7532                           ;main.c: 235:          }
  7533  1416  2B9F               	goto	L2
  7534  1417                     l2455:
  7535  1417  3019               	movlw	low (((conversion_newton@R_tab+24)-__stringbase)| (0+32768))
  7536  1418  0084               	movwf	4
  7537  1419  160A  158A  2000  160A  118A  	fcall	stringdir
  7538  141E  1683               	bsf	3,5	;RP0=1, select bank1
  7539  141F  1303               	bcf	3,6	;RP1=0, select bank1
  7540  1420  00AD               	movwf	??_conversion_newton^(0+128)
  7541  1421  160A  158A  2000  160A  118A  	fcall	stringdir
  7542  1426  00AE               	movwf	(??_conversion_newton^(0+128)+1)
  7543  1427  160A  158A  2000  160A  118A  	fcall	stringdir
  7544  142C  00AF               	movwf	(??_conversion_newton^(0+128)+2)
  7545  142D  160A  158A  2000  160A  118A  	fcall	stringdir
  7546  1432  00B0               	movwf	(??_conversion_newton^(0+128)+3)
  7547  1433  0830               	movf	(??_conversion_newton+3)^(0+128),w
  7548  1434  00F6               	movwf	___flge@ff1+3
  7549  1435  082F               	movf	(??_conversion_newton+2)^(0+128),w
  7550  1436  00F5               	movwf	___flge@ff1+2
  7551  1437  082E               	movf	(??_conversion_newton+1)^(0+128),w
  7552  1438  00F4               	movwf	___flge@ff1+1
  7553  1439  082D               	movf	??_conversion_newton^(0+128),w
  7554  143A  00F3               	movwf	___flge@ff1
  7555  143B  1283               	bcf	3,5	;RP0=0, select bank0
  7556  143C  1303               	bcf	3,6	;RP1=0, select bank0
  7557  143D  086C               	movf	conversion_newton@Rc+3,w
  7558  143E  00FA               	movwf	___flge@ff2+3
  7559  143F  086B               	movf	conversion_newton@Rc+2,w
  7560  1440  00F9               	movwf	___flge@ff2+2
  7561  1441  086A               	movf	conversion_newton@Rc+1,w
  7562  1442  00F8               	movwf	___flge@ff2+1
  7563  1443  0869               	movf	conversion_newton@Rc,w
  7564  1444  00F7               	movwf	___flge@ff2
  7565  1445  160A  158A  2537  160A  118A  	fcall	___flge
  7566  144A  1C03               	btfss	3,0
  7567  144B  2C4D               	goto	u3611
  7568  144C  2C4E               	goto	u3610
  7569  144D                     u3611:
  7570  144D  2C8C               	goto	l2461
  7571  144E                     u3610:
  7572  144E                     l2457:
  7573  144E  3015               	movlw	low (((conversion_newton@R_tab+20)-__stringbase)| (0+32768))
  7574  144F  0084               	movwf	4
  7575  1450  160A  158A  2000  160A  118A  	fcall	stringdir
  7576  1455  1683               	bsf	3,5	;RP0=1, select bank1
  7577  1456  1303               	bcf	3,6	;RP1=0, select bank1
  7578  1457  00AD               	movwf	??_conversion_newton^(0+128)
  7579  1458  160A  158A  2000  160A  118A  	fcall	stringdir
  7580  145D  00AE               	movwf	(??_conversion_newton^(0+128)+1)
  7581  145E  160A  158A  2000  160A  118A  	fcall	stringdir
  7582  1463  00AF               	movwf	(??_conversion_newton^(0+128)+2)
  7583  1464  160A  158A  2000  160A  118A  	fcall	stringdir
  7584  1469  00B0               	movwf	(??_conversion_newton^(0+128)+3)
  7585  146A  0830               	movf	(??_conversion_newton+3)^(0+128),w
  7586  146B  00F6               	movwf	___flge@ff1+3
  7587  146C  082F               	movf	(??_conversion_newton+2)^(0+128),w
  7588  146D  00F5               	movwf	___flge@ff1+2
  7589  146E  082E               	movf	(??_conversion_newton+1)^(0+128),w
  7590  146F  00F4               	movwf	___flge@ff1+1
  7591  1470  082D               	movf	??_conversion_newton^(0+128),w
  7592  1471  00F3               	movwf	___flge@ff1
  7593  1472  1283               	bcf	3,5	;RP0=0, select bank0
  7594  1473  1303               	bcf	3,6	;RP1=0, select bank0
  7595  1474  086C               	movf	conversion_newton@Rc+3,w
  7596  1475  00FA               	movwf	___flge@ff2+3
  7597  1476  086B               	movf	conversion_newton@Rc+2,w
  7598  1477  00F9               	movwf	___flge@ff2+2
  7599  1478  086A               	movf	conversion_newton@Rc+1,w
  7600  1479  00F8               	movwf	___flge@ff2+1
  7601  147A  0869               	movf	conversion_newton@Rc,w
  7602  147B  00F7               	movwf	___flge@ff2
  7603  147C  160A  158A  2537  160A  118A  	fcall	___flge
  7604  1481  1803               	btfsc	3,0
  7605  1482  2C84               	goto	u3621
  7606  1483  2C85               	goto	u3620
  7607  1484                     u3621:
  7608  1484  2C8C               	goto	l2461
  7609  1485                     u3620:
  7610  1485                     l2459:
  7611                           
  7612                           ;main.c: 237:          {;main.c: 238:          n = 5;
  7613  1485  3005               	movlw	5
  7614  1486  1683               	bsf	3,5	;RP0=1, select bank1
  7615  1487  1303               	bcf	3,6	;RP1=0, select bank1
  7616  1488  00CE               	movwf	conversion_newton@n^(0+128)
  7617  1489  3000               	movlw	0
  7618  148A  00CF               	movwf	(conversion_newton@n^(0+128)+1)
  7619                           
  7620                           ;main.c: 239:          }
  7621  148B  2B9F               	goto	L2
  7622  148C                     l2461:
  7623  148C  301D               	movlw	low (((conversion_newton@R_tab+28)-__stringbase)| (0+32768))
  7624  148D  0084               	movwf	4
  7625  148E  160A  158A  2000  160A  118A  	fcall	stringdir
  7626  1493  1683               	bsf	3,5	;RP0=1, select bank1
  7627  1494  1303               	bcf	3,6	;RP1=0, select bank1
  7628  1495  00AD               	movwf	??_conversion_newton^(0+128)
  7629  1496  160A  158A  2000  160A  118A  	fcall	stringdir
  7630  149B  00AE               	movwf	(??_conversion_newton^(0+128)+1)
  7631  149C  160A  158A  2000  160A  118A  	fcall	stringdir
  7632  14A1  00AF               	movwf	(??_conversion_newton^(0+128)+2)
  7633  14A2  160A  158A  2000  160A  118A  	fcall	stringdir
  7634  14A7  00B0               	movwf	(??_conversion_newton^(0+128)+3)
  7635  14A8  0830               	movf	(??_conversion_newton+3)^(0+128),w
  7636  14A9  00F6               	movwf	___flge@ff1+3
  7637  14AA  082F               	movf	(??_conversion_newton+2)^(0+128),w
  7638  14AB  00F5               	movwf	___flge@ff1+2
  7639  14AC  082E               	movf	(??_conversion_newton+1)^(0+128),w
  7640  14AD  00F4               	movwf	___flge@ff1+1
  7641  14AE  082D               	movf	??_conversion_newton^(0+128),w
  7642  14AF  00F3               	movwf	___flge@ff1
  7643  14B0  1283               	bcf	3,5	;RP0=0, select bank0
  7644  14B1  1303               	bcf	3,6	;RP1=0, select bank0
  7645  14B2  086C               	movf	conversion_newton@Rc+3,w
  7646  14B3  00FA               	movwf	___flge@ff2+3
  7647  14B4  086B               	movf	conversion_newton@Rc+2,w
  7648  14B5  00F9               	movwf	___flge@ff2+2
  7649  14B6  086A               	movf	conversion_newton@Rc+1,w
  7650  14B7  00F8               	movwf	___flge@ff2+1
  7651  14B8  0869               	movf	conversion_newton@Rc,w
  7652  14B9  00F7               	movwf	___flge@ff2
  7653  14BA  160A  158A  2537  160A  118A  	fcall	___flge
  7654  14BF  1C03               	btfss	3,0
  7655  14C0  2CC2               	goto	u3631
  7656  14C1  2CC3               	goto	u3630
  7657  14C2                     u3631:
  7658  14C2  2D01               	goto	l2467
  7659  14C3                     u3630:
  7660  14C3                     l2463:
  7661  14C3  3019               	movlw	low (((conversion_newton@R_tab+24)-__stringbase)| (0+32768))
  7662  14C4  0084               	movwf	4
  7663  14C5  160A  158A  2000  160A  118A  	fcall	stringdir
  7664  14CA  1683               	bsf	3,5	;RP0=1, select bank1
  7665  14CB  1303               	bcf	3,6	;RP1=0, select bank1
  7666  14CC  00AD               	movwf	??_conversion_newton^(0+128)
  7667  14CD  160A  158A  2000  160A  118A  	fcall	stringdir
  7668  14D2  00AE               	movwf	(??_conversion_newton^(0+128)+1)
  7669  14D3  160A  158A  2000  160A  118A  	fcall	stringdir
  7670  14D8  00AF               	movwf	(??_conversion_newton^(0+128)+2)
  7671  14D9  160A  158A  2000  160A  118A  	fcall	stringdir
  7672  14DE  00B0               	movwf	(??_conversion_newton^(0+128)+3)
  7673  14DF  0830               	movf	(??_conversion_newton+3)^(0+128),w
  7674  14E0  00F6               	movwf	___flge@ff1+3
  7675  14E1  082F               	movf	(??_conversion_newton+2)^(0+128),w
  7676  14E2  00F5               	movwf	___flge@ff1+2
  7677  14E3  082E               	movf	(??_conversion_newton+1)^(0+128),w
  7678  14E4  00F4               	movwf	___flge@ff1+1
  7679  14E5  082D               	movf	??_conversion_newton^(0+128),w
  7680  14E6  00F3               	movwf	___flge@ff1
  7681  14E7  1283               	bcf	3,5	;RP0=0, select bank0
  7682  14E8  1303               	bcf	3,6	;RP1=0, select bank0
  7683  14E9  086C               	movf	conversion_newton@Rc+3,w
  7684  14EA  00FA               	movwf	___flge@ff2+3
  7685  14EB  086B               	movf	conversion_newton@Rc+2,w
  7686  14EC  00F9               	movwf	___flge@ff2+2
  7687  14ED  086A               	movf	conversion_newton@Rc+1,w
  7688  14EE  00F8               	movwf	___flge@ff2+1
  7689  14EF  0869               	movf	conversion_newton@Rc,w
  7690  14F0  00F7               	movwf	___flge@ff2
  7691  14F1  160A  158A  2537  160A  118A  	fcall	___flge
  7692  14F6  1803               	btfsc	3,0
  7693  14F7  2CF9               	goto	u3641
  7694  14F8  2CFA               	goto	u3640
  7695  14F9                     u3641:
  7696  14F9  2D01               	goto	l2467
  7697  14FA                     u3640:
  7698  14FA                     l2465:
  7699                           
  7700                           ;main.c: 241:          {;main.c: 242:          n = 6;
  7701  14FA  3006               	movlw	6
  7702  14FB  1683               	bsf	3,5	;RP0=1, select bank1
  7703  14FC  1303               	bcf	3,6	;RP1=0, select bank1
  7704  14FD  00CE               	movwf	conversion_newton@n^(0+128)
  7705  14FE  3000               	movlw	0
  7706  14FF  00CF               	movwf	(conversion_newton@n^(0+128)+1)
  7707                           
  7708                           ;main.c: 243:          }
  7709  1500  2B9F               	goto	L2
  7710  1501                     l2467:
  7711  1501  3021               	movlw	low (((conversion_newton@R_tab+32)-__stringbase)| (0+32768))
  7712  1502  0084               	movwf	4
  7713  1503  160A  158A  2000  160A  118A  	fcall	stringdir
  7714  1508  1683               	bsf	3,5	;RP0=1, select bank1
  7715  1509  1303               	bcf	3,6	;RP1=0, select bank1
  7716  150A  00AD               	movwf	??_conversion_newton^(0+128)
  7717  150B  160A  158A  2000  160A  118A  	fcall	stringdir
  7718  1510  00AE               	movwf	(??_conversion_newton^(0+128)+1)
  7719  1511  160A  158A  2000  160A  118A  	fcall	stringdir
  7720  1516  00AF               	movwf	(??_conversion_newton^(0+128)+2)
  7721  1517  160A  158A  2000  160A  118A  	fcall	stringdir
  7722  151C  00B0               	movwf	(??_conversion_newton^(0+128)+3)
  7723  151D  0830               	movf	(??_conversion_newton+3)^(0+128),w
  7724  151E  00F6               	movwf	___flge@ff1+3
  7725  151F  082F               	movf	(??_conversion_newton+2)^(0+128),w
  7726  1520  00F5               	movwf	___flge@ff1+2
  7727  1521  082E               	movf	(??_conversion_newton+1)^(0+128),w
  7728  1522  00F4               	movwf	___flge@ff1+1
  7729  1523  082D               	movf	??_conversion_newton^(0+128),w
  7730  1524  00F3               	movwf	___flge@ff1
  7731  1525  1283               	bcf	3,5	;RP0=0, select bank0
  7732  1526  1303               	bcf	3,6	;RP1=0, select bank0
  7733  1527  086C               	movf	conversion_newton@Rc+3,w
  7734  1528  00FA               	movwf	___flge@ff2+3
  7735  1529  086B               	movf	conversion_newton@Rc+2,w
  7736  152A  00F9               	movwf	___flge@ff2+2
  7737  152B  086A               	movf	conversion_newton@Rc+1,w
  7738  152C  00F8               	movwf	___flge@ff2+1
  7739  152D  0869               	movf	conversion_newton@Rc,w
  7740  152E  00F7               	movwf	___flge@ff2
  7741  152F  160A  158A  2537  160A  118A  	fcall	___flge
  7742  1534  1C03               	btfss	3,0
  7743  1535  2D37               	goto	u3651
  7744  1536  2D3A               	goto	u3650
  7745  1537                     u3651:
  7746  1537  160A  118A  28DE   	goto	l2473
  7747  153A                     u3650:
  7748  153A                     l2469:
  7749  153A  301D               	movlw	low (((conversion_newton@R_tab+28)-__stringbase)| (0+32768))
  7750  153B  0084               	movwf	4
  7751  153C  160A  158A  2000  160A  118A  	fcall	stringdir
  7752  1541  1683               	bsf	3,5	;RP0=1, select bank1
  7753  1542  1303               	bcf	3,6	;RP1=0, select bank1
  7754  1543  00AD               	movwf	??_conversion_newton^(0+128)
  7755  1544  160A  158A  2000  160A  118A  	fcall	stringdir
  7756  1549  00AE               	movwf	(??_conversion_newton^(0+128)+1)
  7757  154A  160A  158A  2000  160A  118A  	fcall	stringdir
  7758  154F  00AF               	movwf	(??_conversion_newton^(0+128)+2)
  7759  1550  160A  158A  2000  160A  118A  	fcall	stringdir
  7760  1555  00B0               	movwf	(??_conversion_newton^(0+128)+3)
  7761  1556  0830               	movf	(??_conversion_newton+3)^(0+128),w
  7762  1557  00F6               	movwf	___flge@ff1+3
  7763  1558  082F               	movf	(??_conversion_newton+2)^(0+128),w
  7764  1559  00F5               	movwf	___flge@ff1+2
  7765  155A  082E               	movf	(??_conversion_newton+1)^(0+128),w
  7766  155B  00F4               	movwf	___flge@ff1+1
  7767  155C  082D               	movf	??_conversion_newton^(0+128),w
  7768  155D  00F3               	movwf	___flge@ff1
  7769  155E  1283               	bcf	3,5	;RP0=0, select bank0
  7770  155F  1303               	bcf	3,6	;RP1=0, select bank0
  7771  1560  086C               	movf	conversion_newton@Rc+3,w
  7772  1561  00FA               	movwf	___flge@ff2+3
  7773  1562  086B               	movf	conversion_newton@Rc+2,w
  7774  1563  00F9               	movwf	___flge@ff2+2
  7775  1564  086A               	movf	conversion_newton@Rc+1,w
  7776  1565  00F8               	movwf	___flge@ff2+1
  7777  1566  0869               	movf	conversion_newton@Rc,w
  7778  1567  00F7               	movwf	___flge@ff2
  7779  1568  160A  158A  2537  160A  118A  	fcall	___flge
  7780  156D  1803               	btfsc	3,0
  7781  156E  2D70               	goto	u3661
  7782  156F  2D71               	goto	u3660
  7783  1570                     u3661:
  7784  1570  2D37               	goto	u3651
  7785  1571                     u3660:
  7786  1571                     l2471:
  7787                           
  7788                           ;main.c: 245:          {;main.c: 246:          n = 7;
  7789  1571  3007               	movlw	7
  7790  1572  1683               	bsf	3,5	;RP0=1, select bank1
  7791  1573  1303               	bcf	3,6	;RP1=0, select bank1
  7792  1574  00CE               	movwf	conversion_newton@n^(0+128)
  7793  1575  3000               	movlw	0
  7794  1576  00CF               	movwf	(conversion_newton@n^(0+128)+1)
  7795                           
  7796                           ;main.c: 247:          }
  7797  1577  2B9F               	goto	L2
  7798                           
  7799                           	psect	text7_split_2
  7800  10DE                     l2473:
  7801  10DE  3025               	movlw	low (((conversion_newton@R_tab+36)-__stringbase)| (0+32768))
  7802  10DF  0084               	movwf	4
  7803  10E0  160A  158A  2000  160A  118A  	fcall	stringdir
  7804  10E5  1683               	bsf	3,5	;RP0=1, select bank1
  7805  10E6  1303               	bcf	3,6	;RP1=0, select bank1
  7806  10E7  00AD               	movwf	??_conversion_newton^(0+128)
  7807  10E8  160A  158A  2000  160A  118A  	fcall	stringdir
  7808  10ED  00AE               	movwf	(??_conversion_newton^(0+128)+1)
  7809  10EE  160A  158A  2000  160A  118A  	fcall	stringdir
  7810  10F3  00AF               	movwf	(??_conversion_newton^(0+128)+2)
  7811  10F4  160A  158A  2000  160A  118A  	fcall	stringdir
  7812  10F9  00B0               	movwf	(??_conversion_newton^(0+128)+3)
  7813  10FA  0830               	movf	(??_conversion_newton+3)^(0+128),w
  7814  10FB  00F6               	movwf	___flge@ff1+3
  7815  10FC  082F               	movf	(??_conversion_newton+2)^(0+128),w
  7816  10FD  00F5               	movwf	___flge@ff1+2
  7817  10FE  082E               	movf	(??_conversion_newton+1)^(0+128),w
  7818  10FF  00F4               	movwf	___flge@ff1+1
  7819  1100  082D               	movf	??_conversion_newton^(0+128),w
  7820  1101  00F3               	movwf	___flge@ff1
  7821  1102  1283               	bcf	3,5	;RP0=0, select bank0
  7822  1103  1303               	bcf	3,6	;RP1=0, select bank0
  7823  1104  086C               	movf	conversion_newton@Rc+3,w
  7824  1105  00FA               	movwf	___flge@ff2+3
  7825  1106  086B               	movf	conversion_newton@Rc+2,w
  7826  1107  00F9               	movwf	___flge@ff2+2
  7827  1108  086A               	movf	conversion_newton@Rc+1,w
  7828  1109  00F8               	movwf	___flge@ff2+1
  7829  110A  0869               	movf	conversion_newton@Rc,w
  7830  110B  00F7               	movwf	___flge@ff2
  7831  110C  160A  158A  2537  160A  118A  	fcall	___flge
  7832  1111  1C03               	btfss	3,0
  7833  1112  2914               	goto	u3671
  7834  1113  2915               	goto	u3670
  7835  1114                     u3671:
  7836  1114  2955               	goto	l2479
  7837  1115                     u3670:
  7838  1115                     l2475:
  7839  1115  3021               	movlw	low (((conversion_newton@R_tab+32)-__stringbase)| (0+32768))
  7840  1116  0084               	movwf	4
  7841  1117  160A  158A  2000  160A  118A  	fcall	stringdir
  7842  111C  1683               	bsf	3,5	;RP0=1, select bank1
  7843  111D  1303               	bcf	3,6	;RP1=0, select bank1
  7844  111E  00AD               	movwf	??_conversion_newton^(0+128)
  7845  111F  160A  158A  2000  160A  118A  	fcall	stringdir
  7846  1124  00AE               	movwf	(??_conversion_newton^(0+128)+1)
  7847  1125  160A  158A  2000  160A  118A  	fcall	stringdir
  7848  112A  00AF               	movwf	(??_conversion_newton^(0+128)+2)
  7849  112B  160A  158A  2000  160A  118A  	fcall	stringdir
  7850  1130  00B0               	movwf	(??_conversion_newton^(0+128)+3)
  7851  1131  0830               	movf	(??_conversion_newton+3)^(0+128),w
  7852  1132  00F6               	movwf	___flge@ff1+3
  7853  1133  082F               	movf	(??_conversion_newton+2)^(0+128),w
  7854  1134  00F5               	movwf	___flge@ff1+2
  7855  1135  082E               	movf	(??_conversion_newton+1)^(0+128),w
  7856  1136  00F4               	movwf	___flge@ff1+1
  7857  1137  082D               	movf	??_conversion_newton^(0+128),w
  7858  1138  00F3               	movwf	___flge@ff1
  7859  1139  1283               	bcf	3,5	;RP0=0, select bank0
  7860  113A  1303               	bcf	3,6	;RP1=0, select bank0
  7861  113B  086C               	movf	conversion_newton@Rc+3,w
  7862  113C  00FA               	movwf	___flge@ff2+3
  7863  113D  086B               	movf	conversion_newton@Rc+2,w
  7864  113E  00F9               	movwf	___flge@ff2+2
  7865  113F  086A               	movf	conversion_newton@Rc+1,w
  7866  1140  00F8               	movwf	___flge@ff2+1
  7867  1141  0869               	movf	conversion_newton@Rc,w
  7868  1142  00F7               	movwf	___flge@ff2
  7869  1143  160A  158A  2537  160A  118A  	fcall	___flge
  7870  1148  1803               	btfsc	3,0
  7871  1149  294B               	goto	u3681
  7872  114A  294C               	goto	u3680
  7873  114B                     u3681:
  7874  114B  2955               	goto	l2479
  7875  114C                     u3680:
  7876  114C                     l2477:
  7877                           
  7878                           ;main.c: 249:          {;main.c: 250:          n = 8;
  7879  114C  3008               	movlw	8
  7880  114D  1683               	bsf	3,5	;RP0=1, select bank1
  7881  114E  1303               	bcf	3,6	;RP1=0, select bank1
  7882  114F  00CE               	movwf	conversion_newton@n^(0+128)
  7883  1150  3000               	movlw	0
  7884  1151  00CF               	movwf	(conversion_newton@n^(0+128)+1)
  7885  1152                     L3:
  7886                           
  7887                           ;main.c: 251:          }
  7888  1152  120A  118A  2D9D   	goto	l2541
  7889  1155                     l2479:
  7890  1155  3029               	movlw	low (((conversion_newton@R_tab+40)-__stringbase)| (0+32768))
  7891  1156  0084               	movwf	4
  7892  1157  160A  158A  2000  160A  118A  	fcall	stringdir
  7893  115C  1683               	bsf	3,5	;RP0=1, select bank1
  7894  115D  1303               	bcf	3,6	;RP1=0, select bank1
  7895  115E  00AD               	movwf	??_conversion_newton^(0+128)
  7896  115F  160A  158A  2000  160A  118A  	fcall	stringdir
  7897  1164  00AE               	movwf	(??_conversion_newton^(0+128)+1)
  7898  1165  160A  158A  2000  160A  118A  	fcall	stringdir
  7899  116A  00AF               	movwf	(??_conversion_newton^(0+128)+2)
  7900  116B  160A  158A  2000  160A  118A  	fcall	stringdir
  7901  1170  00B0               	movwf	(??_conversion_newton^(0+128)+3)
  7902  1171  0830               	movf	(??_conversion_newton+3)^(0+128),w
  7903  1172  00F6               	movwf	___flge@ff1+3
  7904  1173  082F               	movf	(??_conversion_newton+2)^(0+128),w
  7905  1174  00F5               	movwf	___flge@ff1+2
  7906  1175  082E               	movf	(??_conversion_newton+1)^(0+128),w
  7907  1176  00F4               	movwf	___flge@ff1+1
  7908  1177  082D               	movf	??_conversion_newton^(0+128),w
  7909  1178  00F3               	movwf	___flge@ff1
  7910  1179  1283               	bcf	3,5	;RP0=0, select bank0
  7911  117A  1303               	bcf	3,6	;RP1=0, select bank0
  7912  117B  086C               	movf	conversion_newton@Rc+3,w
  7913  117C  00FA               	movwf	___flge@ff2+3
  7914  117D  086B               	movf	conversion_newton@Rc+2,w
  7915  117E  00F9               	movwf	___flge@ff2+2
  7916  117F  086A               	movf	conversion_newton@Rc+1,w
  7917  1180  00F8               	movwf	___flge@ff2+1
  7918  1181  0869               	movf	conversion_newton@Rc,w
  7919  1182  00F7               	movwf	___flge@ff2
  7920  1183  160A  158A  2537  160A  118A  	fcall	___flge
  7921  1188  1C03               	btfss	3,0
  7922  1189  298B               	goto	u3691
  7923  118A  298C               	goto	u3690
  7924  118B                     u3691:
  7925  118B  29CA               	goto	l2485
  7926  118C                     u3690:
  7927  118C                     l2481:
  7928  118C  3025               	movlw	low (((conversion_newton@R_tab+36)-__stringbase)| (0+32768))
  7929  118D  0084               	movwf	4
  7930  118E  160A  158A  2000  160A  118A  	fcall	stringdir
  7931  1193  1683               	bsf	3,5	;RP0=1, select bank1
  7932  1194  1303               	bcf	3,6	;RP1=0, select bank1
  7933  1195  00AD               	movwf	??_conversion_newton^(0+128)
  7934  1196  160A  158A  2000  160A  118A  	fcall	stringdir
  7935  119B  00AE               	movwf	(??_conversion_newton^(0+128)+1)
  7936  119C  160A  158A  2000  160A  118A  	fcall	stringdir
  7937  11A1  00AF               	movwf	(??_conversion_newton^(0+128)+2)
  7938  11A2  160A  158A  2000  160A  118A  	fcall	stringdir
  7939  11A7  00B0               	movwf	(??_conversion_newton^(0+128)+3)
  7940  11A8  0830               	movf	(??_conversion_newton+3)^(0+128),w
  7941  11A9  00F6               	movwf	___flge@ff1+3
  7942  11AA  082F               	movf	(??_conversion_newton+2)^(0+128),w
  7943  11AB  00F5               	movwf	___flge@ff1+2
  7944  11AC  082E               	movf	(??_conversion_newton+1)^(0+128),w
  7945  11AD  00F4               	movwf	___flge@ff1+1
  7946  11AE  082D               	movf	??_conversion_newton^(0+128),w
  7947  11AF  00F3               	movwf	___flge@ff1
  7948  11B0  1283               	bcf	3,5	;RP0=0, select bank0
  7949  11B1  1303               	bcf	3,6	;RP1=0, select bank0
  7950  11B2  086C               	movf	conversion_newton@Rc+3,w
  7951  11B3  00FA               	movwf	___flge@ff2+3
  7952  11B4  086B               	movf	conversion_newton@Rc+2,w
  7953  11B5  00F9               	movwf	___flge@ff2+2
  7954  11B6  086A               	movf	conversion_newton@Rc+1,w
  7955  11B7  00F8               	movwf	___flge@ff2+1
  7956  11B8  0869               	movf	conversion_newton@Rc,w
  7957  11B9  00F7               	movwf	___flge@ff2
  7958  11BA  160A  158A  2537  160A  118A  	fcall	___flge
  7959  11BF  1803               	btfsc	3,0
  7960  11C0  29C2               	goto	u3701
  7961  11C1  29C3               	goto	u3700
  7962  11C2                     u3701:
  7963  11C2  29CA               	goto	l2485
  7964  11C3                     u3700:
  7965  11C3                     l2483:
  7966                           
  7967                           ;main.c: 253:          {;main.c: 254:          n = 9;
  7968  11C3  3009               	movlw	9
  7969  11C4  1683               	bsf	3,5	;RP0=1, select bank1
  7970  11C5  1303               	bcf	3,6	;RP1=0, select bank1
  7971  11C6  00CE               	movwf	conversion_newton@n^(0+128)
  7972  11C7  3000               	movlw	0
  7973  11C8  00CF               	movwf	(conversion_newton@n^(0+128)+1)
  7974                           
  7975                           ;main.c: 255:          }
  7976  11C9  2952               	goto	L3
  7977  11CA                     l2485:
  7978  11CA  302D               	movlw	low (((conversion_newton@R_tab+44)-__stringbase)| (0+32768))
  7979  11CB  0084               	movwf	4
  7980  11CC  160A  158A  2000  160A  118A  	fcall	stringdir
  7981  11D1  1683               	bsf	3,5	;RP0=1, select bank1
  7982  11D2  1303               	bcf	3,6	;RP1=0, select bank1
  7983  11D3  00AD               	movwf	??_conversion_newton^(0+128)
  7984  11D4  160A  158A  2000  160A  118A  	fcall	stringdir
  7985  11D9  00AE               	movwf	(??_conversion_newton^(0+128)+1)
  7986  11DA  160A  158A  2000  160A  118A  	fcall	stringdir
  7987  11DF  00AF               	movwf	(??_conversion_newton^(0+128)+2)
  7988  11E0  160A  158A  2000  160A  118A  	fcall	stringdir
  7989  11E5  00B0               	movwf	(??_conversion_newton^(0+128)+3)
  7990  11E6  0830               	movf	(??_conversion_newton+3)^(0+128),w
  7991  11E7  00F6               	movwf	___flge@ff1+3
  7992  11E8  082F               	movf	(??_conversion_newton+2)^(0+128),w
  7993  11E9  00F5               	movwf	___flge@ff1+2
  7994  11EA  082E               	movf	(??_conversion_newton+1)^(0+128),w
  7995  11EB  00F4               	movwf	___flge@ff1+1
  7996  11EC  082D               	movf	??_conversion_newton^(0+128),w
  7997  11ED  00F3               	movwf	___flge@ff1
  7998  11EE  1283               	bcf	3,5	;RP0=0, select bank0
  7999  11EF  1303               	bcf	3,6	;RP1=0, select bank0
  8000  11F0  086C               	movf	conversion_newton@Rc+3,w
  8001  11F1  00FA               	movwf	___flge@ff2+3
  8002  11F2  086B               	movf	conversion_newton@Rc+2,w
  8003  11F3  00F9               	movwf	___flge@ff2+2
  8004  11F4  086A               	movf	conversion_newton@Rc+1,w
  8005  11F5  00F8               	movwf	___flge@ff2+1
  8006  11F6  0869               	movf	conversion_newton@Rc,w
  8007  11F7  00F7               	movwf	___flge@ff2
  8008  11F8  160A  158A  2537  160A  118A  	fcall	___flge
  8009  11FD  1C03               	btfss	3,0
  8010  11FE  2A00               	goto	u3711
  8011  11FF  2A01               	goto	u3710
  8012  1200                     u3711:
  8013  1200  2A3F               	goto	l2491
  8014  1201                     u3710:
  8015  1201                     l2487:
  8016  1201  3029               	movlw	low (((conversion_newton@R_tab+40)-__stringbase)| (0+32768))
  8017  1202  0084               	movwf	4
  8018  1203  160A  158A  2000  160A  118A  	fcall	stringdir
  8019  1208  1683               	bsf	3,5	;RP0=1, select bank1
  8020  1209  1303               	bcf	3,6	;RP1=0, select bank1
  8021  120A  00AD               	movwf	??_conversion_newton^(0+128)
  8022  120B  160A  158A  2000  160A  118A  	fcall	stringdir
  8023  1210  00AE               	movwf	(??_conversion_newton^(0+128)+1)
  8024  1211  160A  158A  2000  160A  118A  	fcall	stringdir
  8025  1216  00AF               	movwf	(??_conversion_newton^(0+128)+2)
  8026  1217  160A  158A  2000  160A  118A  	fcall	stringdir
  8027  121C  00B0               	movwf	(??_conversion_newton^(0+128)+3)
  8028  121D  0830               	movf	(??_conversion_newton+3)^(0+128),w
  8029  121E  00F6               	movwf	___flge@ff1+3
  8030  121F  082F               	movf	(??_conversion_newton+2)^(0+128),w
  8031  1220  00F5               	movwf	___flge@ff1+2
  8032  1221  082E               	movf	(??_conversion_newton+1)^(0+128),w
  8033  1222  00F4               	movwf	___flge@ff1+1
  8034  1223  082D               	movf	??_conversion_newton^(0+128),w
  8035  1224  00F3               	movwf	___flge@ff1
  8036  1225  1283               	bcf	3,5	;RP0=0, select bank0
  8037  1226  1303               	bcf	3,6	;RP1=0, select bank0
  8038  1227  086C               	movf	conversion_newton@Rc+3,w
  8039  1228  00FA               	movwf	___flge@ff2+3
  8040  1229  086B               	movf	conversion_newton@Rc+2,w
  8041  122A  00F9               	movwf	___flge@ff2+2
  8042  122B  086A               	movf	conversion_newton@Rc+1,w
  8043  122C  00F8               	movwf	___flge@ff2+1
  8044  122D  0869               	movf	conversion_newton@Rc,w
  8045  122E  00F7               	movwf	___flge@ff2
  8046  122F  160A  158A  2537  160A  118A  	fcall	___flge
  8047  1234  1803               	btfsc	3,0
  8048  1235  2A37               	goto	u3721
  8049  1236  2A38               	goto	u3720
  8050  1237                     u3721:
  8051  1237  2A3F               	goto	l2491
  8052  1238                     u3720:
  8053  1238                     l2489:
  8054                           
  8055                           ;main.c: 257:          {;main.c: 258:          n = 10;
  8056  1238  300A               	movlw	10
  8057  1239  1683               	bsf	3,5	;RP0=1, select bank1
  8058  123A  1303               	bcf	3,6	;RP1=0, select bank1
  8059  123B  00CE               	movwf	conversion_newton@n^(0+128)
  8060  123C  3000               	movlw	0
  8061  123D  00CF               	movwf	(conversion_newton@n^(0+128)+1)
  8062                           
  8063                           ;main.c: 259:          }
  8064  123E  2952               	goto	L3
  8065  123F                     l2491:
  8066  123F  3031               	movlw	low (((conversion_newton@R_tab+48)-__stringbase)| (0+32768))
  8067  1240  0084               	movwf	4
  8068  1241  160A  158A  2000  160A  118A  	fcall	stringdir
  8069  1246  1683               	bsf	3,5	;RP0=1, select bank1
  8070  1247  1303               	bcf	3,6	;RP1=0, select bank1
  8071  1248  00AD               	movwf	??_conversion_newton^(0+128)
  8072  1249  160A  158A  2000  160A  118A  	fcall	stringdir
  8073  124E  00AE               	movwf	(??_conversion_newton^(0+128)+1)
  8074  124F  160A  158A  2000  160A  118A  	fcall	stringdir
  8075  1254  00AF               	movwf	(??_conversion_newton^(0+128)+2)
  8076  1255  160A  158A  2000  160A  118A  	fcall	stringdir
  8077  125A  00B0               	movwf	(??_conversion_newton^(0+128)+3)
  8078  125B  0830               	movf	(??_conversion_newton+3)^(0+128),w
  8079  125C  00F6               	movwf	___flge@ff1+3
  8080  125D  082F               	movf	(??_conversion_newton+2)^(0+128),w
  8081  125E  00F5               	movwf	___flge@ff1+2
  8082  125F  082E               	movf	(??_conversion_newton+1)^(0+128),w
  8083  1260  00F4               	movwf	___flge@ff1+1
  8084  1261  082D               	movf	??_conversion_newton^(0+128),w
  8085  1262  00F3               	movwf	___flge@ff1
  8086  1263  1283               	bcf	3,5	;RP0=0, select bank0
  8087  1264  1303               	bcf	3,6	;RP1=0, select bank0
  8088  1265  086C               	movf	conversion_newton@Rc+3,w
  8089  1266  00FA               	movwf	___flge@ff2+3
  8090  1267  086B               	movf	conversion_newton@Rc+2,w
  8091  1268  00F9               	movwf	___flge@ff2+2
  8092  1269  086A               	movf	conversion_newton@Rc+1,w
  8093  126A  00F8               	movwf	___flge@ff2+1
  8094  126B  0869               	movf	conversion_newton@Rc,w
  8095  126C  00F7               	movwf	___flge@ff2
  8096  126D  160A  158A  2537  160A  118A  	fcall	___flge
  8097  1272  1C03               	btfss	3,0
  8098  1273  2A75               	goto	u3731
  8099  1274  2A76               	goto	u3730
  8100  1275                     u3731:
  8101  1275  2AB4               	goto	l2497
  8102  1276                     u3730:
  8103  1276                     l2493:
  8104  1276  302D               	movlw	low (((conversion_newton@R_tab+44)-__stringbase)| (0+32768))
  8105  1277  0084               	movwf	4
  8106  1278  160A  158A  2000  160A  118A  	fcall	stringdir
  8107  127D  1683               	bsf	3,5	;RP0=1, select bank1
  8108  127E  1303               	bcf	3,6	;RP1=0, select bank1
  8109  127F  00AD               	movwf	??_conversion_newton^(0+128)
  8110  1280  160A  158A  2000  160A  118A  	fcall	stringdir
  8111  1285  00AE               	movwf	(??_conversion_newton^(0+128)+1)
  8112  1286  160A  158A  2000  160A  118A  	fcall	stringdir
  8113  128B  00AF               	movwf	(??_conversion_newton^(0+128)+2)
  8114  128C  160A  158A  2000  160A  118A  	fcall	stringdir
  8115  1291  00B0               	movwf	(??_conversion_newton^(0+128)+3)
  8116  1292  0830               	movf	(??_conversion_newton+3)^(0+128),w
  8117  1293  00F6               	movwf	___flge@ff1+3
  8118  1294  082F               	movf	(??_conversion_newton+2)^(0+128),w
  8119  1295  00F5               	movwf	___flge@ff1+2
  8120  1296  082E               	movf	(??_conversion_newton+1)^(0+128),w
  8121  1297  00F4               	movwf	___flge@ff1+1
  8122  1298  082D               	movf	??_conversion_newton^(0+128),w
  8123  1299  00F3               	movwf	___flge@ff1
  8124  129A  1283               	bcf	3,5	;RP0=0, select bank0
  8125  129B  1303               	bcf	3,6	;RP1=0, select bank0
  8126  129C  086C               	movf	conversion_newton@Rc+3,w
  8127  129D  00FA               	movwf	___flge@ff2+3
  8128  129E  086B               	movf	conversion_newton@Rc+2,w
  8129  129F  00F9               	movwf	___flge@ff2+2
  8130  12A0  086A               	movf	conversion_newton@Rc+1,w
  8131  12A1  00F8               	movwf	___flge@ff2+1
  8132  12A2  0869               	movf	conversion_newton@Rc,w
  8133  12A3  00F7               	movwf	___flge@ff2
  8134  12A4  160A  158A  2537  160A  118A  	fcall	___flge
  8135  12A9  1803               	btfsc	3,0
  8136  12AA  2AAC               	goto	u3741
  8137  12AB  2AAD               	goto	u3740
  8138  12AC                     u3741:
  8139  12AC  2AB4               	goto	l2497
  8140  12AD                     u3740:
  8141  12AD                     l2495:
  8142                           
  8143                           ;main.c: 261:      {;main.c: 262:          n = 11;
  8144  12AD  300B               	movlw	11
  8145  12AE  1683               	bsf	3,5	;RP0=1, select bank1
  8146  12AF  1303               	bcf	3,6	;RP1=0, select bank1
  8147  12B0  00CE               	movwf	conversion_newton@n^(0+128)
  8148  12B1  3000               	movlw	0
  8149  12B2  00CF               	movwf	(conversion_newton@n^(0+128)+1)
  8150                           
  8151                           ;main.c: 263:      }
  8152  12B3  2952               	goto	L3
  8153  12B4                     l2497:
  8154  12B4  3035               	movlw	low (((conversion_newton@R_tab+52)-__stringbase)| (0+32768))
  8155  12B5  0084               	movwf	4
  8156  12B6  160A  158A  2000  160A  118A  	fcall	stringdir
  8157  12BB  1683               	bsf	3,5	;RP0=1, select bank1
  8158  12BC  1303               	bcf	3,6	;RP1=0, select bank1
  8159  12BD  00AD               	movwf	??_conversion_newton^(0+128)
  8160  12BE  160A  158A  2000  160A  118A  	fcall	stringdir
  8161  12C3  00AE               	movwf	(??_conversion_newton^(0+128)+1)
  8162  12C4  160A  158A  2000  160A  118A  	fcall	stringdir
  8163  12C9  00AF               	movwf	(??_conversion_newton^(0+128)+2)
  8164  12CA  160A  158A  2000  160A  118A  	fcall	stringdir
  8165  12CF  00B0               	movwf	(??_conversion_newton^(0+128)+3)
  8166  12D0  0830               	movf	(??_conversion_newton+3)^(0+128),w
  8167  12D1  00F6               	movwf	___flge@ff1+3
  8168  12D2  082F               	movf	(??_conversion_newton+2)^(0+128),w
  8169  12D3  00F5               	movwf	___flge@ff1+2
  8170  12D4  082E               	movf	(??_conversion_newton+1)^(0+128),w
  8171  12D5  00F4               	movwf	___flge@ff1+1
  8172  12D6  082D               	movf	??_conversion_newton^(0+128),w
  8173  12D7  00F3               	movwf	___flge@ff1
  8174  12D8  1283               	bcf	3,5	;RP0=0, select bank0
  8175  12D9  1303               	bcf	3,6	;RP1=0, select bank0
  8176  12DA  086C               	movf	conversion_newton@Rc+3,w
  8177  12DB  00FA               	movwf	___flge@ff2+3
  8178  12DC  086B               	movf	conversion_newton@Rc+2,w
  8179  12DD  00F9               	movwf	___flge@ff2+2
  8180  12DE  086A               	movf	conversion_newton@Rc+1,w
  8181  12DF  00F8               	movwf	___flge@ff2+1
  8182  12E0  0869               	movf	conversion_newton@Rc,w
  8183  12E1  00F7               	movwf	___flge@ff2
  8184  12E2  160A  158A  2537  160A  118A  	fcall	___flge
  8185  12E7  1C03               	btfss	3,0
  8186  12E8  2AEA               	goto	u3751
  8187  12E9  2AED               	goto	u3750
  8188  12EA                     u3751:
  8189  12EA  120A  118A  2AD9   	goto	l2503
  8190  12ED                     u3750:
  8191  12ED                     l2499:
  8192  12ED  3031               	movlw	low (((conversion_newton@R_tab+48)-__stringbase)| (0+32768))
  8193  12EE  0084               	movwf	4
  8194  12EF  160A  158A  2000  160A  118A  	fcall	stringdir
  8195  12F4  1683               	bsf	3,5	;RP0=1, select bank1
  8196  12F5  1303               	bcf	3,6	;RP1=0, select bank1
  8197  12F6  00AD               	movwf	??_conversion_newton^(0+128)
  8198  12F7  160A  158A  2000  160A  118A  	fcall	stringdir
  8199  12FC  00AE               	movwf	(??_conversion_newton^(0+128)+1)
  8200  12FD  160A  158A  2000  160A  118A  	fcall	stringdir
  8201  1302  00AF               	movwf	(??_conversion_newton^(0+128)+2)
  8202  1303  160A  158A  2000  160A  118A  	fcall	stringdir
  8203  1308  00B0               	movwf	(??_conversion_newton^(0+128)+3)
  8204  1309  0830               	movf	(??_conversion_newton+3)^(0+128),w
  8205  130A  00F6               	movwf	___flge@ff1+3
  8206  130B  082F               	movf	(??_conversion_newton+2)^(0+128),w
  8207  130C  00F5               	movwf	___flge@ff1+2
  8208  130D  082E               	movf	(??_conversion_newton+1)^(0+128),w
  8209  130E  00F4               	movwf	___flge@ff1+1
  8210  130F  082D               	movf	??_conversion_newton^(0+128),w
  8211  1310  00F3               	movwf	___flge@ff1
  8212  1311  1283               	bcf	3,5	;RP0=0, select bank0
  8213  1312  1303               	bcf	3,6	;RP1=0, select bank0
  8214  1313  086C               	movf	conversion_newton@Rc+3,w
  8215  1314  00FA               	movwf	___flge@ff2+3
  8216  1315  086B               	movf	conversion_newton@Rc+2,w
  8217  1316  00F9               	movwf	___flge@ff2+2
  8218  1317  086A               	movf	conversion_newton@Rc+1,w
  8219  1318  00F8               	movwf	___flge@ff2+1
  8220  1319  0869               	movf	conversion_newton@Rc,w
  8221  131A  00F7               	movwf	___flge@ff2
  8222  131B  160A  158A  2537  160A  118A  	fcall	___flge
  8223  1320  1803               	btfsc	3,0
  8224  1321  2B23               	goto	u3761
  8225  1322  2B24               	goto	u3760
  8226  1323                     u3761:
  8227  1323  2AEA               	goto	u3751
  8228  1324                     u3760:
  8229  1324                     l2501:
  8230                           
  8231                           ;main.c: 266:      {;main.c: 267:          n = 12;
  8232  1324  300C               	movlw	12
  8233  1325  1683               	bsf	3,5	;RP0=1, select bank1
  8234  1326  1303               	bcf	3,6	;RP1=0, select bank1
  8235  1327  00CE               	movwf	conversion_newton@n^(0+128)
  8236  1328  3000               	movlw	0
  8237  1329  00CF               	movwf	(conversion_newton@n^(0+128)+1)
  8238                           
  8239                           ;main.c: 268:      }
  8240  132A  2952               	goto	L3
  8241                           
  8242                           	psect	text7_split_3
  8243  02D9                     l2503:
  8244  02D9  3039               	movlw	low (((conversion_newton@R_tab+56)-__stringbase)| (0+32768))
  8245  02DA  0084               	movwf	4
  8246  02DB  160A  158A  2000  120A  118A  	fcall	stringdir
  8247  02E0  1683               	bsf	3,5	;RP0=1, select bank1
  8248  02E1  1303               	bcf	3,6	;RP1=0, select bank1
  8249  02E2  00AD               	movwf	??_conversion_newton^(0+128)
  8250  02E3  160A  158A  2000  120A  118A  	fcall	stringdir
  8251  02E8  00AE               	movwf	(??_conversion_newton^(0+128)+1)
  8252  02E9  160A  158A  2000  120A  118A  	fcall	stringdir
  8253  02EE  00AF               	movwf	(??_conversion_newton^(0+128)+2)
  8254  02EF  160A  158A  2000  120A  118A  	fcall	stringdir
  8255  02F4  00B0               	movwf	(??_conversion_newton^(0+128)+3)
  8256  02F5  0830               	movf	(??_conversion_newton+3)^(0+128),w
  8257  02F6  00F6               	movwf	___flge@ff1+3
  8258  02F7  082F               	movf	(??_conversion_newton+2)^(0+128),w
  8259  02F8  00F5               	movwf	___flge@ff1+2
  8260  02F9  082E               	movf	(??_conversion_newton+1)^(0+128),w
  8261  02FA  00F4               	movwf	___flge@ff1+1
  8262  02FB  082D               	movf	??_conversion_newton^(0+128),w
  8263  02FC  00F3               	movwf	___flge@ff1
  8264  02FD  1283               	bcf	3,5	;RP0=0, select bank0
  8265  02FE  1303               	bcf	3,6	;RP1=0, select bank0
  8266  02FF  086C               	movf	conversion_newton@Rc+3,w
  8267  0300  00FA               	movwf	___flge@ff2+3
  8268  0301  086B               	movf	conversion_newton@Rc+2,w
  8269  0302  00F9               	movwf	___flge@ff2+2
  8270  0303  086A               	movf	conversion_newton@Rc+1,w
  8271  0304  00F8               	movwf	___flge@ff2+1
  8272  0305  0869               	movf	conversion_newton@Rc,w
  8273  0306  00F7               	movwf	___flge@ff2
  8274  0307  160A  158A  2537  120A  118A  	fcall	___flge
  8275  030C  1C03               	btfss	3,0
  8276  030D  2B0F               	goto	u3771
  8277  030E  2B10               	goto	u3770
  8278  030F                     u3771:
  8279  030F  2B4E               	goto	l2509
  8280  0310                     u3770:
  8281  0310                     l2505:
  8282  0310  3035               	movlw	low (((conversion_newton@R_tab+52)-__stringbase)| (0+32768))
  8283  0311  0084               	movwf	4
  8284  0312  160A  158A  2000  120A  118A  	fcall	stringdir
  8285  0317  1683               	bsf	3,5	;RP0=1, select bank1
  8286  0318  1303               	bcf	3,6	;RP1=0, select bank1
  8287  0319  00AD               	movwf	??_conversion_newton^(0+128)
  8288  031A  160A  158A  2000  120A  118A  	fcall	stringdir
  8289  031F  00AE               	movwf	(??_conversion_newton^(0+128)+1)
  8290  0320  160A  158A  2000  120A  118A  	fcall	stringdir
  8291  0325  00AF               	movwf	(??_conversion_newton^(0+128)+2)
  8292  0326  160A  158A  2000  120A  118A  	fcall	stringdir
  8293  032B  00B0               	movwf	(??_conversion_newton^(0+128)+3)
  8294  032C  0830               	movf	(??_conversion_newton+3)^(0+128),w
  8295  032D  00F6               	movwf	___flge@ff1+3
  8296  032E  082F               	movf	(??_conversion_newton+2)^(0+128),w
  8297  032F  00F5               	movwf	___flge@ff1+2
  8298  0330  082E               	movf	(??_conversion_newton+1)^(0+128),w
  8299  0331  00F4               	movwf	___flge@ff1+1
  8300  0332  082D               	movf	??_conversion_newton^(0+128),w
  8301  0333  00F3               	movwf	___flge@ff1
  8302  0334  1283               	bcf	3,5	;RP0=0, select bank0
  8303  0335  1303               	bcf	3,6	;RP1=0, select bank0
  8304  0336  086C               	movf	conversion_newton@Rc+3,w
  8305  0337  00FA               	movwf	___flge@ff2+3
  8306  0338  086B               	movf	conversion_newton@Rc+2,w
  8307  0339  00F9               	movwf	___flge@ff2+2
  8308  033A  086A               	movf	conversion_newton@Rc+1,w
  8309  033B  00F8               	movwf	___flge@ff2+1
  8310  033C  0869               	movf	conversion_newton@Rc,w
  8311  033D  00F7               	movwf	___flge@ff2
  8312  033E  160A  158A  2537  120A  118A  	fcall	___flge
  8313  0343  1803               	btfsc	3,0
  8314  0344  2B46               	goto	u3781
  8315  0345  2B47               	goto	u3780
  8316  0346                     u3781:
  8317  0346  2B4E               	goto	l2509
  8318  0347                     u3780:
  8319  0347                     l2507:
  8320                           
  8321                           ;main.c: 270:      {;main.c: 271:          n= 13;
  8322  0347  300D               	movlw	13
  8323  0348  1683               	bsf	3,5	;RP0=1, select bank1
  8324  0349  1303               	bcf	3,6	;RP1=0, select bank1
  8325  034A  00CE               	movwf	conversion_newton@n^(0+128)
  8326  034B  3000               	movlw	0
  8327  034C  00CF               	movwf	(conversion_newton@n^(0+128)+1)
  8328                           
  8329                           ;main.c: 272:      }
  8330  034D  2D9D               	goto	l2541
  8331  034E                     l2509:
  8332  034E  303D               	movlw	low (((conversion_newton@R_tab+60)-__stringbase)| (0+32768))
  8333  034F  0084               	movwf	4
  8334  0350  160A  158A  2000  120A  118A  	fcall	stringdir
  8335  0355  1683               	bsf	3,5	;RP0=1, select bank1
  8336  0356  1303               	bcf	3,6	;RP1=0, select bank1
  8337  0357  00AD               	movwf	??_conversion_newton^(0+128)
  8338  0358  160A  158A  2000  120A  118A  	fcall	stringdir
  8339  035D  00AE               	movwf	(??_conversion_newton^(0+128)+1)
  8340  035E  160A  158A  2000  120A  118A  	fcall	stringdir
  8341  0363  00AF               	movwf	(??_conversion_newton^(0+128)+2)
  8342  0364  160A  158A  2000  120A  118A  	fcall	stringdir
  8343  0369  00B0               	movwf	(??_conversion_newton^(0+128)+3)
  8344  036A  0830               	movf	(??_conversion_newton+3)^(0+128),w
  8345  036B  00F6               	movwf	___flge@ff1+3
  8346  036C  082F               	movf	(??_conversion_newton+2)^(0+128),w
  8347  036D  00F5               	movwf	___flge@ff1+2
  8348  036E  082E               	movf	(??_conversion_newton+1)^(0+128),w
  8349  036F  00F4               	movwf	___flge@ff1+1
  8350  0370  082D               	movf	??_conversion_newton^(0+128),w
  8351  0371  00F3               	movwf	___flge@ff1
  8352  0372  1283               	bcf	3,5	;RP0=0, select bank0
  8353  0373  1303               	bcf	3,6	;RP1=0, select bank0
  8354  0374  086C               	movf	conversion_newton@Rc+3,w
  8355  0375  00FA               	movwf	___flge@ff2+3
  8356  0376  086B               	movf	conversion_newton@Rc+2,w
  8357  0377  00F9               	movwf	___flge@ff2+2
  8358  0378  086A               	movf	conversion_newton@Rc+1,w
  8359  0379  00F8               	movwf	___flge@ff2+1
  8360  037A  0869               	movf	conversion_newton@Rc,w
  8361  037B  00F7               	movwf	___flge@ff2
  8362  037C  160A  158A  2537  120A  118A  	fcall	___flge
  8363  0381  1C03               	btfss	3,0
  8364  0382  2B84               	goto	u3791
  8365  0383  2B85               	goto	u3790
  8366  0384                     u3791:
  8367  0384  2BC3               	goto	l2515
  8368  0385                     u3790:
  8369  0385                     l2511:
  8370  0385  3039               	movlw	low (((conversion_newton@R_tab+56)-__stringbase)| (0+32768))
  8371  0386  0084               	movwf	4
  8372  0387  160A  158A  2000  120A  118A  	fcall	stringdir
  8373  038C  1683               	bsf	3,5	;RP0=1, select bank1
  8374  038D  1303               	bcf	3,6	;RP1=0, select bank1
  8375  038E  00AD               	movwf	??_conversion_newton^(0+128)
  8376  038F  160A  158A  2000  120A  118A  	fcall	stringdir
  8377  0394  00AE               	movwf	(??_conversion_newton^(0+128)+1)
  8378  0395  160A  158A  2000  120A  118A  	fcall	stringdir
  8379  039A  00AF               	movwf	(??_conversion_newton^(0+128)+2)
  8380  039B  160A  158A  2000  120A  118A  	fcall	stringdir
  8381  03A0  00B0               	movwf	(??_conversion_newton^(0+128)+3)
  8382  03A1  0830               	movf	(??_conversion_newton+3)^(0+128),w
  8383  03A2  00F6               	movwf	___flge@ff1+3
  8384  03A3  082F               	movf	(??_conversion_newton+2)^(0+128),w
  8385  03A4  00F5               	movwf	___flge@ff1+2
  8386  03A5  082E               	movf	(??_conversion_newton+1)^(0+128),w
  8387  03A6  00F4               	movwf	___flge@ff1+1
  8388  03A7  082D               	movf	??_conversion_newton^(0+128),w
  8389  03A8  00F3               	movwf	___flge@ff1
  8390  03A9  1283               	bcf	3,5	;RP0=0, select bank0
  8391  03AA  1303               	bcf	3,6	;RP1=0, select bank0
  8392  03AB  086C               	movf	conversion_newton@Rc+3,w
  8393  03AC  00FA               	movwf	___flge@ff2+3
  8394  03AD  086B               	movf	conversion_newton@Rc+2,w
  8395  03AE  00F9               	movwf	___flge@ff2+2
  8396  03AF  086A               	movf	conversion_newton@Rc+1,w
  8397  03B0  00F8               	movwf	___flge@ff2+1
  8398  03B1  0869               	movf	conversion_newton@Rc,w
  8399  03B2  00F7               	movwf	___flge@ff2
  8400  03B3  160A  158A  2537  120A  118A  	fcall	___flge
  8401  03B8  1803               	btfsc	3,0
  8402  03B9  2BBB               	goto	u3801
  8403  03BA  2BBC               	goto	u3800
  8404  03BB                     u3801:
  8405  03BB  2BC3               	goto	l2515
  8406  03BC                     u3800:
  8407  03BC                     l2513:
  8408                           
  8409                           ;main.c: 274:      {;main.c: 275:          n= 14;
  8410  03BC  300E               	movlw	14
  8411  03BD  1683               	bsf	3,5	;RP0=1, select bank1
  8412  03BE  1303               	bcf	3,6	;RP1=0, select bank1
  8413  03BF  00CE               	movwf	conversion_newton@n^(0+128)
  8414  03C0  3000               	movlw	0
  8415  03C1  00CF               	movwf	(conversion_newton@n^(0+128)+1)
  8416                           
  8417                           ;main.c: 276:      }
  8418  03C2  2D9D               	goto	l2541
  8419  03C3                     l2515:
  8420  03C3  3041               	movlw	low (((conversion_newton@R_tab+64)-__stringbase)| (0+32768))
  8421  03C4  0084               	movwf	4
  8422  03C5  160A  158A  2000  120A  118A  	fcall	stringdir
  8423  03CA  1683               	bsf	3,5	;RP0=1, select bank1
  8424  03CB  1303               	bcf	3,6	;RP1=0, select bank1
  8425  03CC  00AD               	movwf	??_conversion_newton^(0+128)
  8426  03CD  160A  158A  2000  120A  118A  	fcall	stringdir
  8427  03D2  00AE               	movwf	(??_conversion_newton^(0+128)+1)
  8428  03D3  160A  158A  2000  120A  118A  	fcall	stringdir
  8429  03D8  00AF               	movwf	(??_conversion_newton^(0+128)+2)
  8430  03D9  160A  158A  2000  120A  118A  	fcall	stringdir
  8431  03DE  00B0               	movwf	(??_conversion_newton^(0+128)+3)
  8432  03DF  0830               	movf	(??_conversion_newton+3)^(0+128),w
  8433  03E0  00F6               	movwf	___flge@ff1+3
  8434  03E1  082F               	movf	(??_conversion_newton+2)^(0+128),w
  8435  03E2  00F5               	movwf	___flge@ff1+2
  8436  03E3  082E               	movf	(??_conversion_newton+1)^(0+128),w
  8437  03E4  00F4               	movwf	___flge@ff1+1
  8438  03E5  082D               	movf	??_conversion_newton^(0+128),w
  8439  03E6  00F3               	movwf	___flge@ff1
  8440  03E7  1283               	bcf	3,5	;RP0=0, select bank0
  8441  03E8  1303               	bcf	3,6	;RP1=0, select bank0
  8442  03E9  086C               	movf	conversion_newton@Rc+3,w
  8443  03EA  00FA               	movwf	___flge@ff2+3
  8444  03EB  086B               	movf	conversion_newton@Rc+2,w
  8445  03EC  00F9               	movwf	___flge@ff2+2
  8446  03ED  086A               	movf	conversion_newton@Rc+1,w
  8447  03EE  00F8               	movwf	___flge@ff2+1
  8448  03EF  0869               	movf	conversion_newton@Rc,w
  8449  03F0  00F7               	movwf	___flge@ff2
  8450  03F1  160A  158A  2537  120A  118A  	fcall	___flge
  8451  03F6  1C03               	btfss	3,0
  8452  03F7  2BF9               	goto	u3811
  8453  03F8  2BFA               	goto	u3810
  8454  03F9                     u3811:
  8455  03F9  2C38               	goto	l2521
  8456  03FA                     u3810:
  8457  03FA                     l2517:
  8458  03FA  303D               	movlw	low (((conversion_newton@R_tab+60)-__stringbase)| (0+32768))
  8459  03FB  0084               	movwf	4
  8460  03FC  160A  158A  2000  120A  118A  	fcall	stringdir
  8461  0401  1683               	bsf	3,5	;RP0=1, select bank1
  8462  0402  1303               	bcf	3,6	;RP1=0, select bank1
  8463  0403  00AD               	movwf	??_conversion_newton^(0+128)
  8464  0404  160A  158A  2000  120A  118A  	fcall	stringdir
  8465  0409  00AE               	movwf	(??_conversion_newton^(0+128)+1)
  8466  040A  160A  158A  2000  120A  118A  	fcall	stringdir
  8467  040F  00AF               	movwf	(??_conversion_newton^(0+128)+2)
  8468  0410  160A  158A  2000  120A  118A  	fcall	stringdir
  8469  0415  00B0               	movwf	(??_conversion_newton^(0+128)+3)
  8470  0416  0830               	movf	(??_conversion_newton+3)^(0+128),w
  8471  0417  00F6               	movwf	___flge@ff1+3
  8472  0418  082F               	movf	(??_conversion_newton+2)^(0+128),w
  8473  0419  00F5               	movwf	___flge@ff1+2
  8474  041A  082E               	movf	(??_conversion_newton+1)^(0+128),w
  8475  041B  00F4               	movwf	___flge@ff1+1
  8476  041C  082D               	movf	??_conversion_newton^(0+128),w
  8477  041D  00F3               	movwf	___flge@ff1
  8478  041E  1283               	bcf	3,5	;RP0=0, select bank0
  8479  041F  1303               	bcf	3,6	;RP1=0, select bank0
  8480  0420  086C               	movf	conversion_newton@Rc+3,w
  8481  0421  00FA               	movwf	___flge@ff2+3
  8482  0422  086B               	movf	conversion_newton@Rc+2,w
  8483  0423  00F9               	movwf	___flge@ff2+2
  8484  0424  086A               	movf	conversion_newton@Rc+1,w
  8485  0425  00F8               	movwf	___flge@ff2+1
  8486  0426  0869               	movf	conversion_newton@Rc,w
  8487  0427  00F7               	movwf	___flge@ff2
  8488  0428  160A  158A  2537  120A  118A  	fcall	___flge
  8489  042D  1803               	btfsc	3,0
  8490  042E  2C30               	goto	u3821
  8491  042F  2C31               	goto	u3820
  8492  0430                     u3821:
  8493  0430  2C38               	goto	l2521
  8494  0431                     u3820:
  8495  0431                     l2519:
  8496                           
  8497                           ;main.c: 278:      {;main.c: 279:          n= 15;
  8498  0431  300F               	movlw	15
  8499  0432  1683               	bsf	3,5	;RP0=1, select bank1
  8500  0433  1303               	bcf	3,6	;RP1=0, select bank1
  8501  0434  00CE               	movwf	conversion_newton@n^(0+128)
  8502  0435  3000               	movlw	0
  8503  0436  00CF               	movwf	(conversion_newton@n^(0+128)+1)
  8504                           
  8505                           ;main.c: 280:      }
  8506  0437  2D9D               	goto	l2541
  8507  0438                     l2521:
  8508  0438  3045               	movlw	low (((conversion_newton@R_tab+68)-__stringbase)| (0+32768))
  8509  0439  0084               	movwf	4
  8510  043A  160A  158A  2000  120A  118A  	fcall	stringdir
  8511  043F  1683               	bsf	3,5	;RP0=1, select bank1
  8512  0440  1303               	bcf	3,6	;RP1=0, select bank1
  8513  0441  00AD               	movwf	??_conversion_newton^(0+128)
  8514  0442  160A  158A  2000  120A  118A  	fcall	stringdir
  8515  0447  00AE               	movwf	(??_conversion_newton^(0+128)+1)
  8516  0448  160A  158A  2000  120A  118A  	fcall	stringdir
  8517  044D  00AF               	movwf	(??_conversion_newton^(0+128)+2)
  8518  044E  160A  158A  2000  120A  118A  	fcall	stringdir
  8519  0453  00B0               	movwf	(??_conversion_newton^(0+128)+3)
  8520  0454  0830               	movf	(??_conversion_newton+3)^(0+128),w
  8521  0455  00F6               	movwf	___flge@ff1+3
  8522  0456  082F               	movf	(??_conversion_newton+2)^(0+128),w
  8523  0457  00F5               	movwf	___flge@ff1+2
  8524  0458  082E               	movf	(??_conversion_newton+1)^(0+128),w
  8525  0459  00F4               	movwf	___flge@ff1+1
  8526  045A  082D               	movf	??_conversion_newton^(0+128),w
  8527  045B  00F3               	movwf	___flge@ff1
  8528  045C  1283               	bcf	3,5	;RP0=0, select bank0
  8529  045D  1303               	bcf	3,6	;RP1=0, select bank0
  8530  045E  086C               	movf	conversion_newton@Rc+3,w
  8531  045F  00FA               	movwf	___flge@ff2+3
  8532  0460  086B               	movf	conversion_newton@Rc+2,w
  8533  0461  00F9               	movwf	___flge@ff2+2
  8534  0462  086A               	movf	conversion_newton@Rc+1,w
  8535  0463  00F8               	movwf	___flge@ff2+1
  8536  0464  0869               	movf	conversion_newton@Rc,w
  8537  0465  00F7               	movwf	___flge@ff2
  8538  0466  160A  158A  2537  120A  118A  	fcall	___flge
  8539  046B  1C03               	btfss	3,0
  8540  046C  2C6E               	goto	u3831
  8541  046D  2C6F               	goto	u3830
  8542  046E                     u3831:
  8543  046E  2CAD               	goto	l2527
  8544  046F                     u3830:
  8545  046F                     l2523:
  8546  046F  3041               	movlw	low (((conversion_newton@R_tab+64)-__stringbase)| (0+32768))
  8547  0470  0084               	movwf	4
  8548  0471  160A  158A  2000  120A  118A  	fcall	stringdir
  8549  0476  1683               	bsf	3,5	;RP0=1, select bank1
  8550  0477  1303               	bcf	3,6	;RP1=0, select bank1
  8551  0478  00AD               	movwf	??_conversion_newton^(0+128)
  8552  0479  160A  158A  2000  120A  118A  	fcall	stringdir
  8553  047E  00AE               	movwf	(??_conversion_newton^(0+128)+1)
  8554  047F  160A  158A  2000  120A  118A  	fcall	stringdir
  8555  0484  00AF               	movwf	(??_conversion_newton^(0+128)+2)
  8556  0485  160A  158A  2000  120A  118A  	fcall	stringdir
  8557  048A  00B0               	movwf	(??_conversion_newton^(0+128)+3)
  8558  048B  0830               	movf	(??_conversion_newton+3)^(0+128),w
  8559  048C  00F6               	movwf	___flge@ff1+3
  8560  048D  082F               	movf	(??_conversion_newton+2)^(0+128),w
  8561  048E  00F5               	movwf	___flge@ff1+2
  8562  048F  082E               	movf	(??_conversion_newton+1)^(0+128),w
  8563  0490  00F4               	movwf	___flge@ff1+1
  8564  0491  082D               	movf	??_conversion_newton^(0+128),w
  8565  0492  00F3               	movwf	___flge@ff1
  8566  0493  1283               	bcf	3,5	;RP0=0, select bank0
  8567  0494  1303               	bcf	3,6	;RP1=0, select bank0
  8568  0495  086C               	movf	conversion_newton@Rc+3,w
  8569  0496  00FA               	movwf	___flge@ff2+3
  8570  0497  086B               	movf	conversion_newton@Rc+2,w
  8571  0498  00F9               	movwf	___flge@ff2+2
  8572  0499  086A               	movf	conversion_newton@Rc+1,w
  8573  049A  00F8               	movwf	___flge@ff2+1
  8574  049B  0869               	movf	conversion_newton@Rc,w
  8575  049C  00F7               	movwf	___flge@ff2
  8576  049D  160A  158A  2537  120A  118A  	fcall	___flge
  8577  04A2  1803               	btfsc	3,0
  8578  04A3  2CA5               	goto	u3841
  8579  04A4  2CA6               	goto	u3840
  8580  04A5                     u3841:
  8581  04A5  2CAD               	goto	l2527
  8582  04A6                     u3840:
  8583  04A6                     l2525:
  8584                           
  8585                           ;main.c: 282:      {;main.c: 283:          n= 16;
  8586  04A6  3010               	movlw	16
  8587  04A7  1683               	bsf	3,5	;RP0=1, select bank1
  8588  04A8  1303               	bcf	3,6	;RP1=0, select bank1
  8589  04A9  00CE               	movwf	conversion_newton@n^(0+128)
  8590  04AA  3000               	movlw	0
  8591  04AB  00CF               	movwf	(conversion_newton@n^(0+128)+1)
  8592                           
  8593                           ;main.c: 284:      }
  8594  04AC  2D9D               	goto	l2541
  8595  04AD                     l2527:
  8596  04AD  3049               	movlw	low (((conversion_newton@R_tab+72)-__stringbase)| (0+32768))
  8597  04AE  0084               	movwf	4
  8598  04AF  160A  158A  2000  120A  118A  	fcall	stringdir
  8599  04B4  1683               	bsf	3,5	;RP0=1, select bank1
  8600  04B5  1303               	bcf	3,6	;RP1=0, select bank1
  8601  04B6  00AD               	movwf	??_conversion_newton^(0+128)
  8602  04B7  160A  158A  2000  120A  118A  	fcall	stringdir
  8603  04BC  00AE               	movwf	(??_conversion_newton^(0+128)+1)
  8604  04BD  160A  158A  2000  120A  118A  	fcall	stringdir
  8605  04C2  00AF               	movwf	(??_conversion_newton^(0+128)+2)
  8606  04C3  160A  158A  2000  120A  118A  	fcall	stringdir
  8607  04C8  00B0               	movwf	(??_conversion_newton^(0+128)+3)
  8608  04C9  0830               	movf	(??_conversion_newton+3)^(0+128),w
  8609  04CA  00F6               	movwf	___flge@ff1+3
  8610  04CB  082F               	movf	(??_conversion_newton+2)^(0+128),w
  8611  04CC  00F5               	movwf	___flge@ff1+2
  8612  04CD  082E               	movf	(??_conversion_newton+1)^(0+128),w
  8613  04CE  00F4               	movwf	___flge@ff1+1
  8614  04CF  082D               	movf	??_conversion_newton^(0+128),w
  8615  04D0  00F3               	movwf	___flge@ff1
  8616  04D1  1283               	bcf	3,5	;RP0=0, select bank0
  8617  04D2  1303               	bcf	3,6	;RP1=0, select bank0
  8618  04D3  086C               	movf	conversion_newton@Rc+3,w
  8619  04D4  00FA               	movwf	___flge@ff2+3
  8620  04D5  086B               	movf	conversion_newton@Rc+2,w
  8621  04D6  00F9               	movwf	___flge@ff2+2
  8622  04D7  086A               	movf	conversion_newton@Rc+1,w
  8623  04D8  00F8               	movwf	___flge@ff2+1
  8624  04D9  0869               	movf	conversion_newton@Rc,w
  8625  04DA  00F7               	movwf	___flge@ff2
  8626  04DB  160A  158A  2537  120A  118A  	fcall	___flge
  8627  04E0  1C03               	btfss	3,0
  8628  04E1  2CE3               	goto	u3851
  8629  04E2  2CE4               	goto	u3850
  8630  04E3                     u3851:
  8631  04E3  2D22               	goto	l2533
  8632  04E4                     u3850:
  8633  04E4                     l2529:
  8634  04E4  3045               	movlw	low (((conversion_newton@R_tab+68)-__stringbase)| (0+32768))
  8635  04E5  0084               	movwf	4
  8636  04E6  160A  158A  2000  120A  118A  	fcall	stringdir
  8637  04EB  1683               	bsf	3,5	;RP0=1, select bank1
  8638  04EC  1303               	bcf	3,6	;RP1=0, select bank1
  8639  04ED  00AD               	movwf	??_conversion_newton^(0+128)
  8640  04EE  160A  158A  2000  120A  118A  	fcall	stringdir
  8641  04F3  00AE               	movwf	(??_conversion_newton^(0+128)+1)
  8642  04F4  160A  158A  2000  120A  118A  	fcall	stringdir
  8643  04F9  00AF               	movwf	(??_conversion_newton^(0+128)+2)
  8644  04FA  160A  158A  2000  120A  118A  	fcall	stringdir
  8645  04FF  00B0               	movwf	(??_conversion_newton^(0+128)+3)
  8646  0500  0830               	movf	(??_conversion_newton+3)^(0+128),w
  8647  0501  00F6               	movwf	___flge@ff1+3
  8648  0502  082F               	movf	(??_conversion_newton+2)^(0+128),w
  8649  0503  00F5               	movwf	___flge@ff1+2
  8650  0504  082E               	movf	(??_conversion_newton+1)^(0+128),w
  8651  0505  00F4               	movwf	___flge@ff1+1
  8652  0506  082D               	movf	??_conversion_newton^(0+128),w
  8653  0507  00F3               	movwf	___flge@ff1
  8654  0508  1283               	bcf	3,5	;RP0=0, select bank0
  8655  0509  1303               	bcf	3,6	;RP1=0, select bank0
  8656  050A  086C               	movf	conversion_newton@Rc+3,w
  8657  050B  00FA               	movwf	___flge@ff2+3
  8658  050C  086B               	movf	conversion_newton@Rc+2,w
  8659  050D  00F9               	movwf	___flge@ff2+2
  8660  050E  086A               	movf	conversion_newton@Rc+1,w
  8661  050F  00F8               	movwf	___flge@ff2+1
  8662  0510  0869               	movf	conversion_newton@Rc,w
  8663  0511  00F7               	movwf	___flge@ff2
  8664  0512  160A  158A  2537  120A  118A  	fcall	___flge
  8665  0517  1803               	btfsc	3,0
  8666  0518  2D1A               	goto	u3861
  8667  0519  2D1B               	goto	u3860
  8668  051A                     u3861:
  8669  051A  2D22               	goto	l2533
  8670  051B                     u3860:
  8671  051B                     l2531:
  8672                           
  8673                           ;main.c: 286:      {;main.c: 287:          n= 17;
  8674  051B  3011               	movlw	17
  8675  051C  1683               	bsf	3,5	;RP0=1, select bank1
  8676  051D  1303               	bcf	3,6	;RP1=0, select bank1
  8677  051E  00CE               	movwf	conversion_newton@n^(0+128)
  8678  051F  3000               	movlw	0
  8679  0520  00CF               	movwf	(conversion_newton@n^(0+128)+1)
  8680                           
  8681                           ;main.c: 288:      }
  8682  0521  2D9D               	goto	l2541
  8683  0522                     l2533:
  8684  0522  304D               	movlw	low (((conversion_newton@R_tab+76)-__stringbase)| (0+32768))
  8685  0523  0084               	movwf	4
  8686  0524  160A  158A  2000  120A  118A  	fcall	stringdir
  8687  0529  1683               	bsf	3,5	;RP0=1, select bank1
  8688  052A  1303               	bcf	3,6	;RP1=0, select bank1
  8689  052B  00AD               	movwf	??_conversion_newton^(0+128)
  8690  052C  160A  158A  2000  120A  118A  	fcall	stringdir
  8691  0531  00AE               	movwf	(??_conversion_newton^(0+128)+1)
  8692  0532  160A  158A  2000  120A  118A  	fcall	stringdir
  8693  0537  00AF               	movwf	(??_conversion_newton^(0+128)+2)
  8694  0538  160A  158A  2000  120A  118A  	fcall	stringdir
  8695  053D  00B0               	movwf	(??_conversion_newton^(0+128)+3)
  8696  053E  0830               	movf	(??_conversion_newton+3)^(0+128),w
  8697  053F  00F6               	movwf	___flge@ff1+3
  8698  0540  082F               	movf	(??_conversion_newton+2)^(0+128),w
  8699  0541  00F5               	movwf	___flge@ff1+2
  8700  0542  082E               	movf	(??_conversion_newton+1)^(0+128),w
  8701  0543  00F4               	movwf	___flge@ff1+1
  8702  0544  082D               	movf	??_conversion_newton^(0+128),w
  8703  0545  00F3               	movwf	___flge@ff1
  8704  0546  1283               	bcf	3,5	;RP0=0, select bank0
  8705  0547  1303               	bcf	3,6	;RP1=0, select bank0
  8706  0548  086C               	movf	conversion_newton@Rc+3,w
  8707  0549  00FA               	movwf	___flge@ff2+3
  8708  054A  086B               	movf	conversion_newton@Rc+2,w
  8709  054B  00F9               	movwf	___flge@ff2+2
  8710  054C  086A               	movf	conversion_newton@Rc+1,w
  8711  054D  00F8               	movwf	___flge@ff2+1
  8712  054E  0869               	movf	conversion_newton@Rc,w
  8713  054F  00F7               	movwf	___flge@ff2
  8714  0550  160A  158A  2537  120A  118A  	fcall	___flge
  8715  0555  1C03               	btfss	3,0
  8716  0556  2D58               	goto	u3871
  8717  0557  2D59               	goto	u3870
  8718  0558                     u3871:
  8719  0558  2D97               	goto	l2539
  8720  0559                     u3870:
  8721  0559                     l2535:
  8722  0559  3049               	movlw	low (((conversion_newton@R_tab+72)-__stringbase)| (0+32768))
  8723  055A  0084               	movwf	4
  8724  055B  160A  158A  2000  120A  118A  	fcall	stringdir
  8725  0560  1683               	bsf	3,5	;RP0=1, select bank1
  8726  0561  1303               	bcf	3,6	;RP1=0, select bank1
  8727  0562  00AD               	movwf	??_conversion_newton^(0+128)
  8728  0563  160A  158A  2000  120A  118A  	fcall	stringdir
  8729  0568  00AE               	movwf	(??_conversion_newton^(0+128)+1)
  8730  0569  160A  158A  2000  120A  118A  	fcall	stringdir
  8731  056E  00AF               	movwf	(??_conversion_newton^(0+128)+2)
  8732  056F  160A  158A  2000  120A  118A  	fcall	stringdir
  8733  0574  00B0               	movwf	(??_conversion_newton^(0+128)+3)
  8734  0575  0830               	movf	(??_conversion_newton+3)^(0+128),w
  8735  0576  00F6               	movwf	___flge@ff1+3
  8736  0577  082F               	movf	(??_conversion_newton+2)^(0+128),w
  8737  0578  00F5               	movwf	___flge@ff1+2
  8738  0579  082E               	movf	(??_conversion_newton+1)^(0+128),w
  8739  057A  00F4               	movwf	___flge@ff1+1
  8740  057B  082D               	movf	??_conversion_newton^(0+128),w
  8741  057C  00F3               	movwf	___flge@ff1
  8742  057D  1283               	bcf	3,5	;RP0=0, select bank0
  8743  057E  1303               	bcf	3,6	;RP1=0, select bank0
  8744  057F  086C               	movf	conversion_newton@Rc+3,w
  8745  0580  00FA               	movwf	___flge@ff2+3
  8746  0581  086B               	movf	conversion_newton@Rc+2,w
  8747  0582  00F9               	movwf	___flge@ff2+2
  8748  0583  086A               	movf	conversion_newton@Rc+1,w
  8749  0584  00F8               	movwf	___flge@ff2+1
  8750  0585  0869               	movf	conversion_newton@Rc,w
  8751  0586  00F7               	movwf	___flge@ff2
  8752  0587  160A  158A  2537  120A  118A  	fcall	___flge
  8753  058C  1803               	btfsc	3,0
  8754  058D  2D8F               	goto	u3881
  8755  058E  2D90               	goto	u3880
  8756  058F                     u3881:
  8757  058F  2D97               	goto	l2539
  8758  0590                     u3880:
  8759  0590                     l2537:
  8760                           
  8761                           ;main.c: 290:      {;main.c: 291:          n= 18;
  8762  0590  3012               	movlw	18
  8763  0591  1683               	bsf	3,5	;RP0=1, select bank1
  8764  0592  1303               	bcf	3,6	;RP1=0, select bank1
  8765  0593  00CE               	movwf	conversion_newton@n^(0+128)
  8766  0594  3000               	movlw	0
  8767  0595  00CF               	movwf	(conversion_newton@n^(0+128)+1)
  8768                           
  8769                           ;main.c: 292:      }
  8770  0596  2D9D               	goto	l2541
  8771  0597                     l2539:
  8772                           
  8773                           ;main.c: 294:      {;main.c: 295:          n= 19;
  8774  0597  3013               	movlw	19
  8775  0598  1683               	bsf	3,5	;RP0=1, select bank1
  8776  0599  1303               	bcf	3,6	;RP1=0, select bank1
  8777  059A  00CE               	movwf	conversion_newton@n^(0+128)
  8778  059B  3000               	movlw	0
  8779  059C  00CF               	movwf	(conversion_newton@n^(0+128)+1)
  8780  059D                     l2541:
  8781                           
  8782                           ;main.c: 299:      F = (((F_tab[n]-F_tab[n+1])/(R_tab[n+1]-R_tab[n]))*(Rc-R_tab[n]))+F_t
      +                          ab[n];
  8783  059D  084E               	movf	conversion_newton@n^(0+128),w
  8784  059E  00AD               	movwf	??_conversion_newton^(0+128)
  8785  059F  3001               	movlw	1
  8786  05A0                     u3895:
  8787  05A0  1003               	clrc
  8788  05A1  0DAD               	rlf	??_conversion_newton^(0+128),f
  8789  05A2  3EFF               	addlw	-1
  8790  05A3  1D03               	skipz
  8791  05A4  2DA0               	goto	u3895
  8792  05A5  1003               	clrc
  8793  05A6  0D2D               	rlf	??_conversion_newton^(0+128),w
  8794  05A7  3E01               	addlw	low ((conversion_newton@R_tab-__stringbase)| (0+32768))
  8795  05A8  0084               	movwf	4
  8796  05A9  160A  158A  2000  120A  118A  	fcall	stringdir
  8797  05AE  00AE               	movwf	(??_conversion_newton+1)^(0+128)
  8798  05AF  160A  158A  2000  120A  118A  	fcall	stringdir
  8799  05B4  00AF               	movwf	((??_conversion_newton+1)^(0+128)+1)
  8800  05B5  160A  158A  2000  120A  118A  	fcall	stringdir
  8801  05BA  00B0               	movwf	((??_conversion_newton+1)^(0+128)+2)
  8802  05BB  160A  158A  2000  120A  118A  	fcall	stringdir
  8803  05C0  00B1               	movwf	((??_conversion_newton+1)^(0+128)+3)
  8804  05C1  0831               	movf	(??_conversion_newton+4)^(0+128),w
  8805  05C2  1283               	bcf	3,5	;RP0=0, select bank0
  8806  05C3  1303               	bcf	3,6	;RP1=0, select bank0
  8807  05C4  00D7               	movwf	___flsub@a+3
  8808  05C5  1683               	bsf	3,5	;RP0=1, select bank1
  8809  05C6  1303               	bcf	3,6	;RP1=0, select bank1
  8810  05C7  0830               	movf	(??_conversion_newton+3)^(0+128),w
  8811  05C8  1283               	bcf	3,5	;RP0=0, select bank0
  8812  05C9  1303               	bcf	3,6	;RP1=0, select bank0
  8813  05CA  00D6               	movwf	___flsub@a+2
  8814  05CB  1683               	bsf	3,5	;RP0=1, select bank1
  8815  05CC  1303               	bcf	3,6	;RP1=0, select bank1
  8816  05CD  082F               	movf	(??_conversion_newton+2)^(0+128),w
  8817  05CE  1283               	bcf	3,5	;RP0=0, select bank0
  8818  05CF  1303               	bcf	3,6	;RP1=0, select bank0
  8819  05D0  00D5               	movwf	___flsub@a+1
  8820  05D1  1683               	bsf	3,5	;RP0=1, select bank1
  8821  05D2  1303               	bcf	3,6	;RP1=0, select bank1
  8822  05D3  082E               	movf	(??_conversion_newton+1)^(0+128),w
  8823  05D4  1283               	bcf	3,5	;RP0=0, select bank0
  8824  05D5  1303               	bcf	3,6	;RP1=0, select bank0
  8825  05D6  00D4               	movwf	___flsub@a
  8826  05D7  086C               	movf	conversion_newton@Rc+3,w
  8827  05D8  00DB               	movwf	___flsub@b+3
  8828  05D9  086B               	movf	conversion_newton@Rc+2,w
  8829  05DA  00DA               	movwf	___flsub@b+2
  8830  05DB  086A               	movf	conversion_newton@Rc+1,w
  8831  05DC  00D9               	movwf	___flsub@b+1
  8832  05DD  0869               	movf	conversion_newton@Rc,w
  8833  05DE  00D8               	movwf	___flsub@b
  8834  05DF  160A  158A  236D  120A  118A  	fcall	___flsub
  8835  05E4  1283               	bcf	3,5	;RP0=0, select bank0
  8836  05E5  1303               	bcf	3,6	;RP1=0, select bank0
  8837  05E6  0857               	movf	?___flsub+3,w
  8838  05E7  00A9               	movwf	___flmul@b+3
  8839  05E8  0856               	movf	?___flsub+2,w
  8840  05E9  00A8               	movwf	___flmul@b+2
  8841  05EA  0855               	movf	?___flsub+1,w
  8842  05EB  00A7               	movwf	___flmul@b+1
  8843  05EC  0854               	movf	?___flsub,w
  8844  05ED  00A6               	movwf	___flmul@b
  8845  05EE  1683               	bsf	3,5	;RP0=1, select bank1
  8846  05EF  1303               	bcf	3,6	;RP1=0, select bank1
  8847  05F0  084E               	movf	conversion_newton@n^(0+128),w
  8848  05F1  00B2               	movwf	(??_conversion_newton+5)^(0+128)
  8849  05F2  3001               	movlw	1
  8850  05F3                     u3905:
  8851  05F3  1003               	clrc
  8852  05F4  0DB2               	rlf	(??_conversion_newton+5)^(0+128),f
  8853  05F5  3EFF               	addlw	-1
  8854  05F6  1D03               	skipz
  8855  05F7  2DF3               	goto	u3905
  8856  05F8  1003               	clrc
  8857  05F9  0D32               	rlf	(??_conversion_newton+5)^(0+128),w
  8858  05FA  3E01               	addlw	low ((conversion_newton@R_tab-__stringbase)| (0+32768))
  8859  05FB  0084               	movwf	4
  8860  05FC  160A  158A  2000  120A  118A  	fcall	stringdir
  8861  0601  00B3               	movwf	(??_conversion_newton+6)^(0+128)
  8862  0602  160A  158A  2000  120A  118A  	fcall	stringdir
  8863  0607  00B4               	movwf	((??_conversion_newton+6)^(0+128)+1)
  8864  0608  160A  158A  2000  120A  118A  	fcall	stringdir
  8865  060D  00B5               	movwf	((??_conversion_newton+6)^(0+128)+2)
  8866  060E  160A  158A  2000  120A  118A  	fcall	stringdir
  8867  0613  00B6               	movwf	((??_conversion_newton+6)^(0+128)+3)
  8868  0614  0836               	movf	(??_conversion_newton+9)^(0+128),w
  8869  0615  1283               	bcf	3,5	;RP0=0, select bank0
  8870  0616  1303               	bcf	3,6	;RP1=0, select bank0
  8871  0617  00D7               	movwf	___flsub@a+3
  8872  0618  1683               	bsf	3,5	;RP0=1, select bank1
  8873  0619  1303               	bcf	3,6	;RP1=0, select bank1
  8874  061A  0835               	movf	(??_conversion_newton+8)^(0+128),w
  8875  061B  1283               	bcf	3,5	;RP0=0, select bank0
  8876  061C  1303               	bcf	3,6	;RP1=0, select bank0
  8877  061D  00D6               	movwf	___flsub@a+2
  8878  061E  1683               	bsf	3,5	;RP0=1, select bank1
  8879  061F  1303               	bcf	3,6	;RP1=0, select bank1
  8880  0620  0834               	movf	(??_conversion_newton+7)^(0+128),w
  8881  0621  1283               	bcf	3,5	;RP0=0, select bank0
  8882  0622  1303               	bcf	3,6	;RP1=0, select bank0
  8883  0623  00D5               	movwf	___flsub@a+1
  8884  0624  1683               	bsf	3,5	;RP0=1, select bank1
  8885  0625  1303               	bcf	3,6	;RP1=0, select bank1
  8886  0626  0833               	movf	(??_conversion_newton+6)^(0+128),w
  8887  0627  1283               	bcf	3,5	;RP0=0, select bank0
  8888  0628  1303               	bcf	3,6	;RP1=0, select bank0
  8889  0629  00D4               	movwf	___flsub@a
  8890  062A  1683               	bsf	3,5	;RP0=1, select bank1
  8891  062B  1303               	bcf	3,6	;RP1=0, select bank1
  8892  062C  084E               	movf	conversion_newton@n^(0+128),w
  8893  062D  00B7               	movwf	(??_conversion_newton+10)^(0+128)
  8894  062E  3001               	movlw	1
  8895  062F                     u3915:
  8896  062F  1003               	clrc
  8897  0630  0DB7               	rlf	(??_conversion_newton+10)^(0+128),f
  8898  0631  3EFF               	addlw	-1
  8899  0632  1D03               	skipz
  8900  0633  2E2F               	goto	u3915
  8901  0634  1003               	clrc
  8902  0635  0D37               	rlf	(??_conversion_newton+10)^(0+128),w
  8903  0636  3E05               	addlw	low (((conversion_newton@R_tab-__stringbase)| (0+32768)+4))
  8904  0637  0084               	movwf	4
  8905  0638  160A  158A  2000  120A  118A  	fcall	stringdir
  8906  063D  00B8               	movwf	(??_conversion_newton+11)^(0+128)
  8907  063E  160A  158A  2000  120A  118A  	fcall	stringdir
  8908  0643  00B9               	movwf	((??_conversion_newton+11)^(0+128)+1)
  8909  0644  160A  158A  2000  120A  118A  	fcall	stringdir
  8910  0649  00BA               	movwf	((??_conversion_newton+11)^(0+128)+2)
  8911  064A  160A  158A  2000  120A  118A  	fcall	stringdir
  8912  064F  00BB               	movwf	((??_conversion_newton+11)^(0+128)+3)
  8913  0650  083B               	movf	(??_conversion_newton+14)^(0+128),w
  8914  0651  1283               	bcf	3,5	;RP0=0, select bank0
  8915  0652  1303               	bcf	3,6	;RP1=0, select bank0
  8916  0653  00DB               	movwf	___flsub@b+3
  8917  0654  1683               	bsf	3,5	;RP0=1, select bank1
  8918  0655  1303               	bcf	3,6	;RP1=0, select bank1
  8919  0656  083A               	movf	(??_conversion_newton+13)^(0+128),w
  8920  0657  1283               	bcf	3,5	;RP0=0, select bank0
  8921  0658  1303               	bcf	3,6	;RP1=0, select bank0
  8922  0659  00DA               	movwf	___flsub@b+2
  8923  065A  1683               	bsf	3,5	;RP0=1, select bank1
  8924  065B  1303               	bcf	3,6	;RP1=0, select bank1
  8925  065C  0839               	movf	(??_conversion_newton+12)^(0+128),w
  8926  065D  1283               	bcf	3,5	;RP0=0, select bank0
  8927  065E  1303               	bcf	3,6	;RP1=0, select bank0
  8928  065F  00D9               	movwf	___flsub@b+1
  8929  0660  1683               	bsf	3,5	;RP0=1, select bank1
  8930  0661  1303               	bcf	3,6	;RP1=0, select bank1
  8931  0662  0838               	movf	(??_conversion_newton+11)^(0+128),w
  8932  0663  1283               	bcf	3,5	;RP0=0, select bank0
  8933  0664  1303               	bcf	3,6	;RP1=0, select bank0
  8934  0665  00D8               	movwf	___flsub@b
  8935  0666  160A  158A  236D  120A  118A  	fcall	___flsub
  8936  066B  1283               	bcf	3,5	;RP0=0, select bank0
  8937  066C  1303               	bcf	3,6	;RP1=0, select bank0
  8938  066D  0857               	movf	?___flsub+3,w
  8939  066E  00DF               	movwf	___fldiv@a+3
  8940  066F  0856               	movf	?___flsub+2,w
  8941  0670  00DE               	movwf	___fldiv@a+2
  8942  0671  0855               	movf	?___flsub+1,w
  8943  0672  00DD               	movwf	___fldiv@a+1
  8944  0673  0854               	movf	?___flsub,w
  8945  0674  00DC               	movwf	___fldiv@a
  8946  0675  1683               	bsf	3,5	;RP0=1, select bank1
  8947  0676  1303               	bcf	3,6	;RP1=0, select bank1
  8948  0677  084E               	movf	conversion_newton@n^(0+128),w
  8949  0678  00BC               	movwf	(??_conversion_newton+15)^(0+128)
  8950  0679  3001               	movlw	1
  8951  067A                     u3925:
  8952  067A  1003               	clrc
  8953  067B  0DBC               	rlf	(??_conversion_newton+15)^(0+128),f
  8954  067C  3EFF               	addlw	-1
  8955  067D  1D03               	skipz
  8956  067E  2E7A               	goto	u3925
  8957  067F  1003               	clrc
  8958  0680  0D3C               	rlf	(??_conversion_newton+15)^(0+128),w
  8959  0681  3E55               	addlw	low (((conversion_newton@F_tab-__stringbase)| (0+32768)+4))
  8960  0682  0084               	movwf	4
  8961  0683  160A  158A  2000  120A  118A  	fcall	stringdir
  8962  0688  00BD               	movwf	(??_conversion_newton+16)^(0+128)
  8963  0689  160A  158A  2000  120A  118A  	fcall	stringdir
  8964  068E  00BE               	movwf	((??_conversion_newton+16)^(0+128)+1)
  8965  068F  160A  158A  2000  120A  118A  	fcall	stringdir
  8966  0694  00BF               	movwf	((??_conversion_newton+16)^(0+128)+2)
  8967  0695  160A  158A  2000  120A  118A  	fcall	stringdir
  8968  069A  00C0               	movwf	((??_conversion_newton+16)^(0+128)+3)
  8969  069B  0840               	movf	(??_conversion_newton+19)^(0+128),w
  8970  069C  1283               	bcf	3,5	;RP0=0, select bank0
  8971  069D  1303               	bcf	3,6	;RP1=0, select bank0
  8972  069E  00D7               	movwf	___flsub@a+3
  8973  069F  1683               	bsf	3,5	;RP0=1, select bank1
  8974  06A0  1303               	bcf	3,6	;RP1=0, select bank1
  8975  06A1  083F               	movf	(??_conversion_newton+18)^(0+128),w
  8976  06A2  1283               	bcf	3,5	;RP0=0, select bank0
  8977  06A3  1303               	bcf	3,6	;RP1=0, select bank0
  8978  06A4  00D6               	movwf	___flsub@a+2
  8979  06A5  1683               	bsf	3,5	;RP0=1, select bank1
  8980  06A6  1303               	bcf	3,6	;RP1=0, select bank1
  8981  06A7  083E               	movf	(??_conversion_newton+17)^(0+128),w
  8982  06A8  1283               	bcf	3,5	;RP0=0, select bank0
  8983  06A9  1303               	bcf	3,6	;RP1=0, select bank0
  8984  06AA  00D5               	movwf	___flsub@a+1
  8985  06AB  1683               	bsf	3,5	;RP0=1, select bank1
  8986  06AC  1303               	bcf	3,6	;RP1=0, select bank1
  8987  06AD  083D               	movf	(??_conversion_newton+16)^(0+128),w
  8988  06AE  1283               	bcf	3,5	;RP0=0, select bank0
  8989  06AF  1303               	bcf	3,6	;RP1=0, select bank0
  8990  06B0  00D4               	movwf	___flsub@a
  8991  06B1  1683               	bsf	3,5	;RP0=1, select bank1
  8992  06B2  1303               	bcf	3,6	;RP1=0, select bank1
  8993  06B3  084E               	movf	conversion_newton@n^(0+128),w
  8994  06B4  00C1               	movwf	(??_conversion_newton+20)^(0+128)
  8995  06B5  3001               	movlw	1
  8996  06B6                     u3935:
  8997  06B6  1003               	clrc
  8998  06B7  0DC1               	rlf	(??_conversion_newton+20)^(0+128),f
  8999  06B8  3EFF               	addlw	-1
  9000  06B9  1D03               	skipz
  9001  06BA  2EB6               	goto	u3935
  9002  06BB  1003               	clrc
  9003  06BC  0D41               	rlf	(??_conversion_newton+20)^(0+128),w
  9004  06BD  3E51               	addlw	low ((conversion_newton@F_tab-__stringbase)| (0+32768))
  9005  06BE  0084               	movwf	4
  9006  06BF  160A  158A  2000  120A  118A  	fcall	stringdir
  9007  06C4  00C2               	movwf	(??_conversion_newton+21)^(0+128)
  9008  06C5  160A  158A  2000  120A  118A  	fcall	stringdir
  9009  06CA  00C3               	movwf	((??_conversion_newton+21)^(0+128)+1)
  9010  06CB  160A  158A  2000  120A  118A  	fcall	stringdir
  9011  06D0  00C4               	movwf	((??_conversion_newton+21)^(0+128)+2)
  9012  06D1  160A  158A  2000  120A  118A  	fcall	stringdir
  9013  06D6  00C5               	movwf	((??_conversion_newton+21)^(0+128)+3)
  9014  06D7  0845               	movf	(??_conversion_newton+24)^(0+128),w
  9015  06D8  1283               	bcf	3,5	;RP0=0, select bank0
  9016  06D9  1303               	bcf	3,6	;RP1=0, select bank0
  9017  06DA  00DB               	movwf	___flsub@b+3
  9018  06DB  1683               	bsf	3,5	;RP0=1, select bank1
  9019  06DC  1303               	bcf	3,6	;RP1=0, select bank1
  9020  06DD  0844               	movf	(??_conversion_newton+23)^(0+128),w
  9021  06DE  1283               	bcf	3,5	;RP0=0, select bank0
  9022  06DF  1303               	bcf	3,6	;RP1=0, select bank0
  9023  06E0  00DA               	movwf	___flsub@b+2
  9024  06E1  1683               	bsf	3,5	;RP0=1, select bank1
  9025  06E2  1303               	bcf	3,6	;RP1=0, select bank1
  9026  06E3  0843               	movf	(??_conversion_newton+22)^(0+128),w
  9027  06E4  1283               	bcf	3,5	;RP0=0, select bank0
  9028  06E5  1303               	bcf	3,6	;RP1=0, select bank0
  9029  06E6  00D9               	movwf	___flsub@b+1
  9030  06E7  1683               	bsf	3,5	;RP0=1, select bank1
  9031  06E8  1303               	bcf	3,6	;RP1=0, select bank1
  9032  06E9  0842               	movf	(??_conversion_newton+21)^(0+128),w
  9033  06EA  1283               	bcf	3,5	;RP0=0, select bank0
  9034  06EB  1303               	bcf	3,6	;RP1=0, select bank0
  9035  06EC  00D8               	movwf	___flsub@b
  9036  06ED  160A  158A  236D  120A  118A  	fcall	___flsub
  9037  06F2  1283               	bcf	3,5	;RP0=0, select bank0
  9038  06F3  1303               	bcf	3,6	;RP1=0, select bank0
  9039  06F4  0857               	movf	?___flsub+3,w
  9040  06F5  00E3               	movwf	___fldiv@b+3
  9041  06F6  0856               	movf	?___flsub+2,w
  9042  06F7  00E2               	movwf	___fldiv@b+2
  9043  06F8  0855               	movf	?___flsub+1,w
  9044  06F9  00E1               	movwf	___fldiv@b+1
  9045  06FA  0854               	movf	?___flsub,w
  9046  06FB  00E0               	movwf	___fldiv@b
  9047  06FC  120A  118A  2041  120A  118A  	fcall	___fldiv
  9048  0701  1283               	bcf	3,5	;RP0=0, select bank0
  9049  0702  1303               	bcf	3,6	;RP1=0, select bank0
  9050  0703  085F               	movf	?___fldiv+3,w
  9051  0704  00AD               	movwf	___flmul@a+3
  9052  0705  085E               	movf	?___fldiv+2,w
  9053  0706  00AC               	movwf	___flmul@a+2
  9054  0707  085D               	movf	?___fldiv+1,w
  9055  0708  00AB               	movwf	___flmul@a+1
  9056  0709  085C               	movf	?___fldiv,w
  9057  070A  00AA               	movwf	___flmul@a
  9058  070B  120A  158A  2112  120A  118A  	fcall	___flmul
  9059  0710  1283               	bcf	3,5	;RP0=0, select bank0
  9060  0711  1303               	bcf	3,6	;RP1=0, select bank0
  9061  0712  0829               	movf	?___flmul+3,w
  9062  0713  1683               	bsf	3,5	;RP0=1, select bank1
  9063  0714  1303               	bcf	3,6	;RP1=0, select bank1
  9064  0715  00C9               	movwf	(_conversion_newton$802+3)^(0+128)
  9065  0716  1283               	bcf	3,5	;RP0=0, select bank0
  9066  0717  1303               	bcf	3,6	;RP1=0, select bank0
  9067  0718  0828               	movf	?___flmul+2,w
  9068  0719  1683               	bsf	3,5	;RP0=1, select bank1
  9069  071A  1303               	bcf	3,6	;RP1=0, select bank1
  9070  071B  00C8               	movwf	(_conversion_newton$802+2)^(0+128)
  9071  071C  1283               	bcf	3,5	;RP0=0, select bank0
  9072  071D  1303               	bcf	3,6	;RP1=0, select bank0
  9073  071E  0827               	movf	?___flmul+1,w
  9074  071F  1683               	bsf	3,5	;RP0=1, select bank1
  9075  0720  1303               	bcf	3,6	;RP1=0, select bank1
  9076  0721  00C7               	movwf	(_conversion_newton$802+1)^(0+128)
  9077  0722  1283               	bcf	3,5	;RP0=0, select bank0
  9078  0723  1303               	bcf	3,6	;RP1=0, select bank0
  9079  0724  0826               	movf	?___flmul,w
  9080  0725  1683               	bsf	3,5	;RP0=1, select bank1
  9081  0726  1303               	bcf	3,6	;RP1=0, select bank1
  9082  0727  00C6               	movwf	_conversion_newton$802^(0+128)
  9083  0728                     l2543:
  9084                           
  9085                           ;main.c: 299:      F = (((F_tab[n]-F_tab[n+1])/(R_tab[n+1]-R_tab[n]))*(Rc-R_tab[n]))+F_t
      +                          ab[n];
  9086  0728  084E               	movf	conversion_newton@n^(0+128),w
  9087  0729  00AD               	movwf	??_conversion_newton^(0+128)
  9088  072A  3001               	movlw	1
  9089  072B                     u3945:
  9090  072B  1003               	clrc
  9091  072C  0DAD               	rlf	??_conversion_newton^(0+128),f
  9092  072D  3EFF               	addlw	-1
  9093  072E  1D03               	skipz
  9094  072F  2F2B               	goto	u3945
  9095  0730  1003               	clrc
  9096  0731  0D2D               	rlf	??_conversion_newton^(0+128),w
  9097  0732  3E51               	addlw	low ((conversion_newton@F_tab-__stringbase)| (0+32768))
  9098  0733  0084               	movwf	4
  9099  0734  160A  158A  2000  120A  118A  	fcall	stringdir
  9100  0739  00AE               	movwf	(??_conversion_newton+1)^(0+128)
  9101  073A  160A  158A  2000  120A  118A  	fcall	stringdir
  9102  073F  00AF               	movwf	((??_conversion_newton+1)^(0+128)+1)
  9103  0740  160A  158A  2000  120A  118A  	fcall	stringdir
  9104  0745  00B0               	movwf	((??_conversion_newton+1)^(0+128)+2)
  9105  0746  160A  158A  2000  120A  118A  	fcall	stringdir
  9106  074B  00B1               	movwf	((??_conversion_newton+1)^(0+128)+3)
  9107  074C  0831               	movf	(??_conversion_newton+4)^(0+128),w
  9108  074D  1283               	bcf	3,5	;RP0=0, select bank0
  9109  074E  1303               	bcf	3,6	;RP1=0, select bank0
  9110  074F  00C3               	movwf	___fladd@b+3
  9111  0750  1683               	bsf	3,5	;RP0=1, select bank1
  9112  0751  1303               	bcf	3,6	;RP1=0, select bank1
  9113  0752  0830               	movf	(??_conversion_newton+3)^(0+128),w
  9114  0753  1283               	bcf	3,5	;RP0=0, select bank0
  9115  0754  1303               	bcf	3,6	;RP1=0, select bank0
  9116  0755  00C2               	movwf	___fladd@b+2
  9117  0756  1683               	bsf	3,5	;RP0=1, select bank1
  9118  0757  1303               	bcf	3,6	;RP1=0, select bank1
  9119  0758  082F               	movf	(??_conversion_newton+2)^(0+128),w
  9120  0759  1283               	bcf	3,5	;RP0=0, select bank0
  9121  075A  1303               	bcf	3,6	;RP1=0, select bank0
  9122  075B  00C1               	movwf	___fladd@b+1
  9123  075C  1683               	bsf	3,5	;RP0=1, select bank1
  9124  075D  1303               	bcf	3,6	;RP1=0, select bank1
  9125  075E  082E               	movf	(??_conversion_newton+1)^(0+128),w
  9126  075F  1283               	bcf	3,5	;RP0=0, select bank0
  9127  0760  1303               	bcf	3,6	;RP1=0, select bank0
  9128  0761  00C0               	movwf	___fladd@b
  9129  0762  1683               	bsf	3,5	;RP0=1, select bank1
  9130  0763  1303               	bcf	3,6	;RP1=0, select bank1
  9131  0764  0849               	movf	(_conversion_newton$802+3)^(0+128),w
  9132  0765  1283               	bcf	3,5	;RP0=0, select bank0
  9133  0766  1303               	bcf	3,6	;RP1=0, select bank0
  9134  0767  00C7               	movwf	___fladd@a+3
  9135  0768  1683               	bsf	3,5	;RP0=1, select bank1
  9136  0769  1303               	bcf	3,6	;RP1=0, select bank1
  9137  076A  0848               	movf	(_conversion_newton$802+2)^(0+128),w
  9138  076B  1283               	bcf	3,5	;RP0=0, select bank0
  9139  076C  1303               	bcf	3,6	;RP1=0, select bank0
  9140  076D  00C6               	movwf	___fladd@a+2
  9141  076E  1683               	bsf	3,5	;RP0=1, select bank1
  9142  076F  1303               	bcf	3,6	;RP1=0, select bank1
  9143  0770  0847               	movf	(_conversion_newton$802+1)^(0+128),w
  9144  0771  1283               	bcf	3,5	;RP0=0, select bank0
  9145  0772  1303               	bcf	3,6	;RP1=0, select bank0
  9146  0773  00C5               	movwf	___fladd@a+1
  9147  0774  1683               	bsf	3,5	;RP0=1, select bank1
  9148  0775  1303               	bcf	3,6	;RP1=0, select bank1
  9149  0776  0846               	movf	_conversion_newton$802^(0+128),w
  9150  0777  1283               	bcf	3,5	;RP0=0, select bank0
  9151  0778  1303               	bcf	3,6	;RP1=0, select bank0
  9152  0779  00C4               	movwf	___fladd@a
  9153  077A  160A  118A  2578  120A  118A  	fcall	___fladd
  9154  077F  1283               	bcf	3,5	;RP0=0, select bank0
  9155  0780  1303               	bcf	3,6	;RP1=0, select bank0
  9156  0781  0843               	movf	?___fladd+3,w
  9157  0782  1683               	bsf	3,5	;RP0=1, select bank1
  9158  0783  1303               	bcf	3,6	;RP1=0, select bank1
  9159  0784  00CD               	movwf	(conversion_newton@F+3)^(0+128)
  9160  0785  1283               	bcf	3,5	;RP0=0, select bank0
  9161  0786  1303               	bcf	3,6	;RP1=0, select bank0
  9162  0787  0842               	movf	?___fladd+2,w
  9163  0788  1683               	bsf	3,5	;RP0=1, select bank1
  9164  0789  1303               	bcf	3,6	;RP1=0, select bank1
  9165  078A  00CC               	movwf	(conversion_newton@F+2)^(0+128)
  9166  078B  1283               	bcf	3,5	;RP0=0, select bank0
  9167  078C  1303               	bcf	3,6	;RP1=0, select bank0
  9168  078D  0841               	movf	?___fladd+1,w
  9169  078E  1683               	bsf	3,5	;RP0=1, select bank1
  9170  078F  1303               	bcf	3,6	;RP1=0, select bank1
  9171  0790  00CB               	movwf	(conversion_newton@F+1)^(0+128)
  9172  0791  1283               	bcf	3,5	;RP0=0, select bank0
  9173  0792  1303               	bcf	3,6	;RP1=0, select bank0
  9174  0793  0840               	movf	?___fladd,w
  9175  0794  1683               	bsf	3,5	;RP0=1, select bank1
  9176  0795  1303               	bcf	3,6	;RP1=0, select bank1
  9177  0796  00CA               	movwf	conversion_newton@F^(0+128)
  9178  0797                     l2545:
  9179                           
  9180                           ;main.c: 302:      if (F > 70)
  9181  0797  3042               	movlw	66
  9182  0798  00F6               	movwf	___flge@ff1+3
  9183  0799  308C               	movlw	140
  9184  079A  00F5               	movwf	___flge@ff1+2
  9185  079B  3000               	movlw	0
  9186  079C  00F4               	movwf	___flge@ff1+1
  9187  079D  3000               	movlw	0
  9188  079E  00F3               	movwf	___flge@ff1
  9189  079F  084D               	movf	(conversion_newton@F+3)^(0+128),w
  9190  07A0  00FA               	movwf	___flge@ff2+3
  9191  07A1  084C               	movf	(conversion_newton@F+2)^(0+128),w
  9192  07A2  00F9               	movwf	___flge@ff2+2
  9193  07A3  084B               	movf	(conversion_newton@F+1)^(0+128),w
  9194  07A4  00F8               	movwf	___flge@ff2+1
  9195  07A5  084A               	movf	conversion_newton@F^(0+128),w
  9196  07A6  00F7               	movwf	___flge@ff2
  9197  07A7  160A  158A  2537  120A  118A  	fcall	___flge
  9198  07AC  1803               	btfsc	3,0
  9199  07AD  2FAF               	goto	u3951
  9200  07AE  2FB0               	goto	u3950
  9201  07AF                     u3951:
  9202  07AF  2FBB               	goto	l2549
  9203  07B0                     u3950:
  9204  07B0                     l2547:
  9205                           
  9206                           ;main.c: 303:         F = 70;
  9207  07B0  3042               	movlw	66
  9208  07B1  1683               	bsf	3,5	;RP0=1, select bank1
  9209  07B2  1303               	bcf	3,6	;RP1=0, select bank1
  9210  07B3  00CD               	movwf	(conversion_newton@F+3)^(0+128)
  9211  07B4  308C               	movlw	140
  9212  07B5  00CC               	movwf	(conversion_newton@F+2)^(0+128)
  9213  07B6  3000               	movlw	0
  9214  07B7  00CB               	movwf	(conversion_newton@F+1)^(0+128)
  9215  07B8  3000               	movlw	0
  9216  07B9  00CA               	movwf	conversion_newton@F^(0+128)
  9217  07BA  2FE0               	goto	l100
  9218  07BB                     l2549:
  9219  07BB  1683               	bsf	3,5	;RP0=1, select bank1
  9220  07BC  1303               	bcf	3,6	;RP1=0, select bank1
  9221  07BD  084D               	movf	(conversion_newton@F+3)^(0+128),w
  9222  07BE  00F6               	movwf	___flge@ff1+3
  9223  07BF  084C               	movf	(conversion_newton@F+2)^(0+128),w
  9224  07C0  00F5               	movwf	___flge@ff1+2
  9225  07C1  084B               	movf	(conversion_newton@F+1)^(0+128),w
  9226  07C2  00F4               	movwf	___flge@ff1+1
  9227  07C3  084A               	movf	conversion_newton@F^(0+128),w
  9228  07C4  00F3               	movwf	___flge@ff1
  9229  07C5  303D               	movlw	61
  9230  07C6  00FA               	movwf	___flge@ff2+3
  9231  07C7  30F5               	movlw	245
  9232  07C8  00F9               	movwf	___flge@ff2+2
  9233  07C9  30C2               	movlw	194
  9234  07CA  00F8               	movwf	___flge@ff2+1
  9235  07CB  308F               	movlw	143
  9236  07CC  00F7               	movwf	___flge@ff2
  9237  07CD  160A  158A  2537  120A  118A  	fcall	___flge
  9238  07D2  1803               	btfsc	3,0
  9239  07D3  2FD5               	goto	u3961
  9240  07D4  2FD6               	goto	u3960
  9241  07D5                     u3961:
  9242  07D5  2FE0               	goto	l100
  9243  07D6                     u3960:
  9244  07D6                     l2551:
  9245                           
  9246                           ;main.c: 305:         F=0.12;
  9247  07D6  303D               	movlw	61
  9248  07D7  1683               	bsf	3,5	;RP0=1, select bank1
  9249  07D8  1303               	bcf	3,6	;RP1=0, select bank1
  9250  07D9  00CD               	movwf	(conversion_newton@F+3)^(0+128)
  9251  07DA  30F5               	movlw	245
  9252  07DB  00CC               	movwf	(conversion_newton@F+2)^(0+128)
  9253  07DC  30C2               	movlw	194
  9254  07DD  00CB               	movwf	(conversion_newton@F+1)^(0+128)
  9255  07DE  308F               	movlw	143
  9256  07DF  00CA               	movwf	conversion_newton@F^(0+128)
  9257  07E0                     l100:
  9258                           
  9259                           ;main.c: 308:      return F;
  9260  07E0  1683               	bsf	3,5	;RP0=1, select bank1
  9261  07E1  1303               	bcf	3,6	;RP1=0, select bank1
  9262  07E2  084D               	movf	(conversion_newton@F+3)^(0+128),w
  9263  07E3  1283               	bcf	3,5	;RP0=0, select bank0
  9264  07E4  1303               	bcf	3,6	;RP1=0, select bank0
  9265  07E5  00EC               	movwf	?_conversion_newton+3
  9266  07E6  1683               	bsf	3,5	;RP0=1, select bank1
  9267  07E7  1303               	bcf	3,6	;RP1=0, select bank1
  9268  07E8  084C               	movf	(conversion_newton@F+2)^(0+128),w
  9269  07E9  1283               	bcf	3,5	;RP0=0, select bank0
  9270  07EA  1303               	bcf	3,6	;RP1=0, select bank0
  9271  07EB  00EB               	movwf	?_conversion_newton+2
  9272  07EC  1683               	bsf	3,5	;RP0=1, select bank1
  9273  07ED  1303               	bcf	3,6	;RP1=0, select bank1
  9274  07EE  084B               	movf	(conversion_newton@F+1)^(0+128),w
  9275  07EF  1283               	bcf	3,5	;RP0=0, select bank0
  9276  07F0  1303               	bcf	3,6	;RP1=0, select bank0
  9277  07F1  00EA               	movwf	?_conversion_newton+1
  9278  07F2  1683               	bsf	3,5	;RP0=1, select bank1
  9279  07F3  1303               	bcf	3,6	;RP1=0, select bank1
  9280  07F4  084A               	movf	conversion_newton@F^(0+128),w
  9281  07F5  1283               	bcf	3,5	;RP0=0, select bank0
  9282  07F6  1303               	bcf	3,6	;RP1=0, select bank0
  9283  07F7  00E9               	movwf	?_conversion_newton
  9284  07F8                     l102:
  9285  07F8  0008               	return
  9286  07F9                     __end_of_conversion_newton:

Data Sizes:
    Strings     0
    Constant    160
    Data        0
    BSS         1
    Persistent  0
    Stack       0

Auto Spaces:
    Space          Size  Autos    Used
    COMMON           13     11      11
    BANK0            80     79      79
    BANK1            80     57      58
    BANK3            85     41      41
    BANK2            91      0       0

Pointer List with Targets:

    None.

Critical Paths under _main in COMMON

    ___flmul->__Umul8_16
    _ADC_GetValue->_PORT_Choose_Mux

Critical Paths under _isr in COMMON

    None.

Critical Paths under _main in BANK0

    _conversion_newton->___fldiv
    _Get_Newton->_Resistance_Value
    _Voltage_Value->___fldiv
    _Resistance_Value->___fldiv
    ___flsub->___fladd
    ___fladd->___flmul
    ___flmul->___xxtofl
    ___fldiv->___flsub

Critical Paths under _isr in BANK0

    None.

Critical Paths under _main in BANK1

    _main->_Get_Better_Newton_Value
    _Get_Better_Newton_Value->_conversion_newton
    _conversion_newton->___fldiv
    _Get_Newton->_Voltage_Value
    _Voltage_Value->___fldiv
    _Resistance_Value->___fldiv

Critical Paths under _isr in BANK1

    None.

Critical Paths under _main in BANK3

    _main->_Get_Better_Newton_Value

Critical Paths under _isr in BANK3

    None.

Critical Paths under _main in BANK2

    None.

Critical Paths under _isr in BANK2

    None.

Call Graph Tables:

 ---------------------------------------------------------------------------------
 (Depth) Function   	        Calls       Base Space   Used Autos Params    Refs
 ---------------------------------------------------------------------------------
 (0) _main                                                 4     4      0   59621
                                             53 BANK1      4     4      0
            _Get_Better_Newton_Value
                     _PORT_Blink_LED
                          _PORT_Init
                   _PORT_Select_Mux0
                  _TIMER_init_timer1
 ---------------------------------------------------------------------------------
 (1) _TIMER_init_timer1                                    0     0      0       0
 ---------------------------------------------------------------------------------
 (1) _PORT_Select_Mux0                                     0     0      0       0
 ---------------------------------------------------------------------------------
 (1) _PORT_Init                                            1     1      0       0
                                              2 COMMON     1     1      0
                   _PORT_Init_Serial
 ---------------------------------------------------------------------------------
 (2) _PORT_Init_Serial                                     0     0      0       0
 ---------------------------------------------------------------------------------
 (1) _PORT_Blink_LED                                       0     0      0       0
 ---------------------------------------------------------------------------------
 (1) _Get_Better_Newton_Value                             46    41      5   59620
                                             48 BANK1      5     0      5
                                              0 BANK3     41    41      0
                         _Get_Newton
                            ___fladd
                            ___fldiv
                             ___flge
                            ___flmul
                  _conversion_newton
 ---------------------------------------------------------------------------------
 (2) _conversion_newton                                   39    35      4   19985
                                             73 BANK0      4     0      4
                                             13 BANK1     35    35      0
                            ___fladd
                            ___fldiv
                             ___flge
                            ___flmul
                            ___flsub
 ---------------------------------------------------------------------------------
 (2) _Get_Newton                                          21    16      5   23858
                                             22 BANK1     17    12      5
                       _ADC_GetValue
                   _PORT_Change_Gain
                   _Resistance_Value
                      _Voltage_Value
 ---------------------------------------------------------------------------------
 (3) _Voltage_Value                                       13     9      4   12926
                                             73 BANK0      4     0      4
                                             13 BANK1      9     9      0
                            ___fldiv
                             ___flge
                            ___flmul
                           ___xxtofl
 ---------------------------------------------------------------------------------
 (3) ___flge                                              12     4      8    6718
                                              2 COMMON     8     0      8
                                              0 BANK0      4     4      0
 ---------------------------------------------------------------------------------
 (3) _Resistance_Value                                    14     8      6    9931
                                             73 BANK0      6     0      6
                                             13 BANK1      8     8      0
                            ___fldiv
                            ___flmul
                            ___flsub
                           ___xxtofl
 ---------------------------------------------------------------------------------
 (4) ___xxtofl                                            14    10      4     474
                                              2 COMMON     8     4      4
                                              0 BANK0      6     6      0
 ---------------------------------------------------------------------------------
 (3) ___flsub                                              8     0      8    3549
                                             52 BANK0      8     0      8
                            ___fladd
                            ___flmul (ARG)
 ---------------------------------------------------------------------------------
 (4) ___fladd                                             20    12      8    2896
                                             32 BANK0     20    12      8
                            ___flmul (ARG)
 ---------------------------------------------------------------------------------
 (3) ___flmul                                             26    18      8    3481
                                              6 BANK0     26    18      8
                          __Umul8_16
                           ___xxtofl (ARG)
 ---------------------------------------------------------------------------------
 (4) __Umul8_16                                            9     7      2     799
                                              2 COMMON     9     7      2
 ---------------------------------------------------------------------------------
 (3) ___fldiv                                             26    18      8    2185
                                             60 BANK0     13     5      8
                                              0 BANK1     13    13      0
                            ___fladd (ARG)
                            ___flmul (ARG)
                            ___flsub (ARG)
                           ___xxtofl (ARG)
 ---------------------------------------------------------------------------------
 (3) _PORT_Change_Gain                                     4     1      3     252
                                              2 COMMON     4     1      3
 ---------------------------------------------------------------------------------
 (3) _ADC_GetValue                                         2     2      0     135
                                              3 COMMON     2     2      0
                    _PORT_Choose_Mux
                 _PORT_Get_Value_Adc
                     _PORT_Start_ADC
 ---------------------------------------------------------------------------------
 (4) _PORT_Start_ADC                                       0     0      0       0
 ---------------------------------------------------------------------------------
 (4) _PORT_Get_Value_Adc                                   0     0      0       0
 ---------------------------------------------------------------------------------
 (4) _PORT_Choose_Mux                                      1     1      0      44
                                              2 COMMON     1     1      0
 ---------------------------------------------------------------------------------
 Estimated maximum stack depth 4
 ---------------------------------------------------------------------------------
 (Depth) Function   	        Calls       Base Space   Used Autos Params    Refs
 ---------------------------------------------------------------------------------
 (6) _isr                                                  2     2      0       0
                                              0 COMMON     2     2      0
 ---------------------------------------------------------------------------------
 Estimated maximum stack depth 6
 ---------------------------------------------------------------------------------

 Call Graph Graphs:

 _main (ROOT)
   _Get_Better_Newton_Value
     _Get_Newton
       _ADC_GetValue
         _PORT_Choose_Mux
         _PORT_Get_Value_Adc
         _PORT_Start_ADC
       _PORT_Change_Gain
       _Resistance_Value
         ___fldiv
           ___fladd (ARG)
             ___flmul (ARG)
               __Umul8_16
               ___xxtofl (ARG)
           ___flmul (ARG)
             __Umul8_16
             ___xxtofl (ARG)
           ___flsub (ARG)
             ___fladd
               ___flmul (ARG)
                 __Umul8_16
                 ___xxtofl (ARG)
             ___flmul (ARG)
               __Umul8_16
               ___xxtofl (ARG)
           ___xxtofl (ARG)
         ___flmul
           __Umul8_16
           ___xxtofl (ARG)
         ___flsub
           ___fladd
             ___flmul (ARG)
               __Umul8_16
               ___xxtofl (ARG)
           ___flmul (ARG)
             __Umul8_16
             ___xxtofl (ARG)
         ___xxtofl
       _Voltage_Value
         ___fldiv
           ___fladd (ARG)
             ___flmul (ARG)
               __Umul8_16
               ___xxtofl (ARG)
           ___flmul (ARG)
             __Umul8_16
             ___xxtofl (ARG)
           ___flsub (ARG)
             ___fladd
               ___flmul (ARG)
                 __Umul8_16
                 ___xxtofl (ARG)
             ___flmul (ARG)
               __Umul8_16
               ___xxtofl (ARG)
           ___xxtofl (ARG)
         ___flge
         ___flmul
           __Umul8_16
           ___xxtofl (ARG)
         ___xxtofl
     ___fladd
       ___flmul (ARG)
         __Umul8_16
         ___xxtofl (ARG)
     ___fldiv
       ___fladd (ARG)
         ___flmul (ARG)
           __Umul8_16
           ___xxtofl (ARG)
       ___flmul (ARG)
         __Umul8_16
         ___xxtofl (ARG)
       ___flsub (ARG)
         ___fladd
           ___flmul (ARG)
             __Umul8_16
             ___xxtofl (ARG)
         ___flmul (ARG)
           __Umul8_16
           ___xxtofl (ARG)
       ___xxtofl (ARG)
     ___flge
     ___flmul
       __Umul8_16
       ___xxtofl (ARG)
     _conversion_newton
       ___fladd
         ___flmul (ARG)
           __Umul8_16
           ___xxtofl (ARG)
       ___fldiv
         ___fladd (ARG)
           ___flmul (ARG)
             __Umul8_16
             ___xxtofl (ARG)
         ___flmul (ARG)
           __Umul8_16
           ___xxtofl (ARG)
         ___flsub (ARG)
           ___fladd
             ___flmul (ARG)
               __Umul8_16
               ___xxtofl (ARG)
           ___flmul (ARG)
             __Umul8_16
             ___xxtofl (ARG)
         ___xxtofl (ARG)
       ___flge
       ___flmul
         __Umul8_16
         ___xxtofl (ARG)
       ___flsub
         ___fladd
           ___flmul (ARG)
             __Umul8_16
             ___xxtofl (ARG)
         ___flmul (ARG)
           __Umul8_16
           ___xxtofl (ARG)
   _PORT_Blink_LED
   _PORT_Init
     _PORT_Init_Serial
   _PORT_Select_Mux0
   _TIMER_init_timer1

 _isr (ROOT)

 Address spaces:
Name               Size   Autos  Total    Cost      Usage
BITCOMMON            D      0       0       0        0.0%
NULL                 0      0       0       0        0.0%
CODE                 0      0       0       0        0.0%
COMMON               D      B       B       1       84.6%
BITSFR0              0      0       0       1        0.0%
SFR0                 0      0       0       1        0.0%
BITSFR1              0      0       0       2        0.0%
SFR1                 0      0       0       2        0.0%
STACK                0      0       0       2        0.0%
ABS                  0      0      BD       3        0.0%
BITBANK0            50      0       0       4        0.0%
BITSFR3              0      0       0       4        0.0%
SFR3                 0      0       0       4        0.0%
BANK0               50     4F      4F       5       98.8%
BITSFR2              0      0       0       5        0.0%
SFR2                 0      0       0       5        0.0%
DATA                 0      0      BD       6        0.0%
BITBANK1            50      0       0       7        0.0%
BANK1               50     39      3A       8       72.5%
BITBANK3            55      0       0       9        0.0%
BANK3               55     29      29      10       48.2%
BITBANK2            5B      0       0      11        0.0%
BANK2               5B      0       0      12        0.0%


Microchip Technology PIC Macro Assembler V2.20 build 20200408173844 
Symbol Table                                                                                   Wed Jun 21 17:24:12 2023

                         ___fldiv@aexp 00AC                           ___fldiv@bexp 00AB  
                                    pc 0002                           ___fldiv@sign 00A4  
                                   l51 1D1E                                     l52 1D36  
                                   l38 0E10                                     l55 10DD  
                                   l39 0FFF                                     fsr 0004  
                  __Umul8_16@word_mpld 0079                       ??_PORT_Blink_LED 0073  
                                  l100 07E0                                    l102 07F8  
                                  l105 1C9A                                    l212 0855  
                                  l117 1BDD                                    l205 1B31  
                                  l181 1B53                                    l190 0015  
                                  l174 1C16                                    l246 0816  
                                  l431 1D55                                    l184 1B25  
                                  l168 0040                                    l177 1B41  
                                  l434 1DC1                                    l187 1B29  
                                  l435 1DDA                                    l630 02C4  
                                  l622 0230                                    l606 00BF  
                                  l550 15DB                                    l703 08DB  
                                  l608 02D8                                    l704 08E7  
                                  l554 1682                                    l571 174D  
                                  l563 17FF                                    l652 0BDE  
                                  l556 1659                                    l581 1793  
                                  l646 0C72                                    l575 1771  
                                  l592 17F3                                    l665 1018  
                                  l593 17FF                                    l658 0C66  
                                  l690 087A                                    l667 102A  
                                  l596 1B90                                    l692 0911  
            __end_of_TIMER_init_timer1 0817                                    _isr 1B54  
                                  fsr0 0004                      ?_PORT_Change_Gain 0073  
                         ___flmul@aexp 0038                           ___flmul@bexp 0039  
                         ___flmul@sign 0033                           ___flmul@temp 003E  
                         ___flmul@prod 003A                     ??_PORT_Change_Gain 0076  
             __end_of_PORT_Select_Mux0 1B32                                   l2001 1D75  
                                 l2003 1D99                                   l2101 01C4  
                                 l2021 004A                                   l2013 1B6D  
                                 l2005 1D9D                                   l2111 01E3  
                                 l2103 01CA                                   l2031 0069  
                                 l2023 0054                                   l2015 1B71  
                                 l2007 1DD7                                   l2121 0205  
                                 l2113 01E6                                   l2105 01D2  
                                 l2041 0088                                   l2033 0073  
                                 l2025 005A                                   l2201 0971  
                                 l2009 1DD9                                   l2131 023C  
                                 l2123 0209                                   l2115 01F4  
                                 l2107 01D4                                   l2051 00A7  
                                 l2043 0092                                   l2035 0075  
                                 l2027 005D                                   l2019 0041  
                                 l2211 099C                                   l2203 0976  
                                 l2141 0280                                   l2133 024C  
                                 l2125 022B                                   l2109 01DD  
                                 l2117 01FC                                   l2061 00D3  
                                 l2053 00B1                                   l2045 0098  
                                 l2029 0064                                   l2037 0077  
                                 l2301 0C6A                                   l2221 0A39  
                                 l2213 09B9                                   l2151 02B0  
                                 l2143 0290                                   l2135 0250  
                                 l2119 0202                                   l2063 00DB  
                                 l2055 00B3                                   l2047 009B  
                                 l2039 0081                                   l2231 0A9C  
                                 l2223 0A42                                   l2215 09D5  
                                 l2207 097F                                   l2311 0872  
                                 l2153 02B6                                   l2145 029F  
                                 l2137 0269                                   l2129 0235  
                                 l2081 0140                                   l2073 00F6  
                                 l2049 00A2                                   l2057 00B5  
                                 l2241 0B3C                                   l2233 0AB5  
                                 l2225 0A52                                   l2217 0A01  
                                 l2209 098F                                   l2321 0894  
                                 l2313 0882                                   l2305 0859  
                                 l2411 1BD1                                   l2403 1BB8  
                                 l2155 02BA                                   l2147 02A3  
                                 l2139 0271                                   l2091 0168  
                                 l2083 0142                                   l2075 0114  
                                 l2059 00C7                                   l2067 00E4  
                                 l2251 0BAA                                   l2243 0B62  
                                 l2235 0AD2                                   l2227 0A6F  
                                 l2219 0A1D                                   l2171 0924  
                                 l2163 0912                                   l2331 08BF  
                                 l2323 089D                                   l2307 085E  
                                 l2413 1BD6                                   l2405 1BBE  
                                 l2157 02BE                                   l2149 02AD  
                                 l2085 0147                                   l2093 0176  
                                 l2077 012C                                   l2069 00EB  
                                 l2261 0BC2                                   l2253 0BAE  
                                 l2245 0B8A                                   l2237 0AFF  
                                 l2229 0A7F                                   l2181 0940  
                                 l2173 0929                                   l2165 0919  
                                 l2341 08E9                                   l2333 08C6  
                                 l2325 08A4                                   l2317 088B  
                                 l2309 0862                                   l2421 1C1A  
                                 l2501 1324                                   l2415 1BDB  
                                 l2407 1BC3                                   l2095 0197  
                                 l2087 015F                                   l2079 0136  
                                 l2271 0BE3                                   l2263 0BC3  
                                 l2255 0BAF                                   l2247 0B93  
                                 l2239 0B0F                                   l2191 0955  
                                 l2183 0945                                   l2175 092E  
                                 l2167 091F                                   l2343 08FF  
                                 l2335 08D1                                   l2327 08A8  
                                 l2319 0890                                   l2423 1C92  
                                 l2511 0385                                   l2503 02D9  
                                 l2431 1E12                                   l2417 1BDC  
                                 l2409 1BCB                                   l2097 0198  
                                 l2089 0165                                   l2273 0BE8  
                                 l2281 0C19                                   l2265 0BC7  
                                 l2257 0BB8                                   l2249 0BA1  
                                 l2193 095A                                   l2185 094B  
                                 l2177 0936                                   l2169 0923  
                                 l1801 15C3                                   l2345 0904  
                                 l2337 08D5                                   l2329 08B6  
                                 l2361 102B                                   l2353 1C9E  
                                 l2521 0438                                   l2513 03BC  
                                 l2505 0310                                   l2441 1EF9  
                                 l2433 1E49                                   l2601 1C0E  
                                 l2371 0829                                   l2099 01C0  
                                 l2291 0C4C                                   l2283 0C26  
                                 l2275 0BF6                                   l2267 0BDB  
                                 l2259 0BBE                                   l2195 0962  
                                 l2187 094F                                   l2179 0938  
                                 l1811 15E1                                   l1803 15C8  
                                 l2347 0908                                   l2339 08DF  
                                 l2363 10C7                                   l2355 1CFB  
                                 l2531 051B                                   l2523 046F  
                                 l2515 03C3                                   l2507 0347  
                                 l2451 13D9                                   l2443 132B  
                                 l2435 1E80                                   l2427 1DDB  
                                 l2603 1C11                                   l2611 0809  
                                 l2381 0838                                   l2373 082E  
                                 l2293 0C52                                   l2285 0C31  
                                 l2277 0BFA                                   l2197 0964  
                                 l2189 0950                                   l1901 172B  
                                 l1821 15F5                                   l1813 15E5  
                                 l1805 15D0                                   l2349 0909  
                                 l2357 1D14                                   l2533 0522  
                                 l2525 04A6                                   l2517 03FA  
                                 l2509 034E                                   l2461 148C  
                                 l2453 1410                                   l2445 1362  
                                 l2541 059D                                   l2437 1E89  
                                 l2429 1E12                                   l2605 1C13  
                                 l2621 0810                                   l2613 080C  
                                 l2391 0847                                   l2383 083D  
                                 l2367 0818                                   l2295 0C5A  
                                 l2287 0C40                                   l2279 0C13  
                                 l2199 096C                                   l1903 1730  
                                 l1831 1609                                   l1823 15F9  
                                 l1815 15E9                                   l1807 15D1  
                                 l2551 07D6                                   l2543 0728  
                                 l2535 0559                                   l2527 04AD  
                                 l2519 0431                                   l2471 1571  
                                 l2463 14C3                                   l2455 1417  
                                 l2447 1399                                   l2439 1EC2  
                                 l2607 1C14                                   l2631 1B2D  
                                 l2623 0811                                   l2615 080D  
                                 l2393 084C                                   l2369 0824  
                                 l2297 0C5E                                   l2289 0C4A  
                                 l1921 1778                                   l1913 1763  
                                 l1905 173F                                   l1841 161D  
                                 l1833 160D                                   l1825 15FD  
                                 l1817 15ED                                   l1809 15D3  
                                 l2545 0797                                   l2537 0590  
                                 l2529 04E4                                   l2481 118C  
                                 l2473 10DE                                   l2465 14FA  
                                 l2457 144E                                   l2449 13A2  
                                 l2641 0CE1                                   l2633 1B32  
                                 l2561 0022                                   l2625 0812  
                                 l2617 080E                                   l2609 0805  
                                 l2379 0833                                   l2299 0C5F  
                                 l1931 1786                                   l1923 177A  
                                 l1915 176C                                   l1907 1755  
                                 l1851 164C                                   l1843 1621  
                                 l1835 1611                                   l1827 1601  
                                 l1819 15F1                                   l1771 1585  
                                 l2547 07B0                                   l2539 0597  
                                 l2491 123F                                   l2483 11C3  
                                 l2475 1115                                   l2467 1501  
                                 l2459 1485                                   l2651 0DB8  
                                 l2643 0D0A                                   l2635 0C76  
                                 l2571 0033                                   l2563 0025  
                                 l2555 0016                                   l2627 0815  
                                 l2619 080F                                   l2389 0842  
                                 l1941 179D                                   l1933 178A  
                                 l1925 177F                                   l1917 1770  
                                 l1909 175A                                   l1861 166C  
                                 l1853 1654                                   l1837 1615  
                                 l1829 1605                                   l1845 1625  
                                 l1781 159C                                   l1773 1589  
                                 l2549 07BB                                   l2493 1276  
                                 l2485 11CA                                   l2477 114C  
                                 l2469 153A                                   l2653 0DD3  
                                 l2645 0D23                                   l2637 0C8E  
                                 l2573 0038                                   l2565 002A  
                                 l2557 001C                                   l2581 1BE8  
                                 l2629 1B2A                                   l2661 1B91  
                                 l2399 0851                                   l1951 17D6  
                                 l1943 17AB                                   l1935 1790  
                                 l1919 1775                                   l1927 1781  
                                 l1871 168B                                   l1863 166D  
                                 l1855 165D                                   l1847 1626  
                                 l1839 1619                                   l1791 15B2  
                                 l1783 159D                                   l1775 158A  
                                 l1767 1578                                   l2495 12AD  
                                 l2487 1201                                   l2479 1155  
                                 l2655 0FB6                                   l2647 0D60  
                                 l2639 0CB7                                   l2575 003B  
                                 l2567 002D                                   l2559 001F  
                                 l2591 1BFC                                   l2583 1BEA  
                                 l2671 1BAD                                   l2663 1B9B  
                                 l1961 17ED                                   l1953 17DB  
                                 l1945 17AF                                   l1881 16B3  
                                 l1929 1785                                   l1865 1676  
                                 l1857 1666                                   l1849 163D  
                                 l1793 15B3                                   l1777 158F  
                                 l1785 159F                                   l1769 157F  
                                 l2497 12B4                                   l2489 1238  
                                 l2657 0FE9                                   l2649 0D7B  
                                 l2569 0030                                   l2593 1C01  
                                 l2585 1BF3                                   l2577 1BDE  
                                 l2665 1BA0                                   l1971 1007  
                                 l1963 17EF                                   l1955 17E3  
                                 l1947 17CD                                   l1939 1798  
                                 l1891 16CC                                   l1883 16BC  
                                 l1875 1694                                   l1859 1668  
                                 l1867 167A                                   l1795 15B9  
                                 l1787 15A7                                   l1779 1594  
                                 l2499 12ED                                   l2595 1C05  
                                 l2587 1BF6                                   l2579 1BE4  
                                 l2667 1BA7                                   l1973 100E  
                                 l1965 17FA                                   l1957 17E8  
                                 l1949 17D1                                   l1885 16BE  
                                 l1877 16AB                                   l1869 1686  
                                 l1893 16D1                                   l1797 15BD  
                                 l1789 15AC                                   l2597 1C09  
                                 l2589 1BFA                                   l2669 1BA8  
                                 l1983 1B43                                   l1975 1012  
                                 l1967 17FE                                   l1959 17E9  
                                 l1895 16E7                                   l1887 16C2  
                                 l1879 16AF                                   l1799 15BE  
                                 l2599 1C0D                                   l1985 1B49  
                                 l1977 1021                                   l1969 1005  
                                 l1897 1725                                   l1889 16C3  
                                 l1993 1D37                                   l1987 1B22  
                                 l1979 1026                                   l1899 1729  
                                 l1995 1D4D                                   l1989 0012  
                                 l1997 1D69                                   l1999 1D71  
                                 ?_isr 0071                                   u2100 15C8  
                                 u2101 15C7                                   u2110 15E1  
                                 u2111 15E0                                   u2200 1686  
                                 u2120 15E5                                   u2040 1589  
                                 u3001 09C7                                   u2201 1685  
                                 u2121 15E4                                   u2041 1588  
                                 u3002 09CE                                   u2210 168B  
                                 u2130 163D                                   u2050 158F  
                                 u3011 09E3                                   u3003 09D5  
                                 u2211 168A                                   u2131 163C  
                                 u2051 158E                                   u3012 09EA  
                                 u2300 1730                                   u2140 1648  
                                 u2060 1594                                   u3101 0B1E  
                                 u3021 0A0F                                   u3013 09F1  
                                 u2301 172F                                   u2221 169D  
                                 u2141 1646                                   u2061 1593  
                                 u3110 0B48                                   u3102 0B25  
                                 u3022 0A16                                   u2310 1755  
                                 u2230 16AF                                   u2222 16A4  
                                 u2150 1649                                   u2070 15B2  
                                 u3103 0B2C                                   u3031 0A2B  
                                 u3023 0A1D                                   u2311 1754  
                                 u2231 16AE                                   u2223 16AB  
                                 u2135 1639                                   u2071 15B1  
                                 u3200 0BC7                                   u3032 0A32  
                                 u2400 1797                                   u2320 175A  
                                 u2240 16B3                                   u2160 165D  
                                 u2080 15BD                                   u4000 0D23  
                                 u3201 0BC6                                   u3121 0B54  
                                 u3033 0A39                                   u2401 1796  
                                 u2321 1759                                   u2241 16B2  
                                 u2161 165C                                   u2081 15BC  
                                 u4001 0D22                                   u3210 0BDB  
                                 u3130 0B70                                   u3122 0B5B  
                                 u2410 179D                                   u2250 16C2  
                                 u2170 166C                                   u2090 15C3  
                                 u4010 0D7B                                   u3211 0BDA  
                                 u3123 0B62                                   u3115 0B43  
                                 u3051 0A61                                   u2411 179C  
                                 u2251 16C1                                   u2171 166B  
                                 u2091 15C2                                   u4011 0D7A  
                                 u2500 1012                                   u3220 0BE2  
                                 u3052 0A68                                   u2420 17AF  
                                 u2340 1770                                   u3300 0862  
                                 u4020 0DD3                                   u2501 1011  
                                 u3221 0BE1                                   u3141 0B7C  
                                 u3061 0A8E                                   u3053 0A6F  
                                 u3045 0A3B                                   u2421 17AE  
                                 u2341 176F                                   u3301 0861  
                                 u4021 0DD2                                   u3230 0BE8  
                                 u3142 0B83                                   u3062 0A95  
                                 u2430 17BE                                   u2350 1775  
                                 u2270 16E7                                   u2190 1682  
                                 u3310 0882                                   u4030 1BA7  
                                 u3231 0BE7                                   u3143 0B8A  
                                 u3135 0B6B                                   u3063 0A9C  
                                 u2351 1774                                   u2335 1765  
                                 u2271 16E6                                   u2191 1681  
                                 u3311 0881                                   u4031 1BA6  
                                 u2520 1026                                   u3240 0BFA  
                                 u2440 17CD                                   u2360 177F  
                                 u3400 08F4                                   u2521 1025  
                                 u3241 0BF9                                   u3081 0AC4  
                                 u2441 17CC                                   u2361 177E  
                                 u2281 16FE                                   u2273 16E3  
                                 u2265 16C5                                   u2185 166F  
                                 u2601 1DAC                                   u2530 1B49  
                                 u3250 0C09                                   u3170 0BAE  
                                 u3082 0ACB                                   u2450 17D6  
                                 u2370 1785                                   u2290 1712  
                                 u2282 16FF                                   u3410 0904  
                                 u3330 08A3                                   u2610 1DD7  
                                 u2602 1DAD                                   u2531 1B48  
                                 u2515 1019                                   u3171 0BAD  
                                 u3155 0B8C                                   u3091 0AF1  
                                 u3083 0AD2                                   u3075 0A9E  
                                 u2451 17D5                                   u2435 17B9  
                                 u2371 1784                                   u2291 1713  
                                 u2283 1704                                   u3411 0903  
                                 u3331 08A2                                   u2611 1DD6  
                                 u2603 1DB2                                   u2540 1B29  
                                 u3500 1BD1                                   u2700 0147  
                                 u2620 005A                                   u3260 0C26  
                                 u3092 0AF8                                   u2460 17DB  
                                 u2380 178A                                   u2292 1718  
                                 u2284 1705                                   u3420 0908  
                                 u2604 1DB3                                   u2541 1B28  
                                 u3501 1BD0                                   u2701 0146  
                                 u2621 0059                                   u3261 0C25  
                                 u3165 0BA3                                   u3093 0AFF  
                                 u2461 17DA                                   u2381 1789  
                                 u2293 1719                                   u2285 170A  
                                 u3421 0907                                   u3405 08EF  
                                 u3325 0895                                   u2605 1DB8  
                                 u3510 1BDB                                   u2630 0064  
                                 u3270 0C40                                   u3190 0BC2  
                                 u2470 17E8                                   u2390 1790  
                                 u2286 170B                                   u3350 08C5  
                                 u2606 1DB9                                   u2550 1D4D  
                                 u3430 1D14                                   u3511 1BDA  
                                 u2631 0063                                   u3271 0C3F  
                                 u3255 0C04                                   u3191 0BC1  
                                 u2471 17E7                                   u2391 178F  
                                 u3351 08C4                                   u2615 1DD3  
                                 u2551 1D4C                                   u3431 1D13  
                                 u3440 0829                                   u2800 01E3  
                                 u2640 0069                                   u3280 0C5E  
                                 u2480 17ED                                   u2560 1D69  
                                 u3600 1410                                   u3520 1E12  
                                 u3441 0828                                   u2801 01E2  
                                 u2641 0068                                   u3281 0C5D  
                                 u3265 0C22                                   u3185 0BB1  
                                 u2481 17EC                                   u3345 08B7  
                                 u2561 1D68                                   u3601 140F  
                                 u3521 1E11                                   u3450 082E  
                                 u2730 0165                                   u2650 0098  
                                 u2490 17FE                                   u3370 08D5  
                                 u3290 085E                                   u2570 1D75  
                                 u3610 144E                                   u3530 1E49  
                                 u3451 082D                                   u2731 0164  
                                 u2715 014B                                   u2651 0097  
                                 u3275 0C3C                                   u2491 17FD  
                                 u3371 08D4                                   u3291 085D  
                                 u2571 1D74                                   u3611 144D  
                                 u3531 1E48                                   u3460 0838  
                                 u2900 029F                                   u2820 0202  
                                 u2660 00A2                                   u3380 08DB  
                                 u3700 11C3                                   u3620 1485  
                                 u3540 1E80                                   u3461 0837  
                                 u2901 029E                                   u2821 0201  
                                 u2725 0158                                   u2661 00A1  
                                 u3381 08DA                                   u3365 08CA  
                                 u2581 1D84                                   u3701 11C2  
                                 u3621 1484                                   u3541 1E7F  
                                 u3470 083D                                   u2910 02BA  
                                 u2830 0209                                   u2750 0197  
                                 u2670 00A7                                   u3390 08DF  
                                 u2590 1D9D                                   u2582 1D85  
                                 u3710 1201                                   u3630 14C3  
                                 u3550 1EC2                                   u3471 083C  
                                 u2911 02B9                                   u2831 0208  
                                 u2815 01E9                                   u2751 0196  
                                 u2671 00A6                                   u3391 08DE  
                                 u2591 1D9C                                   u2583 1D8A  
                                 u3711 1200                                   u3631 14C2  
                                 u3551 1EBF                                   u3480 0847  
                                 u2840 022B                                   u2760 01BC  
                                 u2680 00C7                                   u2920 0923  
                                 u2584 1D8B                                   u3800 03BC  
                                 u3720 1238                                   u3640 14FA  
                                 u3560 1EF9                                   u3481 0846  
                                 u2905 029B                                   u2841 022A  
                                 u2745 016B                                   u2681 00C6  
                                 u2921 0922                                   u2585 1D90  
                                 u3801 03BB                                   u3721 1237  
                                 u3641 14F9                                   u3561 1EF8  
                                 u3490 084C                                   u2850 0234  
                                 u2770 01CA                                   u2690 00EB  
                                 u2930 0929                                   u2586 1D91  
                                 u3810 03FA                                   u3730 1276  
                                 u3650 153A                                   u3570 1362  
                                 u3491 084B                                   u2851 0233  
                                 u2771 01C9                                   u2755 0193  
                                 u2691 00EA                                   u2931 0928  
                                 u3811 03F9                                   u3731 1275  
                                 u3651 1537                                   u3571 1361  
                                 u2860 023C                                   u2780 01D2  
                                 u2940 092E                                   u3820 0431  
                                 u3740 12AD                                   u3660 1571  
                                 u3580 1399                                   u2861 023B  
                                 u2781 01D1                                   u2765 01A5  
                                 u2941 092D                                   u3821 0430  
                                 u3741 12AC                                   u3661 1570  
                                 u3581 1398                                   u2870 0250  
                                 u2766 01A8                                   u2950 094F  
                                 u3830 046F                                   u3750 12ED  
                                 u3670 1115                                   u3590 13D9  
                                 u2871 024F                                   u2767 01AF  
                                 u2951 094E                                   u3831 046E  
                                 u3751 12EA                                   u3671 1114  
                                 u3591 13D8                                   u2880 025F  
                                 u2768 01B2                                   u2960 0955  
                                 u3840 04A6                                   u3760 1324  
                                 u3680 114C                                   u2769 01B9  
                                 u2961 0954                                   u3905 05F3  
                                 u3841 04A5                                   u3761 1323  
                                 u3681 114B                                   u2890 0280  
                                 u2970 095A                                   u3850 04E4  
                                 u3770 0310                                   u3690 118C  
                                 u2891 027F                                   u2795 01D6  
                                 u2971 0959                                   u3915 062F  
                                 u3851 04E3                                   u3771 030F  
                                 u3691 118B                                   u2980 0971  
                                 u3860 051B                                   u3780 0347  
                                 u2885 025A                                   u2981 0970  
                                 u3925 067A                                   u3861 051A  
                                 u3781 0346                                   u2990 0976  
                                 u3950 07B0                                   u3870 0559  
                                 u3790 0385                                   u2895 027C  
                                 u2991 0975                                   u3951 07AF  
                                 u3935 06B6                                   u3871 0558  
                                 u3791 0384                                   u3960 07D6  
                                 u3880 0590                                   u3961 07D5  
                                 u3945 072B                                   u3881 058F  
                                 u3970 1BF3                                   u3971 1BF2  
                                 u3980 1B3E                                   u3981 1B3A  
                                 u3895 05A0                                   u3994 1B41  
                                 _TMRA 0110                                   _WPUB 0095  
            ??_Get_Better_Newton_Value 007C                                   _main 1B91  
                                 btemp 007E                      ??_PORT_Choose_Mux 0073  
                                 start 000C                        ___fldiv@new_exp 00A5  
                    Resistance_Value@R 006D                  __size_of_ADC_GetValue 0027  
                                ??_isr 0071                             _Get_Newton 1C17  
                _conversion_newton$802 00C6                        __end_of___fladd 1800  
                                ?_main 0071                        __end_of___fldiv 02D9  
                                _ADRES 001E                        __end_of___flmul 0C73  
                      __end_of___flsub 1B91                                  i1l251 1B61  
                                i1l253 1B66                          _Voltage_Value 1C9B  
                                _RCSTA 0018                                  _SPBRG 0099  
                                _PORTD 0008                                  _TRISA 0085  
                                _TRISB 0086                                  _TRISC 0087  
                                _TRISD 0088                                  _TXREG 0019  
                                _TXSTA 0098                       ??_PORT_Start_ADC 0073  
                   __size_of_PORT_Init 0039                                  pclath 000A  
                                status 0003                                  wtemp0 007E  
                         _ADC_GetValue 1BB7                     Resistance_Value@fR 00B1  
           __end_of_PORT_Get_Value_Adc 0016                        __initialization 07F9  
                         __end_of_main 1BB7                                 ??_main 007C  
                       ?_Voltage_Value 0069             __size_of_TIMER_init_timer1 0012  
             __end_of_Resistance_Value 10DE                                 _ADCON0 001F  
                               _ADCON1 009F                                 _ANSELA 0185  
                               _ANSELB 0186                                 _ANSELD 0188  
                               i1l2711 1B54                                 i1l2713 1B5A  
                               i1l2715 1B65                                 _T1SYNC 0082  
                               _FVRCON 009D                                 u404_20 1B5A  
                               u404_21 1B59                                 u405_20 1B65  
                               u405_21 1B64                                 _OSCCON 0090  
                               _TMR1GE 047F                                 _TMR1IE 0460  
                               _TMR1IF 0060                                 _TMR1ON 0080  
                               _TMRAIF 006C                                 _TMRCS0 0086  
                               _TMRCS1 0087                       __end_of___xxtofl 0912  
                               ___flge 1D37                              ??___fladd 0048  
                            ??___fldiv 0064                              ??___flmul 002E  
                            ??___flsub 007C                      __end_of_PORT_Init 1C17  
                          ?_Get_Newton 00B6                      ?_PORT_Init_Serial 0071  
                   ??_PORT_Init_Serial 0073        Get_Better_Newton_Value@resultat 0190  
                   __size_of__Umul8_16 0027                                 saved_w 007E  
                           ___flge@ff1 0073                             ___flge@ff2 0077  
                         ___xxtofl@arg 0022                           ___xxtofl@exp 0021  
                         ___xxtofl@val 0073                __end_of__initialization 07FC  
            Get_Better_Newton_Value@r1 01AC              Get_Better_Newton_Value@r2 01B0  
            Get_Better_Newton_Value@r3 01B4                         __pcstackCOMMON 0071  
                      ??_Voltage_Value 00AD                        _PORT_Choose_Mux 1B42  
                    ?_PORT_Select_Mux0 0071                             __pbssBANK1 00D5  
                   ??_PORT_Select_Mux0 0073                    __size_of_Get_Newton 0084  
            __size_of_PORT_Change_Gain 003F                      __end_of__Umul8_16 102B  
                           __pmaintext 1B91                                ?___flge 0073  
                  ADC_GetValue@channel 0074                             __pintentry 0004  
                              _DACCON0 0113                                _DACCON1 0114  
                              _T1CKPS0 0084                                _T1CKPS1 0085  
                              _T1OSCEN 0083                              ?___xxtofl 0073  
                           __stringtab 1800                        __size_of___flge 00A4  
                              ___fladd 1578                                ___fldiv 0041  
                              ___flmul 0912                                ___flsub 1B6D  
                   conversion_newton@F 00CA                     conversion_newton@n 00CE  
              __end_of_PORT_Choose_Mux 1B54                                __ptext1 0805  
                              __ptext2 1B2A                                __ptext3 1BDE  
                              __ptext4 0016                                __ptext5 1B32  
                              __ptext6 0C73                                __ptext7 1DDB  
                              __ptext8 1C17                                __ptext9 1C9B  
                   _PORT_Get_Value_Adc 0012                           __size_of_isr 0019  
                           ??___xxtofl 0077               ?_Get_Better_Newton_Value 00D0  
                    ?_Resistance_Value 0069                    ?_PORT_Get_Value_Adc 0071  
                    _conversion_newton 1DDB                   end_of_initialization 07FC  
              __size_of_PORT_Blink_LED 0010                     ??_Resistance_Value 007C  
                   ?_conversion_newton 0069                       Get_Newton@INTER0 00C5  
                     Get_Newton@INTER1 00B6                    ??_conversion_newton 00AD  
                              psplit$0 100023                                psplit$1 230024  
                              psplit$2 240025                   ??_PORT_Get_Value_Adc 0073  
          Voltage_Value@voltage_result 00B2                           ??_Get_Newton 007C  
                            _PORTBbits 0006                              _PORTCbits 0007  
                            _PORT_Init 1BDE                            ___fladd@grs 0053  
                        ___xxtofl@sign 0020              __end_of_conversion_newton 07F9  
                          ___fldiv@grs 00A7                            ___fldiv@rem 00A0  
            __size_of_PORT_Init_Serial 002B                            ___flmul@grs 0034  
                   __end_of_Get_Newton 1C9B                       _PORT_Change_Gain 0817  
              __size_of_PORT_Start_ADC 0008                         __end_of___flge 1DDB  
                            _Fincompt1 00D5                       ?_PORT_Choose_Mux 0071  
             ADC_GetValue@sensor_value 0075                             ?_PORT_Init 0071  
      __end_of_Get_Better_Newton_Value 1000                    start_initialization 07F9  
                          __end_of_isr 1B6D                      pnum$text7_split_1 0023  
                    pnum$text7_split_2 0024                      pnum$text7_split_3 0025  
       Get_Better_Newton_Value@coeffR1 01A0         Get_Better_Newton_Value@coeffR2 01A4  
       Get_Better_Newton_Value@coeffR3 01A8                               ??___flge 0020  
            __size_of_PORT_Select_Mux0 0008                              __Umul8_16 1004  
                __end_of_Voltage_Value 1D37                              ___fladd@a 0044  
                            ___fladd@b 0040                              ___fldiv@a 005C  
                            ___fldiv@b 0060                              ___flmul@a 002A  
                            ___flmul@b 0026                              ___flsub@a 0054  
                            ___flsub@b 0058                              ___latbits 0002  
                        __pcstackBANK0 0020                          __pcstackBANK1 00A0  
                        __pcstackBANK3 0190             __size_of_conversion_newton EA1E  
               conversion_newton@F_tab 1856                      __size_of___xxtofl 00BC  
               conversion_newton@R_tab 1806                         _PORT_Blink_LED 1B32  
                        ?_ADC_GetValue 0071                               ?___fladd 0040  
                             ?___fldiv 005C                               ?___flmul 0026  
                             ?___flsub 0054                             ?__Umul8_16 0073  
               PORT_Change_Gain@INTER0 0076                 PORT_Change_Gain@INTER1 0073  
                            __pstrings 1800                            ??_PORT_Init 0073  
               __end_of_PORT_Blink_LED 1B42                 Get_Newton@sensor_value 00C6  
                     _PORT_Init_Serial 0016                         ??_ADC_GetValue 0074  
                    interrupt_function 0004                         _PORT_Start_ADC 1B22  
                PORT_Choose_Mux@_value 0073       __size_of_Get_Better_Newton_Value 038D  
                             _GO_nDONE 00F9              __size_of_Resistance_Value 00B3  
                          __stringbase 1805               __end_of_PORT_Change_Gain 0856  
          _Get_Better_Newton_Value$800 0198            _Get_Better_Newton_Value$801 019C  
                      ?_PORT_Blink_LED 0071                           Get_Newton@Rc 00BF  
                         Get_Newton@Vs 00BB                 __end_of_PORT_Start_ADC 1B2A  
             Get_Newton@sensor_Channel 00B7                       _PORT_Select_Mux0 1B2A  
                          ??__Umul8_16 0075            __size_of_PORT_Get_Value_Adc 0004  
                     __size_of___fladd 0288                       __size_of___fldiv 0298  
                     __size_of___flmul 0361                       __size_of___flsub 0024  
                   __end_of__stringtab 1806  Get_Better_Newton_Value@channel_sensor 01B8  
                             ___xxtofl 0856                    conversion_newton@Rc 0069  
             Get_Better_Newton_Value@F 0194                               __ptext10 1D37  
                             __ptext11 102B                               __ptext20 1B22  
                             __ptext12 0856                               __ptext21 0012  
                             __ptext13 1B6D                               __ptext22 1B42  
                             __ptext14 1578                               __ptext23 1B54  
                             __ptext15 0912                               __ptext16 1004  
                             __ptext17 0041                               __ptext18 0817  
                             __ptext19 1BB7                        ?_PORT_Start_ADC 0071  
                        __size_of_main 0026                              pnum$text7 0010  
                 __end_of_ADC_GetValue 1BDE                            Get_Newton@R 00C3  
             __size_of_PORT_Choose_Mux 0012                               intlevel1 0000  
              _Get_Better_Newton_Value 0C73                              stringcode 1800  
                     _Resistance_Value 102B               __end_of_PORT_Init_Serial 0041  
       __end_ofconversion_newton@F_tab 18A6                 __Umul8_16@multiplicand 0073  
       __end_ofconversion_newton@R_tab 1856                    Voltage_Value@sensor 00B1  
                             stringdir 1800                               stringtab 1800  
                    _TIMER_init_timer1 0805                Resistance_Value@Voltage 0069  
                        ___fladd@signs 0050                     ?_TIMER_init_timer1 0071  
                         ___fladd@aexp 0051                           ___fladd@bexp 0052  
                 __Umul8_16@multiplier 007B                    ??_TIMER_init_timer1 0073  
               __size_of_Voltage_Value 009C               Resistance_Value@resultat 00AD  
                    __Umul8_16@product 0077  
