

Microchip MPLAB XC8 Assembler V2.20 build 20200408173844 
                                                                                               Thu Jun 08 16:38:55 2023

Microchip MPLAB XC8 C Compiler v2.20 (Free license) build 20200408173844 Og1 
     1                           	processor	16F707
     2                           	pagewidth 120
     3                           	opt	flic
     4                           	psect	strings,global,class=STRING,delta=2,noexec
     5                           	psect	cinit,global,class=CODE,merge=1,delta=2
     6                           	psect	bssBANK1,global,class=BANK1,space=1,delta=1,noexec
     7                           	psect	cstackBANK1,global,class=BANK1,space=1,delta=1,noexec
     8                           	psect	cstackCOMMON,global,class=COMMON,space=1,delta=1,noexec
     9                           	psect	cstackBANK0,global,class=BANK0,space=1,delta=1,noexec
    10                           	psect	maintext,global,class=CODE,split=1,delta=2
    11                           	psect	text1,local,class=CODE,merge=1,delta=2
    12                           	psect	text2,local,class=CODE,merge=1,delta=2
    13                           	psect	text3,local,class=CODE,merge=1,delta=2
    14                           	psect	text4,local,class=CODE,merge=1,delta=2
    15                           	psect	text5,local,class=CODE,merge=1,delta=2
    16                           	psect	text6,local,class=CODE,merge=1,delta=2
    17                           	psect	text7,local,class=CODE,merge=1,delta=2
    18                           	psect	text8,local,class=CODE,merge=1,delta=2,group=1
    19                           	psect	text9,local,class=CODE,merge=1,delta=2,group=1
    20                           	psect	text10,local,class=CODE,merge=1,delta=2,group=1
    21                           	psect	text11,local,class=CODE,merge=1,delta=2,group=1
    22                           	psect	text12,local,class=CODE,merge=1,delta=2,group=1
    23                           	psect	text13,local,class=CODE,merge=1,delta=2
    24                           	psect	text14,local,class=CODE,merge=1,delta=2,group=1
    25                           	psect	text15,local,class=CODE,merge=1,delta=2
    26                           	psect	text16,local,class=CODE,merge=1,delta=2
    27                           	psect	text17,local,class=CODE,merge=1,delta=2,group=1
    28                           	psect	text18,local,class=CODE,merge=1,delta=2,group=1
    29                           	psect	text19,local,class=CODE,merge=1,delta=2,group=1
    30                           	psect	text20,local,class=CODE,merge=1,delta=2,group=1
    31                           	psect	text21,local,class=CODE,merge=1,delta=2,group=1
    32                           	psect	text22,local,class=CODE,merge=1,delta=2,group=1
    33                           	psect	text23,local,class=CODE,merge=1,delta=2,group=1
    34                           	psect	text24,local,class=CODE,merge=1,delta=2
    35                           	psect	text25,local,class=CODE,merge=1,delta=2
    36                           	psect	text26,local,class=CODE,merge=1,delta=2
    37                           	psect	text27,local,class=CODE,merge=1,delta=2,group=1
    38                           	psect	text28,local,class=CODE,merge=1,delta=2,group=1
    39                           	psect	text29,local,class=CODE,merge=1,delta=2
    40                           	psect	text30,local,class=CODE,merge=1,delta=2
    41                           	psect	text31,local,class=CODE,merge=1,delta=2
    42                           	psect	text32,local,class=CODE,merge=1,delta=2
    43                           	psect	text33,local,class=CODE,merge=1,delta=2
    44                           	psect	text34,local,class=CODE,merge=1,delta=2
    45                           	psect	intentry,global,class=CODE,delta=2
    46                           	psect	config,global,abs,ovrld,class=CONFIG,space=4,delta=2,noexec
    47                           	psect	text13_split_1,local,class=CODE,merge=1,delta=2
    48                           	dabs	1,0x7E,2
    49  0000                     
    50                           ; Version 2.20
    51                           ; Generated 12/02/2020 GMT
    52                           ; 
    53                           ; Copyright © 2020, Microchip Technology Inc. and its subsidiaries ("Microchip")
    54                           ; All rights reserved.
    55                           ; 
    56                           ; This software is developed by Microchip Technology Inc. and its subsidiaries ("Microch
      +                          ip").
    57                           ; 
    58                           ; Redistribution and use in source and binary forms, with or without modification, are
    59                           ; permitted provided that the following conditions are met:
    60                           ; 
    61                           ;     1. Redistributions of source code must retain the above copyright notice, this lis
      +                          t of
    62                           ;        conditions and the following disclaimer.
    63                           ; 
    64                           ;     2. Redistributions in binary form must reproduce the above copyright notice, this 
      +                          list
    65                           ;        of conditions and the following disclaimer in the documentation and/or other
    66                           ;        materials provided with the distribution.
    67                           ; 
    68                           ;     3. Microchip's name may not be used to endorse or promote products derived from th
      +                          is
    69                           ;        software without specific prior written permission.
    70                           ; 
    71                           ; THIS SOFTWARE IS PROVIDED BY MICROCHIP "AS IS" AND ANY EXPRESS OR IMPLIED WARRANTIES,
    72                           ; INCLUDING, BUT NOT LIMITED TO, THE IMPLIED WARRANTIES OF MERCHANTABILITY AND FITNESS F
      +                          OR
    73                           ; PURPOSE ARE DISCLAIMED.  IN NO EVENT SHALL MICROCHIP BE LIABLE FOR ANY DIRECT, INDIREC
      +                          T,
    74                           ; INCIDENTAL, SPECIAL, EXEMPLARY, OR CONSEQUENTIAL DAMAGES (INCLUDING BUT NOT LIMITED TO
    75                           ; PROCUREMENT OF SUBSTITUTE GOODS OR SERVICES; LOSS OF USE, DATA OR PROFITS; OR BUSINESS
    76                           ; INTERRUPTION) HOWSOEVER CAUSED AND ON ANY THEORY OF LIABILITY, WHETHER IN CONTRACT, ST
      +                          RICT
    77                           ; LIABILITY, OR TORT (INCLUDING NEGLIGENCE OR OTHERWISE) ARISING IN ANY WAY OUT OF THE U
      +                          SE OF
    78                           ; THIS SOFTWARE, EVEN IF ADVISED OF THE POSSIBILITY OF SUCH DAMAGE.
    79                           ; 
    80                           ; 
    81                           ; Code-generator required, PIC16F707 Definitions
    82                           ; 
    83                           ; SFR Addresses
    84  0000                     	;# 
    85  0001                     	;# 
    86  0002                     	;# 
    87  0003                     	;# 
    88  0004                     	;# 
    89  0005                     	;# 
    90  0006                     	;# 
    91  0007                     	;# 
    92  0008                     	;# 
    93  0009                     	;# 
    94  000A                     	;# 
    95  000B                     	;# 
    96  000C                     	;# 
    97  000D                     	;# 
    98  000E                     	;# 
    99  000E                     	;# 
   100  000F                     	;# 
   101  0010                     	;# 
   102  0011                     	;# 
   103  0012                     	;# 
   104  0013                     	;# 
   105  0014                     	;# 
   106  0015                     	;# 
   107  0015                     	;# 
   108  0016                     	;# 
   109  0017                     	;# 
   110  0018                     	;# 
   111  0019                     	;# 
   112  001A                     	;# 
   113  001B                     	;# 
   114  001B                     	;# 
   115  001C                     	;# 
   116  001D                     	;# 
   117  001E                     	;# 
   118  001F                     	;# 
   119  0081                     	;# 
   120  0085                     	;# 
   121  0086                     	;# 
   122  0087                     	;# 
   123  0088                     	;# 
   124  0089                     	;# 
   125  008C                     	;# 
   126  008D                     	;# 
   127  008E                     	;# 
   128  008F                     	;# 
   129  0090                     	;# 
   130  0091                     	;# 
   131  0092                     	;# 
   132  0093                     	;# 
   133  0093                     	;# 
   134  0094                     	;# 
   135  0095                     	;# 
   136  0096                     	;# 
   137  0097                     	;# 
   138  0098                     	;# 
   139  0099                     	;# 
   140  009A                     	;# 
   141  009A                     	;# 
   142  009B                     	;# 
   143  009C                     	;# 
   144  009D                     	;# 
   145  009E                     	;# 
   146  009F                     	;# 
   147  0105                     	;# 
   148  0106                     	;# 
   149  0107                     	;# 
   150  0108                     	;# 
   151  0109                     	;# 
   152  010C                     	;# 
   153  010D                     	;# 
   154  010E                     	;# 
   155  010F                     	;# 
   156  0110                     	;# 
   157  0111                     	;# 
   158  0112                     	;# 
   159  0113                     	;# 
   160  0114                     	;# 
   161  0185                     	;# 
   162  0186                     	;# 
   163  0187                     	;# 
   164  0188                     	;# 
   165  0189                     	;# 
   166  018C                     	;# 
   167  0000                     	;# 
   168  0001                     	;# 
   169  0002                     	;# 
   170  0003                     	;# 
   171  0004                     	;# 
   172  0005                     	;# 
   173  0006                     	;# 
   174  0007                     	;# 
   175  0008                     	;# 
   176  0009                     	;# 
   177  000A                     	;# 
   178  000B                     	;# 
   179  000C                     	;# 
   180  000D                     	;# 
   181  000E                     	;# 
   182  000E                     	;# 
   183  000F                     	;# 
   184  0010                     	;# 
   185  0011                     	;# 
   186  0012                     	;# 
   187  0013                     	;# 
   188  0014                     	;# 
   189  0015                     	;# 
   190  0015                     	;# 
   191  0016                     	;# 
   192  0017                     	;# 
   193  0018                     	;# 
   194  0019                     	;# 
   195  001A                     	;# 
   196  001B                     	;# 
   197  001B                     	;# 
   198  001C                     	;# 
   199  001D                     	;# 
   200  001E                     	;# 
   201  001F                     	;# 
   202  0081                     	;# 
   203  0085                     	;# 
   204  0086                     	;# 
   205  0087                     	;# 
   206  0088                     	;# 
   207  0089                     	;# 
   208  008C                     	;# 
   209  008D                     	;# 
   210  008E                     	;# 
   211  008F                     	;# 
   212  0090                     	;# 
   213  0091                     	;# 
   214  0092                     	;# 
   215  0093                     	;# 
   216  0093                     	;# 
   217  0094                     	;# 
   218  0095                     	;# 
   219  0096                     	;# 
   220  0097                     	;# 
   221  0098                     	;# 
   222  0099                     	;# 
   223  009A                     	;# 
   224  009A                     	;# 
   225  009B                     	;# 
   226  009C                     	;# 
   227  009D                     	;# 
   228  009E                     	;# 
   229  009F                     	;# 
   230  0105                     	;# 
   231  0106                     	;# 
   232  0107                     	;# 
   233  0108                     	;# 
   234  0109                     	;# 
   235  010C                     	;# 
   236  010D                     	;# 
   237  010E                     	;# 
   238  010F                     	;# 
   239  0110                     	;# 
   240  0111                     	;# 
   241  0112                     	;# 
   242  0113                     	;# 
   243  0114                     	;# 
   244  0185                     	;# 
   245  0186                     	;# 
   246  0187                     	;# 
   247  0188                     	;# 
   248  0189                     	;# 
   249  018C                     	;# 
   250  0000                     	;# 
   251  0001                     	;# 
   252  0002                     	;# 
   253  0003                     	;# 
   254  0004                     	;# 
   255  0005                     	;# 
   256  0006                     	;# 
   257  0007                     	;# 
   258  0008                     	;# 
   259  0009                     	;# 
   260  000A                     	;# 
   261  000B                     	;# 
   262  000C                     	;# 
   263  000D                     	;# 
   264  000E                     	;# 
   265  000E                     	;# 
   266  000F                     	;# 
   267  0010                     	;# 
   268  0011                     	;# 
   269  0012                     	;# 
   270  0013                     	;# 
   271  0014                     	;# 
   272  0015                     	;# 
   273  0015                     	;# 
   274  0016                     	;# 
   275  0017                     	;# 
   276  0018                     	;# 
   277  0019                     	;# 
   278  001A                     	;# 
   279  001B                     	;# 
   280  001B                     	;# 
   281  001C                     	;# 
   282  001D                     	;# 
   283  001E                     	;# 
   284  001F                     	;# 
   285  0081                     	;# 
   286  0085                     	;# 
   287  0086                     	;# 
   288  0087                     	;# 
   289  0088                     	;# 
   290  0089                     	;# 
   291  008C                     	;# 
   292  008D                     	;# 
   293  008E                     	;# 
   294  008F                     	;# 
   295  0090                     	;# 
   296  0091                     	;# 
   297  0092                     	;# 
   298  0093                     	;# 
   299  0093                     	;# 
   300  0094                     	;# 
   301  0095                     	;# 
   302  0096                     	;# 
   303  0097                     	;# 
   304  0098                     	;# 
   305  0099                     	;# 
   306  009A                     	;# 
   307  009A                     	;# 
   308  009B                     	;# 
   309  009C                     	;# 
   310  009D                     	;# 
   311  009E                     	;# 
   312  009F                     	;# 
   313  0105                     	;# 
   314  0106                     	;# 
   315  0107                     	;# 
   316  0108                     	;# 
   317  0109                     	;# 
   318  010C                     	;# 
   319  010D                     	;# 
   320  010E                     	;# 
   321  010F                     	;# 
   322  0110                     	;# 
   323  0111                     	;# 
   324  0112                     	;# 
   325  0113                     	;# 
   326  0114                     	;# 
   327  0185                     	;# 
   328  0186                     	;# 
   329  0187                     	;# 
   330  0188                     	;# 
   331  0189                     	;# 
   332  018C                     	;# 
   333                           
   334                           	psect	strings
   335  1000                     __pstrings:
   336  1000                     stringtab:
   337  1000                     __stringtab:
   338  1000                     stringcode:	
   339                           ;	String table - string pointers are 1 byte each
   340                           
   341  1000                     stringdir:
   342  1000  3010               	movlw	high stringdir
   343  1001  008A               	movwf	10
   344  1002  0804               	movf	4,w
   345  1003  0A84               	incf	4,f
   346  1004  0782               	addwf	2,f
   347  1005                     __stringbase:
   348  1005  3400               	retlw	0
   349  1006                     __end_of__stringtab:
   350  1006                     conversion_newton@R_tab:
   351  1006  3400               	retlw	0
   352  1007  3400               	retlw	0
   353  1008  34FA               	retlw	250
   354  1009  3444               	retlw	68
   355  100A  3400               	retlw	0
   356  100B  3440               	retlw	64
   357  100C  341C               	retlw	28
   358  100D  3445               	retlw	69
   359  100E  3400               	retlw	0
   360  100F  3480               	retlw	128
   361  1010  3422               	retlw	34
   362  1011  3445               	retlw	69
   363  1012  3400               	retlw	0
   364  1013  34C0               	retlw	192
   365  1014  3428               	retlw	40
   366  1015  3445               	retlw	69
   367  1016  3400               	retlw	0
   368  1017  3440               	retlw	64
   369  1018  3435               	retlw	53
   370  1019  3445               	retlw	69
   371  101A  3400               	retlw	0
   372  101B  3400               	retlw	0
   373  101C  3448               	retlw	72
   374  101D  3445               	retlw	69
   375  101E  3400               	retlw	0
   376  101F  3480               	retlw	128
   377  1020  3454               	retlw	84
   378  1021  3445               	retlw	69
   379  1022  3400               	retlw	0
   380  1023  34C0               	retlw	192
   381  1024  345A               	retlw	90
   382  1025  3445               	retlw	69
   383  1026  3400               	retlw	0
   384  1027  34C0               	retlw	192
   385  1028  3473               	retlw	115
   386  1029  3445               	retlw	69
   387  102A  3400               	retlw	0
   388  102B  3460               	retlw	96
   389  102C  3486               	retlw	134
   390  102D  3445               	retlw	69
   391  102E  3400               	retlw	0
   392  102F  3400               	retlw	0
   393  1030  3496               	retlw	150
   394  1031  3445               	retlw	69
   395  1032  3400               	retlw	0
   396  1033  34E0               	retlw	224
   397  1034  34AB               	retlw	171
   398  1035  3445               	retlw	69
   399  1036  3400               	retlw	0
   400  1037  3480               	retlw	128
   401  1038  34D4               	retlw	212
   402  1039  3445               	retlw	69
   403  103A  3400               	retlw	0
   404  103B  34D0               	retlw	208
   405  103C  3404               	retlw	4
   406  103D  3446               	retlw	70
   407  103E  3400               	retlw	0
   408  103F  34E0               	retlw	224
   409  1040  342B               	retlw	43
   410  1041  3446               	retlw	70
   411  1042  3400               	retlw	0
   412  1043  3400               	retlw	0
   413  1044  347A               	retlw	122
   414  1045  3446               	retlw	70
   415  1046  3400               	retlw	0
   416  1047  34F0               	retlw	240
   417  1048  34D2               	retlw	210
   418  1049  3446               	retlw	70
   419  104A  3400               	retlw	0
   420  104B  34C8               	retlw	200
   421  104C  342F               	retlw	47
   422  104D  3447               	retlw	71
   423  104E  3400               	retlw	0
   424  104F  34E8               	retlw	232
   425  1050  347D               	retlw	125
   426  1051  3447               	retlw	71
   427  1052  3400               	retlw	0
   428  1053  348C               	retlw	140
   429  1054  34B9               	retlw	185
   430  1055  3447               	retlw	71
   431  1056                     __end_ofconversion_newton@R_tab:
   432  1056                     conversion_newton@F_tab:
   433  1056  3400               	retlw	0
   434  1057  3400               	retlw	0
   435  1058  348C               	retlw	140
   436  1059  3442               	retlw	66
   437  105A  3400               	retlw	0
   438  105B  3400               	retlw	0
   439  105C  340C               	retlw	12
   440  105D  3442               	retlw	66
   441  105E  3400               	retlw	0
   442  105F  3400               	retlw	0
   443  1060  34F0               	retlw	240
   444  1061  3441               	retlw	65
   445  1062  3400               	retlw	0
   446  1063  3400               	retlw	0
   447  1064  34E0               	retlw	224
   448  1065  3441               	retlw	65
   449  1066  3400               	retlw	0
   450  1067  3400               	retlw	0
   451  1068  34C8               	retlw	200
   452  1069  3441               	retlw	65
   453  106A  3400               	retlw	0
   454  106B  3400               	retlw	0
   455  106C  34A0               	retlw	160
   456  106D  3441               	retlw	65
   457  106E  3400               	retlw	0
   458  106F  3400               	retlw	0
   459  1070  3498               	retlw	152
   460  1071  3441               	retlw	65
   461  1072  3400               	retlw	0
   462  1073  3400               	retlw	0
   463  1074  3490               	retlw	144
   464  1075  3441               	retlw	65
   465  1076  3400               	retlw	0
   466  1077  3400               	retlw	0
   467  1078  3470               	retlw	112
   468  1079  3441               	retlw	65
   469  107A  3400               	retlw	0
   470  107B  3400               	retlw	0
   471  107C  3450               	retlw	80
   472  107D  3441               	retlw	65
   473  107E  3400               	retlw	0
   474  107F  3400               	retlw	0
   475  1080  3420               	retlw	32
   476  1081  3441               	retlw	65
   477  1082  3400               	retlw	0
   478  1083  3400               	retlw	0
   479  1084  34E0               	retlw	224
   480  1085  3440               	retlw	64
   481  1086  34CD               	retlw	205
   482  1087  34CC               	retlw	204
   483  1088  34AC               	retlw	172
   484  1089  3440               	retlw	64
   485  108A  3400               	retlw	0
   486  108B  3400               	retlw	0
   487  108C  3480               	retlw	128
   488  108D  3440               	retlw	64
   489  108E  3400               	retlw	0
   490  108F  3400               	retlw	0
   491  1090  3440               	retlw	64
   492  1091  3440               	retlw	64
   493  1092  34CD               	retlw	205
   494  1093  34CC               	retlw	204
   495  1094  340C               	retlw	12
   496  1095  3440               	retlw	64
   497  1096  3400               	retlw	0
   498  1097  3400               	retlw	0
   499  1098  34C0               	retlw	192
   500  1099  343F               	retlw	63
   501  109A  3466               	retlw	102
   502  109B  3466               	retlw	102
   503  109C  3466               	retlw	102
   504  109D  343F               	retlw	63
   505  109E  3466               	retlw	102
   506  109F  3466               	retlw	102
   507  10A0  34E6               	retlw	230
   508  10A1  343E               	retlw	62
   509  10A2  348F               	retlw	143
   510  10A3  34C2               	retlw	194
   511  10A4  34F5               	retlw	245
   512  10A5  343D               	retlw	61
   513  10A6                     __end_ofconversion_newton@F_tab:
   514  0007                     _PORTCbits	set	7
   515  0019                     _TXREG	set	25
   516  001E                     _ADRES	set	30
   517  0008                     _PORTD	set	8
   518  0006                     _PORTBbits	set	6
   519  001F                     _ADCON0	set	31
   520  0018                     _RCSTA	set	24
   521  006C                     _TMRAIF	set	108
   522  0060                     _TMR1IF	set	96
   523  0080                     _TMR1ON	set	128
   524  0082                     _T1SYNC	set	130
   525  0085                     _T1CKPS1	set	133
   526  0084                     _T1CKPS0	set	132
   527  0086                     _TMRCS0	set	134
   528  0087                     _TMRCS1	set	135
   529  0083                     _T1OSCEN	set	131
   530  00F9                     _GO_nDONE	set	249
   531  009D                     _FVRCON	set	157
   532  009F                     _ADCON1	set	159
   533  0088                     _TRISD	set	136
   534  0085                     _TRISA	set	133
   535  0090                     _OSCCON	set	144
   536  0086                     _TRISB	set	134
   537  0095                     _WPUB	set	149
   538  0098                     _TXSTA	set	152
   539  0099                     _SPBRG	set	153
   540  0087                     _TRISC	set	135
   541  0460                     _TMR1IE	set	1120
   542  047F                     _TMR1GE	set	1151
   543  0110                     _TMRA	set	272
   544  0114                     _DACCON1	set	276
   545  0113                     _DACCON0	set	275
   546  0185                     _ANSELA	set	389
   547  0188                     _ANSELD	set	392
   548  0186                     _ANSELB	set	390
   549  10A6                     STR_1:
   550  10A6  3476               	retlw	118	;'v'
   551  10A7  3461               	retlw	97	;'a'
   552  10A8  346C               	retlw	108	;'l'
   553  10A9  3465               	retlw	101	;'e'
   554  10AA  3475               	retlw	117	;'u'
   555  10AB  3472               	retlw	114	;'r'
   556  10AC  3420               	retlw	32	;' '
   557  10AD  344E               	retlw	78	;'N'
   558  10AE  3465               	retlw	101	;'e'
   559  10AF  3477               	retlw	119	;'w'
   560  10B0  3474               	retlw	116	;'t'
   561  10B1  346F               	retlw	111	;'o'
   562  10B2  346E               	retlw	110	;'n'
   563  10B3  3420               	retlw	32	;' '
   564  10B4  3400               	retlw	0
   565  10B5                     STR_2:
   566  10B5  340A               	retlw	10
   567  10B6  3400               	retlw	0
   568                           
   569                           	psect	cinit
   570  07F9                     start_initialization:	
   571                           ; #config settings
   572                           
   573  07F9                     __initialization:
   574                           
   575                           ; Clear objects allocated to BANK1
   576  07F9  1683               	bsf	3,5	;RP0=1, select bank1
   577  07FA  1303               	bcf	3,6	;RP1=0, select bank1
   578  07FB  01E5               	clrf	__pbssBANK1& (0+127)
   579  07FC                     end_of_initialization:	
   580                           ;End of C runtime variable initialization code
   581                           
   582  07FC                     __end_of__initialization:
   583  07FC  0183               	clrf	3
   584  07FD  160A  158A  2E92   	ljmp	_main	;jump to C main() function
   585                           
   586                           	psect	bssBANK1
   587  00E5                     __pbssBANK1:
   588  00E5                     _Fincompt1:
   589  00E5                     	ds	1
   590                           
   591                           	psect	cstackBANK1
   592  00A0                     __pcstackBANK1:
   593  00A0                     ?_puts_float:
   594  00A0                     ?_Voltage_Value:	
   595                           ; 1 bytes @ 0x0
   596                           
   597  00A0                     ?_Resistance_Value:	
   598                           ; 4 bytes @ 0x0
   599                           
   600  00A0                     ?_conversion_newton:	
   601                           ; 4 bytes @ 0x0
   602                           
   603  00A0                     puts_float@Valeur:	
   604                           ; 4 bytes @ 0x0
   605                           
   606  00A0                     Resistance_Value@Voltage:	
   607                           ; 4 bytes @ 0x0
   608                           
   609  00A0                     conversion_newton@Rc:	
   610                           ; 4 bytes @ 0x0
   611                           
   612                           
   613                           ; 4 bytes @ 0x0
   614  00A0                     	ds	4
   615  00A4                     ??_Voltage_Value:
   616  00A4                     ??_conversion_newton:	
   617                           ; 1 bytes @ 0x4
   618                           
   619  00A4                     puts_float@affiche:	
   620                           ; 1 bytes @ 0x4
   621                           
   622  00A4                     Resistance_Value@R:	
   623                           ; 2 bytes @ 0x4
   624                           
   625                           
   626                           ; 2 bytes @ 0x4
   627  00A4                     	ds	2
   628  00A6                     puts_float@valueMetrics:
   629                           
   630                           ; 6 bytes @ 0x6
   631  00A6                     	ds	2
   632  00A8                     Voltage_Value@sensor:
   633                           
   634                           ; 1 bytes @ 0x8
   635  00A8                     	ds	21
   636  00BD                     _conversion_newton$778:
   637                           
   638                           ; 4 bytes @ 0x1D
   639  00BD                     	ds	4
   640  00C1                     conversion_newton@F:
   641                           
   642                           ; 4 bytes @ 0x21
   643  00C1                     	ds	4
   644  00C5                     conversion_newton@n:
   645                           
   646                           ; 2 bytes @ 0x25
   647  00C5                     	ds	2
   648  00C7                     ?_Get_Newton:
   649  00C7                     Get_Newton@INTER1:	
   650                           ; 4 bytes @ 0x27
   651                           
   652                           
   653                           ; 1 bytes @ 0x27
   654  00C7                     	ds	1
   655  00C8                     Get_Newton@sensor_Channel:
   656                           
   657                           ; 1 bytes @ 0x28
   658  00C8                     	ds	3
   659  00CB                     ??_Get_Newton:
   660                           
   661                           ; 1 bytes @ 0x2B
   662  00CB                     	ds	2
   663  00CD                     Get_Newton@Vs:
   664                           
   665                           ; 4 bytes @ 0x2D
   666  00CD                     	ds	4
   667  00D1                     Get_Newton@F:
   668                           
   669                           ; 4 bytes @ 0x31
   670  00D1                     	ds	4
   671  00D5                     Get_Newton@R:
   672                           
   673                           ; 2 bytes @ 0x35
   674  00D5                     	ds	2
   675  00D7                     Get_Newton@Rc:
   676                           
   677                           ; 4 bytes @ 0x37
   678  00D7                     	ds	4
   679  00DB                     Get_Newton@INTER0:
   680                           
   681                           ; 1 bytes @ 0x3B
   682  00DB                     	ds	1
   683  00DC                     Get_Newton@sensor_value:
   684                           
   685                           ; 1 bytes @ 0x3C
   686  00DC                     	ds	5
   687  00E1                     main@F:
   688                           
   689                           ; 4 bytes @ 0x41
   690  00E1                     	ds	4
   691                           
   692                           	psect	cstackCOMMON
   693  0071                     __pcstackCOMMON:
   694  0071                     ?_PORT_Init:
   695  0071                     ?_TIMER_init_timer1:	
   696                           ; 1 bytes @ 0x0
   697                           
   698  0071                     ?_PORT_Select_Mux0:	
   699                           ; 1 bytes @ 0x0
   700                           
   701  0071                     ?_PORT_Blink_LED:	
   702                           ; 1 bytes @ 0x0
   703                           
   704  0071                     ?_PORT_putchar:	
   705                           ; 1 bytes @ 0x0
   706                           
   707  0071                     ?_ADC_GetValue:	
   708                           ; 1 bytes @ 0x0
   709                           
   710  0071                     ?_PORT_putString:	
   711                           ; 1 bytes @ 0x0
   712                           
   713  0071                     ?_PORT_Choose_Mux:	
   714                           ; 1 bytes @ 0x0
   715                           
   716  0071                     ?_PORT_Start_ADC:	
   717                           ; 1 bytes @ 0x0
   718                           
   719  0071                     ?_PORT_Get_Value_Adc:	
   720                           ; 1 bytes @ 0x0
   721                           
   722  0071                     ?_main:	
   723                           ; 1 bytes @ 0x0
   724                           
   725  0071                     ?_PORT_Init_Serial:	
   726                           ; 1 bytes @ 0x0
   727                           
   728  0071                     ?_isr:	
   729                           ; 1 bytes @ 0x0
   730                           
   731  0071                     ??_isr:	
   732                           ; 1 bytes @ 0x0
   733                           
   734                           
   735                           ; 1 bytes @ 0x0
   736  0071                     	ds	2
   737  0073                     ?___flge:
   738  0073                     ??_PORT_Init:	
   739                           ; 1 bit 
   740                           
   741  0073                     ??_TIMER_init_timer1:	
   742                           ; 1 bytes @ 0x2
   743                           
   744  0073                     ??_PORT_Select_Mux0:	
   745                           ; 1 bytes @ 0x2
   746                           
   747  0073                     ??_PORT_Blink_LED:	
   748                           ; 1 bytes @ 0x2
   749                           
   750  0073                     ??_PORT_putchar:	
   751                           ; 1 bytes @ 0x2
   752                           
   753  0073                     ??_PORT_Choose_Mux:	
   754                           ; 1 bytes @ 0x2
   755                           
   756  0073                     ??_PORT_Start_ADC:	
   757                           ; 1 bytes @ 0x2
   758                           
   759  0073                     ??_PORT_Get_Value_Adc:	
   760                           ; 1 bytes @ 0x2
   761                           
   762  0073                     ??_PORT_Init_Serial:	
   763                           ; 1 bytes @ 0x2
   764                           
   765  0073                     ?_PORT_Change_Gain:	
   766                           ; 1 bytes @ 0x2
   767                           
   768  0073                     ?__Umul8_16:	
   769                           ; 2 bytes @ 0x2
   770                           
   771  0073                     ?___wmul:	
   772                           ; 2 bytes @ 0x2
   773                           
   774  0073                     ?___awdiv:	
   775                           ; 2 bytes @ 0x2
   776                           
   777  0073                     ?___awmod:	
   778                           ; 2 bytes @ 0x2
   779                           
   780  0073                     ?___lwdiv:	
   781                           ; 2 bytes @ 0x2
   782                           
   783  0073                     ?___lwmod:	
   784                           ; 2 bytes @ 0x2
   785                           
   786  0073                     ?___aldiv:	
   787                           ; 2 bytes @ 0x2
   788                           
   789  0073                     ?___almod:	
   790                           ; 4 bytes @ 0x2
   791                           
   792  0073                     ?___fltol:	
   793                           ; 4 bytes @ 0x2
   794                           
   795  0073                     PORT_Choose_Mux@_value:	
   796                           ; 4 bytes @ 0x2
   797                           
   798  0073                     PORT_putchar@c:	
   799                           ; 1 bytes @ 0x2
   800                           
   801  0073                     PORT_Change_Gain@INTER1:	
   802                           ; 1 bytes @ 0x2
   803                           
   804  0073                     __Umul8_16@multiplicand:	
   805                           ; 1 bytes @ 0x2
   806                           
   807  0073                     ___wmul@multiplier:	
   808                           ; 1 bytes @ 0x2
   809                           
   810  0073                     ___awdiv@divisor:	
   811                           ; 2 bytes @ 0x2
   812                           
   813  0073                     ___awmod@divisor:	
   814                           ; 2 bytes @ 0x2
   815                           
   816  0073                     ___lwdiv@divisor:	
   817                           ; 2 bytes @ 0x2
   818                           
   819  0073                     ___lwmod@divisor:	
   820                           ; 2 bytes @ 0x2
   821                           
   822  0073                     ___aldiv@divisor:	
   823                           ; 2 bytes @ 0x2
   824                           
   825  0073                     ___almod@divisor:	
   826                           ; 4 bytes @ 0x2
   827                           
   828  0073                     ___flge@ff1:	
   829                           ; 4 bytes @ 0x2
   830                           
   831  0073                     ___fltol@f1:	
   832                           ; 4 bytes @ 0x2
   833                           
   834                           
   835                           ; 4 bytes @ 0x2
   836  0073                     	ds	1
   837  0074                     ??_ADC_GetValue:
   838  0074                     ??_PORT_putString:	
   839                           ; 1 bytes @ 0x3
   840                           
   841  0074                     ADC_GetValue@channel:	
   842                           ; 1 bytes @ 0x3
   843                           
   844  0074                     PORT_putString@i:	
   845                           ; 1 bytes @ 0x3
   846                           
   847                           
   848                           ; 2 bytes @ 0x3
   849  0074                     	ds	1
   850  0075                     ??__Umul8_16:
   851  0075                     ___wmul@multiplicand:	
   852                           ; 1 bytes @ 0x4
   853                           
   854  0075                     ___awdiv@dividend:	
   855                           ; 2 bytes @ 0x4
   856                           
   857  0075                     ___awmod@dividend:	
   858                           ; 2 bytes @ 0x4
   859                           
   860  0075                     ___lwdiv@dividend:	
   861                           ; 2 bytes @ 0x4
   862                           
   863  0075                     ___lwmod@dividend:	
   864                           ; 2 bytes @ 0x4
   865                           
   866                           
   867                           ; 2 bytes @ 0x4
   868  0075                     	ds	1
   869  0076                     ??_PORT_Change_Gain:
   870  0076                     PORT_putString@chaine:	
   871                           ; 1 bytes @ 0x5
   872                           
   873  0076                     PORT_Change_Gain@INTER0:	
   874                           ; 1 bytes @ 0x5
   875                           
   876                           
   877                           ; 1 bytes @ 0x5
   878  0076                     	ds	1
   879  0077                     ??___wmul:
   880  0077                     ??___awdiv:	
   881                           ; 1 bytes @ 0x6
   882                           
   883  0077                     ??___awmod:	
   884                           ; 1 bytes @ 0x6
   885                           
   886  0077                     ??___fltol:	
   887                           ; 1 bytes @ 0x6
   888                           
   889  0077                     ??___lwdiv:	
   890                           ; 1 bytes @ 0x6
   891                           
   892  0077                     ??___lwmod:	
   893                           ; 1 bytes @ 0x6
   894                           
   895  0077                     ___awdiv@counter:	
   896                           ; 1 bytes @ 0x6
   897                           
   898  0077                     ___awmod@counter:	
   899                           ; 1 bytes @ 0x6
   900                           
   901  0077                     ___lwmod@counter:	
   902                           ; 1 bytes @ 0x6
   903                           
   904  0077                     ___wmul@product:	
   905                           ; 1 bytes @ 0x6
   906                           
   907  0077                     ___lwdiv@quotient:	
   908                           ; 2 bytes @ 0x6
   909                           
   910  0077                     __Umul8_16@product:	
   911                           ; 2 bytes @ 0x6
   912                           
   913  0077                     ___aldiv@dividend:	
   914                           ; 2 bytes @ 0x6
   915                           
   916  0077                     ___almod@dividend:	
   917                           ; 4 bytes @ 0x6
   918                           
   919  0077                     ___flge@ff2:	
   920                           ; 4 bytes @ 0x6
   921                           
   922                           
   923                           ; 4 bytes @ 0x6
   924  0077                     	ds	1
   925  0078                     ___awdiv@sign:
   926  0078                     ___awmod@sign:	
   927                           ; 1 bytes @ 0x7
   928                           
   929                           
   930                           ; 1 bytes @ 0x7
   931  0078                     	ds	1
   932  0079                     ___lwdiv@counter:
   933  0079                     ___awdiv@quotient:	
   934                           ; 1 bytes @ 0x8
   935                           
   936  0079                     __Umul8_16@word_mpld:	
   937                           ; 2 bytes @ 0x8
   938                           
   939                           
   940                           ; 2 bytes @ 0x8
   941  0079                     	ds	2
   942  007B                     ??___aldiv:
   943  007B                     ??___almod:	
   944                           ; 1 bytes @ 0xA
   945                           
   946  007B                     __Umul8_16@multiplier:	
   947                           ; 1 bytes @ 0xA
   948                           
   949                           
   950                           ; 1 bytes @ 0xA
   951  007B                     	ds	1
   952  007C                     ??_main:
   953  007C                     ??_puts_float:	
   954                           ; 1 bytes @ 0xB
   955                           
   956  007C                     ??_Resistance_Value:	
   957                           ; 1 bytes @ 0xB
   958                           
   959  007C                     ??___flsub:	
   960                           ; 1 bytes @ 0xB
   961                           
   962                           
   963                           	psect	cstackBANK0
   964  0020                     __pcstackBANK0:	
   965                           ; 1 bytes @ 0xB
   966                           
   967  0020                     ?_Affichage_brut:
   968  0020                     ??___flge:	
   969                           ; 1 bytes @ 0x0
   970                           
   971  0020                     ?___fladd:	
   972                           ; 1 bytes @ 0x0
   973                           
   974  0020                     ?___xxtofl:	
   975                           ; 4 bytes @ 0x0
   976                           
   977  0020                     ___aldiv@counter:	
   978                           ; 4 bytes @ 0x0
   979                           
   980  0020                     ___almod@counter:	
   981                           ; 1 bytes @ 0x0
   982                           
   983  0020                     ___fltol@sign1:	
   984                           ; 1 bytes @ 0x0
   985                           
   986  0020                     Affichage_brut@valeur_a_afficher:	
   987                           ; 1 bytes @ 0x0
   988                           
   989  0020                     ___fladd@b:	
   990                           ; 2 bytes @ 0x0
   991                           
   992  0020                     ___xxtofl@val:	
   993                           ; 4 bytes @ 0x0
   994                           
   995                           
   996                           ; 4 bytes @ 0x0
   997  0020                     	ds	1
   998  0021                     ___aldiv@sign:
   999  0021                     ___almod@sign:	
  1000                           ; 1 bytes @ 0x1
  1001                           
  1002  0021                     ___fltol@exp1:	
  1003                           ; 1 bytes @ 0x1
  1004                           
  1005                           
  1006                           ; 1 bytes @ 0x1
  1007  0021                     	ds	1
  1008  0022                     ??_Affichage_brut:
  1009  0022                     ___aldiv@quotient:	
  1010                           ; 1 bytes @ 0x2
  1011                           
  1012                           
  1013                           ; 4 bytes @ 0x2
  1014  0022                     	ds	2
  1015  0024                     ??___xxtofl:
  1016  0024                     Affichage_brut@affiche:	
  1017                           ; 1 bytes @ 0x4
  1018                           
  1019  0024                     ___fladd@a:	
  1020                           ; 1 bytes @ 0x4
  1021                           
  1022                           
  1023                           ; 4 bytes @ 0x4
  1024  0024                     	ds	1
  1025  0025                     Affichage_brut@valueMetrics:
  1026                           
  1027                           ; 6 bytes @ 0x5
  1028  0025                     	ds	3
  1029  0028                     ??___fladd:
  1030  0028                     ___xxtofl@sign:	
  1031                           ; 1 bytes @ 0x8
  1032                           
  1033                           
  1034                           ; 1 bytes @ 0x8
  1035  0028                     	ds	1
  1036  0029                     ___xxtofl@exp:
  1037                           
  1038                           ; 1 bytes @ 0x9
  1039  0029                     	ds	1
  1040  002A                     ___xxtofl@arg:
  1041                           
  1042                           ; 4 bytes @ 0xA
  1043  002A                     	ds	6
  1044  0030                     ___fladd@signs:
  1045                           
  1046                           ; 1 bytes @ 0x10
  1047  0030                     	ds	1
  1048  0031                     ___fladd@aexp:
  1049                           
  1050                           ; 1 bytes @ 0x11
  1051  0031                     	ds	1
  1052  0032                     ___fladd@bexp:
  1053                           
  1054                           ; 1 bytes @ 0x12
  1055  0032                     	ds	1
  1056  0033                     ___fladd@grs:
  1057                           
  1058                           ; 1 bytes @ 0x13
  1059  0033                     	ds	1
  1060  0034                     ?___flsub:
  1061  0034                     ___flsub@a:	
  1062                           ; 4 bytes @ 0x14
  1063                           
  1064                           
  1065                           ; 4 bytes @ 0x14
  1066  0034                     	ds	4
  1067  0038                     ___flsub@b:
  1068                           
  1069                           ; 4 bytes @ 0x18
  1070  0038                     	ds	4
  1071  003C                     ?___fldiv:
  1072  003C                     ___fldiv@a:	
  1073                           ; 4 bytes @ 0x1C
  1074                           
  1075                           
  1076                           ; 4 bytes @ 0x1C
  1077  003C                     	ds	4
  1078  0040                     ___fldiv@b:
  1079                           
  1080                           ; 4 bytes @ 0x20
  1081  0040                     	ds	4
  1082  0044                     ??___fldiv:
  1083                           
  1084                           ; 1 bytes @ 0x24
  1085  0044                     	ds	5
  1086  0049                     ___fldiv@rem:
  1087                           
  1088                           ; 4 bytes @ 0x29
  1089  0049                     	ds	4
  1090  004D                     ___fldiv@sign:
  1091                           
  1092                           ; 1 bytes @ 0x2D
  1093  004D                     	ds	1
  1094  004E                     ___fldiv@new_exp:
  1095                           
  1096                           ; 2 bytes @ 0x2E
  1097  004E                     	ds	2
  1098  0050                     ___fldiv@grs:
  1099                           
  1100                           ; 4 bytes @ 0x30
  1101  0050                     	ds	4
  1102  0054                     ___fldiv@bexp:
  1103                           
  1104                           ; 1 bytes @ 0x34
  1105  0054                     	ds	1
  1106  0055                     ___fldiv@aexp:
  1107                           
  1108                           ; 1 bytes @ 0x35
  1109  0055                     	ds	1
  1110  0056                     ?___flmul:
  1111  0056                     ___flmul@b:	
  1112                           ; 4 bytes @ 0x36
  1113                           
  1114                           
  1115                           ; 4 bytes @ 0x36
  1116  0056                     	ds	4
  1117  005A                     ___flmul@a:
  1118                           
  1119                           ; 4 bytes @ 0x3A
  1120  005A                     	ds	4
  1121  005E                     ??___flmul:
  1122                           
  1123                           ; 1 bytes @ 0x3E
  1124  005E                     	ds	5
  1125  0063                     ___flmul@sign:
  1126                           
  1127                           ; 1 bytes @ 0x43
  1128  0063                     	ds	1
  1129  0064                     ___flmul@grs:
  1130                           
  1131                           ; 4 bytes @ 0x44
  1132  0064                     	ds	4
  1133  0068                     ___flmul@aexp:
  1134                           
  1135                           ; 1 bytes @ 0x48
  1136  0068                     	ds	1
  1137  0069                     ___flmul@bexp:
  1138                           
  1139                           ; 1 bytes @ 0x49
  1140  0069                     	ds	1
  1141  006A                     ___flmul@prod:
  1142                           
  1143                           ; 4 bytes @ 0x4A
  1144  006A                     	ds	4
  1145  006E                     ___flmul@temp:
  1146                           
  1147                           ; 2 bytes @ 0x4E
  1148  006E                     	ds	2
  1149                           
  1150                           	psect	maintext
  1151  1E92                     __pmaintext:	
  1152 ;;
  1153 ;;Main: autosize = 0, tempsize = 0, incstack = 0, save=0
  1154 ;;
  1155 ;; *************** function _main *****************
  1156 ;; Defined at:
  1157 ;;		line 24 in file "main.c"
  1158 ;; Parameters:    Size  Location     Type
  1159 ;;		None
  1160 ;; Auto vars:     Size  Location     Type
  1161 ;;  F               4   65[BANK1 ] float 
  1162 ;;  Debug           4    0        float 
  1163 ;; Return value:  Size  Location     Type
  1164 ;;                  1    wreg      void 
  1165 ;; Registers used:
  1166 ;;		wreg, fsr0l, fsr0h, status,2, status,0, btemp+1, pclath, cstack
  1167 ;; Tracked objects:
  1168 ;;		On entry : B00/0
  1169 ;;		On exit  : 0/0
  1170 ;;		Unchanged: 0/0
  1171 ;; Data sizes:     COMMON   BANK0   BANK1   BANK3   BANK2
  1172 ;;      Params:         0       0       0       0       0
  1173 ;;      Locals:         0       0       8       0       0
  1174 ;;      Temps:          0       0       0       0       0
  1175 ;;      Totals:         0       0       8       0       0
  1176 ;;Total ram usage:        8 bytes
  1177 ;; Hardware stack levels required when called:    5
  1178 ;; This function calls:
  1179 ;;		_Get_Newton
  1180 ;;		_PORT_Blink_LED
  1181 ;;		_PORT_Init
  1182 ;;		_PORT_Select_Mux0
  1183 ;;		_TIMER_init_timer1
  1184 ;; This function is called by:
  1185 ;;		Startup code after reset
  1186 ;; This function uses a non-reentrant model
  1187 ;;
  1188                           
  1189                           
  1190                           ;psect for function _main
  1191  1E92                     _main:
  1192  1E92                     l3025:	
  1193                           ;incstack = 0
  1194                           ; Regs used in _main: [wreg-fsr0h+status,2+status,0+btemp+1+pclath+cstack]
  1195                           
  1196                           
  1197                           ;main.c: 26:     PORT_Init();
  1198  1E92  160A  158A  26C7  160A  158A  	fcall	_PORT_Init
  1199                           
  1200                           ;main.c: 27:     TIMER_init_timer1();
  1201  1E97  120A  118A  2010  160A  158A  	fcall	_TIMER_init_timer1
  1202  1E9C                     l3027:
  1203                           
  1204                           ;main.c: 29:     PORT_Select_Mux0();
  1205  1E9C  160A  158A  2596  160A  158A  	fcall	_PORT_Select_Mux0
  1206  1EA1                     l3029:
  1207  1EA1  1683               	bsf	3,5	;RP0=1, select bank1
  1208  1EA2  1303               	bcf	3,6	;RP1=0, select bank1
  1209  1EA3  0865               	movf	_Fincompt1^(0+128),w
  1210  1EA4  1D03               	btfss	3,2
  1211  1EA5  2EA7               	goto	u4881
  1212  1EA6  2EA8               	goto	u4880
  1213  1EA7                     u4881:
  1214  1EA7  2EA1               	goto	l3029
  1215  1EA8                     u4880:
  1216  1EA8                     l3031:
  1217                           
  1218                           ;main.c: 34:         Fincompt1 = 0;
  1219  1EA8  01E5               	clrf	_Fincompt1^(0+128)
  1220  1EA9                     l3033:
  1221                           
  1222                           ;main.c: 35:         PORT_Blink_LED();
  1223  1EA9  160A  158A  259E  160A  158A  	fcall	_PORT_Blink_LED
  1224  1EAE                     l3035:
  1225                           
  1226                           ;main.c: 40:         F = Get_Newton(0,1,0);
  1227  1EAE  1683               	bsf	3,5	;RP0=1, select bank1
  1228  1EAF  1303               	bcf	3,6	;RP1=0, select bank1
  1229  1EB0  01C7               	clrf	Get_Newton@INTER1^(0+128)
  1230  1EB1  0AC7               	incf	Get_Newton@INTER1^(0+128),f
  1231  1EB2  01C8               	clrf	Get_Newton@sensor_Channel^(0+128)
  1232  1EB3  3000               	movlw	0
  1233  1EB4  160A  118A  25C9  160A  158A  	fcall	_Get_Newton
  1234  1EB9  1683               	bsf	3,5	;RP0=1, select bank1
  1235  1EBA  1303               	bcf	3,6	;RP1=0, select bank1
  1236  1EBB  084A               	movf	(?_Get_Newton+3)^(0+128),w
  1237  1EBC  00E4               	movwf	(main@F+3)^(0+128)
  1238  1EBD  0849               	movf	(?_Get_Newton+2)^(0+128),w
  1239  1EBE  00E3               	movwf	(main@F+2)^(0+128)
  1240  1EBF  0848               	movf	(?_Get_Newton+1)^(0+128),w
  1241  1EC0  00E2               	movwf	(main@F+1)^(0+128)
  1242  1EC1  0847               	movf	?_Get_Newton^(0+128),w
  1243  1EC2  00E1               	movwf	main@F^(0+128)
  1244  1EC3                     l3037:
  1245  1EC3  2EA1               	goto	l3029
  1246  1EC4  120A  118A  280C   	ljmp	start
  1247  1EC7                     __end_of_main:
  1248                           
  1249                           	psect	text1
  1250  0010                     __ptext1:	
  1251 ;; *************** function _TIMER_init_timer1 *****************
  1252 ;; Defined at:
  1253 ;;		line 8 in file "timer.c"
  1254 ;; Parameters:    Size  Location     Type
  1255 ;;		None
  1256 ;; Auto vars:     Size  Location     Type
  1257 ;;		None
  1258 ;; Return value:  Size  Location     Type
  1259 ;;                  1    wreg      void 
  1260 ;; Registers used:
  1261 ;;		wreg
  1262 ;; Tracked objects:
  1263 ;;		On entry : 0/0
  1264 ;;		On exit  : 0/0
  1265 ;;		Unchanged: 0/0
  1266 ;; Data sizes:     COMMON   BANK0   BANK1   BANK3   BANK2
  1267 ;;      Params:         0       0       0       0       0
  1268 ;;      Locals:         0       0       0       0       0
  1269 ;;      Temps:          0       0       0       0       0
  1270 ;;      Totals:         0       0       0       0       0
  1271 ;;Total ram usage:        0 bytes
  1272 ;; Hardware stack levels used:    1
  1273 ;; Hardware stack levels required when called:    1
  1274 ;; This function calls:
  1275 ;;		Nothing
  1276 ;; This function is called by:
  1277 ;;		_main
  1278 ;; This function uses a non-reentrant model
  1279 ;;
  1280                           
  1281                           
  1282                           ;psect for function _TIMER_init_timer1
  1283  0010                     _TIMER_init_timer1:
  1284  0010                     l2977:	
  1285                           ;incstack = 0
  1286                           ; Regs used in _TIMER_init_timer1: [wreg]
  1287                           
  1288                           
  1289                           ;timer.c: 10:     TMRA = 65535-5000;
  1290  0010  3077               	movlw	119
  1291  0011  1283               	bcf	3,5	;RP0=0, select bank2
  1292  0012  1703               	bsf	3,6	;RP1=1, select bank2
  1293  0013  0090               	movwf	16	;volatile
  1294  0014                     l2979:
  1295                           
  1296                           ;timer.c: 24:     T1OSCEN=0;
  1297  0014  1283               	bcf	3,5	;RP0=0, select bank0
  1298  0015  1303               	bcf	3,6	;RP1=0, select bank0
  1299  0016  1190               	bcf	16,3	;volatile
  1300  0017                     l2981:
  1301                           
  1302                           ;timer.c: 36:     TMRCS1=0;
  1303  0017  1390               	bcf	16,7	;volatile
  1304  0018                     l2983:
  1305                           
  1306                           ;timer.c: 37:     TMRCS0=0;
  1307  0018  1310               	bcf	16,6	;volatile
  1308  0019                     l2985:
  1309                           
  1310                           ;timer.c: 46:     T1CKPS0=1;
  1311  0019  1610               	bsf	16,4	;volatile
  1312  001A                     l2987:
  1313                           
  1314                           ;timer.c: 47:     T1CKPS1=1;
  1315  001A  1690               	bsf	16,5	;volatile
  1316  001B                     l2989:
  1317                           
  1318                           ;timer.c: 56:     T1SYNC=1;
  1319  001B  1510               	bsf	16,2	;volatile
  1320  001C                     l2991:
  1321                           
  1322                           ;timer.c: 62:     TMR1ON=1;
  1323  001C  1410               	bsf	16,0	;volatile
  1324  001D                     l2993:
  1325                           
  1326                           ;timer.c: 71:     TMR1GE=0;
  1327  001D  1683               	bsf	3,5	;RP0=1, select bank1
  1328  001E  1303               	bcf	3,6	;RP1=0, select bank1
  1329  001F  138F               	bcf	15,7	;volatile
  1330  0020                     l2995:
  1331                           
  1332                           ;timer.c: 75:     TMR1IE=1;
  1333  0020  140C               	bsf	12,0	;volatile
  1334  0021                     l212:
  1335  0021  0008               	return
  1336  0022                     __end_of_TIMER_init_timer1:
  1337                           
  1338                           	psect	text2
  1339  1D96                     __ptext2:	
  1340 ;; *************** function _PORT_Select_Mux0 *****************
  1341 ;; Defined at:
  1342 ;;		line 149 in file "port.c"
  1343 ;; Parameters:    Size  Location     Type
  1344 ;;		None
  1345 ;; Auto vars:     Size  Location     Type
  1346 ;;		None
  1347 ;; Return value:  Size  Location     Type
  1348 ;;                  1    wreg      void 
  1349 ;; Registers used:
  1350 ;;		wreg, status,2, status,0, btemp+1
  1351 ;; Tracked objects:
  1352 ;;		On entry : 0/0
  1353 ;;		On exit  : 0/0
  1354 ;;		Unchanged: 0/0
  1355 ;; Data sizes:     COMMON   BANK0   BANK1   BANK3   BANK2
  1356 ;;      Params:         0       0       0       0       0
  1357 ;;      Locals:         0       0       0       0       0
  1358 ;;      Temps:          0       0       0       0       0
  1359 ;;      Totals:         0       0       0       0       0
  1360 ;;Total ram usage:        0 bytes
  1361 ;; Hardware stack levels used:    1
  1362 ;; Hardware stack levels required when called:    1
  1363 ;; This function calls:
  1364 ;;		Nothing
  1365 ;; This function is called by:
  1366 ;;		_main
  1367 ;; This function uses a non-reentrant model
  1368 ;;
  1369                           
  1370                           
  1371                           ;psect for function _PORT_Select_Mux0
  1372  1D96                     _PORT_Select_Mux0:
  1373  1D96                     l2997:	
  1374                           ;incstack = 0
  1375                           ; Regs used in _PORT_Select_Mux0: [wreg+status,2+status,0+btemp+1]
  1376                           
  1377                           
  1378                           ;port.c: 150:     PORTD |= 0x20;
  1379  1D96  1283               	bcf	3,5	;RP0=0, select bank0
  1380  1D97  1303               	bcf	3,6	;RP1=0, select bank0
  1381  1D98  1688               	bsf	8,5	;volatile
  1382  1D99                     l2999:
  1383                           
  1384                           ;port.c: 151:     PORTD &= 0xEF;
  1385  1D99  30EF               	movlw	239
  1386  1D9A  00FF               	movwf	btemp+1
  1387  1D9B  087F               	movf	btemp+1,w
  1388  1D9C  0588               	andwf	8,f	;volatile
  1389  1D9D                     l172:
  1390  1D9D  0008               	return
  1391  1D9E                     __end_of_PORT_Select_Mux0:
  1392                           
  1393                           	psect	text3
  1394  1EC7                     __ptext3:	
  1395 ;; *************** function _PORT_Init *****************
  1396 ;; Defined at:
  1397 ;;		line 44 in file "port.c"
  1398 ;; Parameters:    Size  Location     Type
  1399 ;;		None
  1400 ;; Auto vars:     Size  Location     Type
  1401 ;;		None
  1402 ;; Return value:  Size  Location     Type
  1403 ;;                  1    wreg      void 
  1404 ;; Registers used:
  1405 ;;		wreg, status,2, status,0, pclath, cstack
  1406 ;; Tracked objects:
  1407 ;;		On entry : 0/0
  1408 ;;		On exit  : 0/0
  1409 ;;		Unchanged: 0/0
  1410 ;; Data sizes:     COMMON   BANK0   BANK1   BANK3   BANK2
  1411 ;;      Params:         0       0       0       0       0
  1412 ;;      Locals:         0       0       0       0       0
  1413 ;;      Temps:          1       0       0       0       0
  1414 ;;      Totals:         1       0       0       0       0
  1415 ;;Total ram usage:        1 bytes
  1416 ;; Hardware stack levels used:    1
  1417 ;; Hardware stack levels required when called:    2
  1418 ;; This function calls:
  1419 ;;		_PORT_Init_Serial
  1420 ;; This function is called by:
  1421 ;;		_main
  1422 ;; This function uses a non-reentrant model
  1423 ;;
  1424                           
  1425                           
  1426                           ;psect for function _PORT_Init
  1427  1EC7                     _PORT_Init:
  1428  1EC7                     l2945:	
  1429                           ;incstack = 0
  1430                           ; Regs used in _PORT_Init: [wreg+status,2+status,0+pclath+cstack]
  1431                           
  1432                           
  1433                           ;port.c: 47:     WPUB=0;
  1434  1EC7  1683               	bsf	3,5	;RP0=1, select bank1
  1435  1EC8  1303               	bcf	3,6	;RP1=0, select bank1
  1436  1EC9  0195               	clrf	21	;volatile
  1437                           
  1438                           ;port.c: 48:     ANSELB = 0;
  1439  1ECA  1683               	bsf	3,5	;RP0=1, select bank3
  1440  1ECB  1703               	bsf	3,6	;RP1=1, select bank3
  1441  1ECC  0186               	clrf	6	;volatile
  1442  1ECD                     l2947:
  1443                           
  1444                           ;port.c: 51:     TRISB = 0xFE;
  1445  1ECD  30FE               	movlw	254
  1446  1ECE  1683               	bsf	3,5	;RP0=1, select bank1
  1447  1ECF  1303               	bcf	3,6	;RP1=0, select bank1
  1448  1ED0  0086               	movwf	6	;volatile
  1449  1ED1                     l2949:
  1450                           
  1451                           ;port.c: 54:     OSCCON = 0x30;
  1452  1ED1  3030               	movlw	48
  1453  1ED2  0090               	movwf	16	;volatile
  1454  1ED3                     l2951:	
  1455                           ;port.c: 55:     for( ; (OSCCON & 0xC) != 0xC ; );
  1456                           
  1457  1ED3  300C               	movlw	12
  1458  1ED4  0510               	andwf	16,w	;volatile
  1459  1ED5  00F3               	movwf	??_PORT_Init
  1460  1ED6  300C               	movlw	12
  1461  1ED7  0673               	xorwf	??_PORT_Init,w
  1462  1ED8  1D03               	btfss	3,2
  1463  1ED9  2EDB               	goto	u4851
  1464  1EDA  2EDC               	goto	u4850
  1465  1EDB                     u4851:
  1466  1EDB  2ED3               	goto	l2951
  1467  1EDC                     u4850:
  1468  1EDC                     l2953:
  1469                           
  1470                           ;port.c: 59:     ANSELD = 0x00;
  1471  1EDC  1683               	bsf	3,5	;RP0=1, select bank3
  1472  1EDD  1703               	bsf	3,6	;RP1=1, select bank3
  1473  1EDE  0188               	clrf	8	;volatile
  1474  1EDF                     l2955:
  1475                           
  1476                           ;port.c: 62:     TRISA = 0xFF;
  1477  1EDF  30FF               	movlw	255
  1478  1EE0  1683               	bsf	3,5	;RP0=1, select bank1
  1479  1EE1  1303               	bcf	3,6	;RP1=0, select bank1
  1480  1EE2  0085               	movwf	5	;volatile
  1481  1EE3                     l2957:
  1482                           
  1483                           ;port.c: 64:     TRISD = 0xC0;
  1484  1EE3  30C0               	movlw	192
  1485  1EE4  0088               	movwf	8	;volatile
  1486  1EE5                     l2959:
  1487                           
  1488                           ;port.c: 66:     PORT_Init_Serial();
  1489  1EE5  160A  158A  2667  160A  158A  	fcall	_PORT_Init_Serial
  1490  1EEA                     l2961:
  1491                           
  1492                           ;port.c: 68:     ANSELA = 0x01;
  1493  1EEA  3001               	movlw	1
  1494  1EEB  1683               	bsf	3,5	;RP0=1, select bank3
  1495  1EEC  1703               	bsf	3,6	;RP1=1, select bank3
  1496  1EED  0085               	movwf	5	;volatile
  1497  1EEE                     l2963:
  1498                           
  1499                           ;port.c: 70:     ADCON0=0x01;
  1500  1EEE  3001               	movlw	1
  1501  1EEF  1283               	bcf	3,5	;RP0=0, select bank0
  1502  1EF0  1303               	bcf	3,6	;RP1=0, select bank0
  1503  1EF1  009F               	movwf	31	;volatile
  1504  1EF2                     l2965:
  1505                           
  1506                           ;port.c: 71:     ADCON1=0x60;
  1507  1EF2  3060               	movlw	96
  1508  1EF3  1683               	bsf	3,5	;RP0=1, select bank1
  1509  1EF4  1303               	bcf	3,6	;RP1=0, select bank1
  1510  1EF5  009F               	movwf	31	;volatile
  1511  1EF6                     l2967:
  1512                           
  1513                           ;port.c: 73:     FVRCON=0;
  1514  1EF6  019D               	clrf	29	;volatile
  1515  1EF7                     l2969:
  1516                           
  1517                           ;port.c: 74:     DACCON0=0x0;
  1518  1EF7  1283               	bcf	3,5	;RP0=0, select bank2
  1519  1EF8  1703               	bsf	3,6	;RP1=1, select bank2
  1520  1EF9  0193               	clrf	19	;volatile
  1521  1EFA                     l2971:
  1522                           
  1523                           ;port.c: 75:     DACCON0=0x60;
  1524  1EFA  3060               	movlw	96
  1525  1EFB  0093               	movwf	19	;volatile
  1526  1EFC                     l2973:
  1527                           
  1528                           ;port.c: 76:     DACCON0|=0x80;
  1529  1EFC  1793               	bsf	19,7	;volatile
  1530  1EFD                     l2975:
  1531                           
  1532                           ;port.c: 78:     DACCON1=0x18;
  1533  1EFD  3018               	movlw	24
  1534  1EFE  0094               	movwf	20	;volatile
  1535  1EFF                     l141:
  1536  1EFF  0008               	return
  1537  1F00                     __end_of_PORT_Init:
  1538                           
  1539                           	psect	text4
  1540  1E67                     __ptext4:	
  1541 ;; *************** function _PORT_Init_Serial *****************
  1542 ;; Defined at:
  1543 ;;		line 15 in file "port.c"
  1544 ;; Parameters:    Size  Location     Type
  1545 ;;		None
  1546 ;; Auto vars:     Size  Location     Type
  1547 ;;		None
  1548 ;; Return value:  Size  Location     Type
  1549 ;;                  1    wreg      void 
  1550 ;; Registers used:
  1551 ;;		wreg, status,2
  1552 ;; Tracked objects:
  1553 ;;		On entry : 0/0
  1554 ;;		On exit  : 0/0
  1555 ;;		Unchanged: 0/0
  1556 ;; Data sizes:     COMMON   BANK0   BANK1   BANK3   BANK2
  1557 ;;      Params:         0       0       0       0       0
  1558 ;;      Locals:         0       0       0       0       0
  1559 ;;      Temps:          0       0       0       0       0
  1560 ;;      Totals:         0       0       0       0       0
  1561 ;;Total ram usage:        0 bytes
  1562 ;; Hardware stack levels used:    1
  1563 ;; Hardware stack levels required when called:    1
  1564 ;; This function calls:
  1565 ;;		Nothing
  1566 ;; This function is called by:
  1567 ;;		_PORT_Init
  1568 ;; This function uses a non-reentrant model
  1569 ;;
  1570                           
  1571                           
  1572                           ;psect for function _PORT_Init_Serial
  1573  1E67                     _PORT_Init_Serial:
  1574  1E67                     l2923:	
  1575                           ;incstack = 0
  1576                           ; Regs used in _PORT_Init_Serial: [wreg+status,2]
  1577                           
  1578                           
  1579                           ;port.c: 18:     TRISC = 0xFC;
  1580  1E67  30FC               	movlw	252
  1581  1E68  1683               	bsf	3,5	;RP0=1, select bank1
  1582  1E69  1303               	bcf	3,6	;RP1=0, select bank1
  1583  1E6A  0087               	movwf	7	;volatile
  1584                           
  1585                           ;port.c: 21:     SPBRG = 25;
  1586  1E6B  3019               	movlw	25
  1587  1E6C  0099               	movwf	25	;volatile
  1588  1E6D                     l2925:
  1589                           
  1590                           ;port.c: 25:     TXSTA = TXSTA & 0xDF;
  1591  1E6D  0818               	movf	24,w	;volatile
  1592  1E6E  39DF               	andlw	223
  1593  1E6F  0098               	movwf	24	;volatile
  1594  1E70                     l2927:
  1595                           
  1596                           ;port.c: 26:     TXSTA = TXSTA | 1;
  1597  1E70  0818               	movf	24,w	;volatile
  1598  1E71  3801               	iorlw	1
  1599  1E72  0098               	movwf	24	;volatile
  1600  1E73                     l2929:
  1601                           
  1602                           ;port.c: 27:     TXSTA = TXSTA & 0xFB;
  1603  1E73  0818               	movf	24,w	;volatile
  1604  1E74  39FB               	andlw	251
  1605  1E75  0098               	movwf	24	;volatile
  1606  1E76                     l2931:
  1607                           
  1608                           ;port.c: 30:     RCSTA = RCSTA | 0x20;
  1609  1E76  1283               	bcf	3,5	;RP0=0, select bank0
  1610  1E77  1303               	bcf	3,6	;RP1=0, select bank0
  1611  1E78  0818               	movf	24,w	;volatile
  1612  1E79  3820               	iorlw	32
  1613  1E7A  0098               	movwf	24	;volatile
  1614  1E7B                     l2933:
  1615                           
  1616                           ;port.c: 31:     RCSTA = RCSTA & 0xDF;
  1617  1E7B  0818               	movf	24,w	;volatile
  1618  1E7C  39DF               	andlw	223
  1619  1E7D  0098               	movwf	24	;volatile
  1620  1E7E                     l2935:
  1621                           
  1622                           ;port.c: 32:     RCSTA = RCSTA | 0x04;
  1623  1E7E  0818               	movf	24,w	;volatile
  1624  1E7F  3804               	iorlw	4
  1625  1E80  0098               	movwf	24	;volatile
  1626  1E81                     l2937:
  1627                           
  1628                           ;port.c: 33:     RCSTA = RCSTA | 0x02;
  1629  1E81  0818               	movf	24,w	;volatile
  1630  1E82  3802               	iorlw	2
  1631  1E83  0098               	movwf	24	;volatile
  1632  1E84                     l2939:
  1633                           
  1634                           ;port.c: 35:     TXSTA = TXSTA & 0xEF;
  1635  1E84  1683               	bsf	3,5	;RP0=1, select bank1
  1636  1E85  1303               	bcf	3,6	;RP1=0, select bank1
  1637  1E86  0818               	movf	24,w	;volatile
  1638  1E87  39EF               	andlw	239
  1639  1E88  0098               	movwf	24	;volatile
  1640  1E89                     l2941:
  1641                           
  1642                           ;port.c: 36:     TXSTA = TXSTA | 0x20;
  1643  1E89  0818               	movf	24,w	;volatile
  1644  1E8A  3820               	iorlw	32
  1645  1E8B  0098               	movwf	24	;volatile
  1646  1E8C                     l2943:
  1647                           
  1648                           ;port.c: 37:     RCSTA = RCSTA | 0x80;
  1649  1E8C  1283               	bcf	3,5	;RP0=0, select bank0
  1650  1E8D  1303               	bcf	3,6	;RP1=0, select bank0
  1651  1E8E  0818               	movf	24,w	;volatile
  1652  1E8F  3880               	iorlw	128
  1653  1E90  0098               	movwf	24	;volatile
  1654  1E91                     l135:
  1655  1E91  0008               	return
  1656  1E92                     __end_of_PORT_Init_Serial:
  1657                           
  1658                           	psect	text5
  1659  1D9E                     __ptext5:	
  1660 ;; *************** function _PORT_Blink_LED *****************
  1661 ;; Defined at:
  1662 ;;		line 84 in file "port.c"
  1663 ;; Parameters:    Size  Location     Type
  1664 ;;		None
  1665 ;; Auto vars:     Size  Location     Type
  1666 ;;		None
  1667 ;; Return value:  Size  Location     Type
  1668 ;;                  1    wreg      void 
  1669 ;; Registers used:
  1670 ;;		status,0
  1671 ;; Tracked objects:
  1672 ;;		On entry : 0/0
  1673 ;;		On exit  : 0/0
  1674 ;;		Unchanged: 0/0
  1675 ;; Data sizes:     COMMON   BANK0   BANK1   BANK3   BANK2
  1676 ;;      Params:         0       0       0       0       0
  1677 ;;      Locals:         0       0       0       0       0
  1678 ;;      Temps:          0       0       0       0       0
  1679 ;;      Totals:         0       0       0       0       0
  1680 ;;Total ram usage:        0 bytes
  1681 ;; Hardware stack levels used:    1
  1682 ;; Hardware stack levels required when called:    1
  1683 ;; This function calls:
  1684 ;;		Nothing
  1685 ;; This function is called by:
  1686 ;;		_main
  1687 ;; This function uses a non-reentrant model
  1688 ;;
  1689                           
  1690                           
  1691                           ;psect for function _PORT_Blink_LED
  1692  1D9E                     _PORT_Blink_LED:
  1693  1D9E                     l3001:	
  1694                           ;incstack = 0
  1695                           ; Regs used in _PORT_Blink_LED: [status,0]
  1696                           
  1697                           
  1698                           ;port.c: 85:     PORTBbits.RB0 = !PORTBbits.RB0;
  1699  1D9E  1003               	clrc
  1700  1D9F  1283               	bcf	3,5	;RP0=0, select bank0
  1701  1DA0  1303               	bcf	3,6	;RP1=0, select bank0
  1702  1DA1  1C06               	btfss	6,0	;volatile
  1703  1DA2  1403               	setc
  1704  1DA3  1803               	btfsc	3,0
  1705  1DA4  2DA6               	goto	u4861
  1706  1DA5  2DAA               	goto	u4860
  1707  1DA6                     u4861:
  1708  1DA6  1283               	bcf	3,5	;RP0=0, select bank0
  1709  1DA7  1303               	bcf	3,6	;RP1=0, select bank0
  1710  1DA8  1406               	bsf	6,0	;volatile
  1711  1DA9  2DAD               	goto	u4874
  1712  1DAA                     u4860:
  1713  1DAA  1283               	bcf	3,5	;RP0=0, select bank0
  1714  1DAB  1303               	bcf	3,6	;RP1=0, select bank0
  1715  1DAC  1006               	bcf	6,0	;volatile
  1716  1DAD                     u4874:
  1717  1DAD                     l144:
  1718  1DAD  0008               	return
  1719  1DAE                     __end_of_PORT_Blink_LED:
  1720                           
  1721                           	psect	text6
  1722  15C9                     __ptext6:	
  1723 ;; *************** function _Get_Newton *****************
  1724 ;; Defined at:
  1725 ;;		line 196 in file "main.c"
  1726 ;; Parameters:    Size  Location     Type
  1727 ;;  INTER0          1    wreg     unsigned char 
  1728 ;;  INTER1          1   39[BANK1 ] unsigned char 
  1729 ;;  sensor_Chann    1   40[BANK1 ] unsigned char 
  1730 ;; Auto vars:     Size  Location     Type
  1731 ;;  INTER0          1   59[BANK1 ] unsigned char 
  1732 ;;  Rc              4   55[BANK1 ] float 
  1733 ;;  F               4   49[BANK1 ] float 
  1734 ;;  Vs              4   45[BANK1 ] float 
  1735 ;;  R               2   53[BANK1 ] unsigned int 
  1736 ;;  sensor_value    1   60[BANK1 ] unsigned char 
  1737 ;; Return value:  Size  Location     Type
  1738 ;;                  4   39[BANK1 ] float 
  1739 ;; Registers used:
  1740 ;;		wreg, fsr0l, fsr0h, status,2, status,0, btemp+1, pclath, cstack
  1741 ;; Tracked objects:
  1742 ;;		On entry : 0/0
  1743 ;;		On exit  : 0/0
  1744 ;;		Unchanged: 0/0
  1745 ;; Data sizes:     COMMON   BANK0   BANK1   BANK3   BANK2
  1746 ;;      Params:         0       0       4       0       0
  1747 ;;      Locals:         0       0      16       0       0
  1748 ;;      Temps:          0       0       2       0       0
  1749 ;;      Totals:         0       0      22       0       0
  1750 ;;Total ram usage:       22 bytes
  1751 ;; Hardware stack levels used:    1
  1752 ;; Hardware stack levels required when called:    4
  1753 ;; This function calls:
  1754 ;;		_ADC_GetValue
  1755 ;;		_Affichage_brut
  1756 ;;		_PORT_Change_Gain
  1757 ;;		_PORT_putString
  1758 ;;		_PORT_putchar
  1759 ;;		_Resistance_Value
  1760 ;;		_Voltage_Value
  1761 ;;		_conversion_newton
  1762 ;;		_puts_float
  1763 ;; This function is called by:
  1764 ;;		_main
  1765 ;; This function uses a non-reentrant model
  1766 ;;
  1767                           
  1768                           
  1769                           ;psect for function _Get_Newton
  1770  15C9                     _Get_Newton:
  1771                           
  1772                           ;incstack = 0
  1773                           ; Regs used in _Get_Newton: [wreg-fsr0h+status,2+status,0+btemp+1+pclath+cstack]
  1774                           ;Get_Newton@INTER0 stored from wreg
  1775  15C9  1683               	bsf	3,5	;RP0=1, select bank1
  1776  15CA  1303               	bcf	3,6	;RP1=0, select bank1
  1777  15CB  00DB               	movwf	Get_Newton@INTER0^(0+128)
  1778  15CC                     l3003:
  1779                           
  1780                           ;main.c: 198:     unsigned char sensor_value;;main.c: 199:     unsigned int R;;main.c: 2
      +                          00:     float Vs,F,Rc;;main.c: 202:     R = PORT_Change_Gain(INTER0,INTER1);
  1781  15CC  0847               	movf	Get_Newton@INTER1^(0+128),w
  1782  15CD  00FF               	movwf	btemp+1
  1783  15CE  087F               	movf	btemp+1,w
  1784  15CF  00F3               	movwf	PORT_Change_Gain@INTER1
  1785  15D0  085B               	movf	Get_Newton@INTER0^(0+128),w
  1786  15D1  160A  118A  20D6  160A  118A  	fcall	_PORT_Change_Gain
  1787  15D6  0874               	movf	?_PORT_Change_Gain+1,w
  1788  15D7  1683               	bsf	3,5	;RP0=1, select bank1
  1789  15D8  1303               	bcf	3,6	;RP1=0, select bank1
  1790  15D9  00D6               	movwf	(Get_Newton@R+1)^(0+128)
  1791  15DA  0873               	movf	?_PORT_Change_Gain,w
  1792  15DB  00D5               	movwf	Get_Newton@R^(0+128)
  1793                           
  1794                           ;main.c: 204:     sensor_value = ADC_GetValue(sensor_Channel);
  1795  15DC  0848               	movf	Get_Newton@sensor_Channel^(0+128),w
  1796  15DD  160A  158A  25C0  160A  118A  	fcall	_ADC_GetValue
  1797  15E2  00FF               	movwf	btemp+1
  1798  15E3  087F               	movf	btemp+1,w
  1799  15E4  1683               	bsf	3,5	;RP0=1, select bank1
  1800  15E5  1303               	bcf	3,6	;RP1=0, select bank1
  1801  15E6  00DC               	movwf	Get_Newton@sensor_value^(0+128)
  1802                           
  1803                           ;main.c: 205:     Vs = Voltage_Value(sensor_value);
  1804  15E7  085C               	movf	Get_Newton@sensor_value^(0+128),w
  1805  15E8  160A  118A  220A  160A  118A  	fcall	_Voltage_Value
  1806  15ED  1683               	bsf	3,5	;RP0=1, select bank1
  1807  15EE  1303               	bcf	3,6	;RP1=0, select bank1
  1808  15EF  0823               	movf	(?_Voltage_Value+3)^(0+128),w
  1809  15F0  00D0               	movwf	(Get_Newton@Vs+3)^(0+128)
  1810  15F1  0822               	movf	(?_Voltage_Value+2)^(0+128),w
  1811  15F2  00CF               	movwf	(Get_Newton@Vs+2)^(0+128)
  1812  15F3  0821               	movf	(?_Voltage_Value+1)^(0+128),w
  1813  15F4  00CE               	movwf	(Get_Newton@Vs+1)^(0+128)
  1814  15F5  0820               	movf	?_Voltage_Value^(0+128),w
  1815  15F6  00CD               	movwf	Get_Newton@Vs^(0+128)
  1816                           
  1817                           ;main.c: 206:     Rc = Resistance_Value(Vs, R);
  1818  15F7  0850               	movf	(Get_Newton@Vs+3)^(0+128),w
  1819  15F8  00A3               	movwf	(Resistance_Value@Voltage+3)^(0+128)
  1820  15F9  084F               	movf	(Get_Newton@Vs+2)^(0+128),w
  1821  15FA  00A2               	movwf	(Resistance_Value@Voltage+2)^(0+128)
  1822  15FB  084E               	movf	(Get_Newton@Vs+1)^(0+128),w
  1823  15FC  00A1               	movwf	(Resistance_Value@Voltage+1)^(0+128)
  1824  15FD  084D               	movf	Get_Newton@Vs^(0+128),w
  1825  15FE  00A0               	movwf	Resistance_Value@Voltage^(0+128)
  1826  15FF  0856               	movf	(Get_Newton@R+1)^(0+128),w
  1827  1600  00A5               	movwf	(Resistance_Value@R+1)^(0+128)
  1828  1601  0855               	movf	Get_Newton@R^(0+128),w
  1829  1602  00A4               	movwf	Resistance_Value@R^(0+128)
  1830  1603  160A  118A  23F8  160A  118A  	fcall	_Resistance_Value
  1831  1608  1683               	bsf	3,5	;RP0=1, select bank1
  1832  1609  1303               	bcf	3,6	;RP1=0, select bank1
  1833  160A  0823               	movf	(?_Resistance_Value+3)^(0+128),w
  1834  160B  00DA               	movwf	(Get_Newton@Rc+3)^(0+128)
  1835  160C  0822               	movf	(?_Resistance_Value+2)^(0+128),w
  1836  160D  00D9               	movwf	(Get_Newton@Rc+2)^(0+128)
  1837  160E  0821               	movf	(?_Resistance_Value+1)^(0+128),w
  1838  160F  00D8               	movwf	(Get_Newton@Rc+1)^(0+128)
  1839  1610  0820               	movf	?_Resistance_Value^(0+128),w
  1840  1611  00D7               	movwf	Get_Newton@Rc^(0+128)
  1841  1612                     l3005:
  1842                           
  1843                           ;main.c: 208:     F = conversion_newton(Rc);
  1844  1612  085A               	movf	(Get_Newton@Rc+3)^(0+128),w
  1845  1613  00A3               	movwf	(conversion_newton@Rc+3)^(0+128)
  1846  1614  0859               	movf	(Get_Newton@Rc+2)^(0+128),w
  1847  1615  00A2               	movwf	(conversion_newton@Rc+2)^(0+128)
  1848  1616  0858               	movf	(Get_Newton@Rc+1)^(0+128),w
  1849  1617  00A1               	movwf	(conversion_newton@Rc+1)^(0+128)
  1850  1618  0857               	movf	Get_Newton@Rc^(0+128),w
  1851  1619  00A0               	movwf	conversion_newton@Rc^(0+128)
  1852  161A  120A  158A  222D  160A  118A  	fcall	_conversion_newton
  1853  161F  1683               	bsf	3,5	;RP0=1, select bank1
  1854  1620  1303               	bcf	3,6	;RP1=0, select bank1
  1855  1621  0823               	movf	(?_conversion_newton+3)^(0+128),w
  1856  1622  00D4               	movwf	(Get_Newton@F+3)^(0+128)
  1857  1623  0822               	movf	(?_conversion_newton+2)^(0+128),w
  1858  1624  00D3               	movwf	(Get_Newton@F+2)^(0+128)
  1859  1625  0821               	movf	(?_conversion_newton+1)^(0+128),w
  1860  1626  00D2               	movwf	(Get_Newton@F+1)^(0+128)
  1861  1627  0820               	movf	?_conversion_newton^(0+128),w
  1862  1628  00D1               	movwf	Get_Newton@F^(0+128)
  1863  1629                     l3007:
  1864                           
  1865                           ;main.c: 211:     PORT_putString("valeur Newton ");
  1866  1629  30A1               	movlw	(low ((STR_1-__stringbase)| (0+32768)))& (0+255)
  1867  162A  160A  158A  25F6  160A  118A  	fcall	_PORT_putString
  1868                           
  1869                           ;main.c: 212:     PORT_putchar(' ');
  1870  162F  3020               	movlw	32
  1871  1630  120A  158A  2000  160A  118A  	fcall	_PORT_putchar
  1872  1635                     l3009:
  1873                           
  1874                           ;main.c: 213:     Affichage_brut(sensor_value);
  1875  1635  1683               	bsf	3,5	;RP0=1, select bank1
  1876  1636  1303               	bcf	3,6	;RP1=0, select bank1
  1877  1637  085C               	movf	Get_Newton@sensor_value^(0+128),w
  1878  1638  00CB               	movwf	??_Get_Newton^(0+128)
  1879  1639  01CC               	clrf	(??_Get_Newton^(0+128)+1)
  1880  163A  084B               	movf	??_Get_Newton^(0+128),w
  1881  163B  1283               	bcf	3,5	;RP0=0, select bank0
  1882  163C  1303               	bcf	3,6	;RP1=0, select bank0
  1883  163D  00A0               	movwf	Affichage_brut@valeur_a_afficher
  1884  163E  1683               	bsf	3,5	;RP0=1, select bank1
  1885  163F  1303               	bcf	3,6	;RP1=0, select bank1
  1886  1640  084C               	movf	(??_Get_Newton+1)^(0+128),w
  1887  1641  1283               	bcf	3,5	;RP0=0, select bank0
  1888  1642  1303               	bcf	3,6	;RP1=0, select bank0
  1889  1643  00A1               	movwf	Affichage_brut@valeur_a_afficher+1
  1890  1644  160A  118A  2279  160A  118A  	fcall	_Affichage_brut
  1891  1649                     l3011:
  1892                           
  1893                           ;main.c: 214:     PORT_putchar(' ');
  1894  1649  3020               	movlw	32
  1895  164A  120A  158A  2000  160A  118A  	fcall	_PORT_putchar
  1896                           
  1897                           ;main.c: 215:     puts_float(Rc);
  1898  164F  1683               	bsf	3,5	;RP0=1, select bank1
  1899  1650  1303               	bcf	3,6	;RP1=0, select bank1
  1900  1651  085A               	movf	(Get_Newton@Rc+3)^(0+128),w
  1901  1652  00A3               	movwf	(puts_float@Valeur+3)^(0+128)
  1902  1653  0859               	movf	(Get_Newton@Rc+2)^(0+128),w
  1903  1654  00A2               	movwf	(puts_float@Valeur+2)^(0+128)
  1904  1655  0858               	movf	(Get_Newton@Rc+1)^(0+128),w
  1905  1656  00A1               	movwf	(puts_float@Valeur+1)^(0+128)
  1906  1657  0857               	movf	Get_Newton@Rc^(0+128),w
  1907  1658  00A0               	movwf	puts_float@Valeur^(0+128)
  1908  1659  160A  118A  26A3  160A  118A  	fcall	_puts_float
  1909  165E                     l3013:
  1910                           
  1911                           ;main.c: 216:     PORT_putchar(' ');
  1912  165E  3020               	movlw	32
  1913  165F  120A  158A  2000  160A  118A  	fcall	_PORT_putchar
  1914  1664                     l3015:
  1915                           
  1916                           ;main.c: 217:     Affichage_brut(INTER0);
  1917  1664  1683               	bsf	3,5	;RP0=1, select bank1
  1918  1665  1303               	bcf	3,6	;RP1=0, select bank1
  1919  1666  085B               	movf	Get_Newton@INTER0^(0+128),w
  1920  1667  00CB               	movwf	??_Get_Newton^(0+128)
  1921  1668  01CC               	clrf	(??_Get_Newton^(0+128)+1)
  1922  1669  084B               	movf	??_Get_Newton^(0+128),w
  1923  166A  1283               	bcf	3,5	;RP0=0, select bank0
  1924  166B  1303               	bcf	3,6	;RP1=0, select bank0
  1925  166C  00A0               	movwf	Affichage_brut@valeur_a_afficher
  1926  166D  1683               	bsf	3,5	;RP0=1, select bank1
  1927  166E  1303               	bcf	3,6	;RP1=0, select bank1
  1928  166F  084C               	movf	(??_Get_Newton+1)^(0+128),w
  1929  1670  1283               	bcf	3,5	;RP0=0, select bank0
  1930  1671  1303               	bcf	3,6	;RP1=0, select bank0
  1931  1672  00A1               	movwf	Affichage_brut@valeur_a_afficher+1
  1932  1673  160A  118A  2279  160A  118A  	fcall	_Affichage_brut
  1933                           
  1934                           ;main.c: 218:     PORT_putchar(' ');
  1935  1678  3020               	movlw	32
  1936  1679  120A  158A  2000  160A  118A  	fcall	_PORT_putchar
  1937  167E                     l3017:
  1938                           
  1939                           ;main.c: 219:     Affichage_brut(INTER1);
  1940  167E  1683               	bsf	3,5	;RP0=1, select bank1
  1941  167F  1303               	bcf	3,6	;RP1=0, select bank1
  1942  1680  0847               	movf	Get_Newton@INTER1^(0+128),w
  1943  1681  00CB               	movwf	??_Get_Newton^(0+128)
  1944  1682  01CC               	clrf	(??_Get_Newton^(0+128)+1)
  1945  1683  084B               	movf	??_Get_Newton^(0+128),w
  1946  1684  1283               	bcf	3,5	;RP0=0, select bank0
  1947  1685  1303               	bcf	3,6	;RP1=0, select bank0
  1948  1686  00A0               	movwf	Affichage_brut@valeur_a_afficher
  1949  1687  1683               	bsf	3,5	;RP0=1, select bank1
  1950  1688  1303               	bcf	3,6	;RP1=0, select bank1
  1951  1689  084C               	movf	(??_Get_Newton+1)^(0+128),w
  1952  168A  1283               	bcf	3,5	;RP0=0, select bank0
  1953  168B  1303               	bcf	3,6	;RP1=0, select bank0
  1954  168C  00A1               	movwf	Affichage_brut@valeur_a_afficher+1
  1955  168D  160A  118A  2279  160A  118A  	fcall	_Affichage_brut
  1956  1692                     l3019:
  1957                           
  1958                           ;main.c: 220:     PORT_putString("\n");
  1959  1692  30B0               	movlw	(low ((STR_2-__stringbase)| (0+32768)))& (0+255)
  1960  1693  160A  158A  25F6  160A  118A  	fcall	_PORT_putString
  1961  1698                     l3021:
  1962                           
  1963                           ;main.c: 223:     return F;
  1964  1698  1683               	bsf	3,5	;RP0=1, select bank1
  1965  1699  1303               	bcf	3,6	;RP1=0, select bank1
  1966  169A  0854               	movf	(Get_Newton@F+3)^(0+128),w
  1967  169B  00CA               	movwf	(?_Get_Newton+3)^(0+128)
  1968  169C  0853               	movf	(Get_Newton@F+2)^(0+128),w
  1969  169D  00C9               	movwf	(?_Get_Newton+2)^(0+128)
  1970  169E  0852               	movf	(Get_Newton@F+1)^(0+128),w
  1971  169F  00C8               	movwf	(?_Get_Newton+1)^(0+128)
  1972  16A0  0851               	movf	Get_Newton@F^(0+128),w
  1973  16A1  00C7               	movwf	?_Get_Newton^(0+128)
  1974  16A2                     l75:
  1975  16A2  0008               	return
  1976  16A3                     __end_of_Get_Newton:
  1977                           
  1978                           	psect	text7
  1979  16A3                     __ptext7:	
  1980 ;; *************** function _puts_float *****************
  1981 ;; Defined at:
  1982 ;;		line 73 in file "main.c"
  1983 ;; Parameters:    Size  Location     Type
  1984 ;;  Valeur          4    0[BANK1 ] float 
  1985 ;; Auto vars:     Size  Location     Type
  1986 ;;  valueMetrics    6    6[BANK1 ] struct .
  1987 ;;  affiche         2    4[BANK1 ] unsigned int 
  1988 ;; Return value:  Size  Location     Type
  1989 ;;                  1    wreg      void 
  1990 ;; Registers used:
  1991 ;;		wreg, status,2, status,0, btemp+1, pclath, cstack
  1992 ;; Tracked objects:
  1993 ;;		On entry : 0/0
  1994 ;;		On exit  : 0/0
  1995 ;;		Unchanged: 0/0
  1996 ;; Data sizes:     COMMON   BANK0   BANK1   BANK3   BANK2
  1997 ;;      Params:         0       0       4       0       0
  1998 ;;      Locals:         0       0       8       0       0
  1999 ;;      Temps:          0       0       0       0       0
  2000 ;;      Totals:         0       0      12       0       0
  2001 ;;Total ram usage:       12 bytes
  2002 ;; Hardware stack levels used:    1
  2003 ;; Hardware stack levels required when called:    3
  2004 ;; This function calls:
  2005 ;;		_PORT_putchar
  2006 ;;		___aldiv
  2007 ;;		___almod
  2008 ;;		___flmul
  2009 ;;		___fltol
  2010 ;;		___lwdiv
  2011 ;;		___lwmod
  2012 ;; This function is called by:
  2013 ;;		_Get_Newton
  2014 ;; This function uses a non-reentrant model
  2015 ;;
  2016                           
  2017                           
  2018                           ;psect for function _puts_float
  2019  16A3                     _puts_float:
  2020  16A3                     l2763:	
  2021                           ;incstack = 0
  2022                           ; Regs used in _puts_float: [wreg+status,2+status,0+btemp+1+pclath+cstack]
  2023                           
  2024                           
  2025                           ;main.c: 75:     unsigned int affiche;;main.c: 76:     ValueMetrics valueMetrics;;main.c
      +                          : 78:     Valeur = Valeur * 1000;
  2026  16A3  3044               	movlw	68
  2027  16A4  1283               	bcf	3,5	;RP0=0, select bank0
  2028  16A5  1303               	bcf	3,6	;RP1=0, select bank0
  2029  16A6  00D9               	movwf	___flmul@b+3
  2030  16A7  307A               	movlw	122
  2031  16A8  00D8               	movwf	___flmul@b+2
  2032  16A9  3000               	movlw	0
  2033  16AA  00D7               	movwf	___flmul@b+1
  2034  16AB  3000               	movlw	0
  2035  16AC  00D6               	movwf	___flmul@b
  2036  16AD  1683               	bsf	3,5	;RP0=1, select bank1
  2037  16AE  1303               	bcf	3,6	;RP1=0, select bank1
  2038  16AF  0823               	movf	(puts_float@Valeur+3)^(0+128),w
  2039  16B0  1283               	bcf	3,5	;RP0=0, select bank0
  2040  16B1  1303               	bcf	3,6	;RP1=0, select bank0
  2041  16B2  00DD               	movwf	___flmul@a+3
  2042  16B3  1683               	bsf	3,5	;RP0=1, select bank1
  2043  16B4  1303               	bcf	3,6	;RP1=0, select bank1
  2044  16B5  0822               	movf	(puts_float@Valeur+2)^(0+128),w
  2045  16B6  1283               	bcf	3,5	;RP0=0, select bank0
  2046  16B7  1303               	bcf	3,6	;RP1=0, select bank0
  2047  16B8  00DC               	movwf	___flmul@a+2
  2048  16B9  1683               	bsf	3,5	;RP0=1, select bank1
  2049  16BA  1303               	bcf	3,6	;RP1=0, select bank1
  2050  16BB  0821               	movf	(puts_float@Valeur+1)^(0+128),w
  2051  16BC  1283               	bcf	3,5	;RP0=0, select bank0
  2052  16BD  1303               	bcf	3,6	;RP1=0, select bank0
  2053  16BE  00DB               	movwf	___flmul@a+1
  2054  16BF  1683               	bsf	3,5	;RP0=1, select bank1
  2055  16C0  1303               	bcf	3,6	;RP1=0, select bank1
  2056  16C1  0820               	movf	puts_float@Valeur^(0+128),w
  2057  16C2  1283               	bcf	3,5	;RP0=0, select bank0
  2058  16C3  1303               	bcf	3,6	;RP1=0, select bank0
  2059  16C4  00DA               	movwf	___flmul@a
  2060  16C5  120A  158A  249F  160A  118A  	fcall	___flmul
  2061  16CA  1283               	bcf	3,5	;RP0=0, select bank0
  2062  16CB  1303               	bcf	3,6	;RP1=0, select bank0
  2063  16CC  0859               	movf	?___flmul+3,w
  2064  16CD  1683               	bsf	3,5	;RP0=1, select bank1
  2065  16CE  1303               	bcf	3,6	;RP1=0, select bank1
  2066  16CF  00A3               	movwf	(puts_float@Valeur+3)^(0+128)
  2067  16D0  1283               	bcf	3,5	;RP0=0, select bank0
  2068  16D1  1303               	bcf	3,6	;RP1=0, select bank0
  2069  16D2  0858               	movf	?___flmul+2,w
  2070  16D3  1683               	bsf	3,5	;RP0=1, select bank1
  2071  16D4  1303               	bcf	3,6	;RP1=0, select bank1
  2072  16D5  00A2               	movwf	(puts_float@Valeur+2)^(0+128)
  2073  16D6  1283               	bcf	3,5	;RP0=0, select bank0
  2074  16D7  1303               	bcf	3,6	;RP1=0, select bank0
  2075  16D8  0857               	movf	?___flmul+1,w
  2076  16D9  1683               	bsf	3,5	;RP0=1, select bank1
  2077  16DA  1303               	bcf	3,6	;RP1=0, select bank1
  2078  16DB  00A1               	movwf	(puts_float@Valeur+1)^(0+128)
  2079  16DC  1283               	bcf	3,5	;RP0=0, select bank0
  2080  16DD  1303               	bcf	3,6	;RP1=0, select bank0
  2081  16DE  0856               	movf	?___flmul,w
  2082  16DF  1683               	bsf	3,5	;RP0=1, select bank1
  2083  16E0  1303               	bcf	3,6	;RP1=0, select bank1
  2084  16E1  00A0               	movwf	puts_float@Valeur^(0+128)
  2085                           
  2086                           ;main.c: 79:     affiche = (int) Valeur ;
  2087  16E2  0823               	movf	(puts_float@Valeur+3)^(0+128),w
  2088  16E3  00F6               	movwf	___fltol@f1+3
  2089  16E4  0822               	movf	(puts_float@Valeur+2)^(0+128),w
  2090  16E5  00F5               	movwf	___fltol@f1+2
  2091  16E6  0821               	movf	(puts_float@Valeur+1)^(0+128),w
  2092  16E7  00F4               	movwf	___fltol@f1+1
  2093  16E8  0820               	movf	puts_float@Valeur^(0+128),w
  2094  16E9  00F3               	movwf	___fltol@f1
  2095  16EA  160A  118A  22F5  160A  118A  	fcall	___fltol
  2096  16EF  0874               	movf	?___fltol+1,w
  2097  16F0  1683               	bsf	3,5	;RP0=1, select bank1
  2098  16F1  1303               	bcf	3,6	;RP1=0, select bank1
  2099  16F2  00A5               	movwf	(puts_float@affiche+1)^(0+128)
  2100  16F3  0873               	movf	?___fltol,w
  2101  16F4  00A4               	movwf	puts_float@affiche^(0+128)
  2102                           
  2103                           ;main.c: 81:     valueMetrics.mil = ((char)(affiche/100000))+0x30;
  2104  16F5  3000               	movlw	0
  2105  16F6  00F6               	movwf	___aldiv@divisor+3
  2106  16F7  3001               	movlw	1
  2107  16F8  00F5               	movwf	___aldiv@divisor+2
  2108  16F9  3086               	movlw	134
  2109  16FA  00F4               	movwf	___aldiv@divisor+1
  2110  16FB  30A0               	movlw	160
  2111  16FC  00F3               	movwf	___aldiv@divisor
  2112  16FD  0824               	movf	puts_float@affiche^(0+128),w
  2113  16FE  00F7               	movwf	___aldiv@dividend
  2114  16FF  0825               	movf	(puts_float@affiche+1)^(0+128),w
  2115  1700  00F8               	movwf	___aldiv@dividend+1
  2116  1701  01F9               	clrf	___aldiv@dividend+2
  2117  1702  01FA               	clrf	___aldiv@dividend+3
  2118  1703  160A  118A  2488  160A  118A  	fcall	___aldiv
  2119  1708  0873               	movf	?___aldiv,w
  2120  1709  3E30               	addlw	48
  2121  170A  00FF               	movwf	btemp+1
  2122  170B  087F               	movf	btemp+1,w
  2123  170C  1683               	bsf	3,5	;RP0=1, select bank1
  2124  170D  1303               	bcf	3,6	;RP1=0, select bank1
  2125  170E  00A6               	movwf	puts_float@valueMetrics^(0+128)
  2126  170F                     l2765:
  2127                           
  2128                           ;main.c: 82:     PORT_putchar(valueMetrics.mil);
  2129  170F  0826               	movf	puts_float@valueMetrics^(0+128),w
  2130  1710  120A  158A  2000  160A  118A  	fcall	_PORT_putchar
  2131  1715                     l2767:
  2132                           
  2133                           ;main.c: 83:     affiche = affiche % 100000 ;
  2134  1715  3000               	movlw	0
  2135  1716  00F6               	movwf	___almod@divisor+3
  2136  1717  3001               	movlw	1
  2137  1718  00F5               	movwf	___almod@divisor+2
  2138  1719  3086               	movlw	134
  2139  171A  00F4               	movwf	___almod@divisor+1
  2140  171B  30A0               	movlw	160
  2141  171C  00F3               	movwf	___almod@divisor
  2142  171D  1683               	bsf	3,5	;RP0=1, select bank1
  2143  171E  1303               	bcf	3,6	;RP1=0, select bank1
  2144  171F  0824               	movf	puts_float@affiche^(0+128),w
  2145  1720  00F7               	movwf	___almod@dividend
  2146  1721  0825               	movf	(puts_float@affiche+1)^(0+128),w
  2147  1722  00F8               	movwf	___almod@dividend+1
  2148  1723  01F9               	clrf	___almod@dividend+2
  2149  1724  01FA               	clrf	___almod@dividend+3
  2150  1725  160A  118A  2371  160A  118A  	fcall	___almod
  2151  172A  0874               	movf	?___almod+1,w
  2152  172B  1683               	bsf	3,5	;RP0=1, select bank1
  2153  172C  1303               	bcf	3,6	;RP1=0, select bank1
  2154  172D  00A5               	movwf	(puts_float@affiche+1)^(0+128)
  2155  172E  0873               	movf	?___almod,w
  2156  172F  00A4               	movwf	puts_float@affiche^(0+128)
  2157  1730                     l2769:
  2158                           
  2159                           ;main.c: 84:     valueMetrics.cent = ((char)(affiche/10000))+0x30;
  2160  1730  3010               	movlw	16
  2161  1731  00F3               	movwf	___lwdiv@divisor
  2162  1732  3027               	movlw	39
  2163  1733  00F4               	movwf	___lwdiv@divisor+1
  2164  1734  0825               	movf	(puts_float@affiche+1)^(0+128),w
  2165  1735  00F6               	movwf	___lwdiv@dividend+1
  2166  1736  0824               	movf	puts_float@affiche^(0+128),w
  2167  1737  00F5               	movwf	___lwdiv@dividend
  2168  1738  120A  158A  200C  160A  118A  	fcall	___lwdiv
  2169  173D  0873               	movf	?___lwdiv,w
  2170  173E  3E30               	addlw	48
  2171  173F  00FF               	movwf	btemp+1
  2172  1740  087F               	movf	btemp+1,w
  2173  1741  1683               	bsf	3,5	;RP0=1, select bank1
  2174  1742  1303               	bcf	3,6	;RP1=0, select bank1
  2175  1743  00A7               	movwf	(puts_float@valueMetrics^(0+128)+1)
  2176  1744                     l2771:
  2177                           
  2178                           ;main.c: 85:     PORT_putchar(valueMetrics.cent);
  2179  1744  0827               	movf	(puts_float@valueMetrics^(0+128)+1),w
  2180  1745  120A  158A  2000  160A  118A  	fcall	_PORT_putchar
  2181                           
  2182                           ;main.c: 86:     affiche = affiche % 10000 ;
  2183  174A  3010               	movlw	16
  2184  174B  00F3               	movwf	___lwmod@divisor
  2185  174C  3027               	movlw	39
  2186  174D  00F4               	movwf	___lwmod@divisor+1
  2187  174E  1683               	bsf	3,5	;RP0=1, select bank1
  2188  174F  1303               	bcf	3,6	;RP1=0, select bank1
  2189  1750  0825               	movf	(puts_float@affiche+1)^(0+128),w
  2190  1751  00F6               	movwf	___lwmod@dividend+1
  2191  1752  0824               	movf	puts_float@affiche^(0+128),w
  2192  1753  00F5               	movwf	___lwmod@dividend
  2193  1754  160A  118A  2110  160A  118A  	fcall	___lwmod
  2194  1759  0874               	movf	?___lwmod+1,w
  2195  175A  1683               	bsf	3,5	;RP0=1, select bank1
  2196  175B  1303               	bcf	3,6	;RP1=0, select bank1
  2197  175C  00A5               	movwf	(puts_float@affiche+1)^(0+128)
  2198  175D  0873               	movf	?___lwmod,w
  2199  175E  00A4               	movwf	puts_float@affiche^(0+128)
  2200                           
  2201                           ;main.c: 87:     valueMetrics.diz = ((char)(affiche/1000))+0x30;
  2202  175F  30E8               	movlw	232
  2203  1760  00F3               	movwf	___lwdiv@divisor
  2204  1761  3003               	movlw	3
  2205  1762  00F4               	movwf	___lwdiv@divisor+1
  2206  1763  0825               	movf	(puts_float@affiche+1)^(0+128),w
  2207  1764  00F6               	movwf	___lwdiv@dividend+1
  2208  1765  0824               	movf	puts_float@affiche^(0+128),w
  2209  1766  00F5               	movwf	___lwdiv@dividend
  2210  1767  120A  158A  200C  160A  118A  	fcall	___lwdiv
  2211  176C  0873               	movf	?___lwdiv,w
  2212  176D  3E30               	addlw	48
  2213  176E  00FF               	movwf	btemp+1
  2214  176F  087F               	movf	btemp+1,w
  2215  1770  1683               	bsf	3,5	;RP0=1, select bank1
  2216  1771  1303               	bcf	3,6	;RP1=0, select bank1
  2217  1772  00A8               	movwf	(puts_float@valueMetrics^(0+128)+2)
  2218  1773                     l2773:
  2219                           
  2220                           ;main.c: 88:     PORT_putchar(valueMetrics.diz);
  2221  1773  0828               	movf	(puts_float@valueMetrics^(0+128)+2),w
  2222  1774  120A  158A  2000  160A  118A  	fcall	_PORT_putchar
  2223  1779                     l2775:
  2224                           
  2225                           ;main.c: 89:     affiche = affiche % 1000 ;
  2226  1779  30E8               	movlw	232
  2227  177A  00F3               	movwf	___lwmod@divisor
  2228  177B  3003               	movlw	3
  2229  177C  00F4               	movwf	___lwmod@divisor+1
  2230  177D  1683               	bsf	3,5	;RP0=1, select bank1
  2231  177E  1303               	bcf	3,6	;RP1=0, select bank1
  2232  177F  0825               	movf	(puts_float@affiche+1)^(0+128),w
  2233  1780  00F6               	movwf	___lwmod@dividend+1
  2234  1781  0824               	movf	puts_float@affiche^(0+128),w
  2235  1782  00F5               	movwf	___lwmod@dividend
  2236  1783  160A  118A  2110  160A  118A  	fcall	___lwmod
  2237  1788  0874               	movf	?___lwmod+1,w
  2238  1789  1683               	bsf	3,5	;RP0=1, select bank1
  2239  178A  1303               	bcf	3,6	;RP1=0, select bank1
  2240  178B  00A5               	movwf	(puts_float@affiche+1)^(0+128)
  2241  178C  0873               	movf	?___lwmod,w
  2242  178D  00A4               	movwf	puts_float@affiche^(0+128)
  2243  178E                     l2777:
  2244                           
  2245                           ;main.c: 90:     valueMetrics.unit = ((char)(affiche/100))+0x30;
  2246  178E  3064               	movlw	100
  2247  178F  00F3               	movwf	___lwdiv@divisor
  2248  1790  3000               	movlw	0
  2249  1791  00F4               	movwf	___lwdiv@divisor+1
  2250  1792  0825               	movf	(puts_float@affiche+1)^(0+128),w
  2251  1793  00F6               	movwf	___lwdiv@dividend+1
  2252  1794  0824               	movf	puts_float@affiche^(0+128),w
  2253  1795  00F5               	movwf	___lwdiv@dividend
  2254  1796  120A  158A  200C  160A  118A  	fcall	___lwdiv
  2255  179B  0873               	movf	?___lwdiv,w
  2256  179C  3E30               	addlw	48
  2257  179D  00FF               	movwf	btemp+1
  2258  179E  087F               	movf	btemp+1,w
  2259  179F  1683               	bsf	3,5	;RP0=1, select bank1
  2260  17A0  1303               	bcf	3,6	;RP1=0, select bank1
  2261  17A1  00A9               	movwf	(puts_float@valueMetrics^(0+128)+3)
  2262  17A2                     l2779:
  2263                           
  2264                           ;main.c: 91:     PORT_putchar('.');
  2265  17A2  302E               	movlw	46
  2266  17A3  120A  158A  2000  160A  118A  	fcall	_PORT_putchar
  2267  17A8                     l2781:
  2268                           
  2269                           ;main.c: 92:     PORT_putchar(valueMetrics.unit);
  2270  17A8  1683               	bsf	3,5	;RP0=1, select bank1
  2271  17A9  1303               	bcf	3,6	;RP1=0, select bank1
  2272  17AA  0829               	movf	(puts_float@valueMetrics^(0+128)+3),w
  2273  17AB  120A  158A  2000  160A  118A  	fcall	_PORT_putchar
  2274  17B0                     l2783:
  2275                           
  2276                           ;main.c: 94:     affiche = affiche % 100 ;
  2277  17B0  3064               	movlw	100
  2278  17B1  00F3               	movwf	___lwmod@divisor
  2279  17B2  3000               	movlw	0
  2280  17B3  00F4               	movwf	___lwmod@divisor+1
  2281  17B4  1683               	bsf	3,5	;RP0=1, select bank1
  2282  17B5  1303               	bcf	3,6	;RP1=0, select bank1
  2283  17B6  0825               	movf	(puts_float@affiche+1)^(0+128),w
  2284  17B7  00F6               	movwf	___lwmod@dividend+1
  2285  17B8  0824               	movf	puts_float@affiche^(0+128),w
  2286  17B9  00F5               	movwf	___lwmod@dividend
  2287  17BA  160A  118A  2110  160A  118A  	fcall	___lwmod
  2288  17BF  0874               	movf	?___lwmod+1,w
  2289  17C0  1683               	bsf	3,5	;RP0=1, select bank1
  2290  17C1  1303               	bcf	3,6	;RP1=0, select bank1
  2291  17C2  00A5               	movwf	(puts_float@affiche+1)^(0+128)
  2292  17C3  0873               	movf	?___lwmod,w
  2293  17C4  00A4               	movwf	puts_float@affiche^(0+128)
  2294  17C5                     l2785:
  2295                           
  2296                           ;main.c: 95:     valueMetrics.dizi = ((char)(affiche/10))+0x30;
  2297  17C5  300A               	movlw	10
  2298  17C6  00F3               	movwf	___lwdiv@divisor
  2299  17C7  3000               	movlw	0
  2300  17C8  00F4               	movwf	___lwdiv@divisor+1
  2301  17C9  0825               	movf	(puts_float@affiche+1)^(0+128),w
  2302  17CA  00F6               	movwf	___lwdiv@dividend+1
  2303  17CB  0824               	movf	puts_float@affiche^(0+128),w
  2304  17CC  00F5               	movwf	___lwdiv@dividend
  2305  17CD  120A  158A  200C  160A  118A  	fcall	___lwdiv
  2306  17D2  0873               	movf	?___lwdiv,w
  2307  17D3  3E30               	addlw	48
  2308  17D4  00FF               	movwf	btemp+1
  2309  17D5  087F               	movf	btemp+1,w
  2310  17D6  1683               	bsf	3,5	;RP0=1, select bank1
  2311  17D7  1303               	bcf	3,6	;RP1=0, select bank1
  2312  17D8  00AA               	movwf	(puts_float@valueMetrics^(0+128)+4)
  2313  17D9                     l2787:
  2314                           
  2315                           ;main.c: 96:     PORT_putchar(valueMetrics.dizi);
  2316  17D9  082A               	movf	(puts_float@valueMetrics^(0+128)+4),w
  2317  17DA  120A  158A  2000  160A  118A  	fcall	_PORT_putchar
  2318                           
  2319                           ;main.c: 97:     affiche = affiche % 10 ;
  2320  17DF  300A               	movlw	10
  2321  17E0  00F3               	movwf	___lwmod@divisor
  2322  17E1  3000               	movlw	0
  2323  17E2  00F4               	movwf	___lwmod@divisor+1
  2324  17E3  1683               	bsf	3,5	;RP0=1, select bank1
  2325  17E4  1303               	bcf	3,6	;RP1=0, select bank1
  2326  17E5  0825               	movf	(puts_float@affiche+1)^(0+128),w
  2327  17E6  00F6               	movwf	___lwmod@dividend+1
  2328  17E7  0824               	movf	puts_float@affiche^(0+128),w
  2329  17E8  00F5               	movwf	___lwmod@dividend
  2330  17E9  160A  118A  2110  160A  118A  	fcall	___lwmod
  2331  17EE  0874               	movf	?___lwmod+1,w
  2332  17EF  1683               	bsf	3,5	;RP0=1, select bank1
  2333  17F0  1303               	bcf	3,6	;RP1=0, select bank1
  2334  17F1  00A5               	movwf	(puts_float@affiche+1)^(0+128)
  2335  17F2  0873               	movf	?___lwmod,w
  2336  17F3  00A4               	movwf	puts_float@affiche^(0+128)
  2337  17F4                     l2789:
  2338                           
  2339                           ;main.c: 98:     valueMetrics.centi = ((char)(affiche))+0x30;
  2340  17F4  0824               	movf	puts_float@affiche^(0+128),w
  2341  17F5  3E30               	addlw	48
  2342  17F6  00FF               	movwf	btemp+1
  2343  17F7  087F               	movf	btemp+1,w
  2344  17F8  00AB               	movwf	(puts_float@valueMetrics^(0+128)+5)
  2345  17F9                     l2791:
  2346                           
  2347                           ;main.c: 99:     PORT_putchar(valueMetrics.centi);
  2348  17F9  082B               	movf	(puts_float@valueMetrics^(0+128)+5),w
  2349  17FA  120A  158A  2000  160A  118A  	fcall	_PORT_putchar
  2350  17FF                     l37:
  2351  17FF  0008               	return
  2352  1800                     __end_of_puts_float:
  2353                           
  2354                           	psect	text8
  2355  1110                     __ptext8:	
  2356 ;; *************** function ___lwmod *****************
  2357 ;; Defined at:
  2358 ;;		line 5 in file "C:\Program Files\Microchip\xc8\v2.20\pic\sources\c90\common\lwmod.c"
  2359 ;; Parameters:    Size  Location     Type
  2360 ;;  divisor         2    2[COMMON] unsigned int 
  2361 ;;  dividend        2    4[COMMON] unsigned int 
  2362 ;; Auto vars:     Size  Location     Type
  2363 ;;  counter         1    6[COMMON] unsigned char 
  2364 ;; Return value:  Size  Location     Type
  2365 ;;                  2    2[COMMON] unsigned int 
  2366 ;; Registers used:
  2367 ;;		wreg, status,2, status,0, btemp+1
  2368 ;; Tracked objects:
  2369 ;;		On entry : 0/0
  2370 ;;		On exit  : 0/0
  2371 ;;		Unchanged: 0/0
  2372 ;; Data sizes:     COMMON   BANK0   BANK1   BANK3   BANK2
  2373 ;;      Params:         4       0       0       0       0
  2374 ;;      Locals:         1       0       0       0       0
  2375 ;;      Temps:          0       0       0       0       0
  2376 ;;      Totals:         5       0       0       0       0
  2377 ;;Total ram usage:        5 bytes
  2378 ;; Hardware stack levels used:    1
  2379 ;; Hardware stack levels required when called:    1
  2380 ;; This function calls:
  2381 ;;		Nothing
  2382 ;; This function is called by:
  2383 ;;		_puts_float
  2384 ;; This function uses a non-reentrant model
  2385 ;;
  2386                           
  2387                           
  2388                           ;psect for function ___lwmod
  2389  1110                     ___lwmod:
  2390  1110                     l2383:	
  2391                           ;incstack = 0
  2392                           ; Regs used in ___lwmod: [wreg+status,2+status,0+btemp+1]
  2393                           
  2394  1110  0873               	movf	___lwmod@divisor,w
  2395  1111  0474               	iorwf	___lwmod@divisor+1,w
  2396  1112  1903               	btfsc	3,2
  2397  1113  2915               	goto	u3641
  2398  1114  2916               	goto	u3640
  2399  1115                     u3641:
  2400  1115  2945               	goto	l2401
  2401  1116                     u3640:
  2402  1116                     l2385:
  2403  1116  01F7               	clrf	___lwmod@counter
  2404  1117  0AF7               	incf	___lwmod@counter,f
  2405  1118  2924               	goto	l2391
  2406  1119                     l2387:
  2407  1119  3001               	movlw	1
  2408  111A                     u3655:
  2409  111A  1003               	clrc
  2410  111B  0DF3               	rlf	___lwmod@divisor,f
  2411  111C  0DF4               	rlf	___lwmod@divisor+1,f
  2412  111D  3EFF               	addlw	-1
  2413  111E  1D03               	skipz
  2414  111F  291A               	goto	u3655
  2415  1120                     l2389:
  2416  1120  3001               	movlw	1
  2417  1121  00FF               	movwf	btemp+1
  2418  1122  087F               	movf	btemp+1,w
  2419  1123  07F7               	addwf	___lwmod@counter,f
  2420  1124                     l2391:
  2421  1124  1FF4               	btfss	___lwmod@divisor+1,7
  2422  1125  2927               	goto	u3661
  2423  1126  2928               	goto	u3660
  2424  1127                     u3661:
  2425  1127  2919               	goto	l2387
  2426  1128                     u3660:
  2427  1128                     l2393:
  2428  1128  0874               	movf	___lwmod@divisor+1,w
  2429  1129  0276               	subwf	___lwmod@dividend+1,w
  2430  112A  1D03               	skipz
  2431  112B  292E               	goto	u3675
  2432  112C  0873               	movf	___lwmod@divisor,w
  2433  112D  0275               	subwf	___lwmod@dividend,w
  2434  112E                     u3675:
  2435  112E  1C03               	skipc
  2436  112F  2931               	goto	u3671
  2437  1130  2932               	goto	u3670
  2438  1131                     u3671:
  2439  1131  2938               	goto	l2397
  2440  1132                     u3670:
  2441  1132                     l2395:
  2442  1132  0873               	movf	___lwmod@divisor,w
  2443  1133  02F5               	subwf	___lwmod@dividend,f
  2444  1134  0874               	movf	___lwmod@divisor+1,w
  2445  1135  1C03               	skipc
  2446  1136  03F6               	decf	___lwmod@dividend+1,f
  2447  1137  02F6               	subwf	___lwmod@dividend+1,f
  2448  1138                     l2397:
  2449  1138  3001               	movlw	1
  2450  1139                     u3685:
  2451  1139  1003               	clrc
  2452  113A  0CF4               	rrf	___lwmod@divisor+1,f
  2453  113B  0CF3               	rrf	___lwmod@divisor,f
  2454  113C  3EFF               	addlw	-1
  2455  113D  1D03               	skipz
  2456  113E  2939               	goto	u3685
  2457  113F                     l2399:
  2458  113F  3001               	movlw	1
  2459  1140  02F7               	subwf	___lwmod@counter,f
  2460  1141  1D03               	btfss	3,2
  2461  1142  2944               	goto	u3691
  2462  1143  2945               	goto	u3690
  2463  1144                     u3691:
  2464  1144  2928               	goto	l2393
  2465  1145                     u3690:
  2466  1145                     l2401:
  2467  1145  0876               	movf	___lwmod@dividend+1,w
  2468  1146  00F4               	movwf	?___lwmod+1
  2469  1147  0875               	movf	___lwmod@dividend,w
  2470  1148  00F3               	movwf	?___lwmod
  2471  1149                     l505:
  2472  1149  0008               	return
  2473  114A                     __end_of___lwmod:
  2474                           
  2475                           	psect	text9
  2476  080C                     __ptext9:	
  2477 ;; *************** function ___lwdiv *****************
  2478 ;; Defined at:
  2479 ;;		line 5 in file "C:\Program Files\Microchip\xc8\v2.20\pic\sources\c90\common\lwdiv.c"
  2480 ;; Parameters:    Size  Location     Type
  2481 ;;  divisor         2    2[COMMON] unsigned int 
  2482 ;;  dividend        2    4[COMMON] unsigned int 
  2483 ;; Auto vars:     Size  Location     Type
  2484 ;;  quotient        2    6[COMMON] unsigned int 
  2485 ;;  counter         1    8[COMMON] unsigned char 
  2486 ;; Return value:  Size  Location     Type
  2487 ;;                  2    2[COMMON] unsigned int 
  2488 ;; Registers used:
  2489 ;;		wreg, status,2, status,0, btemp+1
  2490 ;; Tracked objects:
  2491 ;;		On entry : 0/0
  2492 ;;		On exit  : 0/0
  2493 ;;		Unchanged: 0/0
  2494 ;; Data sizes:     COMMON   BANK0   BANK1   BANK3   BANK2
  2495 ;;      Params:         4       0       0       0       0
  2496 ;;      Locals:         3       0       0       0       0
  2497 ;;      Temps:          0       0       0       0       0
  2498 ;;      Totals:         7       0       0       0       0
  2499 ;;Total ram usage:        7 bytes
  2500 ;; Hardware stack levels used:    1
  2501 ;; Hardware stack levels required when called:    1
  2502 ;; This function calls:
  2503 ;;		Nothing
  2504 ;; This function is called by:
  2505 ;;		_puts_float
  2506 ;; This function uses a non-reentrant model
  2507 ;;
  2508                           
  2509                           
  2510                           ;psect for function ___lwdiv
  2511  080C                     ___lwdiv:
  2512  080C                     l2357:	
  2513                           ;incstack = 0
  2514                           ; Regs used in ___lwdiv: [wreg+status,2+status,0+btemp+1]
  2515                           
  2516  080C  01F7               	clrf	___lwdiv@quotient
  2517  080D  01F8               	clrf	___lwdiv@quotient+1
  2518  080E                     l2359:
  2519  080E  0873               	movf	___lwdiv@divisor,w
  2520  080F  0474               	iorwf	___lwdiv@divisor+1,w
  2521  0810  1903               	btfsc	3,2
  2522  0811  2813               	goto	u3571
  2523  0812  2814               	goto	u3570
  2524  0813                     u3571:
  2525  0813  284B               	goto	l2379
  2526  0814                     u3570:
  2527  0814                     l2361:
  2528  0814  01F9               	clrf	___lwdiv@counter
  2529  0815  0AF9               	incf	___lwdiv@counter,f
  2530  0816  2822               	goto	l2367
  2531  0817                     l2363:
  2532  0817  3001               	movlw	1
  2533  0818                     u3585:
  2534  0818  1003               	clrc
  2535  0819  0DF3               	rlf	___lwdiv@divisor,f
  2536  081A  0DF4               	rlf	___lwdiv@divisor+1,f
  2537  081B  3EFF               	addlw	-1
  2538  081C  1D03               	skipz
  2539  081D  2818               	goto	u3585
  2540  081E                     l2365:
  2541  081E  3001               	movlw	1
  2542  081F  00FF               	movwf	btemp+1
  2543  0820  087F               	movf	btemp+1,w
  2544  0821  07F9               	addwf	___lwdiv@counter,f
  2545  0822                     l2367:
  2546  0822  1FF4               	btfss	___lwdiv@divisor+1,7
  2547  0823  2825               	goto	u3591
  2548  0824  2826               	goto	u3590
  2549  0825                     u3591:
  2550  0825  2817               	goto	l2363
  2551  0826                     u3590:
  2552  0826                     l2369:
  2553  0826  3001               	movlw	1
  2554  0827                     u3605:
  2555  0827  1003               	clrc
  2556  0828  0DF7               	rlf	___lwdiv@quotient,f
  2557  0829  0DF8               	rlf	___lwdiv@quotient+1,f
  2558  082A  3EFF               	addlw	-1
  2559  082B  1D03               	skipz
  2560  082C  2827               	goto	u3605
  2561  082D  0874               	movf	___lwdiv@divisor+1,w
  2562  082E  0276               	subwf	___lwdiv@dividend+1,w
  2563  082F  1D03               	skipz
  2564  0830  2833               	goto	u3615
  2565  0831  0873               	movf	___lwdiv@divisor,w
  2566  0832  0275               	subwf	___lwdiv@dividend,w
  2567  0833                     u3615:
  2568  0833  1C03               	skipc
  2569  0834  2836               	goto	u3611
  2570  0835  2837               	goto	u3610
  2571  0836                     u3611:
  2572  0836  283E               	goto	l2375
  2573  0837                     u3610:
  2574  0837                     l2371:
  2575  0837  0873               	movf	___lwdiv@divisor,w
  2576  0838  02F5               	subwf	___lwdiv@dividend,f
  2577  0839  0874               	movf	___lwdiv@divisor+1,w
  2578  083A  1C03               	skipc
  2579  083B  03F6               	decf	___lwdiv@dividend+1,f
  2580  083C  02F6               	subwf	___lwdiv@dividend+1,f
  2581  083D                     l2373:
  2582  083D  1477               	bsf	___lwdiv@quotient,0
  2583  083E                     l2375:
  2584  083E  3001               	movlw	1
  2585  083F                     u3625:
  2586  083F  1003               	clrc
  2587  0840  0CF4               	rrf	___lwdiv@divisor+1,f
  2588  0841  0CF3               	rrf	___lwdiv@divisor,f
  2589  0842  3EFF               	addlw	-1
  2590  0843  1D03               	skipz
  2591  0844  283F               	goto	u3625
  2592  0845                     l2377:
  2593  0845  3001               	movlw	1
  2594  0846  02F9               	subwf	___lwdiv@counter,f
  2595  0847  1D03               	btfss	3,2
  2596  0848  284A               	goto	u3631
  2597  0849  284B               	goto	u3630
  2598  084A                     u3631:
  2599  084A  2826               	goto	l2369
  2600  084B                     u3630:
  2601  084B                     l2379:
  2602  084B  0878               	movf	___lwdiv@quotient+1,w
  2603  084C  00F4               	movwf	?___lwdiv+1
  2604  084D  0877               	movf	___lwdiv@quotient,w
  2605  084E  00F3               	movwf	?___lwdiv
  2606  084F                     l495:
  2607  084F  0008               	return
  2608  0850                     __end_of___lwdiv:
  2609                           
  2610                           	psect	text10
  2611  12F5                     __ptext10:	
  2612 ;; *************** function ___fltol *****************
  2613 ;; Defined at:
  2614 ;;		line 43 in file "C:\Program Files\Microchip\xc8\v2.20\pic\sources\c90\common\fltol.c"
  2615 ;; Parameters:    Size  Location     Type
  2616 ;;  f1              4    2[COMMON] unsigned int 
  2617 ;; Auto vars:     Size  Location     Type
  2618 ;;  exp1            1    1[BANK0 ] unsigned char 
  2619 ;;  sign1           1    0[BANK0 ] unsigned char 
  2620 ;; Return value:  Size  Location     Type
  2621 ;;                  4    2[COMMON] long 
  2622 ;; Registers used:
  2623 ;;		wreg, status,2, status,0, btemp+1
  2624 ;; Tracked objects:
  2625 ;;		On entry : 0/0
  2626 ;;		On exit  : 0/0
  2627 ;;		Unchanged: 0/0
  2628 ;; Data sizes:     COMMON   BANK0   BANK1   BANK3   BANK2
  2629 ;;      Params:         4       0       0       0       0
  2630 ;;      Locals:         0       2       0       0       0
  2631 ;;      Temps:          4       0       0       0       0
  2632 ;;      Totals:         8       2       0       0       0
  2633 ;;Total ram usage:       10 bytes
  2634 ;; Hardware stack levels used:    1
  2635 ;; Hardware stack levels required when called:    1
  2636 ;; This function calls:
  2637 ;;		Nothing
  2638 ;; This function is called by:
  2639 ;;		_puts_float
  2640 ;; This function uses a non-reentrant model
  2641 ;;
  2642                           
  2643                           
  2644                           ;psect for function ___fltol
  2645  12F5                     ___fltol:
  2646  12F5                     l2319:	
  2647                           ;incstack = 0
  2648                           ; Regs used in ___fltol: [wreg+status,2+status,0+btemp+1]
  2649                           
  2650  12F5  1003               	clrc
  2651  12F6  0D75               	rlf	___fltol@f1+2,w
  2652  12F7  0D76               	rlf	___fltol@f1+3,w
  2653  12F8  00FF               	movwf	btemp+1
  2654  12F9  087F               	movf	btemp+1,w
  2655  12FA  1283               	bcf	3,5	;RP0=0, select bank0
  2656  12FB  1303               	bcf	3,6	;RP1=0, select bank0
  2657  12FC  00A1               	movwf	___fltol@exp1
  2658  12FD  0821               	movf	___fltol@exp1,w
  2659  12FE  1D03               	btfss	3,2
  2660  12FF  2B01               	goto	u3471
  2661  1300  2B02               	goto	u3470
  2662  1301                     u3471:
  2663  1301  2B0B               	goto	l2325
  2664  1302                     u3470:
  2665  1302                     l2321:
  2666  1302  3000               	movlw	0
  2667  1303  00F6               	movwf	?___fltol+3
  2668  1304  3000               	movlw	0
  2669  1305  00F5               	movwf	?___fltol+2
  2670  1306  3000               	movlw	0
  2671  1307  00F4               	movwf	?___fltol+1
  2672  1308  3000               	movlw	0
  2673  1309  00F3               	movwf	?___fltol
  2674  130A  2B70               	goto	l409
  2675  130B                     l2325:
  2676  130B  0873               	movf	___fltol@f1,w
  2677  130C  00F7               	movwf	??___fltol
  2678  130D  0874               	movf	___fltol@f1+1,w
  2679  130E  00F8               	movwf	??___fltol+1
  2680  130F  0875               	movf	___fltol@f1+2,w
  2681  1310  00F9               	movwf	??___fltol+2
  2682  1311  0876               	movf	___fltol@f1+3,w
  2683  1312  00FA               	movwf	??___fltol+3
  2684  1313  301F               	movlw	31
  2685  1314                     u3485:
  2686  1314  1003               	clrc
  2687  1315  0CFA               	rrf	??___fltol+3,f
  2688  1316  0CF9               	rrf	??___fltol+2,f
  2689  1317  0CF8               	rrf	??___fltol+1,f
  2690  1318  0CF7               	rrf	??___fltol,f
  2691  1319                     u3480:
  2692  1319  3EFF               	addlw	-1
  2693  131A  1D03               	skipz
  2694  131B  2B14               	goto	u3485
  2695  131C  0877               	movf	??___fltol,w
  2696  131D  00FF               	movwf	btemp+1
  2697  131E  087F               	movf	btemp+1,w
  2698  131F  00A0               	movwf	___fltol@sign1
  2699  1320                     l2327:
  2700  1320  17F5               	bsf	___fltol@f1+2,7
  2701  1321                     l2329:
  2702  1321  30FF               	movlw	255
  2703  1322  05F3               	andwf	___fltol@f1,f
  2704  1323  30FF               	movlw	255
  2705  1324  05F4               	andwf	___fltol@f1+1,f
  2706  1325  30FF               	movlw	255
  2707  1326  05F5               	andwf	___fltol@f1+2,f
  2708  1327  3000               	movlw	0
  2709  1328  05F6               	andwf	___fltol@f1+3,f
  2710  1329                     l2331:
  2711  1329  3096               	movlw	150
  2712  132A  02A1               	subwf	___fltol@exp1,f
  2713  132B                     l2333:
  2714  132B  1FA1               	btfss	___fltol@exp1,7
  2715  132C  2B2E               	goto	u3491
  2716  132D  2B2F               	goto	u3490
  2717  132E                     u3491:
  2718  132E  2B49               	goto	l2345
  2719  132F                     u3490:
  2720  132F                     l2335:
  2721  132F  0821               	movf	___fltol@exp1,w
  2722  1330  3A80               	xorlw	128
  2723  1331  3E97               	addlw	151
  2724  1332  1803               	skipnc
  2725  1333  2B35               	goto	u3501
  2726  1334  2B36               	goto	u3500
  2727  1335                     u3501:
  2728  1335  2B37               	goto	l2341
  2729  1336                     u3500:
  2730  1336  2B02               	goto	l2321
  2731  1337                     l2341:
  2732  1337  3001               	movlw	1
  2733  1338                     u3515:
  2734  1338  1003               	clrc
  2735  1339  0CF6               	rrf	___fltol@f1+3,f
  2736  133A  0CF5               	rrf	___fltol@f1+2,f
  2737  133B  0CF4               	rrf	___fltol@f1+1,f
  2738  133C  0CF3               	rrf	___fltol@f1,f
  2739  133D  3EFF               	addlw	-1
  2740  133E  1D03               	skipz
  2741  133F  2B38               	goto	u3515
  2742  1340                     l2343:
  2743  1340  3001               	movlw	1
  2744  1341  00FF               	movwf	btemp+1
  2745  1342  087F               	movf	btemp+1,w
  2746  1343  07A1               	addwf	___fltol@exp1,f
  2747  1344  1D03               	btfss	3,2
  2748  1345  2B47               	goto	u3521
  2749  1346  2B48               	goto	u3520
  2750  1347                     u3521:
  2751  1347  2B37               	goto	l2341
  2752  1348                     u3520:
  2753  1348  2B60               	goto	l2353
  2754  1349                     l2345:
  2755  1349  3020               	movlw	32
  2756  134A  0221               	subwf	___fltol@exp1,w
  2757  134B  1C03               	skipc
  2758  134C  2B4E               	goto	u3531
  2759  134D  2B4F               	goto	u3530
  2760  134E                     u3531:
  2761  134E  2B5B               	goto	l416
  2762  134F                     u3530:
  2763  134F  2B02               	goto	l2321
  2764  1350                     l2351:
  2765  1350  3001               	movlw	1
  2766  1351  00F7               	movwf	??___fltol
  2767  1352                     u3545:
  2768  1352  1003               	clrc
  2769  1353  0DF3               	rlf	___fltol@f1,f
  2770  1354  0DF4               	rlf	___fltol@f1+1,f
  2771  1355  0DF5               	rlf	___fltol@f1+2,f
  2772  1356  0DF6               	rlf	___fltol@f1+3,f
  2773  1357  0BF7               	decfsz	??___fltol,f
  2774  1358  2B52               	goto	u3545
  2775  1359  3001               	movlw	1
  2776  135A  02A1               	subwf	___fltol@exp1,f
  2777  135B                     l416:
  2778  135B  0821               	movf	___fltol@exp1,w
  2779  135C  1D03               	btfss	3,2
  2780  135D  2B5F               	goto	u3551
  2781  135E  2B60               	goto	u3550
  2782  135F                     u3551:
  2783  135F  2B50               	goto	l2351
  2784  1360                     u3550:
  2785  1360                     l2353:
  2786  1360  0820               	movf	___fltol@sign1,w
  2787  1361  1903               	btfsc	3,2
  2788  1362  2B64               	goto	u3561
  2789  1363  2B65               	goto	u3560
  2790  1364                     u3561:
  2791  1364  2B70               	goto	l419
  2792  1365                     u3560:
  2793  1365                     l2355:
  2794  1365  09F3               	comf	___fltol@f1,f
  2795  1366  09F4               	comf	___fltol@f1+1,f
  2796  1367  09F5               	comf	___fltol@f1+2,f
  2797  1368  09F6               	comf	___fltol@f1+3,f
  2798  1369  0AF3               	incf	___fltol@f1,f
  2799  136A  1903               	skipnz
  2800  136B  0AF4               	incf	___fltol@f1+1,f
  2801  136C  1903               	skipnz
  2802  136D  0AF5               	incf	___fltol@f1+2,f
  2803  136E  1903               	skipnz
  2804  136F  0AF6               	incf	___fltol@f1+3,f
  2805  1370                     l419:
  2806  1370                     l409:
  2807  1370  0008               	return
  2808  1371                     __end_of___fltol:
  2809                           
  2810                           	psect	text11
  2811  1371                     __ptext11:	
  2812 ;; *************** function ___almod *****************
  2813 ;; Defined at:
  2814 ;;		line 5 in file "C:\Program Files\Microchip\xc8\v2.20\pic\sources\c90\common\almod.c"
  2815 ;; Parameters:    Size  Location     Type
  2816 ;;  divisor         4    2[COMMON] long 
  2817 ;;  dividend        4    6[COMMON] long 
  2818 ;; Auto vars:     Size  Location     Type
  2819 ;;  sign            1    1[BANK0 ] unsigned char 
  2820 ;;  counter         1    0[BANK0 ] unsigned char 
  2821 ;; Return value:  Size  Location     Type
  2822 ;;                  4    2[COMMON] long 
  2823 ;; Registers used:
  2824 ;;		wreg, status,2, status,0, btemp+1
  2825 ;; Tracked objects:
  2826 ;;		On entry : 0/0
  2827 ;;		On exit  : 0/0
  2828 ;;		Unchanged: 0/0
  2829 ;; Data sizes:     COMMON   BANK0   BANK1   BANK3   BANK2
  2830 ;;      Params:         8       0       0       0       0
  2831 ;;      Locals:         0       2       0       0       0
  2832 ;;      Temps:          1       0       0       0       0
  2833 ;;      Totals:         9       2       0       0       0
  2834 ;;Total ram usage:       11 bytes
  2835 ;; Hardware stack levels used:    1
  2836 ;; Hardware stack levels required when called:    1
  2837 ;; This function calls:
  2838 ;;		Nothing
  2839 ;; This function is called by:
  2840 ;;		_puts_float
  2841 ;; This function uses a non-reentrant model
  2842 ;;
  2843                           
  2844                           
  2845                           ;psect for function ___almod
  2846  1371                     ___almod:
  2847  1371                     l2183:	
  2848                           ;incstack = 0
  2849                           ; Regs used in ___almod: [wreg+status,2+status,0+btemp+1]
  2850                           
  2851  1371  1283               	bcf	3,5	;RP0=0, select bank0
  2852  1372  1303               	bcf	3,6	;RP1=0, select bank0
  2853  1373  01A1               	clrf	___almod@sign
  2854  1374                     l2185:
  2855  1374  1FFA               	btfss	___almod@dividend+3,7
  2856  1375  2B77               	goto	u3121
  2857  1376  2B78               	goto	u3120
  2858  1377                     u3121:
  2859  1377  2B85               	goto	l301
  2860  1378                     u3120:
  2861  1378                     l2187:
  2862  1378  09F7               	comf	___almod@dividend,f
  2863  1379  09F8               	comf	___almod@dividend+1,f
  2864  137A  09F9               	comf	___almod@dividend+2,f
  2865  137B  09FA               	comf	___almod@dividend+3,f
  2866  137C  0AF7               	incf	___almod@dividend,f
  2867  137D  1903               	skipnz
  2868  137E  0AF8               	incf	___almod@dividend+1,f
  2869  137F  1903               	skipnz
  2870  1380  0AF9               	incf	___almod@dividend+2,f
  2871  1381  1903               	skipnz
  2872  1382  0AFA               	incf	___almod@dividend+3,f
  2873  1383  01A1               	clrf	___almod@sign
  2874  1384  0AA1               	incf	___almod@sign,f
  2875  1385                     l301:
  2876  1385  1FF6               	btfss	___almod@divisor+3,7
  2877  1386  2B88               	goto	u3131
  2878  1387  2B89               	goto	u3130
  2879  1388                     u3131:
  2880  1388  2B94               	goto	l2191
  2881  1389                     u3130:
  2882  1389                     l2189:
  2883  1389  09F3               	comf	___almod@divisor,f
  2884  138A  09F4               	comf	___almod@divisor+1,f
  2885  138B  09F5               	comf	___almod@divisor+2,f
  2886  138C  09F6               	comf	___almod@divisor+3,f
  2887  138D  0AF3               	incf	___almod@divisor,f
  2888  138E  1903               	skipnz
  2889  138F  0AF4               	incf	___almod@divisor+1,f
  2890  1390  1903               	skipnz
  2891  1391  0AF5               	incf	___almod@divisor+2,f
  2892  1392  1903               	skipnz
  2893  1393  0AF6               	incf	___almod@divisor+3,f
  2894  1394                     l2191:
  2895  1394  0876               	movf	___almod@divisor+3,w
  2896  1395  0475               	iorwf	___almod@divisor+2,w
  2897  1396  0474               	iorwf	___almod@divisor+1,w
  2898  1397  0473               	iorwf	___almod@divisor,w
  2899  1398  1903               	skipnz
  2900  1399  2B9B               	goto	u3141
  2901  139A  2B9C               	goto	u3140
  2902  139B                     u3141:
  2903  139B  2BDF               	goto	l2209
  2904  139C                     u3140:
  2905  139C                     l2193:
  2906  139C  01A0               	clrf	___almod@counter
  2907  139D  0AA0               	incf	___almod@counter,f
  2908  139E  2BAC               	goto	l2199
  2909  139F                     l2195:
  2910  139F  3001               	movlw	1
  2911  13A0  00FB               	movwf	??___almod
  2912  13A1                     u3155:
  2913  13A1  1003               	clrc
  2914  13A2  0DF3               	rlf	___almod@divisor,f
  2915  13A3  0DF4               	rlf	___almod@divisor+1,f
  2916  13A4  0DF5               	rlf	___almod@divisor+2,f
  2917  13A5  0DF6               	rlf	___almod@divisor+3,f
  2918  13A6  0BFB               	decfsz	??___almod,f
  2919  13A7  2BA1               	goto	u3155
  2920  13A8                     l2197:
  2921  13A8  3001               	movlw	1
  2922  13A9  00FF               	movwf	btemp+1
  2923  13AA  087F               	movf	btemp+1,w
  2924  13AB  07A0               	addwf	___almod@counter,f
  2925  13AC                     l2199:
  2926  13AC  1FF6               	btfss	___almod@divisor+3,7
  2927  13AD  2BAF               	goto	u3161
  2928  13AE  2BB0               	goto	u3160
  2929  13AF                     u3161:
  2930  13AF  2B9F               	goto	l2195
  2931  13B0                     u3160:
  2932  13B0                     l2201:
  2933  13B0  0876               	movf	___almod@divisor+3,w
  2934  13B1  027A               	subwf	___almod@dividend+3,w
  2935  13B2  1D03               	skipz
  2936  13B3  2BBE               	goto	u3175
  2937  13B4  0875               	movf	___almod@divisor+2,w
  2938  13B5  0279               	subwf	___almod@dividend+2,w
  2939  13B6  1D03               	skipz
  2940  13B7  2BBE               	goto	u3175
  2941  13B8  0874               	movf	___almod@divisor+1,w
  2942  13B9  0278               	subwf	___almod@dividend+1,w
  2943  13BA  1D03               	skipz
  2944  13BB  2BBE               	goto	u3175
  2945  13BC  0873               	movf	___almod@divisor,w
  2946  13BD  0277               	subwf	___almod@dividend,w
  2947  13BE                     u3175:
  2948  13BE  1C03               	skipc
  2949  13BF  2BC1               	goto	u3171
  2950  13C0  2BC2               	goto	u3170
  2951  13C1                     u3171:
  2952  13C1  2BD0               	goto	l2205
  2953  13C2                     u3170:
  2954  13C2                     l2203:
  2955  13C2  0873               	movf	___almod@divisor,w
  2956  13C3  02F7               	subwf	___almod@dividend,f
  2957  13C4  0874               	movf	___almod@divisor+1,w
  2958  13C5  1C03               	skipc
  2959  13C6  0F74               	incfsz	___almod@divisor+1,w
  2960  13C7  02F8               	subwf	___almod@dividend+1,f
  2961  13C8  0875               	movf	___almod@divisor+2,w
  2962  13C9  1C03               	skipc
  2963  13CA  0F75               	incfsz	___almod@divisor+2,w
  2964  13CB  02F9               	subwf	___almod@dividend+2,f
  2965  13CC  0876               	movf	___almod@divisor+3,w
  2966  13CD  1C03               	skipc
  2967  13CE  0F76               	incfsz	___almod@divisor+3,w
  2968  13CF  02FA               	subwf	___almod@dividend+3,f
  2969  13D0                     l2205:
  2970  13D0  3001               	movlw	1
  2971  13D1                     u3185:
  2972  13D1  1003               	clrc
  2973  13D2  0CF6               	rrf	___almod@divisor+3,f
  2974  13D3  0CF5               	rrf	___almod@divisor+2,f
  2975  13D4  0CF4               	rrf	___almod@divisor+1,f
  2976  13D5  0CF3               	rrf	___almod@divisor,f
  2977  13D6  3EFF               	addlw	-1
  2978  13D7  1D03               	skipz
  2979  13D8  2BD1               	goto	u3185
  2980  13D9                     l2207:
  2981  13D9  3001               	movlw	1
  2982  13DA  02A0               	subwf	___almod@counter,f
  2983  13DB  1D03               	btfss	3,2
  2984  13DC  2BDE               	goto	u3191
  2985  13DD  2BDF               	goto	u3190
  2986  13DE                     u3191:
  2987  13DE  2BB0               	goto	l2201
  2988  13DF                     u3190:
  2989  13DF                     l2209:
  2990  13DF  0821               	movf	___almod@sign,w
  2991  13E0  1903               	btfsc	3,2
  2992  13E1  2BE3               	goto	u3201
  2993  13E2  2BE4               	goto	u3200
  2994  13E3                     u3201:
  2995  13E3  2BEF               	goto	l2213
  2996  13E4                     u3200:
  2997  13E4                     l2211:
  2998  13E4  09F7               	comf	___almod@dividend,f
  2999  13E5  09F8               	comf	___almod@dividend+1,f
  3000  13E6  09F9               	comf	___almod@dividend+2,f
  3001  13E7  09FA               	comf	___almod@dividend+3,f
  3002  13E8  0AF7               	incf	___almod@dividend,f
  3003  13E9  1903               	skipnz
  3004  13EA  0AF8               	incf	___almod@dividend+1,f
  3005  13EB  1903               	skipnz
  3006  13EC  0AF9               	incf	___almod@dividend+2,f
  3007  13ED  1903               	skipnz
  3008  13EE  0AFA               	incf	___almod@dividend+3,f
  3009  13EF                     l2213:
  3010  13EF  087A               	movf	___almod@dividend+3,w
  3011  13F0  00F6               	movwf	?___almod+3
  3012  13F1  0879               	movf	___almod@dividend+2,w
  3013  13F2  00F5               	movwf	?___almod+2
  3014  13F3  0878               	movf	___almod@dividend+1,w
  3015  13F4  00F4               	movwf	?___almod+1
  3016  13F5  0877               	movf	___almod@dividend,w
  3017  13F6  00F3               	movwf	?___almod
  3018  13F7                     l311:
  3019  13F7  0008               	return
  3020  13F8                     __end_of___almod:
  3021                           
  3022                           	psect	text12
  3023  1488                     __ptext12:	
  3024 ;; *************** function ___aldiv *****************
  3025 ;; Defined at:
  3026 ;;		line 5 in file "C:\Program Files\Microchip\xc8\v2.20\pic\sources\c90\common\aldiv.c"
  3027 ;; Parameters:    Size  Location     Type
  3028 ;;  divisor         4    2[COMMON] long 
  3029 ;;  dividend        4    6[COMMON] long 
  3030 ;; Auto vars:     Size  Location     Type
  3031 ;;  quotient        4    2[BANK0 ] long 
  3032 ;;  sign            1    1[BANK0 ] unsigned char 
  3033 ;;  counter         1    0[BANK0 ] unsigned char 
  3034 ;; Return value:  Size  Location     Type
  3035 ;;                  4    2[COMMON] long 
  3036 ;; Registers used:
  3037 ;;		wreg, status,2, status,0, btemp+1
  3038 ;; Tracked objects:
  3039 ;;		On entry : 0/0
  3040 ;;		On exit  : 0/0
  3041 ;;		Unchanged: 0/0
  3042 ;; Data sizes:     COMMON   BANK0   BANK1   BANK3   BANK2
  3043 ;;      Params:         8       0       0       0       0
  3044 ;;      Locals:         0       6       0       0       0
  3045 ;;      Temps:          1       0       0       0       0
  3046 ;;      Totals:         9       6       0       0       0
  3047 ;;Total ram usage:       15 bytes
  3048 ;; Hardware stack levels used:    1
  3049 ;; Hardware stack levels required when called:    1
  3050 ;; This function calls:
  3051 ;;		Nothing
  3052 ;; This function is called by:
  3053 ;;		_puts_float
  3054 ;; This function uses a non-reentrant model
  3055 ;;
  3056                           
  3057                           
  3058                           ;psect for function ___aldiv
  3059  1488                     ___aldiv:
  3060  1488                     l2141:	
  3061                           ;incstack = 0
  3062                           ; Regs used in ___aldiv: [wreg+status,2+status,0+btemp+1]
  3063                           
  3064  1488  1283               	bcf	3,5	;RP0=0, select bank0
  3065  1489  1303               	bcf	3,6	;RP1=0, select bank0
  3066  148A  01A1               	clrf	___aldiv@sign
  3067  148B                     l2143:
  3068  148B  1FF6               	btfss	___aldiv@divisor+3,7
  3069  148C  2C8E               	goto	u3021
  3070  148D  2C8F               	goto	u3020
  3071  148E                     u3021:
  3072  148E  2C9C               	goto	l288
  3073  148F                     u3020:
  3074  148F                     l2145:
  3075  148F  09F3               	comf	___aldiv@divisor,f
  3076  1490  09F4               	comf	___aldiv@divisor+1,f
  3077  1491  09F5               	comf	___aldiv@divisor+2,f
  3078  1492  09F6               	comf	___aldiv@divisor+3,f
  3079  1493  0AF3               	incf	___aldiv@divisor,f
  3080  1494  1903               	skipnz
  3081  1495  0AF4               	incf	___aldiv@divisor+1,f
  3082  1496  1903               	skipnz
  3083  1497  0AF5               	incf	___aldiv@divisor+2,f
  3084  1498  1903               	skipnz
  3085  1499  0AF6               	incf	___aldiv@divisor+3,f
  3086  149A  01A1               	clrf	___aldiv@sign
  3087  149B  0AA1               	incf	___aldiv@sign,f
  3088  149C                     l288:
  3089  149C  1FFA               	btfss	___aldiv@dividend+3,7
  3090  149D  2C9F               	goto	u3031
  3091  149E  2CA0               	goto	u3030
  3092  149F                     u3031:
  3093  149F  2CAF               	goto	l2151
  3094  14A0                     u3030:
  3095  14A0                     l2147:
  3096  14A0  09F7               	comf	___aldiv@dividend,f
  3097  14A1  09F8               	comf	___aldiv@dividend+1,f
  3098  14A2  09F9               	comf	___aldiv@dividend+2,f
  3099  14A3  09FA               	comf	___aldiv@dividend+3,f
  3100  14A4  0AF7               	incf	___aldiv@dividend,f
  3101  14A5  1903               	skipnz
  3102  14A6  0AF8               	incf	___aldiv@dividend+1,f
  3103  14A7  1903               	skipnz
  3104  14A8  0AF9               	incf	___aldiv@dividend+2,f
  3105  14A9  1903               	skipnz
  3106  14AA  0AFA               	incf	___aldiv@dividend+3,f
  3107  14AB                     l2149:
  3108  14AB  3001               	movlw	1
  3109  14AC  00FF               	movwf	btemp+1
  3110  14AD  087F               	movf	btemp+1,w
  3111  14AE  06A1               	xorwf	___aldiv@sign,f
  3112  14AF                     l2151:
  3113  14AF  3000               	movlw	0
  3114  14B0  00A5               	movwf	___aldiv@quotient+3
  3115  14B1  3000               	movlw	0
  3116  14B2  00A4               	movwf	___aldiv@quotient+2
  3117  14B3  3000               	movlw	0
  3118  14B4  00A3               	movwf	___aldiv@quotient+1
  3119  14B5  3000               	movlw	0
  3120  14B6  00A2               	movwf	___aldiv@quotient
  3121  14B7                     l2153:
  3122  14B7  0876               	movf	___aldiv@divisor+3,w
  3123  14B8  0475               	iorwf	___aldiv@divisor+2,w
  3124  14B9  0474               	iorwf	___aldiv@divisor+1,w
  3125  14BA  0473               	iorwf	___aldiv@divisor,w
  3126  14BB  1903               	skipnz
  3127  14BC  2CBE               	goto	u3041
  3128  14BD  2CBF               	goto	u3040
  3129  14BE                     u3041:
  3130  14BE  2D0C               	goto	l2175
  3131  14BF                     u3040:
  3132  14BF                     l2155:
  3133  14BF  01A0               	clrf	___aldiv@counter
  3134  14C0  0AA0               	incf	___aldiv@counter,f
  3135  14C1  2CCF               	goto	l2161
  3136  14C2                     l2157:
  3137  14C2  3001               	movlw	1
  3138  14C3  00FB               	movwf	??___aldiv
  3139  14C4                     u3055:
  3140  14C4  1003               	clrc
  3141  14C5  0DF3               	rlf	___aldiv@divisor,f
  3142  14C6  0DF4               	rlf	___aldiv@divisor+1,f
  3143  14C7  0DF5               	rlf	___aldiv@divisor+2,f
  3144  14C8  0DF6               	rlf	___aldiv@divisor+3,f
  3145  14C9  0BFB               	decfsz	??___aldiv,f
  3146  14CA  2CC4               	goto	u3055
  3147  14CB                     l2159:
  3148  14CB  3001               	movlw	1
  3149  14CC  00FF               	movwf	btemp+1
  3150  14CD  087F               	movf	btemp+1,w
  3151  14CE  07A0               	addwf	___aldiv@counter,f
  3152  14CF                     l2161:
  3153  14CF  1FF6               	btfss	___aldiv@divisor+3,7
  3154  14D0  2CD2               	goto	u3061
  3155  14D1  2CD3               	goto	u3060
  3156  14D2                     u3061:
  3157  14D2  2CC2               	goto	l2157
  3158  14D3                     u3060:
  3159  14D3                     l2163:
  3160  14D3  3001               	movlw	1
  3161  14D4  00FB               	movwf	??___aldiv
  3162  14D5                     u3075:
  3163  14D5  1003               	clrc
  3164  14D6  0DA2               	rlf	___aldiv@quotient,f
  3165  14D7  0DA3               	rlf	___aldiv@quotient+1,f
  3166  14D8  0DA4               	rlf	___aldiv@quotient+2,f
  3167  14D9  0DA5               	rlf	___aldiv@quotient+3,f
  3168  14DA  0BFB               	decfsz	??___aldiv,f
  3169  14DB  2CD5               	goto	u3075
  3170  14DC                     l2165:
  3171  14DC  0876               	movf	___aldiv@divisor+3,w
  3172  14DD  027A               	subwf	___aldiv@dividend+3,w
  3173  14DE  1D03               	skipz
  3174  14DF  2CEA               	goto	u3085
  3175  14E0  0875               	movf	___aldiv@divisor+2,w
  3176  14E1  0279               	subwf	___aldiv@dividend+2,w
  3177  14E2  1D03               	skipz
  3178  14E3  2CEA               	goto	u3085
  3179  14E4  0874               	movf	___aldiv@divisor+1,w
  3180  14E5  0278               	subwf	___aldiv@dividend+1,w
  3181  14E6  1D03               	skipz
  3182  14E7  2CEA               	goto	u3085
  3183  14E8  0873               	movf	___aldiv@divisor,w
  3184  14E9  0277               	subwf	___aldiv@dividend,w
  3185  14EA                     u3085:
  3186  14EA  1C03               	skipc
  3187  14EB  2CED               	goto	u3081
  3188  14EC  2CEE               	goto	u3080
  3189  14ED                     u3081:
  3190  14ED  2CFD               	goto	l2171
  3191  14EE                     u3080:
  3192  14EE                     l2167:
  3193  14EE  0873               	movf	___aldiv@divisor,w
  3194  14EF  02F7               	subwf	___aldiv@dividend,f
  3195  14F0  0874               	movf	___aldiv@divisor+1,w
  3196  14F1  1C03               	skipc
  3197  14F2  0F74               	incfsz	___aldiv@divisor+1,w
  3198  14F3  02F8               	subwf	___aldiv@dividend+1,f
  3199  14F4  0875               	movf	___aldiv@divisor+2,w
  3200  14F5  1C03               	skipc
  3201  14F6  0F75               	incfsz	___aldiv@divisor+2,w
  3202  14F7  02F9               	subwf	___aldiv@dividend+2,f
  3203  14F8  0876               	movf	___aldiv@divisor+3,w
  3204  14F9  1C03               	skipc
  3205  14FA  0F76               	incfsz	___aldiv@divisor+3,w
  3206  14FB  02FA               	subwf	___aldiv@dividend+3,f
  3207  14FC                     l2169:
  3208  14FC  1422               	bsf	___aldiv@quotient,0
  3209  14FD                     l2171:
  3210  14FD  3001               	movlw	1
  3211  14FE                     u3095:
  3212  14FE  1003               	clrc
  3213  14FF  0CF6               	rrf	___aldiv@divisor+3,f
  3214  1500  0CF5               	rrf	___aldiv@divisor+2,f
  3215  1501  0CF4               	rrf	___aldiv@divisor+1,f
  3216  1502  0CF3               	rrf	___aldiv@divisor,f
  3217  1503  3EFF               	addlw	-1
  3218  1504  1D03               	skipz
  3219  1505  2CFE               	goto	u3095
  3220  1506                     l2173:
  3221  1506  3001               	movlw	1
  3222  1507  02A0               	subwf	___aldiv@counter,f
  3223  1508  1D03               	btfss	3,2
  3224  1509  2D0B               	goto	u3101
  3225  150A  2D0C               	goto	u3100
  3226  150B                     u3101:
  3227  150B  2CD3               	goto	l2163
  3228  150C                     u3100:
  3229  150C                     l2175:
  3230  150C  0821               	movf	___aldiv@sign,w
  3231  150D  1903               	btfsc	3,2
  3232  150E  2D10               	goto	u3111
  3233  150F  2D11               	goto	u3110
  3234  1510                     u3111:
  3235  1510  2D1C               	goto	l2179
  3236  1511                     u3110:
  3237  1511                     l2177:
  3238  1511  09A2               	comf	___aldiv@quotient,f
  3239  1512  09A3               	comf	___aldiv@quotient+1,f
  3240  1513  09A4               	comf	___aldiv@quotient+2,f
  3241  1514  09A5               	comf	___aldiv@quotient+3,f
  3242  1515  0AA2               	incf	___aldiv@quotient,f
  3243  1516  1903               	skipnz
  3244  1517  0AA3               	incf	___aldiv@quotient+1,f
  3245  1518  1903               	skipnz
  3246  1519  0AA4               	incf	___aldiv@quotient+2,f
  3247  151A  1903               	skipnz
  3248  151B  0AA5               	incf	___aldiv@quotient+3,f
  3249  151C                     l2179:
  3250  151C  0825               	movf	___aldiv@quotient+3,w
  3251  151D  00F6               	movwf	?___aldiv+3
  3252  151E  0824               	movf	___aldiv@quotient+2,w
  3253  151F  00F5               	movwf	?___aldiv+2
  3254  1520  0823               	movf	___aldiv@quotient+1,w
  3255  1521  00F4               	movwf	?___aldiv+1
  3256  1522  0822               	movf	___aldiv@quotient,w
  3257  1523  00F3               	movwf	?___aldiv
  3258  1524                     l298:
  3259  1524  0008               	return
  3260  1525                     __end_of___aldiv:
  3261                           
  3262                           	psect	text13
  3263  0A2D                     __ptext13:	
  3264 ;; *************** function _conversion_newton *****************
  3265 ;; Defined at:
  3266 ;;		line 127 in file "main.c"
  3267 ;; Parameters:    Size  Location     Type
  3268 ;;  Rc              4    0[BANK1 ] float 
  3269 ;; Auto vars:     Size  Location     Type
  3270 ;;  F               4   33[BANK1 ] float 
  3271 ;;  n               2   37[BANK1 ] int 
  3272 ;; Return value:  Size  Location     Type
  3273 ;;                  4    0[BANK1 ] float 
  3274 ;; Registers used:
  3275 ;;		wreg, fsr0l, fsr0h, status,2, status,0, btemp+1, pclath, cstack
  3276 ;; Tracked objects:
  3277 ;;		On entry : 0/0
  3278 ;;		On exit  : 0/0
  3279 ;;		Unchanged: 0/0
  3280 ;; Data sizes:     COMMON   BANK0   BANK1   BANK3   BANK2
  3281 ;;      Params:         0       0       4       0       0
  3282 ;;      Locals:         0       0      10       0       0
  3283 ;;      Temps:          0       0      25       0       0
  3284 ;;      Totals:         0       0      39       0       0
  3285 ;;Total ram usage:       39 bytes
  3286 ;; Hardware stack levels used:    1
  3287 ;; Hardware stack levels required when called:    3
  3288 ;; This function calls:
  3289 ;;		___fladd
  3290 ;;		___fldiv
  3291 ;;		___flge
  3292 ;;		___flmul
  3293 ;;		___flsub
  3294 ;; This function is called by:
  3295 ;;		_Get_Newton
  3296 ;; This function uses a non-reentrant model
  3297 ;;
  3298                           
  3299                           
  3300                           ;psect for function _conversion_newton
  3301  0A2D                     _conversion_newton:
  3302  0A2D                     l2801:	
  3303                           ;incstack = 0
  3304                           ; Regs used in _conversion_newton: [wreg-fsr0h+status,2+status,0+btemp+1+pclath+cstack]
  3305                           
  3306                           
  3307                           ;main.c: 128:      float F;;main.c: 129:      int n;;main.c: 130:      const float F_tab
      +                          [20]={70,35,30,28,25,20,19,18,15,13,10,7, 5.4, 4, 3, 2.2, 1.5, 0.9, 0.45, 0.12};;main.c:
      +                           131:      const float R_tab[20]={2000,2500,2600,2700,2900,3200,3400,3500,3900,4300,4800
      +                          ,5500,6800,8500,11000,16000,27000,45000,65000,95000};;main.c: 134:      if (Rc <= R_tab[
      +                          1])
  3308  0A2D  3005               	movlw	low (((conversion_newton@R_tab+4)-__stringbase)| (0+32768))
  3309  0A2E  0084               	movwf	4
  3310  0A2F  160A  118A  2000  120A  158A  	fcall	stringdir
  3311  0A34  1683               	bsf	3,5	;RP0=1, select bank1
  3312  0A35  1303               	bcf	3,6	;RP1=0, select bank1
  3313  0A36  00A4               	movwf	??_conversion_newton^(0+128)
  3314  0A37  160A  118A  2000  120A  158A  	fcall	stringdir
  3315  0A3C  00A5               	movwf	(??_conversion_newton^(0+128)+1)
  3316  0A3D  160A  118A  2000  120A  158A  	fcall	stringdir
  3317  0A42  00A6               	movwf	(??_conversion_newton^(0+128)+2)
  3318  0A43  160A  118A  2000  120A  158A  	fcall	stringdir
  3319  0A48  00A7               	movwf	(??_conversion_newton^(0+128)+3)
  3320  0A49  0827               	movf	(??_conversion_newton+3)^(0+128),w
  3321  0A4A  00F6               	movwf	___flge@ff1+3
  3322  0A4B  0826               	movf	(??_conversion_newton+2)^(0+128),w
  3323  0A4C  00F5               	movwf	___flge@ff1+2
  3324  0A4D  0825               	movf	(??_conversion_newton+1)^(0+128),w
  3325  0A4E  00F4               	movwf	___flge@ff1+1
  3326  0A4F  0824               	movf	??_conversion_newton^(0+128),w
  3327  0A50  00F3               	movwf	___flge@ff1
  3328  0A51  0823               	movf	(conversion_newton@Rc+3)^(0+128),w
  3329  0A52  00FA               	movwf	___flge@ff2+3
  3330  0A53  0822               	movf	(conversion_newton@Rc+2)^(0+128),w
  3331  0A54  00F9               	movwf	___flge@ff2+2
  3332  0A55  0821               	movf	(conversion_newton@Rc+1)^(0+128),w
  3333  0A56  00F8               	movwf	___flge@ff2+1
  3334  0A57  0820               	movf	conversion_newton@Rc^(0+128),w
  3335  0A58  00F7               	movwf	___flge@ff2
  3336  0A59  160A  118A  2525  120A  158A  	fcall	___flge
  3337  0A5E  1C03               	btfss	3,0
  3338  0A5F  2A61               	goto	u4501
  3339  0A60  2A62               	goto	u4500
  3340  0A61                     u4501:
  3341  0A61  2A66               	goto	l2805
  3342  0A62                     u4500:
  3343  0A62                     l2803:
  3344                           
  3345                           ;main.c: 135:          {;main.c: 136:          n = 0;
  3346  0A62  1683               	bsf	3,5	;RP0=1, select bank1
  3347  0A63  1303               	bcf	3,6	;RP1=0, select bank1
  3348  0A64  01C5               	clrf	conversion_newton@n^(0+128)
  3349  0A65  01C6               	clrf	(conversion_newton@n+1)^(0+128)
  3350  0A66                     l2805:
  3351                           
  3352                           ;main.c: 138:      if ((Rc <= R_tab[2]) && (Rc > R_tab[1]))
  3353  0A66  3009               	movlw	low (((conversion_newton@R_tab+8)-__stringbase)| (0+32768))
  3354  0A67  0084               	movwf	4
  3355  0A68  160A  118A  2000  120A  158A  	fcall	stringdir
  3356  0A6D  1683               	bsf	3,5	;RP0=1, select bank1
  3357  0A6E  1303               	bcf	3,6	;RP1=0, select bank1
  3358  0A6F  00A4               	movwf	??_conversion_newton^(0+128)
  3359  0A70  160A  118A  2000  120A  158A  	fcall	stringdir
  3360  0A75  00A5               	movwf	(??_conversion_newton^(0+128)+1)
  3361  0A76  160A  118A  2000  120A  158A  	fcall	stringdir
  3362  0A7B  00A6               	movwf	(??_conversion_newton^(0+128)+2)
  3363  0A7C  160A  118A  2000  120A  158A  	fcall	stringdir
  3364  0A81  00A7               	movwf	(??_conversion_newton^(0+128)+3)
  3365  0A82  0827               	movf	(??_conversion_newton+3)^(0+128),w
  3366  0A83  00F6               	movwf	___flge@ff1+3
  3367  0A84  0826               	movf	(??_conversion_newton+2)^(0+128),w
  3368  0A85  00F5               	movwf	___flge@ff1+2
  3369  0A86  0825               	movf	(??_conversion_newton+1)^(0+128),w
  3370  0A87  00F4               	movwf	___flge@ff1+1
  3371  0A88  0824               	movf	??_conversion_newton^(0+128),w
  3372  0A89  00F3               	movwf	___flge@ff1
  3373  0A8A  0823               	movf	(conversion_newton@Rc+3)^(0+128),w
  3374  0A8B  00FA               	movwf	___flge@ff2+3
  3375  0A8C  0822               	movf	(conversion_newton@Rc+2)^(0+128),w
  3376  0A8D  00F9               	movwf	___flge@ff2+2
  3377  0A8E  0821               	movf	(conversion_newton@Rc+1)^(0+128),w
  3378  0A8F  00F8               	movwf	___flge@ff2+1
  3379  0A90  0820               	movf	conversion_newton@Rc^(0+128),w
  3380  0A91  00F7               	movwf	___flge@ff2
  3381  0A92  160A  118A  2525  120A  158A  	fcall	___flge
  3382  0A97  1C03               	btfss	3,0
  3383  0A98  2A9A               	goto	u4511
  3384  0A99  2A9B               	goto	u4510
  3385  0A9A                     u4511:
  3386  0A9A  2AD9               	goto	l2811
  3387  0A9B                     u4510:
  3388  0A9B                     l2807:
  3389  0A9B  3005               	movlw	low (((conversion_newton@R_tab+4)-__stringbase)| (0+32768))
  3390  0A9C  0084               	movwf	4
  3391  0A9D  160A  118A  2000  120A  158A  	fcall	stringdir
  3392  0AA2  1683               	bsf	3,5	;RP0=1, select bank1
  3393  0AA3  1303               	bcf	3,6	;RP1=0, select bank1
  3394  0AA4  00A4               	movwf	??_conversion_newton^(0+128)
  3395  0AA5  160A  118A  2000  120A  158A  	fcall	stringdir
  3396  0AAA  00A5               	movwf	(??_conversion_newton^(0+128)+1)
  3397  0AAB  160A  118A  2000  120A  158A  	fcall	stringdir
  3398  0AB0  00A6               	movwf	(??_conversion_newton^(0+128)+2)
  3399  0AB1  160A  118A  2000  120A  158A  	fcall	stringdir
  3400  0AB6  00A7               	movwf	(??_conversion_newton^(0+128)+3)
  3401  0AB7  0827               	movf	(??_conversion_newton+3)^(0+128),w
  3402  0AB8  00F6               	movwf	___flge@ff1+3
  3403  0AB9  0826               	movf	(??_conversion_newton+2)^(0+128),w
  3404  0ABA  00F5               	movwf	___flge@ff1+2
  3405  0ABB  0825               	movf	(??_conversion_newton+1)^(0+128),w
  3406  0ABC  00F4               	movwf	___flge@ff1+1
  3407  0ABD  0824               	movf	??_conversion_newton^(0+128),w
  3408  0ABE  00F3               	movwf	___flge@ff1
  3409  0ABF  0823               	movf	(conversion_newton@Rc+3)^(0+128),w
  3410  0AC0  00FA               	movwf	___flge@ff2+3
  3411  0AC1  0822               	movf	(conversion_newton@Rc+2)^(0+128),w
  3412  0AC2  00F9               	movwf	___flge@ff2+2
  3413  0AC3  0821               	movf	(conversion_newton@Rc+1)^(0+128),w
  3414  0AC4  00F8               	movwf	___flge@ff2+1
  3415  0AC5  0820               	movf	conversion_newton@Rc^(0+128),w
  3416  0AC6  00F7               	movwf	___flge@ff2
  3417  0AC7  160A  118A  2525  120A  158A  	fcall	___flge
  3418  0ACC  1803               	btfsc	3,0
  3419  0ACD  2ACF               	goto	u4521
  3420  0ACE  2AD0               	goto	u4520
  3421  0ACF                     u4521:
  3422  0ACF  2AD9               	goto	l2811
  3423  0AD0                     u4520:
  3424  0AD0                     l2809:
  3425                           
  3426                           ;main.c: 139:          {;main.c: 140:          n = 1;
  3427  0AD0  3001               	movlw	1
  3428  0AD1  1683               	bsf	3,5	;RP0=1, select bank1
  3429  0AD2  1303               	bcf	3,6	;RP1=0, select bank1
  3430  0AD3  00C5               	movwf	conversion_newton@n^(0+128)
  3431  0AD4  3000               	movlw	0
  3432  0AD5  00C6               	movwf	(conversion_newton@n^(0+128)+1)
  3433  0AD6                     L1:
  3434                           
  3435                           ;main.c: 141:          }
  3436  0AD6  120A  118A  2D66   	goto	l2863
  3437  0AD9                     l2811:
  3438  0AD9  300D               	movlw	low (((conversion_newton@R_tab+12)-__stringbase)| (0+32768))
  3439  0ADA  0084               	movwf	4
  3440  0ADB  160A  118A  2000  120A  158A  	fcall	stringdir
  3441  0AE0  1683               	bsf	3,5	;RP0=1, select bank1
  3442  0AE1  1303               	bcf	3,6	;RP1=0, select bank1
  3443  0AE2  00A4               	movwf	??_conversion_newton^(0+128)
  3444  0AE3  160A  118A  2000  120A  158A  	fcall	stringdir
  3445  0AE8  00A5               	movwf	(??_conversion_newton^(0+128)+1)
  3446  0AE9  160A  118A  2000  120A  158A  	fcall	stringdir
  3447  0AEE  00A6               	movwf	(??_conversion_newton^(0+128)+2)
  3448  0AEF  160A  118A  2000  120A  158A  	fcall	stringdir
  3449  0AF4  00A7               	movwf	(??_conversion_newton^(0+128)+3)
  3450  0AF5  0827               	movf	(??_conversion_newton+3)^(0+128),w
  3451  0AF6  00F6               	movwf	___flge@ff1+3
  3452  0AF7  0826               	movf	(??_conversion_newton+2)^(0+128),w
  3453  0AF8  00F5               	movwf	___flge@ff1+2
  3454  0AF9  0825               	movf	(??_conversion_newton+1)^(0+128),w
  3455  0AFA  00F4               	movwf	___flge@ff1+1
  3456  0AFB  0824               	movf	??_conversion_newton^(0+128),w
  3457  0AFC  00F3               	movwf	___flge@ff1
  3458  0AFD  0823               	movf	(conversion_newton@Rc+3)^(0+128),w
  3459  0AFE  00FA               	movwf	___flge@ff2+3
  3460  0AFF  0822               	movf	(conversion_newton@Rc+2)^(0+128),w
  3461  0B00  00F9               	movwf	___flge@ff2+2
  3462  0B01  0821               	movf	(conversion_newton@Rc+1)^(0+128),w
  3463  0B02  00F8               	movwf	___flge@ff2+1
  3464  0B03  0820               	movf	conversion_newton@Rc^(0+128),w
  3465  0B04  00F7               	movwf	___flge@ff2
  3466  0B05  160A  118A  2525  120A  158A  	fcall	___flge
  3467  0B0A  1C03               	btfss	3,0
  3468  0B0B  2B0D               	goto	u4531
  3469  0B0C  2B0E               	goto	u4530
  3470  0B0D                     u4531:
  3471  0B0D  2B4A               	goto	l2817
  3472  0B0E                     u4530:
  3473  0B0E                     l2813:
  3474  0B0E  3009               	movlw	low (((conversion_newton@R_tab+8)-__stringbase)| (0+32768))
  3475  0B0F  0084               	movwf	4
  3476  0B10  160A  118A  2000  120A  158A  	fcall	stringdir
  3477  0B15  1683               	bsf	3,5	;RP0=1, select bank1
  3478  0B16  1303               	bcf	3,6	;RP1=0, select bank1
  3479  0B17  00A4               	movwf	??_conversion_newton^(0+128)
  3480  0B18  160A  118A  2000  120A  158A  	fcall	stringdir
  3481  0B1D  00A5               	movwf	(??_conversion_newton^(0+128)+1)
  3482  0B1E  160A  118A  2000  120A  158A  	fcall	stringdir
  3483  0B23  00A6               	movwf	(??_conversion_newton^(0+128)+2)
  3484  0B24  160A  118A  2000  120A  158A  	fcall	stringdir
  3485  0B29  00A7               	movwf	(??_conversion_newton^(0+128)+3)
  3486  0B2A  0827               	movf	(??_conversion_newton+3)^(0+128),w
  3487  0B2B  00F6               	movwf	___flge@ff1+3
  3488  0B2C  0826               	movf	(??_conversion_newton+2)^(0+128),w
  3489  0B2D  00F5               	movwf	___flge@ff1+2
  3490  0B2E  0825               	movf	(??_conversion_newton+1)^(0+128),w
  3491  0B2F  00F4               	movwf	___flge@ff1+1
  3492  0B30  0824               	movf	??_conversion_newton^(0+128),w
  3493  0B31  00F3               	movwf	___flge@ff1
  3494  0B32  0823               	movf	(conversion_newton@Rc+3)^(0+128),w
  3495  0B33  00FA               	movwf	___flge@ff2+3
  3496  0B34  0822               	movf	(conversion_newton@Rc+2)^(0+128),w
  3497  0B35  00F9               	movwf	___flge@ff2+2
  3498  0B36  0821               	movf	(conversion_newton@Rc+1)^(0+128),w
  3499  0B37  00F8               	movwf	___flge@ff2+1
  3500  0B38  0820               	movf	conversion_newton@Rc^(0+128),w
  3501  0B39  00F7               	movwf	___flge@ff2
  3502  0B3A  160A  118A  2525  120A  158A  	fcall	___flge
  3503  0B3F  1803               	btfsc	3,0
  3504  0B40  2B42               	goto	u4541
  3505  0B41  2B43               	goto	u4540
  3506  0B42                     u4541:
  3507  0B42  2B4A               	goto	l2817
  3508  0B43                     u4540:
  3509  0B43                     l2815:
  3510                           
  3511                           ;main.c: 143:          {;main.c: 144:          n = 2;
  3512  0B43  3002               	movlw	2
  3513  0B44  1683               	bsf	3,5	;RP0=1, select bank1
  3514  0B45  1303               	bcf	3,6	;RP1=0, select bank1
  3515  0B46  00C5               	movwf	conversion_newton@n^(0+128)
  3516  0B47  3000               	movlw	0
  3517  0B48  00C6               	movwf	(conversion_newton@n^(0+128)+1)
  3518                           
  3519                           ;main.c: 145:          }
  3520  0B49  2AD6               	goto	L1
  3521  0B4A                     l2817:
  3522  0B4A  3011               	movlw	low (((conversion_newton@R_tab+16)-__stringbase)| (0+32768))
  3523  0B4B  0084               	movwf	4
  3524  0B4C  160A  118A  2000  120A  158A  	fcall	stringdir
  3525  0B51  1683               	bsf	3,5	;RP0=1, select bank1
  3526  0B52  1303               	bcf	3,6	;RP1=0, select bank1
  3527  0B53  00A4               	movwf	??_conversion_newton^(0+128)
  3528  0B54  160A  118A  2000  120A  158A  	fcall	stringdir
  3529  0B59  00A5               	movwf	(??_conversion_newton^(0+128)+1)
  3530  0B5A  160A  118A  2000  120A  158A  	fcall	stringdir
  3531  0B5F  00A6               	movwf	(??_conversion_newton^(0+128)+2)
  3532  0B60  160A  118A  2000  120A  158A  	fcall	stringdir
  3533  0B65  00A7               	movwf	(??_conversion_newton^(0+128)+3)
  3534  0B66  0827               	movf	(??_conversion_newton+3)^(0+128),w
  3535  0B67  00F6               	movwf	___flge@ff1+3
  3536  0B68  0826               	movf	(??_conversion_newton+2)^(0+128),w
  3537  0B69  00F5               	movwf	___flge@ff1+2
  3538  0B6A  0825               	movf	(??_conversion_newton+1)^(0+128),w
  3539  0B6B  00F4               	movwf	___flge@ff1+1
  3540  0B6C  0824               	movf	??_conversion_newton^(0+128),w
  3541  0B6D  00F3               	movwf	___flge@ff1
  3542  0B6E  0823               	movf	(conversion_newton@Rc+3)^(0+128),w
  3543  0B6F  00FA               	movwf	___flge@ff2+3
  3544  0B70  0822               	movf	(conversion_newton@Rc+2)^(0+128),w
  3545  0B71  00F9               	movwf	___flge@ff2+2
  3546  0B72  0821               	movf	(conversion_newton@Rc+1)^(0+128),w
  3547  0B73  00F8               	movwf	___flge@ff2+1
  3548  0B74  0820               	movf	conversion_newton@Rc^(0+128),w
  3549  0B75  00F7               	movwf	___flge@ff2
  3550  0B76  160A  118A  2525  120A  158A  	fcall	___flge
  3551  0B7B  1C03               	btfss	3,0
  3552  0B7C  2B7E               	goto	u4551
  3553  0B7D  2B7F               	goto	u4550
  3554  0B7E                     u4551:
  3555  0B7E  2BBB               	goto	l2823
  3556  0B7F                     u4550:
  3557  0B7F                     l2819:
  3558  0B7F  300D               	movlw	low (((conversion_newton@R_tab+12)-__stringbase)| (0+32768))
  3559  0B80  0084               	movwf	4
  3560  0B81  160A  118A  2000  120A  158A  	fcall	stringdir
  3561  0B86  1683               	bsf	3,5	;RP0=1, select bank1
  3562  0B87  1303               	bcf	3,6	;RP1=0, select bank1
  3563  0B88  00A4               	movwf	??_conversion_newton^(0+128)
  3564  0B89  160A  118A  2000  120A  158A  	fcall	stringdir
  3565  0B8E  00A5               	movwf	(??_conversion_newton^(0+128)+1)
  3566  0B8F  160A  118A  2000  120A  158A  	fcall	stringdir
  3567  0B94  00A6               	movwf	(??_conversion_newton^(0+128)+2)
  3568  0B95  160A  118A  2000  120A  158A  	fcall	stringdir
  3569  0B9A  00A7               	movwf	(??_conversion_newton^(0+128)+3)
  3570  0B9B  0827               	movf	(??_conversion_newton+3)^(0+128),w
  3571  0B9C  00F6               	movwf	___flge@ff1+3
  3572  0B9D  0826               	movf	(??_conversion_newton+2)^(0+128),w
  3573  0B9E  00F5               	movwf	___flge@ff1+2
  3574  0B9F  0825               	movf	(??_conversion_newton+1)^(0+128),w
  3575  0BA0  00F4               	movwf	___flge@ff1+1
  3576  0BA1  0824               	movf	??_conversion_newton^(0+128),w
  3577  0BA2  00F3               	movwf	___flge@ff1
  3578  0BA3  0823               	movf	(conversion_newton@Rc+3)^(0+128),w
  3579  0BA4  00FA               	movwf	___flge@ff2+3
  3580  0BA5  0822               	movf	(conversion_newton@Rc+2)^(0+128),w
  3581  0BA6  00F9               	movwf	___flge@ff2+2
  3582  0BA7  0821               	movf	(conversion_newton@Rc+1)^(0+128),w
  3583  0BA8  00F8               	movwf	___flge@ff2+1
  3584  0BA9  0820               	movf	conversion_newton@Rc^(0+128),w
  3585  0BAA  00F7               	movwf	___flge@ff2
  3586  0BAB  160A  118A  2525  120A  158A  	fcall	___flge
  3587  0BB0  1803               	btfsc	3,0
  3588  0BB1  2BB3               	goto	u4561
  3589  0BB2  2BB4               	goto	u4560
  3590  0BB3                     u4561:
  3591  0BB3  2BBB               	goto	l2823
  3592  0BB4                     u4560:
  3593  0BB4                     l2821:
  3594                           
  3595                           ;main.c: 147:          {;main.c: 148:          n = 3;
  3596  0BB4  3003               	movlw	3
  3597  0BB5  1683               	bsf	3,5	;RP0=1, select bank1
  3598  0BB6  1303               	bcf	3,6	;RP1=0, select bank1
  3599  0BB7  00C5               	movwf	conversion_newton@n^(0+128)
  3600  0BB8  3000               	movlw	0
  3601  0BB9  00C6               	movwf	(conversion_newton@n^(0+128)+1)
  3602                           
  3603                           ;main.c: 149:          }
  3604  0BBA  2AD6               	goto	L1
  3605  0BBB                     l2823:
  3606  0BBB  3015               	movlw	low (((conversion_newton@R_tab+20)-__stringbase)| (0+32768))
  3607  0BBC  0084               	movwf	4
  3608  0BBD  160A  118A  2000  120A  158A  	fcall	stringdir
  3609  0BC2  1683               	bsf	3,5	;RP0=1, select bank1
  3610  0BC3  1303               	bcf	3,6	;RP1=0, select bank1
  3611  0BC4  00A4               	movwf	??_conversion_newton^(0+128)
  3612  0BC5  160A  118A  2000  120A  158A  	fcall	stringdir
  3613  0BCA  00A5               	movwf	(??_conversion_newton^(0+128)+1)
  3614  0BCB  160A  118A  2000  120A  158A  	fcall	stringdir
  3615  0BD0  00A6               	movwf	(??_conversion_newton^(0+128)+2)
  3616  0BD1  160A  118A  2000  120A  158A  	fcall	stringdir
  3617  0BD6  00A7               	movwf	(??_conversion_newton^(0+128)+3)
  3618  0BD7  0827               	movf	(??_conversion_newton+3)^(0+128),w
  3619  0BD8  00F6               	movwf	___flge@ff1+3
  3620  0BD9  0826               	movf	(??_conversion_newton+2)^(0+128),w
  3621  0BDA  00F5               	movwf	___flge@ff1+2
  3622  0BDB  0825               	movf	(??_conversion_newton+1)^(0+128),w
  3623  0BDC  00F4               	movwf	___flge@ff1+1
  3624  0BDD  0824               	movf	??_conversion_newton^(0+128),w
  3625  0BDE  00F3               	movwf	___flge@ff1
  3626  0BDF  0823               	movf	(conversion_newton@Rc+3)^(0+128),w
  3627  0BE0  00FA               	movwf	___flge@ff2+3
  3628  0BE1  0822               	movf	(conversion_newton@Rc+2)^(0+128),w
  3629  0BE2  00F9               	movwf	___flge@ff2+2
  3630  0BE3  0821               	movf	(conversion_newton@Rc+1)^(0+128),w
  3631  0BE4  00F8               	movwf	___flge@ff2+1
  3632  0BE5  0820               	movf	conversion_newton@Rc^(0+128),w
  3633  0BE6  00F7               	movwf	___flge@ff2
  3634  0BE7  160A  118A  2525  120A  158A  	fcall	___flge
  3635  0BEC  1C03               	btfss	3,0
  3636  0BED  2BEF               	goto	u4571
  3637  0BEE  2BF0               	goto	u4570
  3638  0BEF                     u4571:
  3639  0BEF  2C2C               	goto	l2829
  3640  0BF0                     u4570:
  3641  0BF0                     l2825:
  3642  0BF0  3011               	movlw	low (((conversion_newton@R_tab+16)-__stringbase)| (0+32768))
  3643  0BF1  0084               	movwf	4
  3644  0BF2  160A  118A  2000  120A  158A  	fcall	stringdir
  3645  0BF7  1683               	bsf	3,5	;RP0=1, select bank1
  3646  0BF8  1303               	bcf	3,6	;RP1=0, select bank1
  3647  0BF9  00A4               	movwf	??_conversion_newton^(0+128)
  3648  0BFA  160A  118A  2000  120A  158A  	fcall	stringdir
  3649  0BFF  00A5               	movwf	(??_conversion_newton^(0+128)+1)
  3650  0C00  160A  118A  2000  120A  158A  	fcall	stringdir
  3651  0C05  00A6               	movwf	(??_conversion_newton^(0+128)+2)
  3652  0C06  160A  118A  2000  120A  158A  	fcall	stringdir
  3653  0C0B  00A7               	movwf	(??_conversion_newton^(0+128)+3)
  3654  0C0C  0827               	movf	(??_conversion_newton+3)^(0+128),w
  3655  0C0D  00F6               	movwf	___flge@ff1+3
  3656  0C0E  0826               	movf	(??_conversion_newton+2)^(0+128),w
  3657  0C0F  00F5               	movwf	___flge@ff1+2
  3658  0C10  0825               	movf	(??_conversion_newton+1)^(0+128),w
  3659  0C11  00F4               	movwf	___flge@ff1+1
  3660  0C12  0824               	movf	??_conversion_newton^(0+128),w
  3661  0C13  00F3               	movwf	___flge@ff1
  3662  0C14  0823               	movf	(conversion_newton@Rc+3)^(0+128),w
  3663  0C15  00FA               	movwf	___flge@ff2+3
  3664  0C16  0822               	movf	(conversion_newton@Rc+2)^(0+128),w
  3665  0C17  00F9               	movwf	___flge@ff2+2
  3666  0C18  0821               	movf	(conversion_newton@Rc+1)^(0+128),w
  3667  0C19  00F8               	movwf	___flge@ff2+1
  3668  0C1A  0820               	movf	conversion_newton@Rc^(0+128),w
  3669  0C1B  00F7               	movwf	___flge@ff2
  3670  0C1C  160A  118A  2525  120A  158A  	fcall	___flge
  3671  0C21  1803               	btfsc	3,0
  3672  0C22  2C24               	goto	u4581
  3673  0C23  2C25               	goto	u4580
  3674  0C24                     u4581:
  3675  0C24  2C2C               	goto	l2829
  3676  0C25                     u4580:
  3677  0C25                     l2827:
  3678                           
  3679                           ;main.c: 151:          {;main.c: 152:          n = 4;
  3680  0C25  3004               	movlw	4
  3681  0C26  1683               	bsf	3,5	;RP0=1, select bank1
  3682  0C27  1303               	bcf	3,6	;RP1=0, select bank1
  3683  0C28  00C5               	movwf	conversion_newton@n^(0+128)
  3684  0C29  3000               	movlw	0
  3685  0C2A  00C6               	movwf	(conversion_newton@n^(0+128)+1)
  3686                           
  3687                           ;main.c: 153:          }
  3688  0C2B  2AD6               	goto	L1
  3689  0C2C                     l2829:
  3690  0C2C  3019               	movlw	low (((conversion_newton@R_tab+24)-__stringbase)| (0+32768))
  3691  0C2D  0084               	movwf	4
  3692  0C2E  160A  118A  2000  120A  158A  	fcall	stringdir
  3693  0C33  1683               	bsf	3,5	;RP0=1, select bank1
  3694  0C34  1303               	bcf	3,6	;RP1=0, select bank1
  3695  0C35  00A4               	movwf	??_conversion_newton^(0+128)
  3696  0C36  160A  118A  2000  120A  158A  	fcall	stringdir
  3697  0C3B  00A5               	movwf	(??_conversion_newton^(0+128)+1)
  3698  0C3C  160A  118A  2000  120A  158A  	fcall	stringdir
  3699  0C41  00A6               	movwf	(??_conversion_newton^(0+128)+2)
  3700  0C42  160A  118A  2000  120A  158A  	fcall	stringdir
  3701  0C47  00A7               	movwf	(??_conversion_newton^(0+128)+3)
  3702  0C48  0827               	movf	(??_conversion_newton+3)^(0+128),w
  3703  0C49  00F6               	movwf	___flge@ff1+3
  3704  0C4A  0826               	movf	(??_conversion_newton+2)^(0+128),w
  3705  0C4B  00F5               	movwf	___flge@ff1+2
  3706  0C4C  0825               	movf	(??_conversion_newton+1)^(0+128),w
  3707  0C4D  00F4               	movwf	___flge@ff1+1
  3708  0C4E  0824               	movf	??_conversion_newton^(0+128),w
  3709  0C4F  00F3               	movwf	___flge@ff1
  3710  0C50  0823               	movf	(conversion_newton@Rc+3)^(0+128),w
  3711  0C51  00FA               	movwf	___flge@ff2+3
  3712  0C52  0822               	movf	(conversion_newton@Rc+2)^(0+128),w
  3713  0C53  00F9               	movwf	___flge@ff2+2
  3714  0C54  0821               	movf	(conversion_newton@Rc+1)^(0+128),w
  3715  0C55  00F8               	movwf	___flge@ff2+1
  3716  0C56  0820               	movf	conversion_newton@Rc^(0+128),w
  3717  0C57  00F7               	movwf	___flge@ff2
  3718  0C58  160A  118A  2525  120A  158A  	fcall	___flge
  3719  0C5D  1C03               	btfss	3,0
  3720  0C5E  2C60               	goto	u4591
  3721  0C5F  2C63               	goto	u4590
  3722  0C60                     u4591:
  3723  0C60  120A  118A  2B66   	goto	l2835
  3724  0C63                     u4590:
  3725  0C63                     l2831:
  3726  0C63  3015               	movlw	low (((conversion_newton@R_tab+20)-__stringbase)| (0+32768))
  3727  0C64  0084               	movwf	4
  3728  0C65  160A  118A  2000  120A  158A  	fcall	stringdir
  3729  0C6A  1683               	bsf	3,5	;RP0=1, select bank1
  3730  0C6B  1303               	bcf	3,6	;RP1=0, select bank1
  3731  0C6C  00A4               	movwf	??_conversion_newton^(0+128)
  3732  0C6D  160A  118A  2000  120A  158A  	fcall	stringdir
  3733  0C72  00A5               	movwf	(??_conversion_newton^(0+128)+1)
  3734  0C73  160A  118A  2000  120A  158A  	fcall	stringdir
  3735  0C78  00A6               	movwf	(??_conversion_newton^(0+128)+2)
  3736  0C79  160A  118A  2000  120A  158A  	fcall	stringdir
  3737  0C7E  00A7               	movwf	(??_conversion_newton^(0+128)+3)
  3738  0C7F  0827               	movf	(??_conversion_newton+3)^(0+128),w
  3739  0C80  00F6               	movwf	___flge@ff1+3
  3740  0C81  0826               	movf	(??_conversion_newton+2)^(0+128),w
  3741  0C82  00F5               	movwf	___flge@ff1+2
  3742  0C83  0825               	movf	(??_conversion_newton+1)^(0+128),w
  3743  0C84  00F4               	movwf	___flge@ff1+1
  3744  0C85  0824               	movf	??_conversion_newton^(0+128),w
  3745  0C86  00F3               	movwf	___flge@ff1
  3746  0C87  0823               	movf	(conversion_newton@Rc+3)^(0+128),w
  3747  0C88  00FA               	movwf	___flge@ff2+3
  3748  0C89  0822               	movf	(conversion_newton@Rc+2)^(0+128),w
  3749  0C8A  00F9               	movwf	___flge@ff2+2
  3750  0C8B  0821               	movf	(conversion_newton@Rc+1)^(0+128),w
  3751  0C8C  00F8               	movwf	___flge@ff2+1
  3752  0C8D  0820               	movf	conversion_newton@Rc^(0+128),w
  3753  0C8E  00F7               	movwf	___flge@ff2
  3754  0C8F  160A  118A  2525  120A  158A  	fcall	___flge
  3755  0C94  1803               	btfsc	3,0
  3756  0C95  2C97               	goto	u4601
  3757  0C96  2C98               	goto	u4600
  3758  0C97                     u4601:
  3759  0C97  2C60               	goto	u4591
  3760  0C98                     u4600:
  3761  0C98                     l2833:
  3762                           
  3763                           ;main.c: 155:          {;main.c: 156:          n = 5;
  3764  0C98  3005               	movlw	5
  3765  0C99  1683               	bsf	3,5	;RP0=1, select bank1
  3766  0C9A  1303               	bcf	3,6	;RP1=0, select bank1
  3767  0C9B  00C5               	movwf	conversion_newton@n^(0+128)
  3768  0C9C  3000               	movlw	0
  3769  0C9D  00C6               	movwf	(conversion_newton@n^(0+128)+1)
  3770                           
  3771                           ;main.c: 157:          }
  3772  0C9E  2AD6               	goto	L1
  3773                           
  3774                           	psect	text14
  3775  1525                     __ptext14:	
  3776 ;; *************** function ___flge *****************
  3777 ;; Defined at:
  3778 ;;		line 4 in file "C:\Program Files\Microchip\xc8\v2.20\pic\sources\c90\common\flge.c"
  3779 ;; Parameters:    Size  Location     Type
  3780 ;;  ff1             4    2[COMMON] float 
  3781 ;;  ff2             4    6[COMMON] float 
  3782 ;; Auto vars:     Size  Location     Type
  3783 ;;		None
  3784 ;; Return value:  Size  Location     Type
  3785 ;;		None               void
  3786 ;; Registers used:
  3787 ;;		wreg, status,2, status,0
  3788 ;; Tracked objects:
  3789 ;;		On entry : 0/0
  3790 ;;		On exit  : 0/0
  3791 ;;		Unchanged: 0/0
  3792 ;; Data sizes:     COMMON   BANK0   BANK1   BANK3   BANK2
  3793 ;;      Params:         8       0       0       0       0
  3794 ;;      Locals:         0       0       0       0       0
  3795 ;;      Temps:          0       4       0       0       0
  3796 ;;      Totals:         8       4       0       0       0
  3797 ;;Total ram usage:       12 bytes
  3798 ;; Hardware stack levels used:    1
  3799 ;; Hardware stack levels required when called:    1
  3800 ;; This function calls:
  3801 ;;		Nothing
  3802 ;; This function is called by:
  3803 ;;		_conversion_newton
  3804 ;; This function uses a non-reentrant model
  3805 ;;
  3806                           
  3807                           
  3808                           ;psect for function ___flge
  3809  1525                     ___flge:
  3810  1525                     l2299:	
  3811                           ;incstack = 0
  3812                           ; Regs used in ___flge: [wreg+status,2+status,0]
  3813                           
  3814  1525  3000               	movlw	0
  3815  1526  0573               	andwf	___flge@ff1,w
  3816  1527  1283               	bcf	3,5	;RP0=0, select bank0
  3817  1528  1303               	bcf	3,6	;RP1=0, select bank0
  3818  1529  00A0               	movwf	??___flge
  3819  152A  3000               	movlw	0
  3820  152B  0574               	andwf	___flge@ff1+1,w
  3821  152C  00A1               	movwf	??___flge+1
  3822  152D  3080               	movlw	128
  3823  152E  0575               	andwf	___flge@ff1+2,w
  3824  152F  00A2               	movwf	??___flge+2
  3825  1530  307F               	movlw	127
  3826  1531  0576               	andwf	___flge@ff1+3,w
  3827  1532  00A3               	movwf	??___flge+3
  3828  1533  0823               	movf	??___flge+3,w
  3829  1534  0422               	iorwf	??___flge+2,w
  3830  1535  0421               	iorwf	??___flge+1,w
  3831  1536  0420               	iorwf	??___flge,w
  3832  1537  1D03               	skipz
  3833  1538  2D3A               	goto	u3401
  3834  1539  2D3B               	goto	u3400
  3835  153A                     u3401:
  3836  153A  2D43               	goto	l397
  3837  153B                     u3400:
  3838  153B                     l2301:
  3839  153B  3000               	movlw	0
  3840  153C  00F6               	movwf	___flge@ff1+3
  3841  153D  3000               	movlw	0
  3842  153E  00F5               	movwf	___flge@ff1+2
  3843  153F  3000               	movlw	0
  3844  1540  00F4               	movwf	___flge@ff1+1
  3845  1541  3000               	movlw	0
  3846  1542  00F3               	movwf	___flge@ff1
  3847  1543                     l397:
  3848  1543  3000               	movlw	0
  3849  1544  0577               	andwf	___flge@ff2,w
  3850  1545  00A0               	movwf	??___flge
  3851  1546  3000               	movlw	0
  3852  1547  0578               	andwf	___flge@ff2+1,w
  3853  1548  00A1               	movwf	??___flge+1
  3854  1549  3080               	movlw	128
  3855  154A  0579               	andwf	___flge@ff2+2,w
  3856  154B  00A2               	movwf	??___flge+2
  3857  154C  307F               	movlw	127
  3858  154D  057A               	andwf	___flge@ff2+3,w
  3859  154E  00A3               	movwf	??___flge+3
  3860  154F  0823               	movf	??___flge+3,w
  3861  1550  0422               	iorwf	??___flge+2,w
  3862  1551  0421               	iorwf	??___flge+1,w
  3863  1552  0420               	iorwf	??___flge,w
  3864  1553  1D03               	skipz
  3865  1554  2D56               	goto	u3411
  3866  1555  2D57               	goto	u3410
  3867  1556                     u3411:
  3868  1556  2D5F               	goto	l2305
  3869  1557                     u3410:
  3870  1557                     l2303:
  3871  1557  3000               	movlw	0
  3872  1558  00FA               	movwf	___flge@ff2+3
  3873  1559  3000               	movlw	0
  3874  155A  00F9               	movwf	___flge@ff2+2
  3875  155B  3000               	movlw	0
  3876  155C  00F8               	movwf	___flge@ff2+1
  3877  155D  3000               	movlw	0
  3878  155E  00F7               	movwf	___flge@ff2
  3879  155F                     l2305:
  3880  155F  1FF6               	btfss	___flge@ff1+3,7
  3881  1560  2D62               	goto	u3421
  3882  1561  2D63               	goto	u3420
  3883  1562                     u3421:
  3884  1562  2D87               	goto	l2309
  3885  1563                     u3420:
  3886  1563                     l2307:
  3887  1563  3000               	movlw	0
  3888  1564  00A0               	movwf	??___flge
  3889  1565  3000               	movlw	0
  3890  1566  00A1               	movwf	??___flge+1
  3891  1567  3000               	movlw	0
  3892  1568  00A2               	movwf	??___flge+2
  3893  1569  3080               	movlw	128
  3894  156A  00A3               	movwf	??___flge+3
  3895  156B  0873               	movf	___flge@ff1,w
  3896  156C  02A0               	subwf	??___flge,f
  3897  156D  0874               	movf	___flge@ff1+1,w
  3898  156E  1C03               	skipc
  3899  156F  0F74               	incfsz	___flge@ff1+1,w
  3900  1570  2D72               	goto	u3431
  3901  1571  2D73               	goto	u3432
  3902  1572                     u3431:
  3903  1572  02A1               	subwf	??___flge+1,f
  3904  1573                     u3432:
  3905  1573  0875               	movf	___flge@ff1+2,w
  3906  1574  1C03               	skipc
  3907  1575  0F75               	incfsz	___flge@ff1+2,w
  3908  1576  2D78               	goto	u3433
  3909  1577  2D79               	goto	u3434
  3910  1578                     u3433:
  3911  1578  02A2               	subwf	??___flge+2,f
  3912  1579                     u3434:
  3913  1579  0876               	movf	___flge@ff1+3,w
  3914  157A  1C03               	skipc
  3915  157B  0F76               	incfsz	___flge@ff1+3,w
  3916  157C  2D7E               	goto	u3435
  3917  157D  2D7F               	goto	u3436
  3918  157E                     u3435:
  3919  157E  02A3               	subwf	??___flge+3,f
  3920  157F                     u3436:
  3921  157F  0823               	movf	??___flge+3,w
  3922  1580  00F6               	movwf	___flge@ff1+3
  3923  1581  0822               	movf	??___flge+2,w
  3924  1582  00F5               	movwf	___flge@ff1+2
  3925  1583  0821               	movf	??___flge+1,w
  3926  1584  00F4               	movwf	___flge@ff1+1
  3927  1585  0820               	movf	??___flge,w
  3928  1586  00F3               	movwf	___flge@ff1
  3929  1587                     l2309:
  3930  1587  1FFA               	btfss	___flge@ff2+3,7
  3931  1588  2D8A               	goto	u3441
  3932  1589  2D8B               	goto	u3440
  3933  158A                     u3441:
  3934  158A  2DAF               	goto	l400
  3935  158B                     u3440:
  3936  158B                     l2311:
  3937  158B  3000               	movlw	0
  3938  158C  00A0               	movwf	??___flge
  3939  158D  3000               	movlw	0
  3940  158E  00A1               	movwf	??___flge+1
  3941  158F  3000               	movlw	0
  3942  1590  00A2               	movwf	??___flge+2
  3943  1591  3080               	movlw	128
  3944  1592  00A3               	movwf	??___flge+3
  3945  1593  0877               	movf	___flge@ff2,w
  3946  1594  02A0               	subwf	??___flge,f
  3947  1595  0878               	movf	___flge@ff2+1,w
  3948  1596  1C03               	skipc
  3949  1597  0F78               	incfsz	___flge@ff2+1,w
  3950  1598  2D9A               	goto	u3451
  3951  1599  2D9B               	goto	u3452
  3952  159A                     u3451:
  3953  159A  02A1               	subwf	??___flge+1,f
  3954  159B                     u3452:
  3955  159B  0879               	movf	___flge@ff2+2,w
  3956  159C  1C03               	skipc
  3957  159D  0F79               	incfsz	___flge@ff2+2,w
  3958  159E  2DA0               	goto	u3453
  3959  159F  2DA1               	goto	u3454
  3960  15A0                     u3453:
  3961  15A0  02A2               	subwf	??___flge+2,f
  3962  15A1                     u3454:
  3963  15A1  087A               	movf	___flge@ff2+3,w
  3964  15A2  1C03               	skipc
  3965  15A3  0F7A               	incfsz	___flge@ff2+3,w
  3966  15A4  2DA6               	goto	u3455
  3967  15A5  2DA7               	goto	u3456
  3968  15A6                     u3455:
  3969  15A6  02A3               	subwf	??___flge+3,f
  3970  15A7                     u3456:
  3971  15A7  0823               	movf	??___flge+3,w
  3972  15A8  00FA               	movwf	___flge@ff2+3
  3973  15A9  0822               	movf	??___flge+2,w
  3974  15AA  00F9               	movwf	___flge@ff2+2
  3975  15AB  0821               	movf	??___flge+1,w
  3976  15AC  00F8               	movwf	___flge@ff2+1
  3977  15AD  0820               	movf	??___flge,w
  3978  15AE  00F7               	movwf	___flge@ff2
  3979  15AF                     l400:
  3980  15AF  3080               	movlw	128
  3981  15B0  06F6               	xorwf	___flge@ff1+3,f
  3982  15B1  3080               	movlw	128
  3983  15B2  06FA               	xorwf	___flge@ff2+3,f
  3984  15B3  087A               	movf	___flge@ff2+3,w
  3985  15B4  0276               	subwf	___flge@ff1+3,w
  3986  15B5  1D03               	skipz
  3987  15B6  2DC1               	goto	u3465
  3988  15B7  0879               	movf	___flge@ff2+2,w
  3989  15B8  0275               	subwf	___flge@ff1+2,w
  3990  15B9  1D03               	skipz
  3991  15BA  2DC1               	goto	u3465
  3992  15BB  0878               	movf	___flge@ff2+1,w
  3993  15BC  0274               	subwf	___flge@ff1+1,w
  3994  15BD  1D03               	skipz
  3995  15BE  2DC1               	goto	u3465
  3996  15BF  0877               	movf	___flge@ff2,w
  3997  15C0  0273               	subwf	___flge@ff1,w
  3998  15C1                     u3465:
  3999  15C1  1803               	skipnc
  4000  15C2  2DC4               	goto	u3461
  4001  15C3  2DC5               	goto	u3460
  4002  15C4                     u3461:
  4003  15C4  2DC7               	goto	l2315
  4004  15C5                     u3460:
  4005  15C5                     l2313:
  4006  15C5  1003               	clrc
  4007  15C6  2DC8               	goto	l401
  4008  15C7                     l2315:
  4009  15C7  1403               	setc
  4010  15C8                     l401:
  4011  15C8  0008               	return
  4012  15C9                     __end_of___flge:
  4013                           
  4014                           	psect	text15
  4015  120A                     __ptext15:	
  4016 ;; *************** function _Voltage_Value *****************
  4017 ;; Defined at:
  4018 ;;		line 107 in file "main.c"
  4019 ;; Parameters:    Size  Location     Type
  4020 ;;  sensor          1    wreg     unsigned char 
  4021 ;; Auto vars:     Size  Location     Type
  4022 ;;  sensor          1    8[BANK1 ] unsigned char 
  4023 ;; Return value:  Size  Location     Type
  4024 ;;                  4    0[BANK1 ] float 
  4025 ;; Registers used:
  4026 ;;		wreg, status,2, status,0, btemp+1, pclath, cstack
  4027 ;; Tracked objects:
  4028 ;;		On entry : 0/0
  4029 ;;		On exit  : 0/0
  4030 ;;		Unchanged: 0/0
  4031 ;; Data sizes:     COMMON   BANK0   BANK1   BANK3   BANK2
  4032 ;;      Params:         0       0       4       0       0
  4033 ;;      Locals:         0       0       1       0       0
  4034 ;;      Temps:          0       0       4       0       0
  4035 ;;      Totals:         0       0       9       0       0
  4036 ;;Total ram usage:        9 bytes
  4037 ;; Hardware stack levels used:    1
  4038 ;; Hardware stack levels required when called:    3
  4039 ;; This function calls:
  4040 ;;		___fldiv
  4041 ;;		___flmul
  4042 ;;		___xxtofl
  4043 ;; This function is called by:
  4044 ;;		_Get_Newton
  4045 ;; This function uses a non-reentrant model
  4046 ;;
  4047                           
  4048                           
  4049                           ;psect for function _Voltage_Value
  4050  120A                     _Voltage_Value:
  4051                           
  4052                           ;incstack = 0
  4053                           ; Regs used in _Voltage_Value: [wreg+status,2+status,0+btemp+1+pclath+cstack]
  4054                           ;Voltage_Value@sensor stored from wreg
  4055  120A  1683               	bsf	3,5	;RP0=1, select bank1
  4056  120B  1303               	bcf	3,6	;RP1=0, select bank1
  4057  120C  00A8               	movwf	Voltage_Value@sensor^(0+128)
  4058  120D                     l2793:
  4059                           
  4060                           ;main.c: 109:     return (float) sensor * 5/256;
  4061  120D  3043               	movlw	67
  4062  120E  1283               	bcf	3,5	;RP0=0, select bank0
  4063  120F  1303               	bcf	3,6	;RP1=0, select bank0
  4064  1210  00BF               	movwf	___fldiv@a+3
  4065  1211  3080               	movlw	128
  4066  1212  00BE               	movwf	___fldiv@a+2
  4067  1213  3000               	movlw	0
  4068  1214  00BD               	movwf	___fldiv@a+1
  4069  1215  3000               	movlw	0
  4070  1216  00BC               	movwf	___fldiv@a
  4071  1217  3040               	movlw	64
  4072  1218  00D9               	movwf	___flmul@b+3
  4073  1219  30A0               	movlw	160
  4074  121A  00D8               	movwf	___flmul@b+2
  4075  121B  3000               	movlw	0
  4076  121C  00D7               	movwf	___flmul@b+1
  4077  121D  3000               	movlw	0
  4078  121E  00D6               	movwf	___flmul@b
  4079  121F  1683               	bsf	3,5	;RP0=1, select bank1
  4080  1220  1303               	bcf	3,6	;RP1=0, select bank1
  4081  1221  0828               	movf	Voltage_Value@sensor^(0+128),w
  4082  1222  00A4               	movwf	??_Voltage_Value^(0+128)
  4083  1223  01A5               	clrf	(??_Voltage_Value^(0+128)+1)
  4084  1224  01A6               	clrf	(??_Voltage_Value^(0+128)+2)
  4085  1225  01A7               	clrf	(??_Voltage_Value^(0+128)+3)
  4086  1226  0827               	movf	(??_Voltage_Value+3)^(0+128),w
  4087  1227  1283               	bcf	3,5	;RP0=0, select bank0
  4088  1228  1303               	bcf	3,6	;RP1=0, select bank0
  4089  1229  00A3               	movwf	___xxtofl@val+3
  4090  122A  1683               	bsf	3,5	;RP0=1, select bank1
  4091  122B  1303               	bcf	3,6	;RP1=0, select bank1
  4092  122C  0826               	movf	(??_Voltage_Value+2)^(0+128),w
  4093  122D  1283               	bcf	3,5	;RP0=0, select bank0
  4094  122E  1303               	bcf	3,6	;RP1=0, select bank0
  4095  122F  00A2               	movwf	___xxtofl@val+2
  4096  1230  1683               	bsf	3,5	;RP0=1, select bank1
  4097  1231  1303               	bcf	3,6	;RP1=0, select bank1
  4098  1232  0825               	movf	(??_Voltage_Value+1)^(0+128),w
  4099  1233  1283               	bcf	3,5	;RP0=0, select bank0
  4100  1234  1303               	bcf	3,6	;RP1=0, select bank0
  4101  1235  00A1               	movwf	___xxtofl@val+1
  4102  1236  1683               	bsf	3,5	;RP0=1, select bank1
  4103  1237  1303               	bcf	3,6	;RP1=0, select bank1
  4104  1238  0824               	movf	??_Voltage_Value^(0+128),w
  4105  1239  1283               	bcf	3,5	;RP0=0, select bank0
  4106  123A  1303               	bcf	3,6	;RP1=0, select bank0
  4107  123B  00A0               	movwf	___xxtofl@val
  4108  123C  3000               	movlw	0
  4109  123D  120A  118A  2022  160A  118A  	fcall	___xxtofl
  4110  1242  1283               	bcf	3,5	;RP0=0, select bank0
  4111  1243  1303               	bcf	3,6	;RP1=0, select bank0
  4112  1244  0823               	movf	?___xxtofl+3,w
  4113  1245  00DD               	movwf	___flmul@a+3
  4114  1246  0822               	movf	?___xxtofl+2,w
  4115  1247  00DC               	movwf	___flmul@a+2
  4116  1248  0821               	movf	?___xxtofl+1,w
  4117  1249  00DB               	movwf	___flmul@a+1
  4118  124A  0820               	movf	?___xxtofl,w
  4119  124B  00DA               	movwf	___flmul@a
  4120  124C  120A  158A  249F  160A  118A  	fcall	___flmul
  4121  1251  1283               	bcf	3,5	;RP0=0, select bank0
  4122  1252  1303               	bcf	3,6	;RP1=0, select bank0
  4123  1253  0859               	movf	?___flmul+3,w
  4124  1254  00C3               	movwf	___fldiv@b+3
  4125  1255  0858               	movf	?___flmul+2,w
  4126  1256  00C2               	movwf	___fldiv@b+2
  4127  1257  0857               	movf	?___flmul+1,w
  4128  1258  00C1               	movwf	___fldiv@b+1
  4129  1259  0856               	movf	?___flmul,w
  4130  125A  00C0               	movwf	___fldiv@b
  4131  125B  120A  158A  2050  160A  118A  	fcall	___fldiv
  4132  1260  1283               	bcf	3,5	;RP0=0, select bank0
  4133  1261  1303               	bcf	3,6	;RP1=0, select bank0
  4134  1262  083F               	movf	?___fldiv+3,w
  4135  1263  1683               	bsf	3,5	;RP0=1, select bank1
  4136  1264  1303               	bcf	3,6	;RP1=0, select bank1
  4137  1265  00A3               	movwf	(?_Voltage_Value+3)^(0+128)
  4138  1266  1283               	bcf	3,5	;RP0=0, select bank0
  4139  1267  1303               	bcf	3,6	;RP1=0, select bank0
  4140  1268  083E               	movf	?___fldiv+2,w
  4141  1269  1683               	bsf	3,5	;RP0=1, select bank1
  4142  126A  1303               	bcf	3,6	;RP1=0, select bank1
  4143  126B  00A2               	movwf	(?_Voltage_Value+2)^(0+128)
  4144  126C  1283               	bcf	3,5	;RP0=0, select bank0
  4145  126D  1303               	bcf	3,6	;RP1=0, select bank0
  4146  126E  083D               	movf	?___fldiv+1,w
  4147  126F  1683               	bsf	3,5	;RP0=1, select bank1
  4148  1270  1303               	bcf	3,6	;RP1=0, select bank1
  4149  1271  00A1               	movwf	(?_Voltage_Value+1)^(0+128)
  4150  1272  1283               	bcf	3,5	;RP0=0, select bank0
  4151  1273  1303               	bcf	3,6	;RP1=0, select bank0
  4152  1274  083C               	movf	?___fldiv,w
  4153  1275  1683               	bsf	3,5	;RP0=1, select bank1
  4154  1276  1303               	bcf	3,6	;RP1=0, select bank1
  4155  1277  00A0               	movwf	?_Voltage_Value^(0+128)
  4156  1278                     l40:
  4157  1278  0008               	return
  4158  1279                     __end_of_Voltage_Value:
  4159                           
  4160                           	psect	text16
  4161  13F8                     __ptext16:	
  4162 ;; *************** function _Resistance_Value *****************
  4163 ;; Defined at:
  4164 ;;		line 118 in file "main.c"
  4165 ;; Parameters:    Size  Location     Type
  4166 ;;  Voltage         4    0[BANK1 ] float 
  4167 ;;  R               2    4[BANK1 ] int 
  4168 ;; Auto vars:     Size  Location     Type
  4169 ;;		None
  4170 ;; Return value:  Size  Location     Type
  4171 ;;                  4    0[BANK1 ] float 
  4172 ;; Registers used:
  4173 ;;		wreg, status,2, status,0, btemp+1, pclath, cstack
  4174 ;; Tracked objects:
  4175 ;;		On entry : 0/0
  4176 ;;		On exit  : 0/0
  4177 ;;		Unchanged: 0/0
  4178 ;; Data sizes:     COMMON   BANK0   BANK1   BANK3   BANK2
  4179 ;;      Params:         0       0       6       0       0
  4180 ;;      Locals:         0       0       0       0       0
  4181 ;;      Temps:          0       0       0       0       0
  4182 ;;      Totals:         0       0       6       0       0
  4183 ;;Total ram usage:        6 bytes
  4184 ;; Hardware stack levels used:    1
  4185 ;; Hardware stack levels required when called:    3
  4186 ;; This function calls:
  4187 ;;		___fldiv
  4188 ;;		___flmul
  4189 ;;		___flsub
  4190 ;;		___wmul
  4191 ;;		___xxtofl
  4192 ;; This function is called by:
  4193 ;;		_Get_Newton
  4194 ;; This function uses a non-reentrant model
  4195 ;;
  4196                           
  4197                           
  4198                           ;psect for function _Resistance_Value
  4199  13F8                     _Resistance_Value:
  4200  13F8                     l2797:	
  4201                           ;incstack = 0
  4202                           ; Regs used in _Resistance_Value: [wreg+status,2+status,0+btemp+1+pclath+cstack]
  4203                           
  4204                           
  4205                           ;main.c: 119:     return (float) (R * 5)/(5 -(2*Voltage));
  4206  13F8  3040               	movlw	64
  4207  13F9  1283               	bcf	3,5	;RP0=0, select bank0
  4208  13FA  1303               	bcf	3,6	;RP1=0, select bank0
  4209  13FB  00BB               	movwf	___flsub@b+3
  4210  13FC  30A0               	movlw	160
  4211  13FD  00BA               	movwf	___flsub@b+2
  4212  13FE  3000               	movlw	0
  4213  13FF  00B9               	movwf	___flsub@b+1
  4214  1400  3000               	movlw	0
  4215  1401  00B8               	movwf	___flsub@b
  4216  1402  1683               	bsf	3,5	;RP0=1, select bank1
  4217  1403  1303               	bcf	3,6	;RP1=0, select bank1
  4218  1404  0823               	movf	(Resistance_Value@Voltage+3)^(0+128),w
  4219  1405  1283               	bcf	3,5	;RP0=0, select bank0
  4220  1406  1303               	bcf	3,6	;RP1=0, select bank0
  4221  1407  00DD               	movwf	___flmul@a+3
  4222  1408  1683               	bsf	3,5	;RP0=1, select bank1
  4223  1409  1303               	bcf	3,6	;RP1=0, select bank1
  4224  140A  0822               	movf	(Resistance_Value@Voltage+2)^(0+128),w
  4225  140B  1283               	bcf	3,5	;RP0=0, select bank0
  4226  140C  1303               	bcf	3,6	;RP1=0, select bank0
  4227  140D  00DC               	movwf	___flmul@a+2
  4228  140E  1683               	bsf	3,5	;RP0=1, select bank1
  4229  140F  1303               	bcf	3,6	;RP1=0, select bank1
  4230  1410  0821               	movf	(Resistance_Value@Voltage+1)^(0+128),w
  4231  1411  1283               	bcf	3,5	;RP0=0, select bank0
  4232  1412  1303               	bcf	3,6	;RP1=0, select bank0
  4233  1413  00DB               	movwf	___flmul@a+1
  4234  1414  1683               	bsf	3,5	;RP0=1, select bank1
  4235  1415  1303               	bcf	3,6	;RP1=0, select bank1
  4236  1416  0820               	movf	Resistance_Value@Voltage^(0+128),w
  4237  1417  1283               	bcf	3,5	;RP0=0, select bank0
  4238  1418  1303               	bcf	3,6	;RP1=0, select bank0
  4239  1419  00DA               	movwf	___flmul@a
  4240  141A  3040               	movlw	64
  4241  141B  00D9               	movwf	___flmul@b+3
  4242  141C  3000               	movlw	0
  4243  141D  00D8               	movwf	___flmul@b+2
  4244  141E  3000               	movlw	0
  4245  141F  00D7               	movwf	___flmul@b+1
  4246  1420  3000               	movlw	0
  4247  1421  00D6               	movwf	___flmul@b
  4248  1422  120A  158A  249F  160A  118A  	fcall	___flmul
  4249  1427  1283               	bcf	3,5	;RP0=0, select bank0
  4250  1428  1303               	bcf	3,6	;RP1=0, select bank0
  4251  1429  0859               	movf	?___flmul+3,w
  4252  142A  00B7               	movwf	___flsub@a+3
  4253  142B  0858               	movf	?___flmul+2,w
  4254  142C  00B6               	movwf	___flsub@a+2
  4255  142D  0857               	movf	?___flmul+1,w
  4256  142E  00B5               	movwf	___flsub@a+1
  4257  142F  0856               	movf	?___flmul,w
  4258  1430  00B4               	movwf	___flsub@a
  4259  1431  160A  158A  25D2  160A  118A  	fcall	___flsub
  4260  1436  1283               	bcf	3,5	;RP0=0, select bank0
  4261  1437  1303               	bcf	3,6	;RP1=0, select bank0
  4262  1438  0837               	movf	?___flsub+3,w
  4263  1439  00BF               	movwf	___fldiv@a+3
  4264  143A  0836               	movf	?___flsub+2,w
  4265  143B  00BE               	movwf	___fldiv@a+2
  4266  143C  0835               	movf	?___flsub+1,w
  4267  143D  00BD               	movwf	___fldiv@a+1
  4268  143E  0834               	movf	?___flsub,w
  4269  143F  00BC               	movwf	___fldiv@a
  4270  1440  3005               	movlw	5
  4271  1441  00F5               	movwf	___wmul@multiplicand
  4272  1442  3000               	movlw	0
  4273  1443  00F6               	movwf	___wmul@multiplicand+1
  4274  1444  1683               	bsf	3,5	;RP0=1, select bank1
  4275  1445  1303               	bcf	3,6	;RP1=0, select bank1
  4276  1446  0825               	movf	(Resistance_Value@R+1)^(0+128),w
  4277  1447  00F4               	movwf	___wmul@multiplier+1
  4278  1448  0824               	movf	Resistance_Value@R^(0+128),w
  4279  1449  00F3               	movwf	___wmul@multiplier
  4280  144A  160A  158A  261B  160A  118A  	fcall	___wmul
  4281  144F  0873               	movf	?___wmul,w
  4282  1450  1283               	bcf	3,5	;RP0=0, select bank0
  4283  1451  1303               	bcf	3,6	;RP1=0, select bank0
  4284  1452  00A0               	movwf	___xxtofl@val
  4285  1453  0874               	movf	?___wmul+1,w
  4286  1454  00A1               	movwf	___xxtofl@val+1
  4287  1455  3000               	movlw	0
  4288  1456  1BA1               	btfsc	___xxtofl@val+1,7
  4289  1457  30FF               	movlw	255
  4290  1458  00A2               	movwf	___xxtofl@val+2
  4291  1459  00A3               	movwf	___xxtofl@val+3
  4292  145A  3001               	movlw	1
  4293  145B  120A  118A  2022  160A  118A  	fcall	___xxtofl
  4294  1460  1283               	bcf	3,5	;RP0=0, select bank0
  4295  1461  1303               	bcf	3,6	;RP1=0, select bank0
  4296  1462  0823               	movf	?___xxtofl+3,w
  4297  1463  00C3               	movwf	___fldiv@b+3
  4298  1464  0822               	movf	?___xxtofl+2,w
  4299  1465  00C2               	movwf	___fldiv@b+2
  4300  1466  0821               	movf	?___xxtofl+1,w
  4301  1467  00C1               	movwf	___fldiv@b+1
  4302  1468  0820               	movf	?___xxtofl,w
  4303  1469  00C0               	movwf	___fldiv@b
  4304  146A  120A  158A  2050  160A  118A  	fcall	___fldiv
  4305  146F  1283               	bcf	3,5	;RP0=0, select bank0
  4306  1470  1303               	bcf	3,6	;RP1=0, select bank0
  4307  1471  083F               	movf	?___fldiv+3,w
  4308  1472  1683               	bsf	3,5	;RP0=1, select bank1
  4309  1473  1303               	bcf	3,6	;RP1=0, select bank1
  4310  1474  00A3               	movwf	(?_Resistance_Value+3)^(0+128)
  4311  1475  1283               	bcf	3,5	;RP0=0, select bank0
  4312  1476  1303               	bcf	3,6	;RP1=0, select bank0
  4313  1477  083E               	movf	?___fldiv+2,w
  4314  1478  1683               	bsf	3,5	;RP0=1, select bank1
  4315  1479  1303               	bcf	3,6	;RP1=0, select bank1
  4316  147A  00A2               	movwf	(?_Resistance_Value+2)^(0+128)
  4317  147B  1283               	bcf	3,5	;RP0=0, select bank0
  4318  147C  1303               	bcf	3,6	;RP1=0, select bank0
  4319  147D  083D               	movf	?___fldiv+1,w
  4320  147E  1683               	bsf	3,5	;RP0=1, select bank1
  4321  147F  1303               	bcf	3,6	;RP1=0, select bank1
  4322  1480  00A1               	movwf	(?_Resistance_Value+1)^(0+128)
  4323  1481  1283               	bcf	3,5	;RP0=0, select bank0
  4324  1482  1303               	bcf	3,6	;RP1=0, select bank0
  4325  1483  083C               	movf	?___fldiv,w
  4326  1484  1683               	bsf	3,5	;RP0=1, select bank1
  4327  1485  1303               	bcf	3,6	;RP1=0, select bank1
  4328  1486  00A0               	movwf	?_Resistance_Value^(0+128)
  4329  1487                     l43:
  4330  1487  0008               	return
  4331  1488                     __end_of_Resistance_Value:
  4332                           
  4333                           	psect	text17
  4334  0022                     __ptext17:	
  4335 ;; *************** function ___xxtofl *****************
  4336 ;; Defined at:
  4337 ;;		line 10 in file "C:\Program Files\Microchip\xc8\v2.20\pic\sources\c90\common\xxtofl.c"
  4338 ;; Parameters:    Size  Location     Type
  4339 ;;  sign            1    wreg     unsigned char 
  4340 ;;  val             4    0[BANK0 ] long 
  4341 ;; Auto vars:     Size  Location     Type
  4342 ;;  sign            1    8[BANK0 ] unsigned char 
  4343 ;;  arg             4   10[BANK0 ] unsigned long 
  4344 ;;  exp             1    9[BANK0 ] unsigned char 
  4345 ;; Return value:  Size  Location     Type
  4346 ;;                  4    0[BANK0 ] unsigned char 
  4347 ;; Registers used:
  4348 ;;		wreg, status,2, status,0, btemp+1
  4349 ;; Tracked objects:
  4350 ;;		On entry : 0/0
  4351 ;;		On exit  : 0/0
  4352 ;;		Unchanged: 0/0
  4353 ;; Data sizes:     COMMON   BANK0   BANK1   BANK3   BANK2
  4354 ;;      Params:         0       4       0       0       0
  4355 ;;      Locals:         0       6       0       0       0
  4356 ;;      Temps:          0       4       0       0       0
  4357 ;;      Totals:         0      14       0       0       0
  4358 ;;Total ram usage:       14 bytes
  4359 ;; Hardware stack levels used:    1
  4360 ;; Hardware stack levels required when called:    1
  4361 ;; This function calls:
  4362 ;;		Nothing
  4363 ;; This function is called by:
  4364 ;;		_Voltage_Value
  4365 ;;		_Resistance_Value
  4366 ;; This function uses a non-reentrant model
  4367 ;;
  4368                           
  4369                           
  4370                           ;psect for function ___xxtofl
  4371  0022                     ___xxtofl:
  4372                           
  4373                           ;incstack = 0
  4374                           ; Regs used in ___xxtofl: [wreg+status,2+status,0+btemp+1]
  4375                           ;___xxtofl@sign stored from wreg
  4376  0022  1283               	bcf	3,5	;RP0=0, select bank0
  4377  0023  1303               	bcf	3,6	;RP1=0, select bank0
  4378  0024  00A8               	movwf	___xxtofl@sign
  4379  0025                     l2697:
  4380  0025  0828               	movf	___xxtofl@sign,w
  4381  0026  1903               	btfsc	3,2
  4382  0027  2829               	goto	u4361
  4383  0028  282A               	goto	u4360
  4384  0029                     u4361:
  4385  0029  283E               	goto	l2703
  4386  002A                     u4360:
  4387  002A                     l2699:
  4388  002A  1FA3               	btfss	___xxtofl@val+3,7
  4389  002B  282D               	goto	u4371
  4390  002C  282E               	goto	u4370
  4391  002D                     u4371:
  4392  002D  283E               	goto	l2703
  4393  002E                     u4370:
  4394  002E                     l2701:
  4395  002E  0920               	comf	___xxtofl@val,w
  4396  002F  00AA               	movwf	___xxtofl@arg
  4397  0030  0921               	comf	___xxtofl@val+1,w
  4398  0031  00AB               	movwf	___xxtofl@arg+1
  4399  0032  0922               	comf	___xxtofl@val+2,w
  4400  0033  00AC               	movwf	___xxtofl@arg+2
  4401  0034  0923               	comf	___xxtofl@val+3,w
  4402  0035  00AD               	movwf	___xxtofl@arg+3
  4403  0036  0AAA               	incf	___xxtofl@arg,f
  4404  0037  1903               	skipnz
  4405  0038  0AAB               	incf	___xxtofl@arg+1,f
  4406  0039  1903               	skipnz
  4407  003A  0AAC               	incf	___xxtofl@arg+2,f
  4408  003B  1903               	skipnz
  4409  003C  0AAD               	incf	___xxtofl@arg+3,f
  4410  003D  2846               	goto	l656
  4411  003E                     l2703:
  4412  003E  0823               	movf	___xxtofl@val+3,w
  4413  003F  00AD               	movwf	___xxtofl@arg+3
  4414  0040  0822               	movf	___xxtofl@val+2,w
  4415  0041  00AC               	movwf	___xxtofl@arg+2
  4416  0042  0821               	movf	___xxtofl@val+1,w
  4417  0043  00AB               	movwf	___xxtofl@arg+1
  4418  0044  0820               	movf	___xxtofl@val,w
  4419  0045  00AA               	movwf	___xxtofl@arg
  4420  0046                     l656:
  4421  0046  0823               	movf	___xxtofl@val+3,w
  4422  0047  0422               	iorwf	___xxtofl@val+2,w
  4423  0048  0421               	iorwf	___xxtofl@val+1,w
  4424  0049  0420               	iorwf	___xxtofl@val,w
  4425  004A  1D03               	skipz
  4426  004B  284D               	goto	u4381
  4427  004C  284E               	goto	u4380
  4428  004D                     u4381:
  4429  004D  2857               	goto	l2709
  4430  004E                     u4380:
  4431  004E                     l2705:
  4432  004E  3000               	movlw	0
  4433  004F  00A3               	movwf	?___xxtofl+3
  4434  0050  3000               	movlw	0
  4435  0051  00A2               	movwf	?___xxtofl+2
  4436  0052  3000               	movlw	0
  4437  0053  00A1               	movwf	?___xxtofl+1
  4438  0054  3000               	movlw	0
  4439  0055  00A0               	movwf	?___xxtofl
  4440  0056  28DD               	goto	l658
  4441  0057                     l2709:
  4442  0057  3096               	movlw	150
  4443  0058  00FF               	movwf	btemp+1
  4444  0059  087F               	movf	btemp+1,w
  4445  005A  00A9               	movwf	___xxtofl@exp
  4446  005B  2869               	goto	l2715
  4447  005C                     l2711:
  4448  005C  3001               	movlw	1
  4449  005D  00FF               	movwf	btemp+1
  4450  005E  087F               	movf	btemp+1,w
  4451  005F  07A9               	addwf	___xxtofl@exp,f
  4452  0060                     l2713:
  4453  0060  3001               	movlw	1
  4454  0061                     u4395:
  4455  0061  1003               	clrc
  4456  0062  0CAD               	rrf	___xxtofl@arg+3,f
  4457  0063  0CAC               	rrf	___xxtofl@arg+2,f
  4458  0064  0CAB               	rrf	___xxtofl@arg+1,f
  4459  0065  0CAA               	rrf	___xxtofl@arg,f
  4460  0066  3EFF               	addlw	-1
  4461  0067  1D03               	skipz
  4462  0068  2861               	goto	u4395
  4463  0069                     l2715:
  4464  0069  30FE               	movlw	254
  4465  006A  052D               	andwf	___xxtofl@arg+3,w
  4466  006B  1D03               	btfss	3,2
  4467  006C  286E               	goto	u4401
  4468  006D  286F               	goto	u4400
  4469  006E                     u4401:
  4470  006E  285C               	goto	l2711
  4471  006F                     u4400:
  4472  006F  288B               	goto	l2723
  4473  0070                     l2717:
  4474  0070  3001               	movlw	1
  4475  0071  00FF               	movwf	btemp+1
  4476  0072  087F               	movf	btemp+1,w
  4477  0073  07A9               	addwf	___xxtofl@exp,f
  4478  0074                     l2719:
  4479  0074  3001               	movlw	1
  4480  0075  07AA               	addwf	___xxtofl@arg,f
  4481  0076  3000               	movlw	0
  4482  0077  1803               	skipnc
  4483  0078  3001               	movlw	1
  4484  0079  07AB               	addwf	___xxtofl@arg+1,f
  4485  007A  3000               	movlw	0
  4486  007B  1803               	skipnc
  4487  007C  3001               	movlw	1
  4488  007D  07AC               	addwf	___xxtofl@arg+2,f
  4489  007E  3000               	movlw	0
  4490  007F  1803               	skipnc
  4491  0080  3001               	movlw	1
  4492  0081  07AD               	addwf	___xxtofl@arg+3,f
  4493  0082                     l2721:
  4494  0082  3001               	movlw	1
  4495  0083                     u4415:
  4496  0083  1003               	clrc
  4497  0084  0CAD               	rrf	___xxtofl@arg+3,f
  4498  0085  0CAC               	rrf	___xxtofl@arg+2,f
  4499  0086  0CAB               	rrf	___xxtofl@arg+1,f
  4500  0087  0CAA               	rrf	___xxtofl@arg,f
  4501  0088  3EFF               	addlw	-1
  4502  0089  1D03               	skipz
  4503  008A  2883               	goto	u4415
  4504  008B                     l2723:
  4505  008B  30FF               	movlw	255
  4506  008C  052D               	andwf	___xxtofl@arg+3,w
  4507  008D  1D03               	btfss	3,2
  4508  008E  2890               	goto	u4421
  4509  008F  2891               	goto	u4420
  4510  0090                     u4421:
  4511  0090  2870               	goto	l2717
  4512  0091                     u4420:
  4513  0091  289D               	goto	l2727
  4514  0092                     l2725:
  4515  0092  3001               	movlw	1
  4516  0093  02A9               	subwf	___xxtofl@exp,f
  4517  0094  3001               	movlw	1
  4518  0095  00A4               	movwf	??___xxtofl
  4519  0096                     u4435:
  4520  0096  1003               	clrc
  4521  0097  0DAA               	rlf	___xxtofl@arg,f
  4522  0098  0DAB               	rlf	___xxtofl@arg+1,f
  4523  0099  0DAC               	rlf	___xxtofl@arg+2,f
  4524  009A  0DAD               	rlf	___xxtofl@arg+3,f
  4525  009B  0BA4               	decfsz	??___xxtofl,f
  4526  009C  2896               	goto	u4435
  4527  009D                     l2727:
  4528  009D  1BAC               	btfsc	___xxtofl@arg+2,7
  4529  009E  28A0               	goto	u4441
  4530  009F  28A1               	goto	u4440
  4531  00A0                     u4441:
  4532  00A0  28A7               	goto	l669
  4533  00A1                     u4440:
  4534  00A1                     l2729:
  4535  00A1  3002               	movlw	2
  4536  00A2  0229               	subwf	___xxtofl@exp,w
  4537  00A3  1803               	skipnc
  4538  00A4  28A6               	goto	u4451
  4539  00A5  28A7               	goto	u4450
  4540  00A6                     u4451:
  4541  00A6  2892               	goto	l2725
  4542  00A7                     u4450:
  4543  00A7                     l669:
  4544  00A7  1829               	btfsc	___xxtofl@exp,0
  4545  00A8  28AA               	goto	u4461
  4546  00A9  28AB               	goto	u4460
  4547  00AA                     u4461:
  4548  00AA  28B3               	goto	l670
  4549  00AB                     u4460:
  4550  00AB                     l2731:
  4551  00AB  30FF               	movlw	255
  4552  00AC  05AA               	andwf	___xxtofl@arg,f
  4553  00AD  30FF               	movlw	255
  4554  00AE  05AB               	andwf	___xxtofl@arg+1,f
  4555  00AF  307F               	movlw	127
  4556  00B0  05AC               	andwf	___xxtofl@arg+2,f
  4557  00B1  30FF               	movlw	255
  4558  00B2  05AD               	andwf	___xxtofl@arg+3,f
  4559  00B3                     l670:
  4560  00B3  1003               	clrc
  4561  00B4  0CA9               	rrf	___xxtofl@exp,f
  4562  00B5                     l2733:
  4563  00B5  0829               	movf	___xxtofl@exp,w
  4564  00B6  00A4               	movwf	??___xxtofl
  4565  00B7  01A5               	clrf	??___xxtofl+1
  4566  00B8  01A6               	clrf	??___xxtofl+2
  4567  00B9  01A7               	clrf	??___xxtofl+3
  4568  00BA  3018               	movlw	24
  4569  00BB                     u4475:
  4570  00BB  1003               	clrc
  4571  00BC  0DA4               	rlf	??___xxtofl,f
  4572  00BD  0DA5               	rlf	??___xxtofl+1,f
  4573  00BE  0DA6               	rlf	??___xxtofl+2,f
  4574  00BF  0DA7               	rlf	??___xxtofl+3,f
  4575  00C0                     u4470:
  4576  00C0  3EFF               	addlw	-1
  4577  00C1  1D03               	skipz
  4578  00C2  28BB               	goto	u4475
  4579  00C3  0824               	movf	??___xxtofl,w
  4580  00C4  04AA               	iorwf	___xxtofl@arg,f
  4581  00C5  0825               	movf	??___xxtofl+1,w
  4582  00C6  04AB               	iorwf	___xxtofl@arg+1,f
  4583  00C7  0826               	movf	??___xxtofl+2,w
  4584  00C8  04AC               	iorwf	___xxtofl@arg+2,f
  4585  00C9  0827               	movf	??___xxtofl+3,w
  4586  00CA  04AD               	iorwf	___xxtofl@arg+3,f
  4587  00CB                     l2735:
  4588  00CB  0828               	movf	___xxtofl@sign,w
  4589  00CC  1903               	btfsc	3,2
  4590  00CD  28CF               	goto	u4481
  4591  00CE  28D0               	goto	u4480
  4592  00CF                     u4481:
  4593  00CF  28D5               	goto	l2741
  4594  00D0                     u4480:
  4595  00D0                     l2737:
  4596  00D0  1FA3               	btfss	___xxtofl@val+3,7
  4597  00D1  28D3               	goto	u4491
  4598  00D2  28D4               	goto	u4490
  4599  00D3                     u4491:
  4600  00D3  28D5               	goto	l2741
  4601  00D4                     u4490:
  4602  00D4                     l2739:
  4603  00D4  17AD               	bsf	___xxtofl@arg+3,7
  4604  00D5                     l2741:
  4605  00D5  082D               	movf	___xxtofl@arg+3,w
  4606  00D6  00A3               	movwf	?___xxtofl+3
  4607  00D7  082C               	movf	___xxtofl@arg+2,w
  4608  00D8  00A2               	movwf	?___xxtofl+2
  4609  00D9  082B               	movf	___xxtofl@arg+1,w
  4610  00DA  00A1               	movwf	?___xxtofl+1
  4611  00DB  082A               	movf	___xxtofl@arg,w
  4612  00DC  00A0               	movwf	?___xxtofl
  4613  00DD                     l658:
  4614  00DD  0008               	return
  4615  00DE                     __end_of___xxtofl:
  4616                           
  4617                           	psect	text18
  4618  1E1B                     __ptext18:	
  4619 ;; *************** function ___wmul *****************
  4620 ;; Defined at:
  4621 ;;		line 15 in file "C:\Program Files\Microchip\xc8\v2.20\pic\sources\c90\common\Umul16.c"
  4622 ;; Parameters:    Size  Location     Type
  4623 ;;  multiplier      2    2[COMMON] unsigned int 
  4624 ;;  multiplicand    2    4[COMMON] unsigned int 
  4625 ;; Auto vars:     Size  Location     Type
  4626 ;;  product         2    6[COMMON] unsigned int 
  4627 ;; Return value:  Size  Location     Type
  4628 ;;                  2    2[COMMON] unsigned int 
  4629 ;; Registers used:
  4630 ;;		wreg, status,2, status,0
  4631 ;; Tracked objects:
  4632 ;;		On entry : 0/0
  4633 ;;		On exit  : 0/0
  4634 ;;		Unchanged: 0/0
  4635 ;; Data sizes:     COMMON   BANK0   BANK1   BANK3   BANK2
  4636 ;;      Params:         4       0       0       0       0
  4637 ;;      Locals:         2       0       0       0       0
  4638 ;;      Temps:          0       0       0       0       0
  4639 ;;      Totals:         6       0       0       0       0
  4640 ;;Total ram usage:        6 bytes
  4641 ;; Hardware stack levels used:    1
  4642 ;; Hardware stack levels required when called:    1
  4643 ;; This function calls:
  4644 ;;		Nothing
  4645 ;; This function is called by:
  4646 ;;		_Resistance_Value
  4647 ;; This function uses a non-reentrant model
  4648 ;;
  4649                           
  4650                           
  4651                           ;psect for function ___wmul
  4652  1E1B                     ___wmul:
  4653  1E1B                     l2127:	
  4654                           ;incstack = 0
  4655                           ; Regs used in ___wmul: [wreg+status,2+status,0]
  4656                           
  4657  1E1B  01F7               	clrf	___wmul@product
  4658  1E1C  01F8               	clrf	___wmul@product+1
  4659  1E1D                     l2129:
  4660  1E1D  1C73               	btfss	___wmul@multiplier,0
  4661  1E1E  2E20               	goto	u2981
  4662  1E1F  2E21               	goto	u2980
  4663  1E20                     u2981:
  4664  1E20  2E27               	goto	l223
  4665  1E21                     u2980:
  4666  1E21                     l2131:
  4667  1E21  0875               	movf	___wmul@multiplicand,w
  4668  1E22  07F7               	addwf	___wmul@product,f
  4669  1E23  1803               	skipnc
  4670  1E24  0AF8               	incf	___wmul@product+1,f
  4671  1E25  0876               	movf	___wmul@multiplicand+1,w
  4672  1E26  07F8               	addwf	___wmul@product+1,f
  4673  1E27                     l223:
  4674  1E27  3001               	movlw	1
  4675  1E28                     u2995:
  4676  1E28  1003               	clrc
  4677  1E29  0DF5               	rlf	___wmul@multiplicand,f
  4678  1E2A  0DF6               	rlf	___wmul@multiplicand+1,f
  4679  1E2B  3EFF               	addlw	-1
  4680  1E2C  1D03               	skipz
  4681  1E2D  2E28               	goto	u2995
  4682  1E2E                     l2133:
  4683  1E2E  3001               	movlw	1
  4684  1E2F                     u3005:
  4685  1E2F  1003               	clrc
  4686  1E30  0CF4               	rrf	___wmul@multiplier+1,f
  4687  1E31  0CF3               	rrf	___wmul@multiplier,f
  4688  1E32  3EFF               	addlw	-1
  4689  1E33  1D03               	skipz
  4690  1E34  2E2F               	goto	u3005
  4691  1E35                     l2135:
  4692  1E35  0873               	movf	___wmul@multiplier,w
  4693  1E36  0474               	iorwf	___wmul@multiplier+1,w
  4694  1E37  1D03               	btfss	3,2
  4695  1E38  2E3A               	goto	u3011
  4696  1E39  2E3B               	goto	u3010
  4697  1E3A                     u3011:
  4698  1E3A  2E1D               	goto	l2129
  4699  1E3B                     u3010:
  4700  1E3B                     l2137:
  4701  1E3B  0878               	movf	___wmul@product+1,w
  4702  1E3C  00F4               	movwf	?___wmul+1
  4703  1E3D  0877               	movf	___wmul@product,w
  4704  1E3E  00F3               	movwf	?___wmul
  4705  1E3F                     l225:
  4706  1E3F  0008               	return
  4707  1E40                     __end_of___wmul:
  4708                           
  4709                           	psect	text19
  4710  1DD2                     __ptext19:	
  4711 ;; *************** function ___flsub *****************
  4712 ;; Defined at:
  4713 ;;		line 242 in file "C:\Program Files\Microchip\xc8\v2.20\pic\sources\c90\common\sprcadd.c"
  4714 ;; Parameters:    Size  Location     Type
  4715 ;;  a               4   20[BANK0 ] unsigned int 
  4716 ;;  b               4   24[BANK0 ] unsigned int 
  4717 ;; Auto vars:     Size  Location     Type
  4718 ;;		None
  4719 ;; Return value:  Size  Location     Type
  4720 ;;                  4   20[BANK0 ] unsigned int 
  4721 ;; Registers used:
  4722 ;;		wreg, status,2, status,0, btemp+1, pclath, cstack
  4723 ;; Tracked objects:
  4724 ;;		On entry : 0/0
  4725 ;;		On exit  : 0/0
  4726 ;;		Unchanged: 0/0
  4727 ;; Data sizes:     COMMON   BANK0   BANK1   BANK3   BANK2
  4728 ;;      Params:         0       8       0       0       0
  4729 ;;      Locals:         0       0       0       0       0
  4730 ;;      Temps:          0       0       0       0       0
  4731 ;;      Totals:         0       8       0       0       0
  4732 ;;Total ram usage:        8 bytes
  4733 ;; Hardware stack levels used:    1
  4734 ;; Hardware stack levels required when called:    2
  4735 ;; This function calls:
  4736 ;;		___fladd
  4737 ;; This function is called by:
  4738 ;;		_Resistance_Value
  4739 ;;		_conversion_newton
  4740 ;; This function uses a non-reentrant model
  4741 ;;
  4742                           
  4743                           
  4744                           ;psect for function ___flsub
  4745  1DD2                     ___flsub:
  4746  1DD2                     l2405:	
  4747                           ;incstack = 0
  4748                           ; Regs used in ___flsub: [wreg+status,2+status,0+btemp+1+pclath+cstack]
  4749                           
  4750  1DD2  3080               	movlw	128
  4751  1DD3  1283               	bcf	3,5	;RP0=0, select bank0
  4752  1DD4  1303               	bcf	3,6	;RP1=0, select bank0
  4753  1DD5  06B7               	xorwf	___flsub@a+3,f
  4754  1DD6                     l2407:
  4755  1DD6  083B               	movf	___flsub@b+3,w
  4756  1DD7  00A3               	movwf	___fladd@b+3
  4757  1DD8  083A               	movf	___flsub@b+2,w
  4758  1DD9  00A2               	movwf	___fladd@b+2
  4759  1DDA  0839               	movf	___flsub@b+1,w
  4760  1DDB  00A1               	movwf	___fladd@b+1
  4761  1DDC  0838               	movf	___flsub@b,w
  4762  1DDD  00A0               	movwf	___fladd@b
  4763  1DDE  0837               	movf	___flsub@a+3,w
  4764  1DDF  00A7               	movwf	___fladd@a+3
  4765  1DE0  0836               	movf	___flsub@a+2,w
  4766  1DE1  00A6               	movwf	___fladd@a+2
  4767  1DE2  0835               	movf	___flsub@a+1,w
  4768  1DE3  00A5               	movwf	___fladd@a+1
  4769  1DE4  0834               	movf	___flsub@a,w
  4770  1DE5  00A4               	movwf	___fladd@a
  4771  1DE6  120A  118A  20DE  160A  158A  	fcall	___fladd
  4772  1DEB  1283               	bcf	3,5	;RP0=0, select bank0
  4773  1DEC  1303               	bcf	3,6	;RP1=0, select bank0
  4774  1DED  0823               	movf	?___fladd+3,w
  4775  1DEE  00B7               	movwf	?___flsub+3
  4776  1DEF  0822               	movf	?___fladd+2,w
  4777  1DF0  00B6               	movwf	?___flsub+2
  4778  1DF1  0821               	movf	?___fladd+1,w
  4779  1DF2  00B5               	movwf	?___flsub+1
  4780  1DF3  0820               	movf	?___fladd,w
  4781  1DF4  00B4               	movwf	?___flsub
  4782  1DF5                     l562:
  4783  1DF5  0008               	return
  4784  1DF6                     __end_of___flsub:
  4785                           
  4786                           	psect	text20
  4787  00DE                     __ptext20:	
  4788 ;; *************** function ___fladd *****************
  4789 ;; Defined at:
  4790 ;;		line 10 in file "C:\Program Files\Microchip\xc8\v2.20\pic\sources\c90\common\sprcadd.c"
  4791 ;; Parameters:    Size  Location     Type
  4792 ;;  b               4    0[BANK0 ] unsigned int 
  4793 ;;  a               4    4[BANK0 ] unsigned int 
  4794 ;; Auto vars:     Size  Location     Type
  4795 ;;  grs             1   19[BANK0 ] unsigned char 
  4796 ;;  bexp            1   18[BANK0 ] unsigned char 
  4797 ;;  aexp            1   17[BANK0 ] unsigned char 
  4798 ;;  signs           1   16[BANK0 ] unsigned char 
  4799 ;; Return value:  Size  Location     Type
  4800 ;;                  4    0[BANK0 ] unsigned char 
  4801 ;; Registers used:
  4802 ;;		wreg, status,2, status,0, btemp+1
  4803 ;; Tracked objects:
  4804 ;;		On entry : 0/0
  4805 ;;		On exit  : 0/0
  4806 ;;		Unchanged: 0/0
  4807 ;; Data sizes:     COMMON   BANK0   BANK1   BANK3   BANK2
  4808 ;;      Params:         0       8       0       0       0
  4809 ;;      Locals:         0       4       0       0       0
  4810 ;;      Temps:          0       8       0       0       0
  4811 ;;      Totals:         0      20       0       0       0
  4812 ;;Total ram usage:       20 bytes
  4813 ;; Hardware stack levels used:    1
  4814 ;; Hardware stack levels required when called:    1
  4815 ;; This function calls:
  4816 ;;		Nothing
  4817 ;; This function is called by:
  4818 ;;		_conversion_newton
  4819 ;;		___flsub
  4820 ;; This function uses a non-reentrant model
  4821 ;;
  4822                           
  4823                           
  4824                           ;psect for function ___fladd
  4825  00DE                     ___fladd:
  4826  00DE                     l1897:	
  4827                           ;incstack = 0
  4828                           ; Regs used in ___fladd: [wreg+status,2+status,0+btemp+1]
  4829                           
  4830  00DE  1283               	bcf	3,5	;RP0=0, select bank0
  4831  00DF  1303               	bcf	3,6	;RP1=0, select bank0
  4832  00E0  0823               	movf	___fladd@b+3,w
  4833  00E1  3980               	andlw	128
  4834  00E2  00FF               	movwf	btemp+1
  4835  00E3  087F               	movf	btemp+1,w
  4836  00E4  00B0               	movwf	___fladd@signs
  4837  00E5                     l1899:
  4838  00E5  0823               	movf	___fladd@b+3,w
  4839  00E6  00A8               	movwf	??___fladd
  4840  00E7  0728               	addwf	??___fladd,w
  4841  00E8  00FF               	movwf	btemp+1
  4842  00E9  087F               	movf	btemp+1,w
  4843  00EA  00B2               	movwf	___fladd@bexp
  4844  00EB                     l1901:
  4845  00EB  1FA2               	btfss	___fladd@b+2,7
  4846  00EC  28EE               	goto	u2461
  4847  00ED  28EF               	goto	u2460
  4848  00EE                     u2461:
  4849  00EE  28F0               	goto	l1905
  4850  00EF                     u2460:
  4851  00EF                     l1903:
  4852  00EF  1432               	bsf	___fladd@bexp,0
  4853  00F0                     l1905:
  4854  00F0  0832               	movf	___fladd@bexp,w
  4855  00F1  1903               	btfsc	3,2
  4856  00F2  28F4               	goto	u2471
  4857  00F3  28F5               	goto	u2470
  4858  00F4                     u2471:
  4859  00F4  2905               	goto	l1915
  4860  00F5                     u2470:
  4861  00F5                     l1907:
  4862  00F5  0A32               	incf	___fladd@bexp,w
  4863  00F6  1D03               	btfss	3,2
  4864  00F7  28F9               	goto	u2481
  4865  00F8  28FA               	goto	u2480
  4866  00F9                     u2481:
  4867  00F9  2902               	goto	l1911
  4868  00FA                     u2480:
  4869  00FA                     l1909:
  4870  00FA  3000               	movlw	0
  4871  00FB  00A3               	movwf	___fladd@b+3
  4872  00FC  3000               	movlw	0
  4873  00FD  00A2               	movwf	___fladd@b+2
  4874  00FE  3000               	movlw	0
  4875  00FF  00A1               	movwf	___fladd@b+1
  4876  0100  3000               	movlw	0
  4877  0101  00A0               	movwf	___fladd@b
  4878  0102                     l1911:
  4879  0102  17A2               	bsf	___fladd@b+2,7
  4880  0103                     l1913:
  4881  0103  01A3               	clrf	___fladd@b+3
  4882  0104  290D               	goto	l1917
  4883  0105                     l1915:
  4884  0105  3000               	movlw	0
  4885  0106  00A3               	movwf	___fladd@b+3
  4886  0107  3000               	movlw	0
  4887  0108  00A2               	movwf	___fladd@b+2
  4888  0109  3000               	movlw	0
  4889  010A  00A1               	movwf	___fladd@b+1
  4890  010B  3000               	movlw	0
  4891  010C  00A0               	movwf	___fladd@b
  4892  010D                     l1917:
  4893  010D  0827               	movf	___fladd@a+3,w
  4894  010E  3980               	andlw	128
  4895  010F  00FF               	movwf	btemp+1
  4896  0110  087F               	movf	btemp+1,w
  4897  0111  00B1               	movwf	___fladd@aexp
  4898  0112                     l1919:
  4899  0112  0831               	movf	___fladd@aexp,w
  4900  0113  0630               	xorwf	___fladd@signs,w
  4901  0114  1903               	skipnz
  4902  0115  2917               	goto	u2491
  4903  0116  2918               	goto	u2490
  4904  0117                     u2491:
  4905  0117  2919               	goto	l1923
  4906  0118                     u2490:
  4907  0118                     l1921:
  4908  0118  1730               	bsf	___fladd@signs,6
  4909  0119                     l1923:
  4910  0119  0827               	movf	___fladd@a+3,w
  4911  011A  00A8               	movwf	??___fladd
  4912  011B  0728               	addwf	??___fladd,w
  4913  011C  00FF               	movwf	btemp+1
  4914  011D  087F               	movf	btemp+1,w
  4915  011E  00B1               	movwf	___fladd@aexp
  4916  011F                     l1925:
  4917  011F  1FA6               	btfss	___fladd@a+2,7
  4918  0120  2922               	goto	u2501
  4919  0121  2923               	goto	u2500
  4920  0122                     u2501:
  4921  0122  2924               	goto	l1929
  4922  0123                     u2500:
  4923  0123                     l1927:
  4924  0123  1431               	bsf	___fladd@aexp,0
  4925  0124                     l1929:
  4926  0124  0831               	movf	___fladd@aexp,w
  4927  0125  1903               	btfsc	3,2
  4928  0126  2928               	goto	u2511
  4929  0127  2929               	goto	u2510
  4930  0128                     u2511:
  4931  0128  2939               	goto	l1939
  4932  0129                     u2510:
  4933  0129                     l1931:
  4934  0129  0A31               	incf	___fladd@aexp,w
  4935  012A  1D03               	btfss	3,2
  4936  012B  292D               	goto	u2521
  4937  012C  292E               	goto	u2520
  4938  012D                     u2521:
  4939  012D  2936               	goto	l1935
  4940  012E                     u2520:
  4941  012E                     l1933:
  4942  012E  3000               	movlw	0
  4943  012F  00A7               	movwf	___fladd@a+3
  4944  0130  3000               	movlw	0
  4945  0131  00A6               	movwf	___fladd@a+2
  4946  0132  3000               	movlw	0
  4947  0133  00A5               	movwf	___fladd@a+1
  4948  0134  3000               	movlw	0
  4949  0135  00A4               	movwf	___fladd@a
  4950  0136                     l1935:
  4951  0136  17A6               	bsf	___fladd@a+2,7
  4952  0137                     l1937:
  4953  0137  01A7               	clrf	___fladd@a+3
  4954  0138  2941               	goto	l516
  4955  0139                     l1939:
  4956  0139  3000               	movlw	0
  4957  013A  00A7               	movwf	___fladd@a+3
  4958  013B  3000               	movlw	0
  4959  013C  00A6               	movwf	___fladd@a+2
  4960  013D  3000               	movlw	0
  4961  013E  00A5               	movwf	___fladd@a+1
  4962  013F  3000               	movlw	0
  4963  0140  00A4               	movwf	___fladd@a
  4964  0141                     l516:
  4965  0141  0832               	movf	___fladd@bexp,w
  4966  0142  0231               	subwf	___fladd@aexp,w
  4967  0143  1803               	skipnc
  4968  0144  2946               	goto	u2531
  4969  0145  2947               	goto	u2530
  4970  0146                     u2531:
  4971  0146  298B               	goto	l1975
  4972  0147                     u2530:
  4973  0147                     l1941:
  4974  0147  1F30               	btfss	___fladd@signs,6
  4975  0148  294A               	goto	u2541
  4976  0149  294B               	goto	u2540
  4977  014A                     u2541:
  4978  014A  294F               	goto	l1945
  4979  014B                     u2540:
  4980  014B                     l1943:
  4981  014B  3080               	movlw	128
  4982  014C  00FF               	movwf	btemp+1
  4983  014D  087F               	movf	btemp+1,w
  4984  014E  06B0               	xorwf	___fladd@signs,f
  4985  014F                     l1945:
  4986  014F  0832               	movf	___fladd@bexp,w
  4987  0150  00FF               	movwf	btemp+1
  4988  0151  087F               	movf	btemp+1,w
  4989  0152  00B3               	movwf	___fladd@grs
  4990  0153                     l1947:
  4991  0153  0831               	movf	___fladd@aexp,w
  4992  0154  00FF               	movwf	btemp+1
  4993  0155  087F               	movf	btemp+1,w
  4994  0156  00B2               	movwf	___fladd@bexp
  4995  0157                     l1949:
  4996  0157  0833               	movf	___fladd@grs,w
  4997  0158  00FF               	movwf	btemp+1
  4998  0159  087F               	movf	btemp+1,w
  4999  015A  00B1               	movwf	___fladd@aexp
  5000  015B                     l1951:
  5001  015B  0820               	movf	___fladd@b,w
  5002  015C  00FF               	movwf	btemp+1
  5003  015D  087F               	movf	btemp+1,w
  5004  015E  00B3               	movwf	___fladd@grs
  5005  015F                     l1953:
  5006  015F  0824               	movf	___fladd@a,w
  5007  0160  00FF               	movwf	btemp+1
  5008  0161  087F               	movf	btemp+1,w
  5009  0162  00A0               	movwf	___fladd@b
  5010  0163                     l1955:
  5011  0163  0833               	movf	___fladd@grs,w
  5012  0164  00FF               	movwf	btemp+1
  5013  0165  087F               	movf	btemp+1,w
  5014  0166  00A4               	movwf	___fladd@a
  5015  0167                     l1957:
  5016  0167  0821               	movf	___fladd@b+1,w
  5017  0168  00FF               	movwf	btemp+1
  5018  0169  087F               	movf	btemp+1,w
  5019  016A  00B3               	movwf	___fladd@grs
  5020  016B                     l1959:
  5021  016B  0825               	movf	___fladd@a+1,w
  5022  016C  00FF               	movwf	btemp+1
  5023  016D  087F               	movf	btemp+1,w
  5024  016E  00A1               	movwf	___fladd@b+1
  5025  016F                     l1961:
  5026  016F  0833               	movf	___fladd@grs,w
  5027  0170  00FF               	movwf	btemp+1
  5028  0171  087F               	movf	btemp+1,w
  5029  0172  00A5               	movwf	___fladd@a+1
  5030  0173                     l1963:
  5031  0173  0822               	movf	___fladd@b+2,w
  5032  0174  00FF               	movwf	btemp+1
  5033  0175  087F               	movf	btemp+1,w
  5034  0176  00B3               	movwf	___fladd@grs
  5035  0177                     l1965:
  5036  0177  0826               	movf	___fladd@a+2,w
  5037  0178  00FF               	movwf	btemp+1
  5038  0179  087F               	movf	btemp+1,w
  5039  017A  00A2               	movwf	___fladd@b+2
  5040  017B                     l1967:
  5041  017B  0833               	movf	___fladd@grs,w
  5042  017C  00FF               	movwf	btemp+1
  5043  017D  087F               	movf	btemp+1,w
  5044  017E  00A6               	movwf	___fladd@a+2
  5045  017F                     l1969:
  5046  017F  0823               	movf	___fladd@b+3,w
  5047  0180  00FF               	movwf	btemp+1
  5048  0181  087F               	movf	btemp+1,w
  5049  0182  00B3               	movwf	___fladd@grs
  5050  0183                     l1971:
  5051  0183  0827               	movf	___fladd@a+3,w
  5052  0184  00FF               	movwf	btemp+1
  5053  0185  087F               	movf	btemp+1,w
  5054  0186  00A3               	movwf	___fladd@b+3
  5055  0187                     l1973:
  5056  0187  0833               	movf	___fladd@grs,w
  5057  0188  00FF               	movwf	btemp+1
  5058  0189  087F               	movf	btemp+1,w
  5059  018A  00A7               	movwf	___fladd@a+3
  5060  018B                     l1975:
  5061  018B  01B3               	clrf	___fladd@grs
  5062  018C                     l1977:
  5063  018C  0831               	movf	___fladd@aexp,w
  5064  018D  00A8               	movwf	??___fladd
  5065  018E  01A9               	clrf	??___fladd+1
  5066  018F  0829               	movf	??___fladd+1,w
  5067  0190  00AB               	movwf	??___fladd+3
  5068  0191  0832               	movf	___fladd@bexp,w
  5069  0192  0228               	subwf	??___fladd,w
  5070  0193  00AA               	movwf	??___fladd+2
  5071  0194  1C03               	skipc
  5072  0195  03AB               	decf	??___fladd+3,f
  5073  0196  082B               	movf	??___fladd+3,w
  5074  0197  3A80               	xorlw	128
  5075  0198  00FF               	movwf	btemp+1
  5076  0199  3080               	movlw	128
  5077  019A  027F               	subwf	btemp+1,w
  5078  019B  1D03               	skipz
  5079  019C  299F               	goto	u2555
  5080  019D  301A               	movlw	26
  5081  019E  022A               	subwf	??___fladd+2,w
  5082  019F                     u2555:
  5083  019F  1C03               	skipc
  5084  01A0  29A2               	goto	u2551
  5085  01A1  29A3               	goto	u2550
  5086  01A2                     u2551:
  5087  01A2  29E0               	goto	l1997
  5088  01A3                     u2550:
  5089  01A3                     l1979:
  5090  01A3  1283               	bcf	3,5	;RP0=0, select bank0
  5091  01A4  1303               	bcf	3,6	;RP1=0, select bank0
  5092  01A5  0823               	movf	___fladd@b+3,w
  5093  01A6  0422               	iorwf	___fladd@b+2,w
  5094  01A7  0421               	iorwf	___fladd@b+1,w
  5095  01A8  0420               	iorwf	___fladd@b,w
  5096  01A9  1D03               	skipz
  5097  01AA  29AC               	goto	u2561
  5098  01AB  29AE               	goto	u2560
  5099  01AC                     u2561:
  5100  01AC  3001               	movlw	1
  5101  01AD  29AF               	goto	u2570
  5102  01AE                     u2560:
  5103  01AE  3000               	movlw	0
  5104  01AF                     u2570:
  5105  01AF  00FF               	movwf	btemp+1
  5106  01B0  087F               	movf	btemp+1,w
  5107  01B1  00B3               	movwf	___fladd@grs
  5108  01B2                     l1981:
  5109  01B2  3000               	movlw	0
  5110  01B3  00A3               	movwf	___fladd@b+3
  5111  01B4  3000               	movlw	0
  5112  01B5  00A2               	movwf	___fladd@b+2
  5113  01B6  3000               	movlw	0
  5114  01B7  00A1               	movwf	___fladd@b+1
  5115  01B8  3000               	movlw	0
  5116  01B9  00A0               	movwf	___fladd@b
  5117  01BA                     l1983:
  5118  01BA  0831               	movf	___fladd@aexp,w
  5119  01BB  00FF               	movwf	btemp+1
  5120  01BC  087F               	movf	btemp+1,w
  5121  01BD  00B2               	movwf	___fladd@bexp
  5122  01BE  29E8               	goto	l520
  5123  01BF                     l522:
  5124  01BF  1C33               	btfss	___fladd@grs,0
  5125  01C0  29C2               	goto	u2581
  5126  01C1  29C3               	goto	u2580
  5127  01C2                     u2581:
  5128  01C2  29CC               	goto	l1987
  5129  01C3                     u2580:
  5130  01C3                     l1985:
  5131  01C3  0833               	movf	___fladd@grs,w
  5132  01C4  00A8               	movwf	??___fladd
  5133  01C5  1003               	clrc
  5134  01C6  0C28               	rrf	??___fladd,w
  5135  01C7  3801               	iorlw	1
  5136  01C8  00FF               	movwf	btemp+1
  5137  01C9  087F               	movf	btemp+1,w
  5138  01CA  00B3               	movwf	___fladd@grs
  5139  01CB  29CE               	goto	l1989
  5140  01CC                     l1987:
  5141  01CC  1003               	clrc
  5142  01CD  0CB3               	rrf	___fladd@grs,f
  5143  01CE                     l1989:
  5144  01CE  1C20               	btfss	___fladd@b,0
  5145  01CF  29D1               	goto	u2591
  5146  01D0  29D2               	goto	u2590
  5147  01D1                     u2591:
  5148  01D1  29D3               	goto	l1993
  5149  01D2                     u2590:
  5150  01D2                     l1991:
  5151  01D2  17B3               	bsf	___fladd@grs,7
  5152  01D3                     l1993:
  5153  01D3  3001               	movlw	1
  5154  01D4  00A8               	movwf	??___fladd
  5155  01D5                     u2605:
  5156  01D5  0D23               	rlf	___fladd@b+3,w
  5157  01D6  0CA3               	rrf	___fladd@b+3,f
  5158  01D7  0CA2               	rrf	___fladd@b+2,f
  5159  01D8  0CA1               	rrf	___fladd@b+1,f
  5160  01D9  0CA0               	rrf	___fladd@b,f
  5161  01DA  0BA8               	decfsz	??___fladd& (0+127),f
  5162  01DB  29D5               	goto	u2605
  5163  01DC                     l1995:
  5164  01DC  3001               	movlw	1
  5165  01DD  00FF               	movwf	btemp+1
  5166  01DE  087F               	movf	btemp+1,w
  5167  01DF  07B2               	addwf	___fladd@bexp,f
  5168  01E0                     l1997:
  5169  01E0  1283               	bcf	3,5	;RP0=0, select bank0
  5170  01E1  1303               	bcf	3,6	;RP1=0, select bank0
  5171  01E2  0831               	movf	___fladd@aexp,w
  5172  01E3  0232               	subwf	___fladd@bexp,w
  5173  01E4  1C03               	skipc
  5174  01E5  29E7               	goto	u2611
  5175  01E6  29E8               	goto	u2610
  5176  01E7                     u2611:
  5177  01E7  29BF               	goto	l522
  5178  01E8                     u2610:
  5179  01E8                     l520:
  5180  01E8  1B30               	btfsc	___fladd@signs,6
  5181  01E9  29EB               	goto	u2621
  5182  01EA  29EC               	goto	u2620
  5183  01EB                     u2621:
  5184  01EB  2A37               	goto	l2023
  5185  01EC                     u2620:
  5186  01EC                     l1999:
  5187  01EC  0832               	movf	___fladd@bexp,w
  5188  01ED  1D03               	btfss	3,2
  5189  01EE  29F0               	goto	u2631
  5190  01EF  29F1               	goto	u2630
  5191  01F0                     u2631:
  5192  01F0  29FA               	goto	l2005
  5193  01F1                     u2630:
  5194  01F1                     l2001:
  5195  01F1  3000               	movlw	0
  5196  01F2  00A3               	movwf	?___fladd+3
  5197  01F3  3000               	movlw	0
  5198  01F4  00A2               	movwf	?___fladd+2
  5199  01F5  3000               	movlw	0
  5200  01F6  00A1               	movwf	?___fladd+1
  5201  01F7  3000               	movlw	0
  5202  01F8  00A0               	movwf	?___fladd
  5203  01F9  2B65               	goto	l529
  5204  01FA                     l2005:
  5205  01FA  0824               	movf	___fladd@a,w
  5206  01FB  07A0               	addwf	___fladd@b,f
  5207  01FC  0825               	movf	___fladd@a+1,w
  5208  01FD  1103               	clrz
  5209  01FE  1803               	skipnc
  5210  01FF  3E01               	addlw	1
  5211  0200  1903               	skipnz
  5212  0201  2A03               	goto	u2641
  5213  0202  07A1               	addwf	___fladd@b+1,f
  5214  0203                     u2641:
  5215  0203  0826               	movf	___fladd@a+2,w
  5216  0204  1103               	clrz
  5217  0205  1803               	skipnc
  5218  0206  3E01               	addlw	1
  5219  0207  1903               	skipnz
  5220  0208  2A0A               	goto	u2642
  5221  0209  07A2               	addwf	___fladd@b+2,f
  5222  020A                     u2642:
  5223  020A  0827               	movf	___fladd@a+3,w
  5224  020B  1103               	clrz
  5225  020C  1803               	skipnc
  5226  020D  3E01               	addlw	1
  5227  020E  1903               	skipnz
  5228  020F  2A11               	goto	u2643
  5229  0210  07A3               	addwf	___fladd@b+3,f
  5230  0211                     u2643:
  5231  0211                     l2007:
  5232  0211  1C23               	btfss	___fladd@b+3,0
  5233  0212  2A14               	goto	u2651
  5234  0213  2A15               	goto	u2650
  5235  0214                     u2651:
  5236  0214  2AEB               	goto	l2059
  5237  0215                     u2650:
  5238  0215                     l2009:
  5239  0215  1C33               	btfss	___fladd@grs,0
  5240  0216  2A18               	goto	u2661
  5241  0217  2A19               	goto	u2660
  5242  0218                     u2661:
  5243  0218  2A22               	goto	l2013
  5244  0219                     u2660:
  5245  0219                     l2011:
  5246  0219  0833               	movf	___fladd@grs,w
  5247  021A  00A8               	movwf	??___fladd
  5248  021B  1003               	clrc
  5249  021C  0C28               	rrf	??___fladd,w
  5250  021D  3801               	iorlw	1
  5251  021E  00FF               	movwf	btemp+1
  5252  021F  087F               	movf	btemp+1,w
  5253  0220  00B3               	movwf	___fladd@grs
  5254  0221  2A24               	goto	l2015
  5255  0222                     l2013:
  5256  0222  1003               	clrc
  5257  0223  0CB3               	rrf	___fladd@grs,f
  5258  0224                     l2015:
  5259  0224  1C20               	btfss	___fladd@b,0
  5260  0225  2A27               	goto	u2671
  5261  0226  2A28               	goto	u2670
  5262  0227                     u2671:
  5263  0227  2A29               	goto	l2019
  5264  0228                     u2670:
  5265  0228                     l2017:
  5266  0228  17B3               	bsf	___fladd@grs,7
  5267  0229                     l2019:
  5268  0229  3001               	movlw	1
  5269  022A  00A8               	movwf	??___fladd
  5270  022B                     u2685:
  5271  022B  0D23               	rlf	___fladd@b+3,w
  5272  022C  0CA3               	rrf	___fladd@b+3,f
  5273  022D  0CA2               	rrf	___fladd@b+2,f
  5274  022E  0CA1               	rrf	___fladd@b+1,f
  5275  022F  0CA0               	rrf	___fladd@b,f
  5276  0230  0BA8               	decfsz	??___fladd& (0+127),f
  5277  0231  2A2B               	goto	u2685
  5278  0232                     l2021:
  5279  0232  3001               	movlw	1
  5280  0233  00FF               	movwf	btemp+1
  5281  0234  087F               	movf	btemp+1,w
  5282  0235  07B2               	addwf	___fladd@bexp,f
  5283  0236  2AEB               	goto	l2059
  5284  0237                     l2023:
  5285  0237  0823               	movf	___fladd@b+3,w
  5286  0238  3A80               	xorlw	128
  5287  0239  00FF               	movwf	btemp+1
  5288  023A  0827               	movf	___fladd@a+3,w
  5289  023B  3A80               	xorlw	128
  5290  023C  027F               	subwf	btemp+1,w
  5291  023D  1D03               	skipz
  5292  023E  2A49               	goto	u2693
  5293  023F  0826               	movf	___fladd@a+2,w
  5294  0240  0222               	subwf	___fladd@b+2,w
  5295  0241  1D03               	skipz
  5296  0242  2A49               	goto	u2693
  5297  0243  0825               	movf	___fladd@a+1,w
  5298  0244  0221               	subwf	___fladd@b+1,w
  5299  0245  1D03               	skipz
  5300  0246  2A49               	goto	u2693
  5301  0247  0824               	movf	___fladd@a,w
  5302  0248  0220               	subwf	___fladd@b,w
  5303  0249                     u2693:
  5304  0249  1803               	skipnc
  5305  024A  2A4C               	goto	u2691
  5306  024B  2A4D               	goto	u2690
  5307  024C                     u2691:
  5308  024C  2AA5               	goto	l2035
  5309  024D                     u2690:
  5310  024D                     l2025:
  5311  024D  30FF               	movlw	255
  5312  024E  00A8               	movwf	??___fladd
  5313  024F  30FF               	movlw	255
  5314  0250  00A9               	movwf	??___fladd+1
  5315  0251  30FF               	movlw	255
  5316  0252  00AA               	movwf	??___fladd+2
  5317  0253  30FF               	movlw	255
  5318  0254  00AB               	movwf	??___fladd+3
  5319  0255  0824               	movf	___fladd@a,w
  5320  0256  00AC               	movwf	??___fladd+4
  5321  0257  0825               	movf	___fladd@a+1,w
  5322  0258  00AD               	movwf	??___fladd+5
  5323  0259  0826               	movf	___fladd@a+2,w
  5324  025A  00AE               	movwf	??___fladd+6
  5325  025B  0827               	movf	___fladd@a+3,w
  5326  025C  00AF               	movwf	??___fladd+7
  5327  025D  0820               	movf	___fladd@b,w
  5328  025E  02AC               	subwf	??___fladd+4,f
  5329  025F  0821               	movf	___fladd@b+1,w
  5330  0260  1C03               	skipc
  5331  0261  0F21               	incfsz	___fladd@b+1,w
  5332  0262  2A64               	goto	u2701
  5333  0263  2A65               	goto	u2702
  5334  0264                     u2701:
  5335  0264  02AD               	subwf	??___fladd+5,f
  5336  0265                     u2702:
  5337  0265  0822               	movf	___fladd@b+2,w
  5338  0266  1C03               	skipc
  5339  0267  0F22               	incfsz	___fladd@b+2,w
  5340  0268  2A6A               	goto	u2703
  5341  0269  2A6B               	goto	u2704
  5342  026A                     u2703:
  5343  026A  02AE               	subwf	??___fladd+6,f
  5344  026B                     u2704:
  5345  026B  0823               	movf	___fladd@b+3,w
  5346  026C  1C03               	skipc
  5347  026D  0F23               	incfsz	___fladd@b+3,w
  5348  026E  2A70               	goto	u2705
  5349  026F  2A71               	goto	u2706
  5350  0270                     u2705:
  5351  0270  02AF               	subwf	??___fladd+7,f
  5352  0271                     u2706:
  5353  0271  082C               	movf	??___fladd+4,w
  5354  0272  07A8               	addwf	??___fladd,f
  5355  0273  082D               	movf	??___fladd+5,w
  5356  0274  1803               	skipnc
  5357  0275  0F2D               	incfsz	??___fladd+5,w
  5358  0276  2A78               	goto	u2710
  5359  0277  2A79               	goto	u2711
  5360  0278                     u2710:
  5361  0278  07A9               	addwf	??___fladd+1,f
  5362  0279                     u2711:
  5363  0279  082E               	movf	??___fladd+6,w
  5364  027A  1803               	skipnc
  5365  027B  0F2E               	incfsz	??___fladd+6,w
  5366  027C  2A7E               	goto	u2712
  5367  027D  2A7F               	goto	u2713
  5368  027E                     u2712:
  5369  027E  07AA               	addwf	??___fladd+2,f
  5370  027F                     u2713:
  5371  027F  082F               	movf	??___fladd+7,w
  5372  0280  1803               	skipnc
  5373  0281  0A2F               	incf	??___fladd+7,w
  5374  0282  07AB               	addwf	??___fladd+3,f
  5375  0283  082B               	movf	??___fladd+3,w
  5376  0284  00A3               	movwf	___fladd@b+3
  5377  0285  082A               	movf	??___fladd+2,w
  5378  0286  00A2               	movwf	___fladd@b+2
  5379  0287  0829               	movf	??___fladd+1,w
  5380  0288  00A1               	movwf	___fladd@b+1
  5381  0289  0828               	movf	??___fladd,w
  5382  028A  00A0               	movwf	___fladd@b
  5383  028B                     l2027:
  5384  028B  3080               	movlw	128
  5385  028C  00FF               	movwf	btemp+1
  5386  028D  087F               	movf	btemp+1,w
  5387  028E  06B0               	xorwf	___fladd@signs,f
  5388  028F                     l2029:
  5389  028F  09B3               	comf	___fladd@grs,f
  5390  0290  0AB3               	incf	___fladd@grs,f
  5391  0291                     l2031:
  5392  0291  0833               	movf	___fladd@grs,w
  5393  0292  1D03               	btfss	3,2
  5394  0293  2A95               	goto	u2721
  5395  0294  2A96               	goto	u2720
  5396  0295                     u2721:
  5397  0295  2AB3               	goto	l537
  5398  0296                     u2720:
  5399  0296                     l2033:
  5400  0296  3001               	movlw	1
  5401  0297  07A0               	addwf	___fladd@b,f
  5402  0298  3000               	movlw	0
  5403  0299  1803               	skipnc
  5404  029A  3001               	movlw	1
  5405  029B  07A1               	addwf	___fladd@b+1,f
  5406  029C  3000               	movlw	0
  5407  029D  1803               	skipnc
  5408  029E  3001               	movlw	1
  5409  029F  07A2               	addwf	___fladd@b+2,f
  5410  02A0  3000               	movlw	0
  5411  02A1  1803               	skipnc
  5412  02A2  3001               	movlw	1
  5413  02A3  07A3               	addwf	___fladd@b+3,f
  5414  02A4  2AB3               	goto	l537
  5415  02A5                     l2035:
  5416  02A5  0824               	movf	___fladd@a,w
  5417  02A6  02A0               	subwf	___fladd@b,f
  5418  02A7  0825               	movf	___fladd@a+1,w
  5419  02A8  1C03               	skipc
  5420  02A9  0F25               	incfsz	___fladd@a+1,w
  5421  02AA  02A1               	subwf	___fladd@b+1,f
  5422  02AB  0826               	movf	___fladd@a+2,w
  5423  02AC  1C03               	skipc
  5424  02AD  0F26               	incfsz	___fladd@a+2,w
  5425  02AE  02A2               	subwf	___fladd@b+2,f
  5426  02AF  0827               	movf	___fladd@a+3,w
  5427  02B0  1C03               	skipc
  5428  02B1  0F27               	incfsz	___fladd@a+3,w
  5429  02B2  02A3               	subwf	___fladd@b+3,f
  5430  02B3                     l537:
  5431  02B3  0823               	movf	___fladd@b+3,w
  5432  02B4  0422               	iorwf	___fladd@b+2,w
  5433  02B5  0421               	iorwf	___fladd@b+1,w
  5434  02B6  0420               	iorwf	___fladd@b,w
  5435  02B7  1D03               	skipz
  5436  02B8  2ABA               	goto	u2731
  5437  02B9  2ABB               	goto	u2730
  5438  02BA                     u2731:
  5439  02BA  2AE7               	goto	l2057
  5440  02BB                     u2730:
  5441  02BB                     l2037:
  5442  02BB  0833               	movf	___fladd@grs,w
  5443  02BC  1D03               	btfss	3,2
  5444  02BD  2ABF               	goto	u2741
  5445  02BE  2AC0               	goto	u2740
  5446  02BF                     u2741:
  5447  02BF  2AE7               	goto	l2057
  5448  02C0                     u2740:
  5449  02C0                     l2039:
  5450  02C0  3000               	movlw	0
  5451  02C1  00A3               	movwf	?___fladd+3
  5452  02C2  3000               	movlw	0
  5453  02C3  00A2               	movwf	?___fladd+2
  5454  02C4  3000               	movlw	0
  5455  02C5  00A1               	movwf	?___fladd+1
  5456  02C6  3000               	movlw	0
  5457  02C7  00A0               	movwf	?___fladd
  5458  02C8  2B65               	goto	l529
  5459  02C9                     l2043:
  5460  02C9  3001               	movlw	1
  5461  02CA  00A8               	movwf	??___fladd
  5462  02CB                     u2755:
  5463  02CB  1003               	clrc
  5464  02CC  0DA0               	rlf	___fladd@b,f
  5465  02CD  0DA1               	rlf	___fladd@b+1,f
  5466  02CE  0DA2               	rlf	___fladd@b+2,f
  5467  02CF  0DA3               	rlf	___fladd@b+3,f
  5468  02D0  0BA8               	decfsz	??___fladd,f
  5469  02D1  2ACB               	goto	u2755
  5470  02D2                     l2045:
  5471  02D2  1FB3               	btfss	___fladd@grs,7
  5472  02D3  2AD5               	goto	u2761
  5473  02D4  2AD6               	goto	u2760
  5474  02D5                     u2761:
  5475  02D5  2AD7               	goto	l541
  5476  02D6                     u2760:
  5477  02D6                     l2047:
  5478  02D6  1420               	bsf	___fladd@b,0
  5479  02D7                     l541:
  5480  02D7  1C33               	btfss	___fladd@grs,0
  5481  02D8  2ADA               	goto	u2771
  5482  02D9  2ADB               	goto	u2770
  5483  02DA                     u2771:
  5484  02DA  2ADE               	goto	l2051
  5485  02DB                     u2770:
  5486  02DB                     l2049:
  5487  02DB  1403               	setc
  5488  02DC  0DB3               	rlf	___fladd@grs,f
  5489  02DD  2AE0               	goto	l2053
  5490  02DE                     l2051:
  5491  02DE  1003               	clrc
  5492  02DF  0DB3               	rlf	___fladd@grs,f
  5493  02E0                     l2053:
  5494  02E0  0832               	movf	___fladd@bexp,w
  5495  02E1  1903               	btfsc	3,2
  5496  02E2  2AE4               	goto	u2781
  5497  02E3  2AE5               	goto	u2780
  5498  02E4                     u2781:
  5499  02E4  2AE7               	goto	l2057
  5500  02E5                     u2780:
  5501  02E5                     l2055:
  5502  02E5  3001               	movlw	1
  5503  02E6  02B2               	subwf	___fladd@bexp,f
  5504  02E7                     l2057:
  5505  02E7  1FA2               	btfss	___fladd@b+2,7
  5506  02E8  2AEA               	goto	u2791
  5507  02E9  2AEB               	goto	u2790
  5508  02EA                     u2791:
  5509  02EA  2AC9               	goto	l2043
  5510  02EB                     u2790:
  5511  02EB                     l2059:
  5512  02EB  01B1               	clrf	___fladd@aexp
  5513  02EC                     l2061:
  5514  02EC  1FB3               	btfss	___fladd@grs,7
  5515  02ED  2AEF               	goto	u2801
  5516  02EE  2AF0               	goto	u2800
  5517  02EF                     u2801:
  5518  02EF  2AFE               	goto	l2069
  5519  02F0                     u2800:
  5520  02F0                     l2063:
  5521  02F0  0833               	movf	___fladd@grs,w
  5522  02F1  397F               	andlw	127
  5523  02F2  1903               	btfsc	3,2
  5524  02F3  2AF5               	goto	u2811
  5525  02F4  2AF6               	goto	u2810
  5526  02F5                     u2811:
  5527  02F5  2AF9               	goto	l547
  5528  02F6                     u2810:
  5529  02F6                     l2065:
  5530  02F6  01B1               	clrf	___fladd@aexp
  5531  02F7  0AB1               	incf	___fladd@aexp,f
  5532  02F8  2AFE               	goto	l2069
  5533  02F9                     l547:
  5534  02F9  1C20               	btfss	___fladd@b,0
  5535  02FA  2AFC               	goto	u2821
  5536  02FB  2AFD               	goto	u2820
  5537  02FC                     u2821:
  5538  02FC  2AFE               	goto	l2069
  5539  02FD                     u2820:
  5540  02FD  2AF6               	goto	l2065
  5541  02FE                     l2069:
  5542  02FE  0831               	movf	___fladd@aexp,w
  5543  02FF  1903               	btfsc	3,2
  5544  0300  2B02               	goto	u2831
  5545  0301  2B03               	goto	u2830
  5546  0302                     u2831:
  5547  0302  2B37               	goto	l2079
  5548  0303                     u2830:
  5549  0303                     l2071:
  5550  0303  3001               	movlw	1
  5551  0304  07A0               	addwf	___fladd@b,f
  5552  0305  3000               	movlw	0
  5553  0306  1803               	skipnc
  5554  0307  3001               	movlw	1
  5555  0308  07A1               	addwf	___fladd@b+1,f
  5556  0309  3000               	movlw	0
  5557  030A  1803               	skipnc
  5558  030B  3001               	movlw	1
  5559  030C  07A2               	addwf	___fladd@b+2,f
  5560  030D  3000               	movlw	0
  5561  030E  1803               	skipnc
  5562  030F  3001               	movlw	1
  5563  0310  07A3               	addwf	___fladd@b+3,f
  5564  0311                     l2073:
  5565  0311  1C23               	btfss	___fladd@b+3,0
  5566  0312  2B14               	goto	u2841
  5567  0313  2B15               	goto	u2840
  5568  0314                     u2841:
  5569  0314  2B37               	goto	l2079
  5570  0315                     u2840:
  5571  0315                     l2075:
  5572  0315  0820               	movf	___fladd@b,w
  5573  0316  00A8               	movwf	??___fladd
  5574  0317  0821               	movf	___fladd@b+1,w
  5575  0318  00A9               	movwf	??___fladd+1
  5576  0319  0822               	movf	___fladd@b+2,w
  5577  031A  00AA               	movwf	??___fladd+2
  5578  031B  0823               	movf	___fladd@b+3,w
  5579  031C  00AB               	movwf	??___fladd+3
  5580  031D  3001               	movlw	1
  5581  031E  00AC               	movwf	??___fladd+4
  5582  031F                     u2855:
  5583  031F  0D2B               	rlf	??___fladd+3,w
  5584  0320  0CAB               	rrf	??___fladd+3,f
  5585  0321  0CAA               	rrf	??___fladd+2,f
  5586  0322  0CA9               	rrf	??___fladd+1,f
  5587  0323  0CA8               	rrf	??___fladd,f
  5588  0324                     u2850:
  5589  0324  0BAC               	decfsz	??___fladd+4,f
  5590  0325  2B1F               	goto	u2855
  5591  0326  082B               	movf	??___fladd+3,w
  5592  0327  00A3               	movwf	___fladd@b+3
  5593  0328  082A               	movf	??___fladd+2,w
  5594  0329  00A2               	movwf	___fladd@b+2
  5595  032A  0829               	movf	??___fladd+1,w
  5596  032B  00A1               	movwf	___fladd@b+1
  5597  032C  0828               	movf	??___fladd,w
  5598  032D  00A0               	movwf	___fladd@b
  5599  032E  0A32               	incf	___fladd@bexp,w
  5600  032F  1903               	btfsc	3,2
  5601  0330  2B32               	goto	u2861
  5602  0331  2B33               	goto	u2860
  5603  0332                     u2861:
  5604  0332  2B37               	goto	l2079
  5605  0333                     u2860:
  5606  0333                     l2077:
  5607  0333  3001               	movlw	1
  5608  0334  00FF               	movwf	btemp+1
  5609  0335  087F               	movf	btemp+1,w
  5610  0336  07B2               	addwf	___fladd@bexp,f
  5611  0337                     l2079:
  5612  0337  0A32               	incf	___fladd@bexp,w
  5613  0338  1903               	btfsc	3,2
  5614  0339  2B3B               	goto	u2871
  5615  033A  2B3C               	goto	u2870
  5616  033B                     u2871:
  5617  033B  2B41               	goto	l2083
  5618  033C                     u2870:
  5619  033C                     l2081:
  5620  033C  0832               	movf	___fladd@bexp,w
  5621  033D  1D03               	btfss	3,2
  5622  033E  2B40               	goto	u2881
  5623  033F  2B41               	goto	u2880
  5624  0340                     u2881:
  5625  0340  2B4F               	goto	l2089
  5626  0341                     u2880:
  5627  0341                     l2083:
  5628  0341  3000               	movlw	0
  5629  0342  00A3               	movwf	___fladd@b+3
  5630  0343  3000               	movlw	0
  5631  0344  00A2               	movwf	___fladd@b+2
  5632  0345  3000               	movlw	0
  5633  0346  00A1               	movwf	___fladd@b+1
  5634  0347  3000               	movlw	0
  5635  0348  00A0               	movwf	___fladd@b
  5636  0349                     l2085:
  5637  0349  0832               	movf	___fladd@bexp,w
  5638  034A  1D03               	btfss	3,2
  5639  034B  2B4D               	goto	u2891
  5640  034C  2B4E               	goto	u2890
  5641  034D                     u2891:
  5642  034D  2B4F               	goto	l2089
  5643  034E                     u2890:
  5644  034E                     l2087:
  5645  034E  01B0               	clrf	___fladd@signs
  5646  034F                     l2089:
  5647  034F  1C32               	btfss	___fladd@bexp,0
  5648  0350  2B52               	goto	u2901
  5649  0351  2B53               	goto	u2900
  5650  0352                     u2901:
  5651  0352  2B55               	goto	l2093
  5652  0353                     u2900:
  5653  0353                     l2091:
  5654  0353  17A2               	bsf	___fladd@b+2,7
  5655  0354  2B59               	goto	l558
  5656  0355                     l2093:
  5657  0355  307F               	movlw	127
  5658  0356  00FF               	movwf	btemp+1
  5659  0357  087F               	movf	btemp+1,w
  5660  0358  05A2               	andwf	___fladd@b+2,f
  5661  0359                     l558:
  5662  0359  0832               	movf	___fladd@bexp,w
  5663  035A  00A8               	movwf	??___fladd
  5664  035B  1003               	clrc
  5665  035C  0C28               	rrf	??___fladd,w
  5666  035D  00FF               	movwf	btemp+1
  5667  035E  087F               	movf	btemp+1,w
  5668  035F  00A3               	movwf	___fladd@b+3
  5669  0360                     l2095:
  5670  0360  1FB0               	btfss	___fladd@signs,7
  5671  0361  2B63               	goto	u2911
  5672  0362  2B64               	goto	u2910
  5673  0363                     u2911:
  5674  0363  2B65               	goto	l559
  5675  0364                     u2910:
  5676  0364                     l2097:
  5677  0364  17A3               	bsf	___fladd@b+3,7
  5678  0365                     l559:
  5679  0365                     l529:
  5680  0365  0008               	return
  5681  0366                     __end_of___fladd:
  5682                           
  5683                           	psect	text21
  5684  0C9F                     __ptext21:	
  5685 ;; *************** function ___flmul *****************
  5686 ;; Defined at:
  5687 ;;		line 8 in file "C:\Program Files\Microchip\xc8\v2.20\pic\sources\c90\common\sprcmul.c"
  5688 ;; Parameters:    Size  Location     Type
  5689 ;;  b               4   54[BANK0 ] unsigned char 
  5690 ;;  a               4   58[BANK0 ] unsigned char 
  5691 ;; Auto vars:     Size  Location     Type
  5692 ;;  prod            4   74[BANK0 ] struct .
  5693 ;;  grs             4   68[BANK0 ] unsigned long 
  5694 ;;  temp            2   78[BANK0 ] struct .
  5695 ;;  bexp            1   73[BANK0 ] unsigned char 
  5696 ;;  aexp            1   72[BANK0 ] unsigned char 
  5697 ;;  sign            1   67[BANK0 ] unsigned char 
  5698 ;; Return value:  Size  Location     Type
  5699 ;;                  4   54[BANK0 ] unsigned char 
  5700 ;; Registers used:
  5701 ;;		wreg, status,2, status,0, btemp+1, pclath, cstack
  5702 ;; Tracked objects:
  5703 ;;		On entry : 0/0
  5704 ;;		On exit  : 0/0
  5705 ;;		Unchanged: 0/0
  5706 ;; Data sizes:     COMMON   BANK0   BANK1   BANK3   BANK2
  5707 ;;      Params:         0       8       0       0       0
  5708 ;;      Locals:         0      13       0       0       0
  5709 ;;      Temps:          0       5       0       0       0
  5710 ;;      Totals:         0      26       0       0       0
  5711 ;;Total ram usage:       26 bytes
  5712 ;; Hardware stack levels used:    1
  5713 ;; Hardware stack levels required when called:    2
  5714 ;; This function calls:
  5715 ;;		__Umul8_16
  5716 ;; This function is called by:
  5717 ;;		_puts_float
  5718 ;;		_Voltage_Value
  5719 ;;		_Resistance_Value
  5720 ;;		_conversion_newton
  5721 ;; This function uses a non-reentrant model
  5722 ;;
  5723                           
  5724                           
  5725                           ;psect for function ___flmul
  5726  0C9F                     ___flmul:
  5727  0C9F                     l2555:	
  5728                           ;incstack = 0
  5729                           ; Regs used in ___flmul: [wreg+status,2+status,0+btemp+1+pclath+cstack]
  5730                           
  5731  0C9F  1283               	bcf	3,5	;RP0=0, select bank0
  5732  0CA0  1303               	bcf	3,6	;RP1=0, select bank0
  5733  0CA1  0859               	movf	___flmul@b+3,w
  5734  0CA2  3980               	andlw	128
  5735  0CA3  00FF               	movwf	btemp+1
  5736  0CA4  087F               	movf	btemp+1,w
  5737  0CA5  00E3               	movwf	___flmul@sign
  5738  0CA6                     l2557:
  5739  0CA6  0859               	movf	___flmul@b+3,w
  5740  0CA7  00DE               	movwf	??___flmul
  5741  0CA8  075E               	addwf	??___flmul,w
  5742  0CA9  00FF               	movwf	btemp+1
  5743  0CAA  087F               	movf	btemp+1,w
  5744  0CAB  00E9               	movwf	___flmul@bexp
  5745  0CAC                     l2559:
  5746  0CAC  1FD8               	btfss	___flmul@b+2,7
  5747  0CAD  2CAF               	goto	u3991
  5748  0CAE  2CB0               	goto	u3990
  5749  0CAF                     u3991:
  5750  0CAF  2CB1               	goto	l2563
  5751  0CB0                     u3990:
  5752  0CB0                     l2561:
  5753  0CB0  1469               	bsf	___flmul@bexp,0
  5754  0CB1                     l2563:
  5755  0CB1  0869               	movf	___flmul@bexp,w
  5756  0CB2  1903               	btfsc	3,2
  5757  0CB3  2CB5               	goto	u4001
  5758  0CB4  2CB6               	goto	u4000
  5759  0CB5                     u4001:
  5760  0CB5  2CC5               	goto	l2571
  5761  0CB6                     u4000:
  5762  0CB6                     l2565:
  5763  0CB6  0A69               	incf	___flmul@bexp,w
  5764  0CB7  1D03               	btfss	3,2
  5765  0CB8  2CBA               	goto	u4011
  5766  0CB9  2CBB               	goto	u4010
  5767  0CBA                     u4011:
  5768  0CBA  2CC3               	goto	l2569
  5769  0CBB                     u4010:
  5770  0CBB                     l2567:
  5771  0CBB  3000               	movlw	0
  5772  0CBC  00D9               	movwf	___flmul@b+3
  5773  0CBD  3000               	movlw	0
  5774  0CBE  00D8               	movwf	___flmul@b+2
  5775  0CBF  3000               	movlw	0
  5776  0CC0  00D7               	movwf	___flmul@b+1
  5777  0CC1  3000               	movlw	0
  5778  0CC2  00D6               	movwf	___flmul@b
  5779  0CC3                     l2569:
  5780  0CC3  17D8               	bsf	___flmul@b+2,7
  5781  0CC4  2CCD               	goto	l2573
  5782  0CC5                     l2571:
  5783  0CC5  3000               	movlw	0
  5784  0CC6  00D9               	movwf	___flmul@b+3
  5785  0CC7  3000               	movlw	0
  5786  0CC8  00D8               	movwf	___flmul@b+2
  5787  0CC9  3000               	movlw	0
  5788  0CCA  00D7               	movwf	___flmul@b+1
  5789  0CCB  3000               	movlw	0
  5790  0CCC  00D6               	movwf	___flmul@b
  5791  0CCD                     l2573:
  5792  0CCD  085D               	movf	___flmul@a+3,w
  5793  0CCE  3980               	andlw	128
  5794  0CCF  00FF               	movwf	btemp+1
  5795  0CD0  087F               	movf	btemp+1,w
  5796  0CD1  06E3               	xorwf	___flmul@sign,f
  5797  0CD2                     l2575:
  5798  0CD2  085D               	movf	___flmul@a+3,w
  5799  0CD3  00DE               	movwf	??___flmul
  5800  0CD4  075E               	addwf	??___flmul,w
  5801  0CD5  00FF               	movwf	btemp+1
  5802  0CD6  087F               	movf	btemp+1,w
  5803  0CD7  00E8               	movwf	___flmul@aexp
  5804  0CD8                     l2577:
  5805  0CD8  1FDC               	btfss	___flmul@a+2,7
  5806  0CD9  2CDB               	goto	u4021
  5807  0CDA  2CDC               	goto	u4020
  5808  0CDB                     u4021:
  5809  0CDB  2CDD               	goto	l2581
  5810  0CDC                     u4020:
  5811  0CDC                     l2579:
  5812  0CDC  1468               	bsf	___flmul@aexp,0
  5813  0CDD                     l2581:
  5814  0CDD  0868               	movf	___flmul@aexp,w
  5815  0CDE  1903               	btfsc	3,2
  5816  0CDF  2CE1               	goto	u4031
  5817  0CE0  2CE2               	goto	u4030
  5818  0CE1                     u4031:
  5819  0CE1  2CF1               	goto	l2589
  5820  0CE2                     u4030:
  5821  0CE2                     l2583:
  5822  0CE2  0A68               	incf	___flmul@aexp,w
  5823  0CE3  1D03               	btfss	3,2
  5824  0CE4  2CE6               	goto	u4041
  5825  0CE5  2CE7               	goto	u4040
  5826  0CE6                     u4041:
  5827  0CE6  2CEF               	goto	l2587
  5828  0CE7                     u4040:
  5829  0CE7                     l2585:
  5830  0CE7  3000               	movlw	0
  5831  0CE8  00DD               	movwf	___flmul@a+3
  5832  0CE9  3000               	movlw	0
  5833  0CEA  00DC               	movwf	___flmul@a+2
  5834  0CEB  3000               	movlw	0
  5835  0CEC  00DB               	movwf	___flmul@a+1
  5836  0CED  3000               	movlw	0
  5837  0CEE  00DA               	movwf	___flmul@a
  5838  0CEF                     l2587:
  5839  0CEF  17DC               	bsf	___flmul@a+2,7
  5840  0CF0  2CF9               	goto	l2591
  5841  0CF1                     l2589:
  5842  0CF1  3000               	movlw	0
  5843  0CF2  00DD               	movwf	___flmul@a+3
  5844  0CF3  3000               	movlw	0
  5845  0CF4  00DC               	movwf	___flmul@a+2
  5846  0CF5  3000               	movlw	0
  5847  0CF6  00DB               	movwf	___flmul@a+1
  5848  0CF7  3000               	movlw	0
  5849  0CF8  00DA               	movwf	___flmul@a
  5850  0CF9                     l2591:
  5851  0CF9  0868               	movf	___flmul@aexp,w
  5852  0CFA  1903               	btfsc	3,2
  5853  0CFB  2CFD               	goto	u4051
  5854  0CFC  2CFE               	goto	u4050
  5855  0CFD                     u4051:
  5856  0CFD  2D03               	goto	l2595
  5857  0CFE                     u4050:
  5858  0CFE                     l2593:
  5859  0CFE  0869               	movf	___flmul@bexp,w
  5860  0CFF  1D03               	btfss	3,2
  5861  0D00  2D02               	goto	u4061
  5862  0D01  2D03               	goto	u4060
  5863  0D02                     u4061:
  5864  0D02  2D0C               	goto	l2599
  5865  0D03                     u4060:
  5866  0D03                     l2595:
  5867  0D03  3000               	movlw	0
  5868  0D04  00D9               	movwf	?___flmul+3
  5869  0D05  3000               	movlw	0
  5870  0D06  00D8               	movwf	?___flmul+2
  5871  0D07  3000               	movlw	0
  5872  0D08  00D7               	movwf	?___flmul+1
  5873  0D09  3000               	movlw	0
  5874  0D0A  00D6               	movwf	?___flmul
  5875  0D0B  2FFF               	goto	l612
  5876  0D0C                     l2599:
  5877  0D0C  0856               	movf	___flmul@b,w
  5878  0D0D  00FF               	movwf	btemp+1
  5879  0D0E  087F               	movf	btemp+1,w
  5880  0D0F  00F3               	movwf	__Umul8_16@multiplicand
  5881  0D10  085C               	movf	___flmul@a+2,w
  5882  0D11  160A  158A  2640  120A  158A  	fcall	__Umul8_16
  5883  0D16  0874               	movf	?__Umul8_16+1,w
  5884  0D17  1283               	bcf	3,5	;RP0=0, select bank0
  5885  0D18  1303               	bcf	3,6	;RP1=0, select bank0
  5886  0D19  00EF               	movwf	___flmul@temp+1
  5887  0D1A  0873               	movf	?__Umul8_16,w
  5888  0D1B  00EE               	movwf	___flmul@temp
  5889  0D1C                     l2601:
  5890  0D1C  086E               	movf	___flmul@temp,w
  5891  0D1D  00DE               	movwf	??___flmul
  5892  0D1E  01DF               	clrf	??___flmul+1
  5893  0D1F  01E0               	clrf	??___flmul+2
  5894  0D20  01E1               	clrf	??___flmul+3
  5895  0D21  0861               	movf	??___flmul+3,w
  5896  0D22  00E7               	movwf	___flmul@grs+3
  5897  0D23  0860               	movf	??___flmul+2,w
  5898  0D24  00E6               	movwf	___flmul@grs+2
  5899  0D25  085F               	movf	??___flmul+1,w
  5900  0D26  00E5               	movwf	___flmul@grs+1
  5901  0D27  085E               	movf	??___flmul,w
  5902  0D28  00E4               	movwf	___flmul@grs
  5903  0D29                     l2603:
  5904  0D29  086F               	movf	___flmul@temp+1,w
  5905  0D2A  00DE               	movwf	??___flmul
  5906  0D2B  01DF               	clrf	??___flmul+1
  5907  0D2C  01E0               	clrf	??___flmul+2
  5908  0D2D  01E1               	clrf	??___flmul+3
  5909  0D2E  0861               	movf	??___flmul+3,w
  5910  0D2F  00ED               	movwf	___flmul@prod+3
  5911  0D30  0860               	movf	??___flmul+2,w
  5912  0D31  00EC               	movwf	___flmul@prod+2
  5913  0D32  085F               	movf	??___flmul+1,w
  5914  0D33  00EB               	movwf	___flmul@prod+1
  5915  0D34  085E               	movf	??___flmul,w
  5916  0D35  00EA               	movwf	___flmul@prod
  5917  0D36  0857               	movf	___flmul@b+1,w
  5918  0D37  00FF               	movwf	btemp+1
  5919  0D38  087F               	movf	btemp+1,w
  5920  0D39  00F3               	movwf	__Umul8_16@multiplicand
  5921  0D3A  085B               	movf	___flmul@a+1,w
  5922  0D3B  160A  158A  2640  120A  158A  	fcall	__Umul8_16
  5923  0D40  0874               	movf	?__Umul8_16+1,w
  5924  0D41  1283               	bcf	3,5	;RP0=0, select bank0
  5925  0D42  1303               	bcf	3,6	;RP1=0, select bank0
  5926  0D43  00EF               	movwf	___flmul@temp+1
  5927  0D44  0873               	movf	?__Umul8_16,w
  5928  0D45  00EE               	movwf	___flmul@temp
  5929  0D46                     l2605:
  5930  0D46  086E               	movf	___flmul@temp,w
  5931  0D47  00DE               	movwf	??___flmul
  5932  0D48  01DF               	clrf	??___flmul+1
  5933  0D49  01E0               	clrf	??___flmul+2
  5934  0D4A  01E1               	clrf	??___flmul+3
  5935  0D4B  085E               	movf	??___flmul,w
  5936  0D4C  07E4               	addwf	___flmul@grs,f
  5937  0D4D  085F               	movf	??___flmul+1,w
  5938  0D4E  1103               	clrz
  5939  0D4F  1803               	skipnc
  5940  0D50  3E01               	addlw	1
  5941  0D51  1903               	skipnz
  5942  0D52  2D54               	goto	u4071
  5943  0D53  07E5               	addwf	___flmul@grs+1,f
  5944  0D54                     u4071:
  5945  0D54  0860               	movf	??___flmul+2,w
  5946  0D55  1103               	clrz
  5947  0D56  1803               	skipnc
  5948  0D57  3E01               	addlw	1
  5949  0D58  1903               	skipnz
  5950  0D59  2D5B               	goto	u4072
  5951  0D5A  07E6               	addwf	___flmul@grs+2,f
  5952  0D5B                     u4072:
  5953  0D5B  0861               	movf	??___flmul+3,w
  5954  0D5C  1103               	clrz
  5955  0D5D  1803               	skipnc
  5956  0D5E  3E01               	addlw	1
  5957  0D5F  1903               	skipnz
  5958  0D60  2D62               	goto	u4073
  5959  0D61  07E7               	addwf	___flmul@grs+3,f
  5960  0D62                     u4073:
  5961  0D62                     l2607:
  5962  0D62  086F               	movf	___flmul@temp+1,w
  5963  0D63  00DE               	movwf	??___flmul
  5964  0D64  01DF               	clrf	??___flmul+1
  5965  0D65  01E0               	clrf	??___flmul+2
  5966  0D66  01E1               	clrf	??___flmul+3
  5967  0D67  085E               	movf	??___flmul,w
  5968  0D68  07EA               	addwf	___flmul@prod,f
  5969  0D69  085F               	movf	??___flmul+1,w
  5970  0D6A  1103               	clrz
  5971  0D6B  1803               	skipnc
  5972  0D6C  3E01               	addlw	1
  5973  0D6D  1903               	skipnz
  5974  0D6E  2D70               	goto	u4081
  5975  0D6F  07EB               	addwf	___flmul@prod+1,f
  5976  0D70                     u4081:
  5977  0D70  0860               	movf	??___flmul+2,w
  5978  0D71  1103               	clrz
  5979  0D72  1803               	skipnc
  5980  0D73  3E01               	addlw	1
  5981  0D74  1903               	skipnz
  5982  0D75  2D77               	goto	u4082
  5983  0D76  07EC               	addwf	___flmul@prod+2,f
  5984  0D77                     u4082:
  5985  0D77  0861               	movf	??___flmul+3,w
  5986  0D78  1103               	clrz
  5987  0D79  1803               	skipnc
  5988  0D7A  3E01               	addlw	1
  5989  0D7B  1903               	skipnz
  5990  0D7C  2D7E               	goto	u4083
  5991  0D7D  07ED               	addwf	___flmul@prod+3,f
  5992  0D7E                     u4083:
  5993  0D7E  0858               	movf	___flmul@b+2,w
  5994  0D7F  00FF               	movwf	btemp+1
  5995  0D80  087F               	movf	btemp+1,w
  5996  0D81  00F3               	movwf	__Umul8_16@multiplicand
  5997  0D82  085A               	movf	___flmul@a,w
  5998  0D83  160A  158A  2640  120A  158A  	fcall	__Umul8_16
  5999  0D88  0874               	movf	?__Umul8_16+1,w
  6000  0D89  1283               	bcf	3,5	;RP0=0, select bank0
  6001  0D8A  1303               	bcf	3,6	;RP1=0, select bank0
  6002  0D8B  00EF               	movwf	___flmul@temp+1
  6003  0D8C  0873               	movf	?__Umul8_16,w
  6004  0D8D  00EE               	movwf	___flmul@temp
  6005  0D8E                     l2609:
  6006  0D8E  086E               	movf	___flmul@temp,w
  6007  0D8F  00DE               	movwf	??___flmul
  6008  0D90  01DF               	clrf	??___flmul+1
  6009  0D91  01E0               	clrf	??___flmul+2
  6010  0D92  01E1               	clrf	??___flmul+3
  6011  0D93  085E               	movf	??___flmul,w
  6012  0D94  07E4               	addwf	___flmul@grs,f
  6013  0D95  085F               	movf	??___flmul+1,w
  6014  0D96  1103               	clrz
  6015  0D97  1803               	skipnc
  6016  0D98  3E01               	addlw	1
  6017  0D99  1903               	skipnz
  6018  0D9A  2D9C               	goto	u4091
  6019  0D9B  07E5               	addwf	___flmul@grs+1,f
  6020  0D9C                     u4091:
  6021  0D9C  0860               	movf	??___flmul+2,w
  6022  0D9D  1103               	clrz
  6023  0D9E  1803               	skipnc
  6024  0D9F  3E01               	addlw	1
  6025  0DA0  1903               	skipnz
  6026  0DA1  2DA3               	goto	u4092
  6027  0DA2  07E6               	addwf	___flmul@grs+2,f
  6028  0DA3                     u4092:
  6029  0DA3  0861               	movf	??___flmul+3,w
  6030  0DA4  1103               	clrz
  6031  0DA5  1803               	skipnc
  6032  0DA6  3E01               	addlw	1
  6033  0DA7  1903               	skipnz
  6034  0DA8  2DAA               	goto	u4093
  6035  0DA9  07E7               	addwf	___flmul@grs+3,f
  6036  0DAA                     u4093:
  6037  0DAA                     l2611:
  6038  0DAA  086F               	movf	___flmul@temp+1,w
  6039  0DAB  00DE               	movwf	??___flmul
  6040  0DAC  01DF               	clrf	??___flmul+1
  6041  0DAD  01E0               	clrf	??___flmul+2
  6042  0DAE  01E1               	clrf	??___flmul+3
  6043  0DAF  085E               	movf	??___flmul,w
  6044  0DB0  07EA               	addwf	___flmul@prod,f
  6045  0DB1  085F               	movf	??___flmul+1,w
  6046  0DB2  1103               	clrz
  6047  0DB3  1803               	skipnc
  6048  0DB4  3E01               	addlw	1
  6049  0DB5  1903               	skipnz
  6050  0DB6  2DB8               	goto	u4101
  6051  0DB7  07EB               	addwf	___flmul@prod+1,f
  6052  0DB8                     u4101:
  6053  0DB8  0860               	movf	??___flmul+2,w
  6054  0DB9  1103               	clrz
  6055  0DBA  1803               	skipnc
  6056  0DBB  3E01               	addlw	1
  6057  0DBC  1903               	skipnz
  6058  0DBD  2DBF               	goto	u4102
  6059  0DBE  07EC               	addwf	___flmul@prod+2,f
  6060  0DBF                     u4102:
  6061  0DBF  0861               	movf	??___flmul+3,w
  6062  0DC0  1103               	clrz
  6063  0DC1  1803               	skipnc
  6064  0DC2  3E01               	addlw	1
  6065  0DC3  1903               	skipnz
  6066  0DC4  2DC6               	goto	u4103
  6067  0DC5  07ED               	addwf	___flmul@prod+3,f
  6068  0DC6                     u4103:
  6069  0DC6                     l2613:
  6070  0DC6  3008               	movlw	8
  6071  0DC7  00DE               	movwf	??___flmul
  6072  0DC8                     u4115:
  6073  0DC8  1003               	clrc
  6074  0DC9  0DE4               	rlf	___flmul@grs,f
  6075  0DCA  0DE5               	rlf	___flmul@grs+1,f
  6076  0DCB  0DE6               	rlf	___flmul@grs+2,f
  6077  0DCC  0DE7               	rlf	___flmul@grs+3,f
  6078  0DCD  0BDE               	decfsz	??___flmul,f
  6079  0DCE  2DC8               	goto	u4115
  6080  0DCF                     l2615:
  6081  0DCF  0857               	movf	___flmul@b+1,w
  6082  0DD0  00FF               	movwf	btemp+1
  6083  0DD1  087F               	movf	btemp+1,w
  6084  0DD2  00F3               	movwf	__Umul8_16@multiplicand
  6085  0DD3  085A               	movf	___flmul@a,w
  6086  0DD4  160A  158A  2640  120A  158A  	fcall	__Umul8_16
  6087  0DD9  0874               	movf	?__Umul8_16+1,w
  6088  0DDA  1283               	bcf	3,5	;RP0=0, select bank0
  6089  0DDB  1303               	bcf	3,6	;RP1=0, select bank0
  6090  0DDC  00EF               	movwf	___flmul@temp+1
  6091  0DDD  0873               	movf	?__Umul8_16,w
  6092  0DDE  00EE               	movwf	___flmul@temp
  6093  0DDF                     l2617:
  6094  0DDF  086E               	movf	___flmul@temp,w
  6095  0DE0  00DE               	movwf	??___flmul
  6096  0DE1  086F               	movf	___flmul@temp+1,w
  6097  0DE2  00DF               	movwf	??___flmul+1
  6098  0DE3  01E0               	clrf	??___flmul+2
  6099  0DE4  01E1               	clrf	??___flmul+3
  6100  0DE5  085E               	movf	??___flmul,w
  6101  0DE6  07E4               	addwf	___flmul@grs,f
  6102  0DE7  085F               	movf	??___flmul+1,w
  6103  0DE8  1103               	clrz
  6104  0DE9  1803               	skipnc
  6105  0DEA  3E01               	addlw	1
  6106  0DEB  1903               	skipnz
  6107  0DEC  2DEE               	goto	u4121
  6108  0DED  07E5               	addwf	___flmul@grs+1,f
  6109  0DEE                     u4121:
  6110  0DEE  0860               	movf	??___flmul+2,w
  6111  0DEF  1103               	clrz
  6112  0DF0  1803               	skipnc
  6113  0DF1  3E01               	addlw	1
  6114  0DF2  1903               	skipnz
  6115  0DF3  2DF5               	goto	u4122
  6116  0DF4  07E6               	addwf	___flmul@grs+2,f
  6117  0DF5                     u4122:
  6118  0DF5  0861               	movf	??___flmul+3,w
  6119  0DF6  1103               	clrz
  6120  0DF7  1803               	skipnc
  6121  0DF8  3E01               	addlw	1
  6122  0DF9  1903               	skipnz
  6123  0DFA  2DFC               	goto	u4123
  6124  0DFB  07E7               	addwf	___flmul@grs+3,f
  6125  0DFC                     u4123:
  6126  0DFC                     l2619:
  6127  0DFC  0856               	movf	___flmul@b,w
  6128  0DFD  00FF               	movwf	btemp+1
  6129  0DFE  087F               	movf	btemp+1,w
  6130  0DFF  00F3               	movwf	__Umul8_16@multiplicand
  6131  0E00  085B               	movf	___flmul@a+1,w
  6132  0E01  160A  158A  2640  120A  158A  	fcall	__Umul8_16
  6133  0E06  0874               	movf	?__Umul8_16+1,w
  6134  0E07  1283               	bcf	3,5	;RP0=0, select bank0
  6135  0E08  1303               	bcf	3,6	;RP1=0, select bank0
  6136  0E09  00EF               	movwf	___flmul@temp+1
  6137  0E0A  0873               	movf	?__Umul8_16,w
  6138  0E0B  00EE               	movwf	___flmul@temp
  6139  0E0C                     l2621:
  6140  0E0C  086E               	movf	___flmul@temp,w
  6141  0E0D  00DE               	movwf	??___flmul
  6142  0E0E  086F               	movf	___flmul@temp+1,w
  6143  0E0F  00DF               	movwf	??___flmul+1
  6144  0E10  01E0               	clrf	??___flmul+2
  6145  0E11  01E1               	clrf	??___flmul+3
  6146  0E12  085E               	movf	??___flmul,w
  6147  0E13  07E4               	addwf	___flmul@grs,f
  6148  0E14  085F               	movf	??___flmul+1,w
  6149  0E15  1103               	clrz
  6150  0E16  1803               	skipnc
  6151  0E17  3E01               	addlw	1
  6152  0E18  1903               	skipnz
  6153  0E19  2E1B               	goto	u4131
  6154  0E1A  07E5               	addwf	___flmul@grs+1,f
  6155  0E1B                     u4131:
  6156  0E1B  0860               	movf	??___flmul+2,w
  6157  0E1C  1103               	clrz
  6158  0E1D  1803               	skipnc
  6159  0E1E  3E01               	addlw	1
  6160  0E1F  1903               	skipnz
  6161  0E20  2E22               	goto	u4132
  6162  0E21  07E6               	addwf	___flmul@grs+2,f
  6163  0E22                     u4132:
  6164  0E22  0861               	movf	??___flmul+3,w
  6165  0E23  1103               	clrz
  6166  0E24  1803               	skipnc
  6167  0E25  3E01               	addlw	1
  6168  0E26  1903               	skipnz
  6169  0E27  2E29               	goto	u4133
  6170  0E28  07E7               	addwf	___flmul@grs+3,f
  6171  0E29                     u4133:
  6172  0E29                     l2623:
  6173  0E29  3008               	movlw	8
  6174  0E2A  00DE               	movwf	??___flmul
  6175  0E2B                     u4145:
  6176  0E2B  1003               	clrc
  6177  0E2C  0DE4               	rlf	___flmul@grs,f
  6178  0E2D  0DE5               	rlf	___flmul@grs+1,f
  6179  0E2E  0DE6               	rlf	___flmul@grs+2,f
  6180  0E2F  0DE7               	rlf	___flmul@grs+3,f
  6181  0E30  0BDE               	decfsz	??___flmul,f
  6182  0E31  2E2B               	goto	u4145
  6183  0E32  0856               	movf	___flmul@b,w
  6184  0E33  00FF               	movwf	btemp+1
  6185  0E34  087F               	movf	btemp+1,w
  6186  0E35  00F3               	movwf	__Umul8_16@multiplicand
  6187  0E36  085A               	movf	___flmul@a,w
  6188  0E37  160A  158A  2640  120A  158A  	fcall	__Umul8_16
  6189  0E3C  0874               	movf	?__Umul8_16+1,w
  6190  0E3D  1283               	bcf	3,5	;RP0=0, select bank0
  6191  0E3E  1303               	bcf	3,6	;RP1=0, select bank0
  6192  0E3F  00EF               	movwf	___flmul@temp+1
  6193  0E40  0873               	movf	?__Umul8_16,w
  6194  0E41  00EE               	movwf	___flmul@temp
  6195  0E42                     l2625:
  6196  0E42  086E               	movf	___flmul@temp,w
  6197  0E43  00DE               	movwf	??___flmul
  6198  0E44  086F               	movf	___flmul@temp+1,w
  6199  0E45  00DF               	movwf	??___flmul+1
  6200  0E46  01E0               	clrf	??___flmul+2
  6201  0E47  01E1               	clrf	??___flmul+3
  6202  0E48  085E               	movf	??___flmul,w
  6203  0E49  07E4               	addwf	___flmul@grs,f
  6204  0E4A  085F               	movf	??___flmul+1,w
  6205  0E4B  1103               	clrz
  6206  0E4C  1803               	skipnc
  6207  0E4D  3E01               	addlw	1
  6208  0E4E  1903               	skipnz
  6209  0E4F  2E51               	goto	u4151
  6210  0E50  07E5               	addwf	___flmul@grs+1,f
  6211  0E51                     u4151:
  6212  0E51  0860               	movf	??___flmul+2,w
  6213  0E52  1103               	clrz
  6214  0E53  1803               	skipnc
  6215  0E54  3E01               	addlw	1
  6216  0E55  1903               	skipnz
  6217  0E56  2E58               	goto	u4152
  6218  0E57  07E6               	addwf	___flmul@grs+2,f
  6219  0E58                     u4152:
  6220  0E58  0861               	movf	??___flmul+3,w
  6221  0E59  1103               	clrz
  6222  0E5A  1803               	skipnc
  6223  0E5B  3E01               	addlw	1
  6224  0E5C  1903               	skipnz
  6225  0E5D  2E5F               	goto	u4153
  6226  0E5E  07E7               	addwf	___flmul@grs+3,f
  6227  0E5F                     u4153:
  6228  0E5F                     l2627:
  6229  0E5F  0857               	movf	___flmul@b+1,w
  6230  0E60  00FF               	movwf	btemp+1
  6231  0E61  087F               	movf	btemp+1,w
  6232  0E62  00F3               	movwf	__Umul8_16@multiplicand
  6233  0E63  085C               	movf	___flmul@a+2,w
  6234  0E64  160A  158A  2640  120A  158A  	fcall	__Umul8_16
  6235  0E69  0874               	movf	?__Umul8_16+1,w
  6236  0E6A  1283               	bcf	3,5	;RP0=0, select bank0
  6237  0E6B  1303               	bcf	3,6	;RP1=0, select bank0
  6238  0E6C  00EF               	movwf	___flmul@temp+1
  6239  0E6D  0873               	movf	?__Umul8_16,w
  6240  0E6E  00EE               	movwf	___flmul@temp
  6241  0E6F  086E               	movf	___flmul@temp,w
  6242  0E70  00DE               	movwf	??___flmul
  6243  0E71  086F               	movf	___flmul@temp+1,w
  6244  0E72  00DF               	movwf	??___flmul+1
  6245  0E73  01E0               	clrf	??___flmul+2
  6246  0E74  01E1               	clrf	??___flmul+3
  6247  0E75  085E               	movf	??___flmul,w
  6248  0E76  07EA               	addwf	___flmul@prod,f
  6249  0E77  085F               	movf	??___flmul+1,w
  6250  0E78  1103               	clrz
  6251  0E79  1803               	skipnc
  6252  0E7A  3E01               	addlw	1
  6253  0E7B  1903               	skipnz
  6254  0E7C  2E7E               	goto	u4161
  6255  0E7D  07EB               	addwf	___flmul@prod+1,f
  6256  0E7E                     u4161:
  6257  0E7E  0860               	movf	??___flmul+2,w
  6258  0E7F  1103               	clrz
  6259  0E80  1803               	skipnc
  6260  0E81  3E01               	addlw	1
  6261  0E82  1903               	skipnz
  6262  0E83  2E85               	goto	u4162
  6263  0E84  07EC               	addwf	___flmul@prod+2,f
  6264  0E85                     u4162:
  6265  0E85  0861               	movf	??___flmul+3,w
  6266  0E86  1103               	clrz
  6267  0E87  1803               	skipnc
  6268  0E88  3E01               	addlw	1
  6269  0E89  1903               	skipnz
  6270  0E8A  2E8C               	goto	u4163
  6271  0E8B  07ED               	addwf	___flmul@prod+3,f
  6272  0E8C                     u4163:
  6273  0E8C                     l2629:
  6274  0E8C  0858               	movf	___flmul@b+2,w
  6275  0E8D  00FF               	movwf	btemp+1
  6276  0E8E  087F               	movf	btemp+1,w
  6277  0E8F  00F3               	movwf	__Umul8_16@multiplicand
  6278  0E90  085B               	movf	___flmul@a+1,w
  6279  0E91  160A  158A  2640  120A  158A  	fcall	__Umul8_16
  6280  0E96  0874               	movf	?__Umul8_16+1,w
  6281  0E97  1283               	bcf	3,5	;RP0=0, select bank0
  6282  0E98  1303               	bcf	3,6	;RP1=0, select bank0
  6283  0E99  00EF               	movwf	___flmul@temp+1
  6284  0E9A  0873               	movf	?__Umul8_16,w
  6285  0E9B  00EE               	movwf	___flmul@temp
  6286  0E9C                     l2631:
  6287  0E9C  086E               	movf	___flmul@temp,w
  6288  0E9D  00DE               	movwf	??___flmul
  6289  0E9E  086F               	movf	___flmul@temp+1,w
  6290  0E9F  00DF               	movwf	??___flmul+1
  6291  0EA0  01E0               	clrf	??___flmul+2
  6292  0EA1  01E1               	clrf	??___flmul+3
  6293  0EA2  085E               	movf	??___flmul,w
  6294  0EA3  07EA               	addwf	___flmul@prod,f
  6295  0EA4  085F               	movf	??___flmul+1,w
  6296  0EA5  1103               	clrz
  6297  0EA6  1803               	skipnc
  6298  0EA7  3E01               	addlw	1
  6299  0EA8  1903               	skipnz
  6300  0EA9  2EAB               	goto	u4171
  6301  0EAA  07EB               	addwf	___flmul@prod+1,f
  6302  0EAB                     u4171:
  6303  0EAB  0860               	movf	??___flmul+2,w
  6304  0EAC  1103               	clrz
  6305  0EAD  1803               	skipnc
  6306  0EAE  3E01               	addlw	1
  6307  0EAF  1903               	skipnz
  6308  0EB0  2EB2               	goto	u4172
  6309  0EB1  07EC               	addwf	___flmul@prod+2,f
  6310  0EB2                     u4172:
  6311  0EB2  0861               	movf	??___flmul+3,w
  6312  0EB3  1103               	clrz
  6313  0EB4  1803               	skipnc
  6314  0EB5  3E01               	addlw	1
  6315  0EB6  1903               	skipnz
  6316  0EB7  2EB9               	goto	u4173
  6317  0EB8  07ED               	addwf	___flmul@prod+3,f
  6318  0EB9                     u4173:
  6319  0EB9  0858               	movf	___flmul@b+2,w
  6320  0EBA  00FF               	movwf	btemp+1
  6321  0EBB  087F               	movf	btemp+1,w
  6322  0EBC  00F3               	movwf	__Umul8_16@multiplicand
  6323  0EBD  085C               	movf	___flmul@a+2,w
  6324  0EBE  160A  158A  2640  120A  158A  	fcall	__Umul8_16
  6325  0EC3  0874               	movf	?__Umul8_16+1,w
  6326  0EC4  1283               	bcf	3,5	;RP0=0, select bank0
  6327  0EC5  1303               	bcf	3,6	;RP1=0, select bank0
  6328  0EC6  00EF               	movwf	___flmul@temp+1
  6329  0EC7  0873               	movf	?__Umul8_16,w
  6330  0EC8  00EE               	movwf	___flmul@temp
  6331  0EC9                     l2633:
  6332  0EC9  086E               	movf	___flmul@temp,w
  6333  0ECA  00DE               	movwf	??___flmul
  6334  0ECB  086F               	movf	___flmul@temp+1,w
  6335  0ECC  00DF               	movwf	??___flmul+1
  6336  0ECD  01E0               	clrf	??___flmul+2
  6337  0ECE  01E1               	clrf	??___flmul+3
  6338  0ECF  3008               	movlw	8
  6339  0ED0                     u4185:
  6340  0ED0  1003               	clrc
  6341  0ED1  0DDE               	rlf	??___flmul,f
  6342  0ED2  0DDF               	rlf	??___flmul+1,f
  6343  0ED3  0DE0               	rlf	??___flmul+2,f
  6344  0ED4  0DE1               	rlf	??___flmul+3,f
  6345  0ED5                     u4180:
  6346  0ED5  3EFF               	addlw	-1
  6347  0ED6  1D03               	skipz
  6348  0ED7  2ED0               	goto	u4185
  6349  0ED8  085E               	movf	??___flmul,w
  6350  0ED9  07EA               	addwf	___flmul@prod,f
  6351  0EDA  085F               	movf	??___flmul+1,w
  6352  0EDB  1103               	clrz
  6353  0EDC  1803               	skipnc
  6354  0EDD  3E01               	addlw	1
  6355  0EDE  1903               	skipnz
  6356  0EDF  2EE1               	goto	u4191
  6357  0EE0  07EB               	addwf	___flmul@prod+1,f
  6358  0EE1                     u4191:
  6359  0EE1  0860               	movf	??___flmul+2,w
  6360  0EE2  1103               	clrz
  6361  0EE3  1803               	skipnc
  6362  0EE4  3E01               	addlw	1
  6363  0EE5  1903               	skipnz
  6364  0EE6  2EE8               	goto	u4192
  6365  0EE7  07EC               	addwf	___flmul@prod+2,f
  6366  0EE8                     u4192:
  6367  0EE8  0861               	movf	??___flmul+3,w
  6368  0EE9  1103               	clrz
  6369  0EEA  1803               	skipnc
  6370  0EEB  3E01               	addlw	1
  6371  0EEC  1903               	skipnz
  6372  0EED  2EEF               	goto	u4193
  6373  0EEE  07ED               	addwf	___flmul@prod+3,f
  6374  0EEF                     u4193:
  6375  0EEF                     l2635:
  6376  0EEF  0864               	movf	___flmul@grs,w
  6377  0EF0  00DE               	movwf	??___flmul
  6378  0EF1  0865               	movf	___flmul@grs+1,w
  6379  0EF2  00DF               	movwf	??___flmul+1
  6380  0EF3  0866               	movf	___flmul@grs+2,w
  6381  0EF4  00E0               	movwf	??___flmul+2
  6382  0EF5  0867               	movf	___flmul@grs+3,w
  6383  0EF6  00E1               	movwf	??___flmul+3
  6384  0EF7  3018               	movlw	24
  6385  0EF8                     u4205:
  6386  0EF8  1003               	clrc
  6387  0EF9  0CE1               	rrf	??___flmul+3,f
  6388  0EFA  0CE0               	rrf	??___flmul+2,f
  6389  0EFB  0CDF               	rrf	??___flmul+1,f
  6390  0EFC  0CDE               	rrf	??___flmul,f
  6391  0EFD                     u4200:
  6392  0EFD  3EFF               	addlw	-1
  6393  0EFE  1D03               	skipz
  6394  0EFF  2EF8               	goto	u4205
  6395  0F00  085E               	movf	??___flmul,w
  6396  0F01  07EA               	addwf	___flmul@prod,f
  6397  0F02  085F               	movf	??___flmul+1,w
  6398  0F03  1103               	clrz
  6399  0F04  1803               	skipnc
  6400  0F05  3E01               	addlw	1
  6401  0F06  1903               	skipnz
  6402  0F07  2F09               	goto	u4211
  6403  0F08  07EB               	addwf	___flmul@prod+1,f
  6404  0F09                     u4211:
  6405  0F09  0860               	movf	??___flmul+2,w
  6406  0F0A  1103               	clrz
  6407  0F0B  1803               	skipnc
  6408  0F0C  3E01               	addlw	1
  6409  0F0D  1903               	skipnz
  6410  0F0E  2F10               	goto	u4212
  6411  0F0F  07EC               	addwf	___flmul@prod+2,f
  6412  0F10                     u4212:
  6413  0F10  0861               	movf	??___flmul+3,w
  6414  0F11  1103               	clrz
  6415  0F12  1803               	skipnc
  6416  0F13  3E01               	addlw	1
  6417  0F14  1903               	skipnz
  6418  0F15  2F17               	goto	u4213
  6419  0F16  07ED               	addwf	___flmul@prod+3,f
  6420  0F17                     u4213:
  6421  0F17                     l2637:
  6422  0F17  3008               	movlw	8
  6423  0F18  00DE               	movwf	??___flmul
  6424  0F19                     u4225:
  6425  0F19  1003               	clrc
  6426  0F1A  0DE4               	rlf	___flmul@grs,f
  6427  0F1B  0DE5               	rlf	___flmul@grs+1,f
  6428  0F1C  0DE6               	rlf	___flmul@grs+2,f
  6429  0F1D  0DE7               	rlf	___flmul@grs+3,f
  6430  0F1E  0BDE               	decfsz	??___flmul,f
  6431  0F1F  2F19               	goto	u4225
  6432  0F20                     l2639:
  6433  0F20  0869               	movf	___flmul@bexp,w
  6434  0F21  0768               	addwf	___flmul@aexp,w
  6435  0F22  00DE               	movwf	??___flmul
  6436  0F23  01DF               	clrf	??___flmul+1
  6437  0F24  0DDF               	rlf	??___flmul+1,f
  6438  0F25  085E               	movf	??___flmul,w
  6439  0F26  3E82               	addlw	130
  6440  0F27  00EE               	movwf	___flmul@temp
  6441  0F28  085F               	movf	??___flmul+1,w
  6442  0F29  1803               	skipnc
  6443  0F2A  3E01               	addlw	1
  6444  0F2B  3EFF               	addlw	255
  6445  0F2C  00EF               	movwf	___flmul@temp+1
  6446  0F2D  2F4B               	goto	l2651
  6447  0F2E                     l2641:
  6448  0F2E  3001               	movlw	1
  6449  0F2F  00DE               	movwf	??___flmul
  6450  0F30                     u4235:
  6451  0F30  1003               	clrc
  6452  0F31  0DEA               	rlf	___flmul@prod,f
  6453  0F32  0DEB               	rlf	___flmul@prod+1,f
  6454  0F33  0DEC               	rlf	___flmul@prod+2,f
  6455  0F34  0DED               	rlf	___flmul@prod+3,f
  6456  0F35  0BDE               	decfsz	??___flmul,f
  6457  0F36  2F30               	goto	u4235
  6458  0F37                     l2643:
  6459  0F37  1FE7               	btfss	___flmul@grs+3,7
  6460  0F38  2F3A               	goto	u4241
  6461  0F39  2F3B               	goto	u4240
  6462  0F3A                     u4241:
  6463  0F3A  2F3C               	goto	l2647
  6464  0F3B                     u4240:
  6465  0F3B                     l2645:
  6466  0F3B  146A               	bsf	___flmul@prod,0
  6467  0F3C                     l2647:
  6468  0F3C  3001               	movlw	1
  6469  0F3D  00DE               	movwf	??___flmul
  6470  0F3E                     u4255:
  6471  0F3E  1003               	clrc
  6472  0F3F  0DE4               	rlf	___flmul@grs,f
  6473  0F40  0DE5               	rlf	___flmul@grs+1,f
  6474  0F41  0DE6               	rlf	___flmul@grs+2,f
  6475  0F42  0DE7               	rlf	___flmul@grs+3,f
  6476  0F43  0BDE               	decfsz	??___flmul,f
  6477  0F44  2F3E               	goto	u4255
  6478  0F45                     l2649:
  6479  0F45  30FF               	movlw	255
  6480  0F46  07EE               	addwf	___flmul@temp,f
  6481  0F47  1803               	skipnc
  6482  0F48  0AEF               	incf	___flmul@temp+1,f
  6483  0F49  30FF               	movlw	255
  6484  0F4A  07EF               	addwf	___flmul@temp+1,f
  6485  0F4B                     l2651:
  6486  0F4B  1FEC               	btfss	___flmul@prod+2,7
  6487  0F4C  2F4E               	goto	u4261
  6488  0F4D  2F4F               	goto	u4260
  6489  0F4E                     u4261:
  6490  0F4E  2F2E               	goto	l2641
  6491  0F4F                     u4260:
  6492  0F4F                     l2653:
  6493  0F4F  01E8               	clrf	___flmul@aexp
  6494  0F50                     l2655:
  6495  0F50  1FE7               	btfss	___flmul@grs+3,7
  6496  0F51  2F53               	goto	u4271
  6497  0F52  2F54               	goto	u4270
  6498  0F53                     u4271:
  6499  0F53  2F70               	goto	l2663
  6500  0F54                     u4270:
  6501  0F54                     l2657:
  6502  0F54  30FF               	movlw	255
  6503  0F55  0564               	andwf	___flmul@grs,w
  6504  0F56  00DE               	movwf	??___flmul
  6505  0F57  30FF               	movlw	255
  6506  0F58  0565               	andwf	___flmul@grs+1,w
  6507  0F59  00DF               	movwf	??___flmul+1
  6508  0F5A  30FF               	movlw	255
  6509  0F5B  0566               	andwf	___flmul@grs+2,w
  6510  0F5C  00E0               	movwf	??___flmul+2
  6511  0F5D  307F               	movlw	127
  6512  0F5E  0567               	andwf	___flmul@grs+3,w
  6513  0F5F  00E1               	movwf	??___flmul+3
  6514  0F60  0861               	movf	??___flmul+3,w
  6515  0F61  0460               	iorwf	??___flmul+2,w
  6516  0F62  045F               	iorwf	??___flmul+1,w
  6517  0F63  045E               	iorwf	??___flmul,w
  6518  0F64  1903               	skipnz
  6519  0F65  2F67               	goto	u4281
  6520  0F66  2F68               	goto	u4280
  6521  0F67                     u4281:
  6522  0F67  2F6B               	goto	l618
  6523  0F68                     u4280:
  6524  0F68                     l2659:
  6525  0F68  01E8               	clrf	___flmul@aexp
  6526  0F69  0AE8               	incf	___flmul@aexp,f
  6527  0F6A  2F70               	goto	l2663
  6528  0F6B                     l618:
  6529  0F6B  1C6A               	btfss	___flmul@prod,0
  6530  0F6C  2F6E               	goto	u4291
  6531  0F6D  2F6F               	goto	u4290
  6532  0F6E                     u4291:
  6533  0F6E  2F70               	goto	l2663
  6534  0F6F                     u4290:
  6535  0F6F  2F68               	goto	l2659
  6536  0F70                     l2663:
  6537  0F70  0868               	movf	___flmul@aexp,w
  6538  0F71  1903               	btfsc	3,2
  6539  0F72  2F74               	goto	u4301
  6540  0F73  2F75               	goto	u4300
  6541  0F74                     u4301:
  6542  0F74  2FA6               	goto	l2673
  6543  0F75                     u4300:
  6544  0F75                     l2665:
  6545  0F75  3001               	movlw	1
  6546  0F76  07EA               	addwf	___flmul@prod,f
  6547  0F77  3000               	movlw	0
  6548  0F78  1803               	skipnc
  6549  0F79  3001               	movlw	1
  6550  0F7A  07EB               	addwf	___flmul@prod+1,f
  6551  0F7B  3000               	movlw	0
  6552  0F7C  1803               	skipnc
  6553  0F7D  3001               	movlw	1
  6554  0F7E  07EC               	addwf	___flmul@prod+2,f
  6555  0F7F  3000               	movlw	0
  6556  0F80  1803               	skipnc
  6557  0F81  3001               	movlw	1
  6558  0F82  07ED               	addwf	___flmul@prod+3,f
  6559  0F83                     l2667:
  6560  0F83  1C6D               	btfss	___flmul@prod+3,0
  6561  0F84  2F86               	goto	u4311
  6562  0F85  2F87               	goto	u4310
  6563  0F86                     u4311:
  6564  0F86  2FA6               	goto	l2673
  6565  0F87                     u4310:
  6566  0F87                     l2669:
  6567  0F87  086A               	movf	___flmul@prod,w
  6568  0F88  00DE               	movwf	??___flmul
  6569  0F89  086B               	movf	___flmul@prod+1,w
  6570  0F8A  00DF               	movwf	??___flmul+1
  6571  0F8B  086C               	movf	___flmul@prod+2,w
  6572  0F8C  00E0               	movwf	??___flmul+2
  6573  0F8D  086D               	movf	___flmul@prod+3,w
  6574  0F8E  00E1               	movwf	??___flmul+3
  6575  0F8F  3001               	movlw	1
  6576  0F90  00E2               	movwf	??___flmul+4
  6577  0F91                     u4325:
  6578  0F91  0D61               	rlf	??___flmul+3,w
  6579  0F92  0CE1               	rrf	??___flmul+3,f
  6580  0F93  0CE0               	rrf	??___flmul+2,f
  6581  0F94  0CDF               	rrf	??___flmul+1,f
  6582  0F95  0CDE               	rrf	??___flmul,f
  6583  0F96                     u4320:
  6584  0F96  0BE2               	decfsz	??___flmul+4,f
  6585  0F97  2F91               	goto	u4325
  6586  0F98  0861               	movf	??___flmul+3,w
  6587  0F99  00ED               	movwf	___flmul@prod+3
  6588  0F9A  0860               	movf	??___flmul+2,w
  6589  0F9B  00EC               	movwf	___flmul@prod+2
  6590  0F9C  085F               	movf	??___flmul+1,w
  6591  0F9D  00EB               	movwf	___flmul@prod+1
  6592  0F9E  085E               	movf	??___flmul,w
  6593  0F9F  00EA               	movwf	___flmul@prod
  6594  0FA0                     l2671:
  6595  0FA0  3001               	movlw	1
  6596  0FA1  07EE               	addwf	___flmul@temp,f
  6597  0FA2  1803               	skipnc
  6598  0FA3  0AEF               	incf	___flmul@temp+1,f
  6599  0FA4  3000               	movlw	0
  6600  0FA5  07EF               	addwf	___flmul@temp+1,f
  6601  0FA6                     l2673:
  6602  0FA6  086F               	movf	___flmul@temp+1,w
  6603  0FA7  3A80               	xorlw	128
  6604  0FA8  00FF               	movwf	btemp+1
  6605  0FA9  3080               	movlw	128
  6606  0FAA  027F               	subwf	btemp+1,w
  6607  0FAB  1D03               	skipz
  6608  0FAC  2FAF               	goto	u4335
  6609  0FAD  30FF               	movlw	255
  6610  0FAE  026E               	subwf	___flmul@temp,w
  6611  0FAF                     u4335:
  6612  0FAF  1C03               	skipc
  6613  0FB0  2FB2               	goto	u4331
  6614  0FB1  2FB3               	goto	u4330
  6615  0FB2                     u4331:
  6616  0FB2  2FBE               	goto	l2677
  6617  0FB3                     u4330:
  6618  0FB3                     l2675:
  6619  0FB3  307F               	movlw	127
  6620  0FB4  1283               	bcf	3,5	;RP0=0, select bank0
  6621  0FB5  1303               	bcf	3,6	;RP1=0, select bank0
  6622  0FB6  00ED               	movwf	___flmul@prod+3
  6623  0FB7  3080               	movlw	128
  6624  0FB8  00EC               	movwf	___flmul@prod+2
  6625  0FB9  3000               	movlw	0
  6626  0FBA  00EB               	movwf	___flmul@prod+1
  6627  0FBB  3000               	movlw	0
  6628  0FBC  00EA               	movwf	___flmul@prod
  6629  0FBD  2FF3               	goto	l624
  6630  0FBE                     l2677:
  6631  0FBE  1283               	bcf	3,5	;RP0=0, select bank0
  6632  0FBF  1303               	bcf	3,6	;RP1=0, select bank0
  6633  0FC0  086F               	movf	___flmul@temp+1,w
  6634  0FC1  3A80               	xorlw	128
  6635  0FC2  00FF               	movwf	btemp+1
  6636  0FC3  3080               	movlw	128
  6637  0FC4  027F               	subwf	btemp+1,w
  6638  0FC5  1D03               	skipz
  6639  0FC6  2FC9               	goto	u4345
  6640  0FC7  3001               	movlw	1
  6641  0FC8  026E               	subwf	___flmul@temp,w
  6642  0FC9                     u4345:
  6643  0FC9  1803               	skipnc
  6644  0FCA  2FCC               	goto	u4341
  6645  0FCB  2FCD               	goto	u4340
  6646  0FCC                     u4341:
  6647  0FCC  2FD9               	goto	l2683
  6648  0FCD                     u4340:
  6649  0FCD                     l2679:
  6650  0FCD  3000               	movlw	0
  6651  0FCE  1283               	bcf	3,5	;RP0=0, select bank0
  6652  0FCF  1303               	bcf	3,6	;RP1=0, select bank0
  6653  0FD0  00ED               	movwf	___flmul@prod+3
  6654  0FD1  3000               	movlw	0
  6655  0FD2  00EC               	movwf	___flmul@prod+2
  6656  0FD3  3000               	movlw	0
  6657  0FD4  00EB               	movwf	___flmul@prod+1
  6658  0FD5  3000               	movlw	0
  6659  0FD6  00EA               	movwf	___flmul@prod
  6660  0FD7                     l2681:
  6661  0FD7  01E3               	clrf	___flmul@sign
  6662  0FD8  2FF3               	goto	l624
  6663  0FD9                     l2683:
  6664  0FD9  1283               	bcf	3,5	;RP0=0, select bank0
  6665  0FDA  1303               	bcf	3,6	;RP1=0, select bank0
  6666  0FDB  086E               	movf	___flmul@temp,w
  6667  0FDC  00FF               	movwf	btemp+1
  6668  0FDD  087F               	movf	btemp+1,w
  6669  0FDE  00E9               	movwf	___flmul@bexp
  6670  0FDF                     l2685:
  6671  0FDF  30FF               	movlw	255
  6672  0FE0  05EA               	andwf	___flmul@prod,f
  6673  0FE1  30FF               	movlw	255
  6674  0FE2  05EB               	andwf	___flmul@prod+1,f
  6675  0FE3  307F               	movlw	127
  6676  0FE4  05EC               	andwf	___flmul@prod+2,f
  6677  0FE5  3000               	movlw	0
  6678  0FE6  05ED               	andwf	___flmul@prod+3,f
  6679  0FE7                     l2687:
  6680  0FE7  1C69               	btfss	___flmul@bexp,0
  6681  0FE8  2FEA               	goto	u4351
  6682  0FE9  2FEB               	goto	u4350
  6683  0FEA                     u4351:
  6684  0FEA  2FEC               	goto	l2691
  6685  0FEB                     u4350:
  6686  0FEB                     l2689:
  6687  0FEB  17EC               	bsf	___flmul@prod+2,7
  6688  0FEC                     l2691:
  6689  0FEC  0869               	movf	___flmul@bexp,w
  6690  0FED  00DE               	movwf	??___flmul
  6691  0FEE  1003               	clrc
  6692  0FEF  0C5E               	rrf	??___flmul,w
  6693  0FF0  00FF               	movwf	btemp+1
  6694  0FF1  087F               	movf	btemp+1,w
  6695  0FF2  00ED               	movwf	___flmul@prod+3
  6696  0FF3                     l624:
  6697  0FF3  0863               	movf	___flmul@sign,w
  6698  0FF4  00FF               	movwf	btemp+1
  6699  0FF5  087F               	movf	btemp+1,w
  6700  0FF6  04ED               	iorwf	___flmul@prod+3,f
  6701  0FF7                     l2693:
  6702  0FF7  086D               	movf	___flmul@prod+3,w
  6703  0FF8  00D9               	movwf	?___flmul+3
  6704  0FF9  086C               	movf	___flmul@prod+2,w
  6705  0FFA  00D8               	movwf	?___flmul+2
  6706  0FFB  086B               	movf	___flmul@prod+1,w
  6707  0FFC  00D7               	movwf	?___flmul+1
  6708  0FFD  086A               	movf	___flmul@prod,w
  6709  0FFE  00D6               	movwf	?___flmul
  6710  0FFF                     l612:
  6711  0FFF  0008               	return
  6712  1000                     __end_of___flmul:
  6713                           
  6714                           	psect	text22
  6715  1E40                     __ptext22:	
  6716 ;; *************** function __Umul8_16 *****************
  6717 ;; Defined at:
  6718 ;;		line 4 in file "C:\Program Files\Microchip\xc8\v2.20\pic\sources\c90\common\Umul8_16.c"
  6719 ;; Parameters:    Size  Location     Type
  6720 ;;  multiplier      1    wreg     unsigned char 
  6721 ;;  multiplicand    1    2[COMMON] unsigned char 
  6722 ;; Auto vars:     Size  Location     Type
  6723 ;;  multiplier      1   10[COMMON] unsigned char 
  6724 ;;  word_mpld       2    8[COMMON] unsigned int 
  6725 ;;  product         2    6[COMMON] unsigned int 
  6726 ;; Return value:  Size  Location     Type
  6727 ;;                  2    2[COMMON] unsigned int 
  6728 ;; Registers used:
  6729 ;;		wreg, status,2, status,0
  6730 ;; Tracked objects:
  6731 ;;		On entry : 0/0
  6732 ;;		On exit  : 0/0
  6733 ;;		Unchanged: 0/0
  6734 ;; Data sizes:     COMMON   BANK0   BANK1   BANK3   BANK2
  6735 ;;      Params:         2       0       0       0       0
  6736 ;;      Locals:         5       0       0       0       0
  6737 ;;      Temps:          2       0       0       0       0
  6738 ;;      Totals:         9       0       0       0       0
  6739 ;;Total ram usage:        9 bytes
  6740 ;; Hardware stack levels used:    1
  6741 ;; Hardware stack levels required when called:    1
  6742 ;; This function calls:
  6743 ;;		Nothing
  6744 ;; This function is called by:
  6745 ;;		___flmul
  6746 ;; This function uses a non-reentrant model
  6747 ;;
  6748                           
  6749                           
  6750                           ;psect for function __Umul8_16
  6751  1E40                     __Umul8_16:
  6752                           
  6753                           ;incstack = 0
  6754                           ; Regs used in __Umul8_16: [wreg+status,2+status,0]
  6755                           ;__Umul8_16@multiplier stored from wreg
  6756  1E40  00FB               	movwf	__Umul8_16@multiplier
  6757  1E41                     l2099:
  6758  1E41  01F7               	clrf	__Umul8_16@product
  6759  1E42  01F8               	clrf	__Umul8_16@product+1
  6760  1E43                     l2101:
  6761  1E43  0873               	movf	__Umul8_16@multiplicand,w
  6762  1E44  00F5               	movwf	??__Umul8_16
  6763  1E45  01F6               	clrf	??__Umul8_16+1
  6764  1E46  0875               	movf	??__Umul8_16,w
  6765  1E47  00F9               	movwf	__Umul8_16@word_mpld
  6766  1E48  0876               	movf	??__Umul8_16+1,w
  6767  1E49  00FA               	movwf	__Umul8_16@word_mpld+1
  6768  1E4A                     l2103:
  6769  1E4A  1C7B               	btfss	__Umul8_16@multiplier,0
  6770  1E4B  2E4D               	goto	u2921
  6771  1E4C  2E4E               	goto	u2920
  6772  1E4D                     u2921:
  6773  1E4D  2E54               	goto	l631
  6774  1E4E                     u2920:
  6775  1E4E                     l2105:
  6776  1E4E  0879               	movf	__Umul8_16@word_mpld,w
  6777  1E4F  07F7               	addwf	__Umul8_16@product,f
  6778  1E50  1803               	skipnc
  6779  1E51  0AF8               	incf	__Umul8_16@product+1,f
  6780  1E52  087A               	movf	__Umul8_16@word_mpld+1,w
  6781  1E53  07F8               	addwf	__Umul8_16@product+1,f
  6782  1E54                     l631:
  6783  1E54  3001               	movlw	1
  6784  1E55                     u2935:
  6785  1E55  1003               	clrc
  6786  1E56  0DF9               	rlf	__Umul8_16@word_mpld,f
  6787  1E57  0DFA               	rlf	__Umul8_16@word_mpld+1,f
  6788  1E58  3EFF               	addlw	-1
  6789  1E59  1D03               	skipz
  6790  1E5A  2E55               	goto	u2935
  6791  1E5B  1003               	clrc
  6792  1E5C  0CFB               	rrf	__Umul8_16@multiplier,f
  6793  1E5D                     l2107:
  6794  1E5D  087B               	movf	__Umul8_16@multiplier,w
  6795  1E5E  1D03               	btfss	3,2
  6796  1E5F  2E61               	goto	u2941
  6797  1E60  2E62               	goto	u2940
  6798  1E61                     u2941:
  6799  1E61  2E4A               	goto	l2103
  6800  1E62                     u2940:
  6801  1E62                     l2109:
  6802  1E62  0878               	movf	__Umul8_16@product+1,w
  6803  1E63  00F4               	movwf	?__Umul8_16+1
  6804  1E64  0877               	movf	__Umul8_16@product,w
  6805  1E65  00F3               	movwf	?__Umul8_16
  6806  1E66                     l633:
  6807  1E66  0008               	return
  6808  1E67                     __end_of__Umul8_16:
  6809                           
  6810                           	psect	text23
  6811  0850                     __ptext23:	
  6812 ;; *************** function ___fldiv *****************
  6813 ;; Defined at:
  6814 ;;		line 8 in file "C:\Program Files\Microchip\xc8\v2.20\pic\sources\c90\common\sprcdiv.c"
  6815 ;; Parameters:    Size  Location     Type
  6816 ;;  a               4   28[BANK0 ] unsigned int 
  6817 ;;  b               4   32[BANK0 ] unsigned int 
  6818 ;; Auto vars:     Size  Location     Type
  6819 ;;  grs             4   48[BANK0 ] unsigned long 
  6820 ;;  rem             4   41[BANK0 ] unsigned long 
  6821 ;;  new_exp         2   46[BANK0 ] int 
  6822 ;;  aexp            1   53[BANK0 ] unsigned char 
  6823 ;;  bexp            1   52[BANK0 ] unsigned char 
  6824 ;;  sign            1   45[BANK0 ] unsigned char 
  6825 ;; Return value:  Size  Location     Type
  6826 ;;                  4   28[BANK0 ] unsigned char 
  6827 ;; Registers used:
  6828 ;;		wreg, status,2, status,0, btemp+1
  6829 ;; Tracked objects:
  6830 ;;		On entry : 0/0
  6831 ;;		On exit  : 0/0
  6832 ;;		Unchanged: 0/0
  6833 ;; Data sizes:     COMMON   BANK0   BANK1   BANK3   BANK2
  6834 ;;      Params:         0       8       0       0       0
  6835 ;;      Locals:         0      13       0       0       0
  6836 ;;      Temps:          0       5       0       0       0
  6837 ;;      Totals:         0      26       0       0       0
  6838 ;;Total ram usage:       26 bytes
  6839 ;; Hardware stack levels used:    1
  6840 ;; Hardware stack levels required when called:    1
  6841 ;; This function calls:
  6842 ;;		Nothing
  6843 ;; This function is called by:
  6844 ;;		_Voltage_Value
  6845 ;;		_Resistance_Value
  6846 ;;		_conversion_newton
  6847 ;; This function uses a non-reentrant model
  6848 ;;
  6849                           
  6850                           
  6851                           ;psect for function ___fldiv
  6852  0850                     ___fldiv:
  6853  0850                     l2411:	
  6854                           ;incstack = 0
  6855                           ; Regs used in ___fldiv: [wreg+status,2+status,0+btemp+1]
  6856                           
  6857  0850  1283               	bcf	3,5	;RP0=0, select bank0
  6858  0851  1303               	bcf	3,6	;RP1=0, select bank0
  6859  0852  0843               	movf	___fldiv@b+3,w
  6860  0853  3980               	andlw	128
  6861  0854  00FF               	movwf	btemp+1
  6862  0855  087F               	movf	btemp+1,w
  6863  0856  00CD               	movwf	___fldiv@sign
  6864  0857                     l2413:
  6865  0857  0843               	movf	___fldiv@b+3,w
  6866  0858  00C4               	movwf	??___fldiv
  6867  0859  0744               	addwf	??___fldiv,w
  6868  085A  00FF               	movwf	btemp+1
  6869  085B  087F               	movf	btemp+1,w
  6870  085C  00D4               	movwf	___fldiv@bexp
  6871  085D                     l2415:
  6872  085D  1FC2               	btfss	___fldiv@b+2,7
  6873  085E  2860               	goto	u3701
  6874  085F  2861               	goto	u3700
  6875  0860                     u3701:
  6876  0860  2862               	goto	l2419
  6877  0861                     u3700:
  6878  0861                     l2417:
  6879  0861  1454               	bsf	___fldiv@bexp,0
  6880  0862                     l2419:
  6881  0862  0854               	movf	___fldiv@bexp,w
  6882  0863  1903               	btfsc	3,2
  6883  0864  2866               	goto	u3711
  6884  0865  2867               	goto	u3710
  6885  0866                     u3711:
  6886  0866  2877               	goto	l2429
  6887  0867                     u3710:
  6888  0867                     l2421:
  6889  0867  0A54               	incf	___fldiv@bexp,w
  6890  0868  1D03               	btfss	3,2
  6891  0869  286B               	goto	u3721
  6892  086A  286C               	goto	u3720
  6893  086B                     u3721:
  6894  086B  2874               	goto	l2425
  6895  086C                     u3720:
  6896  086C                     l2423:
  6897  086C  3000               	movlw	0
  6898  086D  00C3               	movwf	___fldiv@b+3
  6899  086E  3000               	movlw	0
  6900  086F  00C2               	movwf	___fldiv@b+2
  6901  0870  3000               	movlw	0
  6902  0871  00C1               	movwf	___fldiv@b+1
  6903  0872  3000               	movlw	0
  6904  0873  00C0               	movwf	___fldiv@b
  6905  0874                     l2425:
  6906  0874  17C2               	bsf	___fldiv@b+2,7
  6907  0875                     l2427:
  6908  0875  01C3               	clrf	___fldiv@b+3
  6909  0876  287F               	goto	l2431
  6910  0877                     l2429:
  6911  0877  3000               	movlw	0
  6912  0878  00C3               	movwf	___fldiv@b+3
  6913  0879  3000               	movlw	0
  6914  087A  00C2               	movwf	___fldiv@b+2
  6915  087B  3000               	movlw	0
  6916  087C  00C1               	movwf	___fldiv@b+1
  6917  087D  3000               	movlw	0
  6918  087E  00C0               	movwf	___fldiv@b
  6919  087F                     l2431:
  6920  087F  083F               	movf	___fldiv@a+3,w
  6921  0880  3980               	andlw	128
  6922  0881  00FF               	movwf	btemp+1
  6923  0882  087F               	movf	btemp+1,w
  6924  0883  06CD               	xorwf	___fldiv@sign,f
  6925  0884                     l2433:
  6926  0884  083F               	movf	___fldiv@a+3,w
  6927  0885  00C4               	movwf	??___fldiv
  6928  0886  0744               	addwf	??___fldiv,w
  6929  0887  00FF               	movwf	btemp+1
  6930  0888  087F               	movf	btemp+1,w
  6931  0889  00D5               	movwf	___fldiv@aexp
  6932  088A                     l2435:
  6933  088A  1FBE               	btfss	___fldiv@a+2,7
  6934  088B  288D               	goto	u3731
  6935  088C  288E               	goto	u3730
  6936  088D                     u3731:
  6937  088D  288F               	goto	l2439
  6938  088E                     u3730:
  6939  088E                     l2437:
  6940  088E  1455               	bsf	___fldiv@aexp,0
  6941  088F                     l2439:
  6942  088F  0855               	movf	___fldiv@aexp,w
  6943  0890  1903               	btfsc	3,2
  6944  0891  2893               	goto	u3741
  6945  0892  2894               	goto	u3740
  6946  0893                     u3741:
  6947  0893  28A4               	goto	l2449
  6948  0894                     u3740:
  6949  0894                     l2441:
  6950  0894  0A55               	incf	___fldiv@aexp,w
  6951  0895  1D03               	btfss	3,2
  6952  0896  2898               	goto	u3751
  6953  0897  2899               	goto	u3750
  6954  0898                     u3751:
  6955  0898  28A1               	goto	l2445
  6956  0899                     u3750:
  6957  0899                     l2443:
  6958  0899  3000               	movlw	0
  6959  089A  00BF               	movwf	___fldiv@a+3
  6960  089B  3000               	movlw	0
  6961  089C  00BE               	movwf	___fldiv@a+2
  6962  089D  3000               	movlw	0
  6963  089E  00BD               	movwf	___fldiv@a+1
  6964  089F  3000               	movlw	0
  6965  08A0  00BC               	movwf	___fldiv@a
  6966  08A1                     l2445:
  6967  08A1  17BE               	bsf	___fldiv@a+2,7
  6968  08A2                     l2447:
  6969  08A2  01BF               	clrf	___fldiv@a+3
  6970  08A3  28AC               	goto	l572
  6971  08A4                     l2449:
  6972  08A4  3000               	movlw	0
  6973  08A5  00BF               	movwf	___fldiv@a+3
  6974  08A6  3000               	movlw	0
  6975  08A7  00BE               	movwf	___fldiv@a+2
  6976  08A8  3000               	movlw	0
  6977  08A9  00BD               	movwf	___fldiv@a+1
  6978  08AA  3000               	movlw	0
  6979  08AB  00BC               	movwf	___fldiv@a
  6980  08AC                     l572:
  6981  08AC  083F               	movf	___fldiv@a+3,w
  6982  08AD  043E               	iorwf	___fldiv@a+2,w
  6983  08AE  043D               	iorwf	___fldiv@a+1,w
  6984  08AF  043C               	iorwf	___fldiv@a,w
  6985  08B0  1D03               	skipz
  6986  08B1  28B3               	goto	u3761
  6987  08B2  28B4               	goto	u3760
  6988  08B3                     u3761:
  6989  08B3  28CD               	goto	l2459
  6990  08B4                     u3760:
  6991  08B4                     l2451:
  6992  08B4  3000               	movlw	0
  6993  08B5  00C3               	movwf	___fldiv@b+3
  6994  08B6  3000               	movlw	0
  6995  08B7  00C2               	movwf	___fldiv@b+2
  6996  08B8  3000               	movlw	0
  6997  08B9  00C1               	movwf	___fldiv@b+1
  6998  08BA  3000               	movlw	0
  6999  08BB  00C0               	movwf	___fldiv@b
  7000  08BC  3080               	movlw	128
  7001  08BD  04C2               	iorwf	___fldiv@b+2,f
  7002  08BE  307F               	movlw	127
  7003  08BF  04C3               	iorwf	___fldiv@b+3,f
  7004  08C0                     l2453:
  7005  08C0  084D               	movf	___fldiv@sign,w
  7006  08C1  00FF               	movwf	btemp+1
  7007  08C2  087F               	movf	btemp+1,w
  7008  08C3  04C3               	iorwf	___fldiv@b+3,f
  7009  08C4                     l2455:
  7010  08C4  0843               	movf	___fldiv@b+3,w
  7011  08C5  00BF               	movwf	?___fldiv+3
  7012  08C6  0842               	movf	___fldiv@b+2,w
  7013  08C7  00BE               	movwf	?___fldiv+2
  7014  08C8  0841               	movf	___fldiv@b+1,w
  7015  08C9  00BD               	movwf	?___fldiv+1
  7016  08CA  0840               	movf	___fldiv@b,w
  7017  08CB  00BC               	movwf	?___fldiv
  7018  08CC  2A2C               	goto	l574
  7019  08CD                     l2459:
  7020  08CD  0854               	movf	___fldiv@bexp,w
  7021  08CE  1D03               	btfss	3,2
  7022  08CF  28D1               	goto	u3771
  7023  08D0  28D2               	goto	u3770
  7024  08D1                     u3771:
  7025  08D1  28DB               	goto	l2465
  7026  08D2                     u3770:
  7027  08D2                     l2461:
  7028  08D2  3000               	movlw	0
  7029  08D3  00BF               	movwf	?___fldiv+3
  7030  08D4  3000               	movlw	0
  7031  08D5  00BE               	movwf	?___fldiv+2
  7032  08D6  3000               	movlw	0
  7033  08D7  00BD               	movwf	?___fldiv+1
  7034  08D8  3000               	movlw	0
  7035  08D9  00BC               	movwf	?___fldiv
  7036  08DA  2A2C               	goto	l574
  7037  08DB                     l2465:
  7038  08DB  0854               	movf	___fldiv@bexp,w
  7039  08DC  00C4               	movwf	??___fldiv
  7040  08DD  01C5               	clrf	??___fldiv+1
  7041  08DE  0845               	movf	??___fldiv+1,w
  7042  08DF  00C7               	movwf	??___fldiv+3
  7043  08E0  0855               	movf	___fldiv@aexp,w
  7044  08E1  0244               	subwf	??___fldiv,w
  7045  08E2  00C6               	movwf	??___fldiv+2
  7046  08E3  1C03               	skipc
  7047  08E4  03C7               	decf	??___fldiv+3,f
  7048  08E5  0846               	movf	??___fldiv+2,w
  7049  08E6  3E7F               	addlw	127
  7050  08E7  00CE               	movwf	___fldiv@new_exp
  7051  08E8  0847               	movf	??___fldiv+3,w
  7052  08E9  1803               	skipnc
  7053  08EA  3E01               	addlw	1
  7054  08EB  3E00               	addlw	0
  7055  08EC  00CF               	movwf	___fldiv@new_exp+1
  7056  08ED                     l2467:
  7057  08ED  0843               	movf	___fldiv@b+3,w
  7058  08EE  00CC               	movwf	___fldiv@rem+3
  7059  08EF  0842               	movf	___fldiv@b+2,w
  7060  08F0  00CB               	movwf	___fldiv@rem+2
  7061  08F1  0841               	movf	___fldiv@b+1,w
  7062  08F2  00CA               	movwf	___fldiv@rem+1
  7063  08F3  0840               	movf	___fldiv@b,w
  7064  08F4  00C9               	movwf	___fldiv@rem
  7065  08F5                     l2469:
  7066  08F5  3000               	movlw	0
  7067  08F6  00C3               	movwf	___fldiv@b+3
  7068  08F7  3000               	movlw	0
  7069  08F8  00C2               	movwf	___fldiv@b+2
  7070  08F9  3000               	movlw	0
  7071  08FA  00C1               	movwf	___fldiv@b+1
  7072  08FB  3000               	movlw	0
  7073  08FC  00C0               	movwf	___fldiv@b
  7074  08FD                     l2471:
  7075  08FD  3000               	movlw	0
  7076  08FE  00D3               	movwf	___fldiv@grs+3
  7077  08FF  3000               	movlw	0
  7078  0900  00D2               	movwf	___fldiv@grs+2
  7079  0901  3000               	movlw	0
  7080  0902  00D1               	movwf	___fldiv@grs+1
  7081  0903  3000               	movlw	0
  7082  0904  00D0               	movwf	___fldiv@grs
  7083  0905                     l2473:
  7084  0905  01D5               	clrf	___fldiv@aexp
  7085  0906  2951               	goto	l2493
  7086  0907                     l2475:
  7087  0907  0855               	movf	___fldiv@aexp,w
  7088  0908  1903               	btfsc	3,2
  7089  0909  290B               	goto	u3781
  7090  090A  290C               	goto	u3780
  7091  090B                     u3781:
  7092  090B  292C               	goto	l2485
  7093  090C                     u3780:
  7094  090C                     l2477:
  7095  090C  3001               	movlw	1
  7096  090D  00C4               	movwf	??___fldiv
  7097  090E                     u3795:
  7098  090E  1003               	clrc
  7099  090F  0DC9               	rlf	___fldiv@rem,f
  7100  0910  0DCA               	rlf	___fldiv@rem+1,f
  7101  0911  0DCB               	rlf	___fldiv@rem+2,f
  7102  0912  0DCC               	rlf	___fldiv@rem+3,f
  7103  0913  0BC4               	decfsz	??___fldiv,f
  7104  0914  290E               	goto	u3795
  7105  0915  3001               	movlw	1
  7106  0916  00C4               	movwf	??___fldiv
  7107  0917                     u3805:
  7108  0917  1003               	clrc
  7109  0918  0DC0               	rlf	___fldiv@b,f
  7110  0919  0DC1               	rlf	___fldiv@b+1,f
  7111  091A  0DC2               	rlf	___fldiv@b+2,f
  7112  091B  0DC3               	rlf	___fldiv@b+3,f
  7113  091C  0BC4               	decfsz	??___fldiv,f
  7114  091D  2917               	goto	u3805
  7115  091E                     l2479:
  7116  091E  1FD3               	btfss	___fldiv@grs+3,7
  7117  091F  2921               	goto	u3811
  7118  0920  2922               	goto	u3810
  7119  0921                     u3811:
  7120  0921  2923               	goto	l2483
  7121  0922                     u3810:
  7122  0922                     l2481:
  7123  0922  1440               	bsf	___fldiv@b,0
  7124  0923                     l2483:
  7125  0923  3001               	movlw	1
  7126  0924  00C4               	movwf	??___fldiv
  7127  0925                     u3825:
  7128  0925  1003               	clrc
  7129  0926  0DD0               	rlf	___fldiv@grs,f
  7130  0927  0DD1               	rlf	___fldiv@grs+1,f
  7131  0928  0DD2               	rlf	___fldiv@grs+2,f
  7132  0929  0DD3               	rlf	___fldiv@grs+3,f
  7133  092A  0BC4               	decfsz	??___fldiv,f
  7134  092B  2925               	goto	u3825
  7135  092C                     l2485:
  7136  092C  083F               	movf	___fldiv@a+3,w
  7137  092D  024C               	subwf	___fldiv@rem+3,w
  7138  092E  1D03               	skipz
  7139  092F  293A               	goto	u3835
  7140  0930  083E               	movf	___fldiv@a+2,w
  7141  0931  024B               	subwf	___fldiv@rem+2,w
  7142  0932  1D03               	skipz
  7143  0933  293A               	goto	u3835
  7144  0934  083D               	movf	___fldiv@a+1,w
  7145  0935  024A               	subwf	___fldiv@rem+1,w
  7146  0936  1D03               	skipz
  7147  0937  293A               	goto	u3835
  7148  0938  083C               	movf	___fldiv@a,w
  7149  0939  0249               	subwf	___fldiv@rem,w
  7150  093A                     u3835:
  7151  093A  1C03               	skipc
  7152  093B  293D               	goto	u3831
  7153  093C  293E               	goto	u3830
  7154  093D                     u3831:
  7155  093D  294D               	goto	l2491
  7156  093E                     u3830:
  7157  093E                     l2487:
  7158  093E  1753               	bsf	___fldiv@grs+3,6
  7159  093F                     l2489:
  7160  093F  083C               	movf	___fldiv@a,w
  7161  0940  02C9               	subwf	___fldiv@rem,f
  7162  0941  083D               	movf	___fldiv@a+1,w
  7163  0942  1C03               	skipc
  7164  0943  0F3D               	incfsz	___fldiv@a+1,w
  7165  0944  02CA               	subwf	___fldiv@rem+1,f
  7166  0945  083E               	movf	___fldiv@a+2,w
  7167  0946  1C03               	skipc
  7168  0947  0F3E               	incfsz	___fldiv@a+2,w
  7169  0948  02CB               	subwf	___fldiv@rem+2,f
  7170  0949  083F               	movf	___fldiv@a+3,w
  7171  094A  1C03               	skipc
  7172  094B  0F3F               	incfsz	___fldiv@a+3,w
  7173  094C  02CC               	subwf	___fldiv@rem+3,f
  7174  094D                     l2491:
  7175  094D  3001               	movlw	1
  7176  094E  00FF               	movwf	btemp+1
  7177  094F  087F               	movf	btemp+1,w
  7178  0950  07D5               	addwf	___fldiv@aexp,f
  7179  0951                     l2493:
  7180  0951  301A               	movlw	26
  7181  0952  0255               	subwf	___fldiv@aexp,w
  7182  0953  1C03               	skipc
  7183  0954  2956               	goto	u3841
  7184  0955  2957               	goto	u3840
  7185  0956                     u3841:
  7186  0956  2907               	goto	l2475
  7187  0957                     u3840:
  7188  0957                     l2495:
  7189  0957  084C               	movf	___fldiv@rem+3,w
  7190  0958  044B               	iorwf	___fldiv@rem+2,w
  7191  0959  044A               	iorwf	___fldiv@rem+1,w
  7192  095A  0449               	iorwf	___fldiv@rem,w
  7193  095B  1903               	skipnz
  7194  095C  295E               	goto	u3851
  7195  095D  295F               	goto	u3850
  7196  095E                     u3851:
  7197  095E  297E               	goto	l2509
  7198  095F                     u3850:
  7199  095F                     l2497:
  7200  095F  1450               	bsf	___fldiv@grs,0
  7201  0960  297E               	goto	l2509
  7202  0961                     l2499:
  7203  0961  3001               	movlw	1
  7204  0962  00C4               	movwf	??___fldiv
  7205  0963                     u3865:
  7206  0963  1003               	clrc
  7207  0964  0DC0               	rlf	___fldiv@b,f
  7208  0965  0DC1               	rlf	___fldiv@b+1,f
  7209  0966  0DC2               	rlf	___fldiv@b+2,f
  7210  0967  0DC3               	rlf	___fldiv@b+3,f
  7211  0968  0BC4               	decfsz	??___fldiv,f
  7212  0969  2963               	goto	u3865
  7213  096A                     l2501:
  7214  096A  1FD3               	btfss	___fldiv@grs+3,7
  7215  096B  296D               	goto	u3871
  7216  096C  296E               	goto	u3870
  7217  096D                     u3871:
  7218  096D  296F               	goto	l2505
  7219  096E                     u3870:
  7220  096E                     l2503:
  7221  096E  1440               	bsf	___fldiv@b,0
  7222  096F                     l2505:
  7223  096F  3001               	movlw	1
  7224  0970  00C4               	movwf	??___fldiv
  7225  0971                     u3885:
  7226  0971  1003               	clrc
  7227  0972  0DD0               	rlf	___fldiv@grs,f
  7228  0973  0DD1               	rlf	___fldiv@grs+1,f
  7229  0974  0DD2               	rlf	___fldiv@grs+2,f
  7230  0975  0DD3               	rlf	___fldiv@grs+3,f
  7231  0976  0BC4               	decfsz	??___fldiv,f
  7232  0977  2971               	goto	u3885
  7233  0978                     l2507:
  7234  0978  30FF               	movlw	255
  7235  0979  07CE               	addwf	___fldiv@new_exp,f
  7236  097A  1803               	skipnc
  7237  097B  0ACF               	incf	___fldiv@new_exp+1,f
  7238  097C  30FF               	movlw	255
  7239  097D  07CF               	addwf	___fldiv@new_exp+1,f
  7240  097E                     l2509:
  7241  097E  1FC2               	btfss	___fldiv@b+2,7
  7242  097F  2981               	goto	u3891
  7243  0980  2982               	goto	u3890
  7244  0981                     u3891:
  7245  0981  2961               	goto	l2499
  7246  0982                     u3890:
  7247  0982                     l2511:
  7248  0982  01D5               	clrf	___fldiv@aexp
  7249  0983                     l2513:
  7250  0983  1FD3               	btfss	___fldiv@grs+3,7
  7251  0984  2986               	goto	u3901
  7252  0985  2987               	goto	u3900
  7253  0986                     u3901:
  7254  0986  29A3               	goto	l2521
  7255  0987                     u3900:
  7256  0987                     l2515:
  7257  0987  30FF               	movlw	255
  7258  0988  0550               	andwf	___fldiv@grs,w
  7259  0989  00C4               	movwf	??___fldiv
  7260  098A  30FF               	movlw	255
  7261  098B  0551               	andwf	___fldiv@grs+1,w
  7262  098C  00C5               	movwf	??___fldiv+1
  7263  098D  30FF               	movlw	255
  7264  098E  0552               	andwf	___fldiv@grs+2,w
  7265  098F  00C6               	movwf	??___fldiv+2
  7266  0990  307F               	movlw	127
  7267  0991  0553               	andwf	___fldiv@grs+3,w
  7268  0992  00C7               	movwf	??___fldiv+3
  7269  0993  0847               	movf	??___fldiv+3,w
  7270  0994  0446               	iorwf	??___fldiv+2,w
  7271  0995  0445               	iorwf	??___fldiv+1,w
  7272  0996  0444               	iorwf	??___fldiv,w
  7273  0997  1903               	skipnz
  7274  0998  299A               	goto	u3911
  7275  0999  299B               	goto	u3910
  7276  099A                     u3911:
  7277  099A  299E               	goto	l588
  7278  099B                     u3910:
  7279  099B                     l2517:
  7280  099B  01D5               	clrf	___fldiv@aexp
  7281  099C  0AD5               	incf	___fldiv@aexp,f
  7282  099D  29A3               	goto	l2521
  7283  099E                     l588:
  7284  099E  1C40               	btfss	___fldiv@b,0
  7285  099F  29A1               	goto	u3921
  7286  09A0  29A2               	goto	u3920
  7287  09A1                     u3921:
  7288  09A1  29A3               	goto	l2521
  7289  09A2                     u3920:
  7290  09A2  299B               	goto	l2517
  7291  09A3                     l2521:
  7292  09A3  0855               	movf	___fldiv@aexp,w
  7293  09A4  1903               	btfsc	3,2
  7294  09A5  29A7               	goto	u3931
  7295  09A6  29A8               	goto	u3930
  7296  09A7                     u3931:
  7297  09A7  29D9               	goto	l2531
  7298  09A8                     u3930:
  7299  09A8                     l2523:
  7300  09A8  3001               	movlw	1
  7301  09A9  07C0               	addwf	___fldiv@b,f
  7302  09AA  3000               	movlw	0
  7303  09AB  1803               	skipnc
  7304  09AC  3001               	movlw	1
  7305  09AD  07C1               	addwf	___fldiv@b+1,f
  7306  09AE  3000               	movlw	0
  7307  09AF  1803               	skipnc
  7308  09B0  3001               	movlw	1
  7309  09B1  07C2               	addwf	___fldiv@b+2,f
  7310  09B2  3000               	movlw	0
  7311  09B3  1803               	skipnc
  7312  09B4  3001               	movlw	1
  7313  09B5  07C3               	addwf	___fldiv@b+3,f
  7314  09B6                     l2525:
  7315  09B6  1C43               	btfss	___fldiv@b+3,0
  7316  09B7  29B9               	goto	u3941
  7317  09B8  29BA               	goto	u3940
  7318  09B9                     u3941:
  7319  09B9  29D9               	goto	l2531
  7320  09BA                     u3940:
  7321  09BA                     l2527:
  7322  09BA  0840               	movf	___fldiv@b,w
  7323  09BB  00C4               	movwf	??___fldiv
  7324  09BC  0841               	movf	___fldiv@b+1,w
  7325  09BD  00C5               	movwf	??___fldiv+1
  7326  09BE  0842               	movf	___fldiv@b+2,w
  7327  09BF  00C6               	movwf	??___fldiv+2
  7328  09C0  0843               	movf	___fldiv@b+3,w
  7329  09C1  00C7               	movwf	??___fldiv+3
  7330  09C2  3001               	movlw	1
  7331  09C3  00C8               	movwf	??___fldiv+4
  7332  09C4                     u3955:
  7333  09C4  0D47               	rlf	??___fldiv+3,w
  7334  09C5  0CC7               	rrf	??___fldiv+3,f
  7335  09C6  0CC6               	rrf	??___fldiv+2,f
  7336  09C7  0CC5               	rrf	??___fldiv+1,f
  7337  09C8  0CC4               	rrf	??___fldiv,f
  7338  09C9                     u3950:
  7339  09C9  0BC8               	decfsz	??___fldiv+4,f
  7340  09CA  29C4               	goto	u3955
  7341  09CB  0847               	movf	??___fldiv+3,w
  7342  09CC  00C3               	movwf	___fldiv@b+3
  7343  09CD  0846               	movf	??___fldiv+2,w
  7344  09CE  00C2               	movwf	___fldiv@b+2
  7345  09CF  0845               	movf	??___fldiv+1,w
  7346  09D0  00C1               	movwf	___fldiv@b+1
  7347  09D1  0844               	movf	??___fldiv,w
  7348  09D2  00C0               	movwf	___fldiv@b
  7349  09D3                     l2529:
  7350  09D3  3001               	movlw	1
  7351  09D4  07CE               	addwf	___fldiv@new_exp,f
  7352  09D5  1803               	skipnc
  7353  09D6  0ACF               	incf	___fldiv@new_exp+1,f
  7354  09D7  3000               	movlw	0
  7355  09D8  07CF               	addwf	___fldiv@new_exp+1,f
  7356  09D9                     l2531:
  7357  09D9  084F               	movf	___fldiv@new_exp+1,w
  7358  09DA  3A80               	xorlw	128
  7359  09DB  00FF               	movwf	btemp+1
  7360  09DC  3080               	movlw	128
  7361  09DD  027F               	subwf	btemp+1,w
  7362  09DE  1D03               	skipz
  7363  09DF  29E2               	goto	u3965
  7364  09E0  30FF               	movlw	255
  7365  09E1  024E               	subwf	___fldiv@new_exp,w
  7366  09E2                     u3965:
  7367  09E2  1C03               	skipc
  7368  09E3  29E5               	goto	u3961
  7369  09E4  29E6               	goto	u3960
  7370  09E5                     u3961:
  7371  09E5  29F4               	goto	l2535
  7372  09E6                     u3960:
  7373  09E6                     l2533:
  7374  09E6  30FF               	movlw	255
  7375  09E7  1283               	bcf	3,5	;RP0=0, select bank0
  7376  09E8  1303               	bcf	3,6	;RP1=0, select bank0
  7377  09E9  00CE               	movwf	___fldiv@new_exp
  7378  09EA  3000               	movlw	0
  7379  09EB  00CF               	movwf	___fldiv@new_exp+1
  7380  09EC  3000               	movlw	0
  7381  09ED  00C3               	movwf	___fldiv@b+3
  7382  09EE  3000               	movlw	0
  7383  09EF  00C2               	movwf	___fldiv@b+2
  7384  09F0  3000               	movlw	0
  7385  09F1  00C1               	movwf	___fldiv@b+1
  7386  09F2  3000               	movlw	0
  7387  09F3  00C0               	movwf	___fldiv@b
  7388  09F4                     l2535:
  7389  09F4  1283               	bcf	3,5	;RP0=0, select bank0
  7390  09F5  1303               	bcf	3,6	;RP1=0, select bank0
  7391  09F6  084F               	movf	___fldiv@new_exp+1,w
  7392  09F7  3A80               	xorlw	128
  7393  09F8  00FF               	movwf	btemp+1
  7394  09F9  3080               	movlw	128
  7395  09FA  027F               	subwf	btemp+1,w
  7396  09FB  1D03               	skipz
  7397  09FC  29FF               	goto	u3975
  7398  09FD  3001               	movlw	1
  7399  09FE  024E               	subwf	___fldiv@new_exp,w
  7400  09FF                     u3975:
  7401  09FF  1803               	skipnc
  7402  0A00  2A02               	goto	u3971
  7403  0A01  2A03               	goto	u3970
  7404  0A02                     u3971:
  7405  0A02  2A10               	goto	l2543
  7406  0A03                     u3970:
  7407  0A03                     l2537:
  7408  0A03  1283               	bcf	3,5	;RP0=0, select bank0
  7409  0A04  1303               	bcf	3,6	;RP1=0, select bank0
  7410  0A05  01CE               	clrf	___fldiv@new_exp
  7411  0A06  01CF               	clrf	___fldiv@new_exp+1
  7412  0A07                     l2539:
  7413  0A07  3000               	movlw	0
  7414  0A08  00C3               	movwf	___fldiv@b+3
  7415  0A09  3000               	movlw	0
  7416  0A0A  00C2               	movwf	___fldiv@b+2
  7417  0A0B  3000               	movlw	0
  7418  0A0C  00C1               	movwf	___fldiv@b+1
  7419  0A0D  3000               	movlw	0
  7420  0A0E  00C0               	movwf	___fldiv@b
  7421  0A0F                     l2541:
  7422  0A0F  01CD               	clrf	___fldiv@sign
  7423  0A10                     l2543:
  7424  0A10  1283               	bcf	3,5	;RP0=0, select bank0
  7425  0A11  1303               	bcf	3,6	;RP1=0, select bank0
  7426  0A12  084E               	movf	___fldiv@new_exp,w
  7427  0A13  00FF               	movwf	btemp+1
  7428  0A14  087F               	movf	btemp+1,w
  7429  0A15  00D4               	movwf	___fldiv@bexp
  7430  0A16                     l2545:
  7431  0A16  1C54               	btfss	___fldiv@bexp,0
  7432  0A17  2A19               	goto	u3981
  7433  0A18  2A1A               	goto	u3980
  7434  0A19                     u3981:
  7435  0A19  2A1C               	goto	l2549
  7436  0A1A                     u3980:
  7437  0A1A                     l2547:
  7438  0A1A  17C2               	bsf	___fldiv@b+2,7
  7439  0A1B  2A20               	goto	l596
  7440  0A1C                     l2549:
  7441  0A1C  307F               	movlw	127
  7442  0A1D  00FF               	movwf	btemp+1
  7443  0A1E  087F               	movf	btemp+1,w
  7444  0A1F  05C2               	andwf	___fldiv@b+2,f
  7445  0A20                     l596:
  7446  0A20  0854               	movf	___fldiv@bexp,w
  7447  0A21  00C4               	movwf	??___fldiv
  7448  0A22  1003               	clrc
  7449  0A23  0C44               	rrf	??___fldiv,w
  7450  0A24  00FF               	movwf	btemp+1
  7451  0A25  087F               	movf	btemp+1,w
  7452  0A26  00C3               	movwf	___fldiv@b+3
  7453  0A27  084D               	movf	___fldiv@sign,w
  7454  0A28  00FF               	movwf	btemp+1
  7455  0A29  087F               	movf	btemp+1,w
  7456  0A2A  04C3               	iorwf	___fldiv@b+3,f
  7457  0A2B  28C4               	goto	l2455
  7458  0A2C                     l574:
  7459  0A2C  0008               	return
  7460  0A2D                     __end_of___fldiv:
  7461                           
  7462                           	psect	text24
  7463  1DF6                     __ptext24:	
  7464 ;; *************** function _PORT_putString *****************
  7465 ;; Defined at:
  7466 ;;		line 136 in file "port.c"
  7467 ;; Parameters:    Size  Location     Type
  7468 ;;  chaine          1    wreg     PTR unsigned char 
  7469 ;;		 -> STR_2(2), STR_1(15), 
  7470 ;; Auto vars:     Size  Location     Type
  7471 ;;  chaine          1    5[COMMON] PTR unsigned char 
  7472 ;;		 -> STR_2(2), STR_1(15), 
  7473 ;;  i               2    3[COMMON] int 
  7474 ;; Return value:  Size  Location     Type
  7475 ;;                  1    wreg      void 
  7476 ;; Registers used:
  7477 ;;		wreg, fsr0l, fsr0h, status,2, status,0, pclath, cstack
  7478 ;; Tracked objects:
  7479 ;;		On entry : 0/0
  7480 ;;		On exit  : 0/0
  7481 ;;		Unchanged: 0/0
  7482 ;; Data sizes:     COMMON   BANK0   BANK1   BANK3   BANK2
  7483 ;;      Params:         0       0       0       0       0
  7484 ;;      Locals:         3       0       0       0       0
  7485 ;;      Temps:          0       0       0       0       0
  7486 ;;      Totals:         3       0       0       0       0
  7487 ;;Total ram usage:        3 bytes
  7488 ;; Hardware stack levels used:    1
  7489 ;; Hardware stack levels required when called:    2
  7490 ;; This function calls:
  7491 ;;		_PORT_putchar
  7492 ;; This function is called by:
  7493 ;;		_Get_Newton
  7494 ;; This function uses a non-reentrant model
  7495 ;;
  7496                           
  7497                           
  7498                           ;psect for function _PORT_putString
  7499  1DF6                     _PORT_putString:
  7500                           
  7501                           ;incstack = 0
  7502                           ; Regs used in _PORT_putString: [wreg-fsr0h+status,2+status,0+pclath+cstack]
  7503                           ;PORT_putString@chaine stored from wreg
  7504  1DF6  00F6               	movwf	PORT_putString@chaine
  7505  1DF7                     l2915:
  7506                           
  7507                           ;port.c: 138:     int i;;port.c: 140:     for(i=0 ; chaine[i]!=0 ; i++)
  7508  1DF7  01F4               	clrf	PORT_putString@i
  7509  1DF8  01F5               	clrf	PORT_putString@i+1
  7510  1DF9  2E0D               	goto	l2921
  7511  1DFA                     l2917:
  7512                           
  7513                           ;port.c: 141:     {;port.c: 142:         PORT_putchar(chaine[i]);
  7514  1DFA  0874               	movf	PORT_putString@i,w
  7515  1DFB  0776               	addwf	PORT_putString@chaine,w
  7516  1DFC  0084               	movwf	4
  7517  1DFD  160A  118A  2000  160A  158A  	fcall	stringdir
  7518  1E02  120A  158A  2000  160A  158A  	fcall	_PORT_putchar
  7519  1E07                     l2919:
  7520                           
  7521                           ;port.c: 143:     }
  7522  1E07  3001               	movlw	1
  7523  1E08  07F4               	addwf	PORT_putString@i,f
  7524  1E09  1803               	skipnc
  7525  1E0A  0AF5               	incf	PORT_putString@i+1,f
  7526  1E0B  3000               	movlw	0
  7527  1E0C  07F5               	addwf	PORT_putString@i+1,f
  7528  1E0D                     l2921:
  7529  1E0D  0874               	movf	PORT_putString@i,w
  7530  1E0E  0776               	addwf	PORT_putString@chaine,w
  7531  1E0F  0084               	movwf	4
  7532  1E10  160A  118A  2000  160A  158A  	fcall	stringdir
  7533  1E15  3A00               	xorlw	0
  7534  1E16  1D03               	skipz
  7535  1E17  2E19               	goto	u4841
  7536  1E18  2E1A               	goto	u4840
  7537  1E19                     u4841:
  7538  1E19  2DFA               	goto	l2917
  7539  1E1A                     u4840:
  7540  1E1A                     l169:
  7541  1E1A  0008               	return
  7542  1E1B                     __end_of_PORT_putString:
  7543                           
  7544                           	psect	text25
  7545  10D6                     __ptext25:	
  7546 ;; *************** function _PORT_Change_Gain *****************
  7547 ;; Defined at:
  7548 ;;		line 173 in file "port.c"
  7549 ;; Parameters:    Size  Location     Type
  7550 ;;  INTER0          1    wreg     unsigned char 
  7551 ;;  INTER1          1    2[COMMON] unsigned char 
  7552 ;; Auto vars:     Size  Location     Type
  7553 ;;  INTER0          1    5[COMMON] unsigned char 
  7554 ;; Return value:  Size  Location     Type
  7555 ;;                  2    2[COMMON] unsigned int 
  7556 ;; Registers used:
  7557 ;;		wreg, status,2, status,0
  7558 ;; Tracked objects:
  7559 ;;		On entry : 0/0
  7560 ;;		On exit  : 0/0
  7561 ;;		Unchanged: 0/0
  7562 ;; Data sizes:     COMMON   BANK0   BANK1   BANK3   BANK2
  7563 ;;      Params:         3       0       0       0       0
  7564 ;;      Locals:         1       0       0       0       0
  7565 ;;      Temps:          0       0       0       0       0
  7566 ;;      Totals:         4       0       0       0       0
  7567 ;;Total ram usage:        4 bytes
  7568 ;; Hardware stack levels used:    1
  7569 ;; Hardware stack levels required when called:    1
  7570 ;; This function calls:
  7571 ;;		Nothing
  7572 ;; This function is called by:
  7573 ;;		_Get_Newton
  7574 ;; This function uses a non-reentrant model
  7575 ;;
  7576                           
  7577                           
  7578                           ;psect for function _PORT_Change_Gain
  7579  10D6                     _PORT_Change_Gain:
  7580                           
  7581                           ;incstack = 0
  7582                           ; Regs used in _PORT_Change_Gain: [wreg+status,2+status,0]
  7583                           ;PORT_Change_Gain@INTER0 stored from wreg
  7584  10D6  00F6               	movwf	PORT_Change_Gain@INTER0
  7585  10D7                     l2877:
  7586                           
  7587                           ;port.c: 174:     PORTCbits.RC0 = INTER0;
  7588  10D7  0C76               	rrf	PORT_Change_Gain@INTER0,w
  7589  10D8  1283               	bcf	3,5	;RP0=0, select bank0
  7590  10D9  1303               	bcf	3,6	;RP1=0, select bank0
  7591  10DA  1C03               	skipc
  7592  10DB  1007               	bcf	7,0	;volatile
  7593  10DC  1803               	skipnc
  7594  10DD  1407               	bsf	7,0	;volatile
  7595                           
  7596                           ;port.c: 175:     PORTCbits.RC1 = INTER1;
  7597  10DE  0C73               	rrf	PORT_Change_Gain@INTER1,w
  7598  10DF  1C03               	skipc
  7599  10E0  1087               	bcf	7,1	;volatile
  7600  10E1  1803               	skipnc
  7601  10E2  1487               	bsf	7,1	;volatile
  7602  10E3                     l2879:
  7603                           
  7604                           ;port.c: 176:     if (INTER0 == 0 && INTER1 == 0)
  7605  10E3  0876               	movf	PORT_Change_Gain@INTER0,w
  7606  10E4  1D03               	btfss	3,2
  7607  10E5  28E7               	goto	u4781
  7608  10E6  28E8               	goto	u4780
  7609  10E7                     u4781:
  7610  10E7  28F2               	goto	l2889
  7611  10E8                     u4780:
  7612  10E8                     l2881:
  7613  10E8  0873               	movf	PORT_Change_Gain@INTER1,w
  7614  10E9  1D03               	btfss	3,2
  7615  10EA  28EC               	goto	u4791
  7616  10EB  28ED               	goto	u4790
  7617  10EC                     u4791:
  7618  10EC  28F2               	goto	l2889
  7619  10ED                     u4790:
  7620  10ED                     l2883:
  7621                           
  7622                           ;port.c: 177:         return 52000;
  7623  10ED  3020               	movlw	32
  7624  10EE  00F3               	movwf	?_PORT_Change_Gain
  7625  10EF  30CB               	movlw	203
  7626  10F0  00F4               	movwf	?_PORT_Change_Gain+1
  7627  10F1  290F               	goto	l179
  7628  10F2                     l2889:
  7629  10F2  0876               	movf	PORT_Change_Gain@INTER0,w
  7630  10F3  1D03               	btfss	3,2
  7631  10F4  28F6               	goto	u4801
  7632  10F5  28F7               	goto	u4800
  7633  10F6                     u4801:
  7634  10F6  2901               	goto	l2899
  7635  10F7                     u4800:
  7636  10F7                     l2891:
  7637  10F7  0373               	decf	PORT_Change_Gain@INTER1,w
  7638  10F8  1D03               	btfss	3,2
  7639  10F9  28FB               	goto	u4811
  7640  10FA  28FC               	goto	u4810
  7641  10FB                     u4811:
  7642  10FB  2901               	goto	l2899
  7643  10FC                     u4810:
  7644  10FC                     l2893:
  7645                           
  7646                           ;port.c: 179:         return 2800;
  7647  10FC  30F0               	movlw	240
  7648  10FD  00F3               	movwf	?_PORT_Change_Gain
  7649  10FE  300A               	movlw	10
  7650  10FF  00F4               	movwf	?_PORT_Change_Gain+1
  7651  1100  290F               	goto	l179
  7652  1101                     l2899:
  7653  1101  0376               	decf	PORT_Change_Gain@INTER0,w
  7654  1102  1D03               	btfss	3,2
  7655  1103  2905               	goto	u4821
  7656  1104  2906               	goto	u4820
  7657  1105                     u4821:
  7658  1105  290F               	goto	l179
  7659  1106                     u4820:
  7660  1106                     l2901:
  7661  1106  0873               	movf	PORT_Change_Gain@INTER1,w
  7662  1107  1D03               	btfss	3,2
  7663  1108  290A               	goto	u4831
  7664  1109  290B               	goto	u4830
  7665  110A                     u4831:
  7666  110A  290F               	goto	l179
  7667  110B                     u4830:
  7668  110B                     l2903:
  7669                           
  7670                           ;port.c: 181:         return 8300;
  7671  110B  306C               	movlw	108
  7672  110C  00F3               	movwf	?_PORT_Change_Gain
  7673  110D  3020               	movlw	32
  7674  110E  00F4               	movwf	?_PORT_Change_Gain+1
  7675  110F                     l179:
  7676  110F  0008               	return
  7677  1110                     __end_of_PORT_Change_Gain:
  7678                           
  7679                           	psect	text26
  7680  1279                     __ptext26:	
  7681 ;; *************** function _Affichage_brut *****************
  7682 ;; Defined at:
  7683 ;;		line 52 in file "main.c"
  7684 ;; Parameters:    Size  Location     Type
  7685 ;;  valeur_a_aff    2    0[BANK0 ] int 
  7686 ;; Auto vars:     Size  Location     Type
  7687 ;;  valueMetrics    6    5[BANK0 ] struct .
  7688 ;;  affiche         1    4[BANK0 ] unsigned char 
  7689 ;; Return value:  Size  Location     Type
  7690 ;;                  1    wreg      void 
  7691 ;; Registers used:
  7692 ;;		wreg, status,2, status,0, btemp+1, pclath, cstack
  7693 ;; Tracked objects:
  7694 ;;		On entry : 0/0
  7695 ;;		On exit  : 0/0
  7696 ;;		Unchanged: 0/0
  7697 ;; Data sizes:     COMMON   BANK0   BANK1   BANK3   BANK2
  7698 ;;      Params:         0       2       0       0       0
  7699 ;;      Locals:         0       7       0       0       0
  7700 ;;      Temps:          0       2       0       0       0
  7701 ;;      Totals:         0      11       0       0       0
  7702 ;;Total ram usage:       11 bytes
  7703 ;; Hardware stack levels used:    1
  7704 ;; Hardware stack levels required when called:    2
  7705 ;; This function calls:
  7706 ;;		_PORT_putchar
  7707 ;;		___awdiv
  7708 ;;		___awmod
  7709 ;; This function is called by:
  7710 ;;		_Get_Newton
  7711 ;; This function uses a non-reentrant model
  7712 ;;
  7713                           
  7714                           
  7715                           ;psect for function _Affichage_brut
  7716  1279                     _Affichage_brut:
  7717  1279                     l2745:	
  7718                           ;incstack = 0
  7719                           ; Regs used in _Affichage_brut: [wreg+status,2+status,0+btemp+1+pclath+cstack]
  7720                           
  7721                           
  7722                           ;main.c: 52: void Affichage_brut(int valeur_a_afficher);main.c: 53: {;main.c: 54:     un
      +                          signed char affiche;;main.c: 56:     ValueMetrics valueMetrics;;main.c: 58:     affiche 
      +                          = valeur_a_afficher ;
  7723  1279  1283               	bcf	3,5	;RP0=0, select bank0
  7724  127A  1303               	bcf	3,6	;RP1=0, select bank0
  7725  127B  0820               	movf	Affichage_brut@valeur_a_afficher,w
  7726  127C  00FF               	movwf	btemp+1
  7727  127D  087F               	movf	btemp+1,w
  7728  127E  00A4               	movwf	Affichage_brut@affiche
  7729  127F                     l2747:
  7730                           
  7731                           ;main.c: 59:     valueMetrics.cent = ((char)(affiche/100))+0x30;
  7732  127F  3064               	movlw	100
  7733  1280  00F3               	movwf	___awdiv@divisor
  7734  1281  3000               	movlw	0
  7735  1282  00F4               	movwf	___awdiv@divisor+1
  7736  1283  0824               	movf	Affichage_brut@affiche,w
  7737  1284  00A2               	movwf	??_Affichage_brut
  7738  1285  01A3               	clrf	??_Affichage_brut+1
  7739  1286  0822               	movf	??_Affichage_brut,w
  7740  1287  00F5               	movwf	___awdiv@dividend
  7741  1288  0823               	movf	??_Affichage_brut+1,w
  7742  1289  00F6               	movwf	___awdiv@dividend+1
  7743  128A  160A  118A  21A3  160A  118A  	fcall	___awdiv
  7744  128F  0873               	movf	?___awdiv,w
  7745  1290  3E30               	addlw	48
  7746  1291  00FF               	movwf	btemp+1
  7747  1292  087F               	movf	btemp+1,w
  7748  1293  1283               	bcf	3,5	;RP0=0, select bank0
  7749  1294  1303               	bcf	3,6	;RP1=0, select bank0
  7750  1295  00A6               	movwf	Affichage_brut@valueMetrics+1
  7751  1296                     l2749:
  7752                           
  7753                           ;main.c: 60:     PORT_putchar(valueMetrics.cent);
  7754  1296  0826               	movf	Affichage_brut@valueMetrics+1,w
  7755  1297  120A  158A  2000  160A  118A  	fcall	_PORT_putchar
  7756  129C                     l2751:
  7757                           
  7758                           ;main.c: 61:     affiche = affiche % 100 ;
  7759  129C  3064               	movlw	100
  7760  129D  00F3               	movwf	___awmod@divisor
  7761  129E  3000               	movlw	0
  7762  129F  00F4               	movwf	___awmod@divisor+1
  7763  12A0  1283               	bcf	3,5	;RP0=0, select bank0
  7764  12A1  1303               	bcf	3,6	;RP1=0, select bank0
  7765  12A2  0824               	movf	Affichage_brut@affiche,w
  7766  12A3  00A2               	movwf	??_Affichage_brut
  7767  12A4  01A3               	clrf	??_Affichage_brut+1
  7768  12A5  0822               	movf	??_Affichage_brut,w
  7769  12A6  00F5               	movwf	___awmod@dividend
  7770  12A7  0823               	movf	??_Affichage_brut+1,w
  7771  12A8  00F6               	movwf	___awmod@dividend+1
  7772  12A9  160A  118A  214A  160A  118A  	fcall	___awmod
  7773  12AE  0873               	movf	?___awmod,w
  7774  12AF  00FF               	movwf	btemp+1
  7775  12B0  087F               	movf	btemp+1,w
  7776  12B1  1283               	bcf	3,5	;RP0=0, select bank0
  7777  12B2  1303               	bcf	3,6	;RP1=0, select bank0
  7778  12B3  00A4               	movwf	Affichage_brut@affiche
  7779  12B4                     l2753:
  7780                           
  7781                           ;main.c: 62:     valueMetrics.diz = ((char)(affiche/10))+0x30;
  7782  12B4  300A               	movlw	10
  7783  12B5  00F3               	movwf	___awdiv@divisor
  7784  12B6  3000               	movlw	0
  7785  12B7  00F4               	movwf	___awdiv@divisor+1
  7786  12B8  0824               	movf	Affichage_brut@affiche,w
  7787  12B9  00A2               	movwf	??_Affichage_brut
  7788  12BA  01A3               	clrf	??_Affichage_brut+1
  7789  12BB  0822               	movf	??_Affichage_brut,w
  7790  12BC  00F5               	movwf	___awdiv@dividend
  7791  12BD  0823               	movf	??_Affichage_brut+1,w
  7792  12BE  00F6               	movwf	___awdiv@dividend+1
  7793  12BF  160A  118A  21A3  160A  118A  	fcall	___awdiv
  7794  12C4  0873               	movf	?___awdiv,w
  7795  12C5  3E30               	addlw	48
  7796  12C6  00FF               	movwf	btemp+1
  7797  12C7  087F               	movf	btemp+1,w
  7798  12C8  1283               	bcf	3,5	;RP0=0, select bank0
  7799  12C9  1303               	bcf	3,6	;RP1=0, select bank0
  7800  12CA  00A7               	movwf	Affichage_brut@valueMetrics+2
  7801  12CB                     l2755:
  7802                           
  7803                           ;main.c: 63:     PORT_putchar(valueMetrics.diz);
  7804  12CB  0827               	movf	Affichage_brut@valueMetrics+2,w
  7805  12CC  120A  158A  2000  160A  118A  	fcall	_PORT_putchar
  7806  12D1                     l2757:
  7807                           
  7808                           ;main.c: 64:     affiche = affiche % 10 ;
  7809  12D1  300A               	movlw	10
  7810  12D2  00F3               	movwf	___awmod@divisor
  7811  12D3  3000               	movlw	0
  7812  12D4  00F4               	movwf	___awmod@divisor+1
  7813  12D5  1283               	bcf	3,5	;RP0=0, select bank0
  7814  12D6  1303               	bcf	3,6	;RP1=0, select bank0
  7815  12D7  0824               	movf	Affichage_brut@affiche,w
  7816  12D8  00A2               	movwf	??_Affichage_brut
  7817  12D9  01A3               	clrf	??_Affichage_brut+1
  7818  12DA  0822               	movf	??_Affichage_brut,w
  7819  12DB  00F5               	movwf	___awmod@dividend
  7820  12DC  0823               	movf	??_Affichage_brut+1,w
  7821  12DD  00F6               	movwf	___awmod@dividend+1
  7822  12DE  160A  118A  214A  160A  118A  	fcall	___awmod
  7823  12E3  0873               	movf	?___awmod,w
  7824  12E4  00FF               	movwf	btemp+1
  7825  12E5  087F               	movf	btemp+1,w
  7826  12E6  1283               	bcf	3,5	;RP0=0, select bank0
  7827  12E7  1303               	bcf	3,6	;RP1=0, select bank0
  7828  12E8  00A4               	movwf	Affichage_brut@affiche
  7829  12E9                     l2759:
  7830                           
  7831                           ;main.c: 65:     valueMetrics.unit = ((char)(affiche))+0x30;
  7832  12E9  0824               	movf	Affichage_brut@affiche,w
  7833  12EA  3E30               	addlw	48
  7834  12EB  00FF               	movwf	btemp+1
  7835  12EC  087F               	movf	btemp+1,w
  7836  12ED  00A8               	movwf	Affichage_brut@valueMetrics+3
  7837  12EE                     l2761:
  7838                           
  7839                           ;main.c: 66:     PORT_putchar(valueMetrics.unit);
  7840  12EE  0828               	movf	Affichage_brut@valueMetrics+3,w
  7841  12EF  120A  158A  2000  160A  118A  	fcall	_PORT_putchar
  7842  12F4                     l34:
  7843  12F4  0008               	return
  7844  12F5                     __end_of_Affichage_brut:
  7845                           
  7846                           	psect	text27
  7847  114A                     __ptext27:	
  7848 ;; *************** function ___awmod *****************
  7849 ;; Defined at:
  7850 ;;		line 5 in file "C:\Program Files\Microchip\xc8\v2.20\pic\sources\c90\common\awmod.c"
  7851 ;; Parameters:    Size  Location     Type
  7852 ;;  divisor         2    2[COMMON] int 
  7853 ;;  dividend        2    4[COMMON] int 
  7854 ;; Auto vars:     Size  Location     Type
  7855 ;;  sign            1    7[COMMON] unsigned char 
  7856 ;;  counter         1    6[COMMON] unsigned char 
  7857 ;; Return value:  Size  Location     Type
  7858 ;;                  2    2[COMMON] int 
  7859 ;; Registers used:
  7860 ;;		wreg, status,2, status,0, btemp+1
  7861 ;; Tracked objects:
  7862 ;;		On entry : 0/0
  7863 ;;		On exit  : 0/0
  7864 ;;		Unchanged: 0/0
  7865 ;; Data sizes:     COMMON   BANK0   BANK1   BANK3   BANK2
  7866 ;;      Params:         4       0       0       0       0
  7867 ;;      Locals:         2       0       0       0       0
  7868 ;;      Temps:          0       0       0       0       0
  7869 ;;      Totals:         6       0       0       0       0
  7870 ;;Total ram usage:        6 bytes
  7871 ;; Hardware stack levels used:    1
  7872 ;; Hardware stack levels required when called:    1
  7873 ;; This function calls:
  7874 ;;		Nothing
  7875 ;; This function is called by:
  7876 ;;		_Affichage_brut
  7877 ;; This function uses a non-reentrant model
  7878 ;;
  7879                           
  7880                           
  7881                           ;psect for function ___awmod
  7882  114A                     ___awmod:
  7883  114A                     l2261:	
  7884                           ;incstack = 0
  7885                           ; Regs used in ___awmod: [wreg+status,2+status,0+btemp+1]
  7886                           
  7887  114A  01F8               	clrf	___awmod@sign
  7888  114B                     l2263:
  7889  114B  1FF6               	btfss	___awmod@dividend+1,7
  7890  114C  294E               	goto	u3311
  7891  114D  294F               	goto	u3310
  7892  114E                     u3311:
  7893  114E  2956               	goto	l2269
  7894  114F                     u3310:
  7895  114F                     l2265:
  7896  114F  09F5               	comf	___awmod@dividend,f
  7897  1150  09F6               	comf	___awmod@dividend+1,f
  7898  1151  0AF5               	incf	___awmod@dividend,f
  7899  1152  1903               	skipnz
  7900  1153  0AF6               	incf	___awmod@dividend+1,f
  7901  1154                     l2267:
  7902  1154  01F8               	clrf	___awmod@sign
  7903  1155  0AF8               	incf	___awmod@sign,f
  7904  1156                     l2269:
  7905  1156  1FF4               	btfss	___awmod@divisor+1,7
  7906  1157  2959               	goto	u3321
  7907  1158  295A               	goto	u3320
  7908  1159                     u3321:
  7909  1159  295F               	goto	l2273
  7910  115A                     u3320:
  7911  115A                     l2271:
  7912  115A  09F3               	comf	___awmod@divisor,f
  7913  115B  09F4               	comf	___awmod@divisor+1,f
  7914  115C  0AF3               	incf	___awmod@divisor,f
  7915  115D  1903               	skipnz
  7916  115E  0AF4               	incf	___awmod@divisor+1,f
  7917  115F                     l2273:
  7918  115F  0873               	movf	___awmod@divisor,w
  7919  1160  0474               	iorwf	___awmod@divisor+1,w
  7920  1161  1903               	btfsc	3,2
  7921  1162  2964               	goto	u3331
  7922  1163  2965               	goto	u3330
  7923  1164                     u3331:
  7924  1164  2994               	goto	l2291
  7925  1165                     u3330:
  7926  1165                     l2275:
  7927  1165  01F7               	clrf	___awmod@counter
  7928  1166  0AF7               	incf	___awmod@counter,f
  7929  1167  2973               	goto	l2281
  7930  1168                     l2277:
  7931  1168  3001               	movlw	1
  7932  1169                     u3345:
  7933  1169  1003               	clrc
  7934  116A  0DF3               	rlf	___awmod@divisor,f
  7935  116B  0DF4               	rlf	___awmod@divisor+1,f
  7936  116C  3EFF               	addlw	-1
  7937  116D  1D03               	skipz
  7938  116E  2969               	goto	u3345
  7939  116F                     l2279:
  7940  116F  3001               	movlw	1
  7941  1170  00FF               	movwf	btemp+1
  7942  1171  087F               	movf	btemp+1,w
  7943  1172  07F7               	addwf	___awmod@counter,f
  7944  1173                     l2281:
  7945  1173  1FF4               	btfss	___awmod@divisor+1,7
  7946  1174  2976               	goto	u3351
  7947  1175  2977               	goto	u3350
  7948  1176                     u3351:
  7949  1176  2968               	goto	l2277
  7950  1177                     u3350:
  7951  1177                     l2283:
  7952  1177  0874               	movf	___awmod@divisor+1,w
  7953  1178  0276               	subwf	___awmod@dividend+1,w
  7954  1179  1D03               	skipz
  7955  117A  297D               	goto	u3365
  7956  117B  0873               	movf	___awmod@divisor,w
  7957  117C  0275               	subwf	___awmod@dividend,w
  7958  117D                     u3365:
  7959  117D  1C03               	skipc
  7960  117E  2980               	goto	u3361
  7961  117F  2981               	goto	u3360
  7962  1180                     u3361:
  7963  1180  2987               	goto	l2287
  7964  1181                     u3360:
  7965  1181                     l2285:
  7966  1181  0873               	movf	___awmod@divisor,w
  7967  1182  02F5               	subwf	___awmod@dividend,f
  7968  1183  0874               	movf	___awmod@divisor+1,w
  7969  1184  1C03               	skipc
  7970  1185  03F6               	decf	___awmod@dividend+1,f
  7971  1186  02F6               	subwf	___awmod@dividend+1,f
  7972  1187                     l2287:
  7973  1187  3001               	movlw	1
  7974  1188                     u3375:
  7975  1188  1003               	clrc
  7976  1189  0CF4               	rrf	___awmod@divisor+1,f
  7977  118A  0CF3               	rrf	___awmod@divisor,f
  7978  118B  3EFF               	addlw	-1
  7979  118C  1D03               	skipz
  7980  118D  2988               	goto	u3375
  7981  118E                     l2289:
  7982  118E  3001               	movlw	1
  7983  118F  02F7               	subwf	___awmod@counter,f
  7984  1190  1D03               	btfss	3,2
  7985  1191  2993               	goto	u3381
  7986  1192  2994               	goto	u3380
  7987  1193                     u3381:
  7988  1193  2977               	goto	l2283
  7989  1194                     u3380:
  7990  1194                     l2291:
  7991  1194  0878               	movf	___awmod@sign,w
  7992  1195  1903               	btfsc	3,2
  7993  1196  2998               	goto	u3391
  7994  1197  2999               	goto	u3390
  7995  1198                     u3391:
  7996  1198  299E               	goto	l2295
  7997  1199                     u3390:
  7998  1199                     l2293:
  7999  1199  09F5               	comf	___awmod@dividend,f
  8000  119A  09F6               	comf	___awmod@dividend+1,f
  8001  119B  0AF5               	incf	___awmod@dividend,f
  8002  119C  1903               	skipnz
  8003  119D  0AF6               	incf	___awmod@dividend+1,f
  8004  119E                     l2295:
  8005  119E  0876               	movf	___awmod@dividend+1,w
  8006  119F  00F4               	movwf	?___awmod+1
  8007  11A0  0875               	movf	___awmod@dividend,w
  8008  11A1  00F3               	movwf	?___awmod
  8009  11A2                     l389:
  8010  11A2  0008               	return
  8011  11A3                     __end_of___awmod:
  8012                           
  8013                           	psect	text28
  8014  11A3                     __ptext28:	
  8015 ;; *************** function ___awdiv *****************
  8016 ;; Defined at:
  8017 ;;		line 5 in file "C:\Program Files\Microchip\xc8\v2.20\pic\sources\c90\common\awdiv.c"
  8018 ;; Parameters:    Size  Location     Type
  8019 ;;  divisor         2    2[COMMON] int 
  8020 ;;  dividend        2    4[COMMON] int 
  8021 ;; Auto vars:     Size  Location     Type
  8022 ;;  quotient        2    8[COMMON] int 
  8023 ;;  sign            1    7[COMMON] unsigned char 
  8024 ;;  counter         1    6[COMMON] unsigned char 
  8025 ;; Return value:  Size  Location     Type
  8026 ;;                  2    2[COMMON] int 
  8027 ;; Registers used:
  8028 ;;		wreg, status,2, status,0, btemp+1
  8029 ;; Tracked objects:
  8030 ;;		On entry : 0/0
  8031 ;;		On exit  : 0/0
  8032 ;;		Unchanged: 0/0
  8033 ;; Data sizes:     COMMON   BANK0   BANK1   BANK3   BANK2
  8034 ;;      Params:         4       0       0       0       0
  8035 ;;      Locals:         4       0       0       0       0
  8036 ;;      Temps:          0       0       0       0       0
  8037 ;;      Totals:         8       0       0       0       0
  8038 ;;Total ram usage:        8 bytes
  8039 ;; Hardware stack levels used:    1
  8040 ;; Hardware stack levels required when called:    1
  8041 ;; This function calls:
  8042 ;;		Nothing
  8043 ;; This function is called by:
  8044 ;;		_Affichage_brut
  8045 ;; This function uses a non-reentrant model
  8046 ;;
  8047                           
  8048                           
  8049                           ;psect for function ___awdiv
  8050  11A3                     ___awdiv:
  8051  11A3                     l2217:	
  8052                           ;incstack = 0
  8053                           ; Regs used in ___awdiv: [wreg+status,2+status,0+btemp+1]
  8054                           
  8055  11A3  01F8               	clrf	___awdiv@sign
  8056  11A4                     l2219:
  8057  11A4  1FF4               	btfss	___awdiv@divisor+1,7
  8058  11A5  29A7               	goto	u3211
  8059  11A6  29A8               	goto	u3210
  8060  11A7                     u3211:
  8061  11A7  29AF               	goto	l2225
  8062  11A8                     u3210:
  8063  11A8                     l2221:
  8064  11A8  09F3               	comf	___awdiv@divisor,f
  8065  11A9  09F4               	comf	___awdiv@divisor+1,f
  8066  11AA  0AF3               	incf	___awdiv@divisor,f
  8067  11AB  1903               	skipnz
  8068  11AC  0AF4               	incf	___awdiv@divisor+1,f
  8069  11AD                     l2223:
  8070  11AD  01F8               	clrf	___awdiv@sign
  8071  11AE  0AF8               	incf	___awdiv@sign,f
  8072  11AF                     l2225:
  8073  11AF  1FF6               	btfss	___awdiv@dividend+1,7
  8074  11B0  29B2               	goto	u3221
  8075  11B1  29B3               	goto	u3220
  8076  11B2                     u3221:
  8077  11B2  29BC               	goto	l2231
  8078  11B3                     u3220:
  8079  11B3                     l2227:
  8080  11B3  09F5               	comf	___awdiv@dividend,f
  8081  11B4  09F6               	comf	___awdiv@dividend+1,f
  8082  11B5  0AF5               	incf	___awdiv@dividend,f
  8083  11B6  1903               	skipnz
  8084  11B7  0AF6               	incf	___awdiv@dividend+1,f
  8085  11B8                     l2229:
  8086  11B8  3001               	movlw	1
  8087  11B9  00FF               	movwf	btemp+1
  8088  11BA  087F               	movf	btemp+1,w
  8089  11BB  06F8               	xorwf	___awdiv@sign,f
  8090  11BC                     l2231:
  8091  11BC  01F9               	clrf	___awdiv@quotient
  8092  11BD  01FA               	clrf	___awdiv@quotient+1
  8093  11BE                     l2233:
  8094  11BE  0873               	movf	___awdiv@divisor,w
  8095  11BF  0474               	iorwf	___awdiv@divisor+1,w
  8096  11C0  1903               	btfsc	3,2
  8097  11C1  29C3               	goto	u3231
  8098  11C2  29C4               	goto	u3230
  8099  11C3                     u3231:
  8100  11C3  29FB               	goto	l2253
  8101  11C4                     u3230:
  8102  11C4                     l2235:
  8103  11C4  01F7               	clrf	___awdiv@counter
  8104  11C5  0AF7               	incf	___awdiv@counter,f
  8105  11C6  29D2               	goto	l2241
  8106  11C7                     l2237:
  8107  11C7  3001               	movlw	1
  8108  11C8                     u3245:
  8109  11C8  1003               	clrc
  8110  11C9  0DF3               	rlf	___awdiv@divisor,f
  8111  11CA  0DF4               	rlf	___awdiv@divisor+1,f
  8112  11CB  3EFF               	addlw	-1
  8113  11CC  1D03               	skipz
  8114  11CD  29C8               	goto	u3245
  8115  11CE                     l2239:
  8116  11CE  3001               	movlw	1
  8117  11CF  00FF               	movwf	btemp+1
  8118  11D0  087F               	movf	btemp+1,w
  8119  11D1  07F7               	addwf	___awdiv@counter,f
  8120  11D2                     l2241:
  8121  11D2  1FF4               	btfss	___awdiv@divisor+1,7
  8122  11D3  29D5               	goto	u3251
  8123  11D4  29D6               	goto	u3250
  8124  11D5                     u3251:
  8125  11D5  29C7               	goto	l2237
  8126  11D6                     u3250:
  8127  11D6                     l2243:
  8128  11D6  3001               	movlw	1
  8129  11D7                     u3265:
  8130  11D7  1003               	clrc
  8131  11D8  0DF9               	rlf	___awdiv@quotient,f
  8132  11D9  0DFA               	rlf	___awdiv@quotient+1,f
  8133  11DA  3EFF               	addlw	-1
  8134  11DB  1D03               	skipz
  8135  11DC  29D7               	goto	u3265
  8136  11DD  0874               	movf	___awdiv@divisor+1,w
  8137  11DE  0276               	subwf	___awdiv@dividend+1,w
  8138  11DF  1D03               	skipz
  8139  11E0  29E3               	goto	u3275
  8140  11E1  0873               	movf	___awdiv@divisor,w
  8141  11E2  0275               	subwf	___awdiv@dividend,w
  8142  11E3                     u3275:
  8143  11E3  1C03               	skipc
  8144  11E4  29E6               	goto	u3271
  8145  11E5  29E7               	goto	u3270
  8146  11E6                     u3271:
  8147  11E6  29EE               	goto	l2249
  8148  11E7                     u3270:
  8149  11E7                     l2245:
  8150  11E7  0873               	movf	___awdiv@divisor,w
  8151  11E8  02F5               	subwf	___awdiv@dividend,f
  8152  11E9  0874               	movf	___awdiv@divisor+1,w
  8153  11EA  1C03               	skipc
  8154  11EB  03F6               	decf	___awdiv@dividend+1,f
  8155  11EC  02F6               	subwf	___awdiv@dividend+1,f
  8156  11ED                     l2247:
  8157  11ED  1479               	bsf	___awdiv@quotient,0
  8158  11EE                     l2249:
  8159  11EE  3001               	movlw	1
  8160  11EF                     u3285:
  8161  11EF  1003               	clrc
  8162  11F0  0CF4               	rrf	___awdiv@divisor+1,f
  8163  11F1  0CF3               	rrf	___awdiv@divisor,f
  8164  11F2  3EFF               	addlw	-1
  8165  11F3  1D03               	skipz
  8166  11F4  29EF               	goto	u3285
  8167  11F5                     l2251:
  8168  11F5  3001               	movlw	1
  8169  11F6  02F7               	subwf	___awdiv@counter,f
  8170  11F7  1D03               	btfss	3,2
  8171  11F8  29FA               	goto	u3291
  8172  11F9  29FB               	goto	u3290
  8173  11FA                     u3291:
  8174  11FA  29D6               	goto	l2243
  8175  11FB                     u3290:
  8176  11FB                     l2253:
  8177  11FB  0878               	movf	___awdiv@sign,w
  8178  11FC  1903               	btfsc	3,2
  8179  11FD  29FF               	goto	u3301
  8180  11FE  2A00               	goto	u3300
  8181  11FF                     u3301:
  8182  11FF  2A05               	goto	l2257
  8183  1200                     u3300:
  8184  1200                     l2255:
  8185  1200  09F9               	comf	___awdiv@quotient,f
  8186  1201  09FA               	comf	___awdiv@quotient+1,f
  8187  1202  0AF9               	incf	___awdiv@quotient,f
  8188  1203  1903               	skipnz
  8189  1204  0AFA               	incf	___awdiv@quotient+1,f
  8190  1205                     l2257:
  8191  1205  087A               	movf	___awdiv@quotient+1,w
  8192  1206  00F4               	movwf	?___awdiv+1
  8193  1207  0879               	movf	___awdiv@quotient,w
  8194  1208  00F3               	movwf	?___awdiv
  8195  1209                     l376:
  8196  1209  0008               	return
  8197  120A                     __end_of___awdiv:
  8198                           
  8199                           	psect	text29
  8200  0800                     __ptext29:	
  8201 ;; *************** function _PORT_putchar *****************
  8202 ;; Defined at:
  8203 ;;		line 126 in file "port.c"
  8204 ;; Parameters:    Size  Location     Type
  8205 ;;  c               1    wreg     unsigned char 
  8206 ;; Auto vars:     Size  Location     Type
  8207 ;;  c               1    2[COMMON] unsigned char 
  8208 ;; Return value:  Size  Location     Type
  8209 ;;                  1    wreg      void 
  8210 ;; Registers used:
  8211 ;;		wreg
  8212 ;; Tracked objects:
  8213 ;;		On entry : 0/0
  8214 ;;		On exit  : 0/0
  8215 ;;		Unchanged: 0/0
  8216 ;; Data sizes:     COMMON   BANK0   BANK1   BANK3   BANK2
  8217 ;;      Params:         0       0       0       0       0
  8218 ;;      Locals:         1       0       0       0       0
  8219 ;;      Temps:          0       0       0       0       0
  8220 ;;      Totals:         1       0       0       0       0
  8221 ;;Total ram usage:        1 bytes
  8222 ;; Hardware stack levels used:    1
  8223 ;; Hardware stack levels required when called:    1
  8224 ;; This function calls:
  8225 ;;		Nothing
  8226 ;; This function is called by:
  8227 ;;		_Affichage_brut
  8228 ;;		_puts_float
  8229 ;;		_Get_Newton
  8230 ;;		_PORT_putString
  8231 ;; This function uses a non-reentrant model
  8232 ;;
  8233                           
  8234                           
  8235                           ;psect for function _PORT_putchar
  8236  0800                     _PORT_putchar:
  8237                           
  8238                           ;incstack = 0
  8239                           ; Regs used in _PORT_putchar: [wreg]
  8240                           ;PORT_putchar@c stored from wreg
  8241  0800  00F3               	movwf	PORT_putchar@c
  8242  0801                     l2113:
  8243  0801                     l160:	
  8244                           ;port.c: 128:     for(;(TXSTA&0x02)!=0x02;);
  8245                           
  8246  0801  1683               	bsf	3,5	;RP0=1, select bank1
  8247  0802  1303               	bcf	3,6	;RP1=0, select bank1
  8248  0803  1C98               	btfss	24,1	;volatile
  8249  0804  2806               	goto	u2951
  8250  0805  2807               	goto	u2950
  8251  0806                     u2951:
  8252  0806  2801               	goto	l160
  8253  0807                     u2950:
  8254  0807                     l2115:
  8255                           
  8256                           ;port.c: 129:     TXREG = c;
  8257  0807  0873               	movf	PORT_putchar@c,w
  8258  0808  1283               	bcf	3,5	;RP0=0, select bank0
  8259  0809  1303               	bcf	3,6	;RP1=0, select bank0
  8260  080A  0099               	movwf	25	;volatile
  8261  080B                     l163:
  8262  080B  0008               	return
  8263  080C                     __end_of_PORT_putchar:
  8264                           
  8265                           	psect	text30
  8266  1DC0                     __ptext30:	
  8267 ;; *************** function _ADC_GetValue *****************
  8268 ;; Defined at:
  8269 ;;		line 16 in file "adc.c"
  8270 ;; Parameters:    Size  Location     Type
  8271 ;;  channel         1    wreg     unsigned char 
  8272 ;; Auto vars:     Size  Location     Type
  8273 ;;  channel         1    3[COMMON] unsigned char 
  8274 ;; Return value:  Size  Location     Type
  8275 ;;                  1    wreg      unsigned char 
  8276 ;; Registers used:
  8277 ;;		wreg, status,2, status,0, btemp+1, pclath, cstack
  8278 ;; Tracked objects:
  8279 ;;		On entry : 0/0
  8280 ;;		On exit  : 0/0
  8281 ;;		Unchanged: 0/0
  8282 ;; Data sizes:     COMMON   BANK0   BANK1   BANK3   BANK2
  8283 ;;      Params:         0       0       0       0       0
  8284 ;;      Locals:         1       0       0       0       0
  8285 ;;      Temps:          0       0       0       0       0
  8286 ;;      Totals:         1       0       0       0       0
  8287 ;;Total ram usage:        1 bytes
  8288 ;; Hardware stack levels used:    1
  8289 ;; Hardware stack levels required when called:    2
  8290 ;; This function calls:
  8291 ;;		_PORT_Choose_Mux
  8292 ;;		_PORT_Get_Value_Adc
  8293 ;;		_PORT_Start_ADC
  8294 ;; This function is called by:
  8295 ;;		_Get_Newton
  8296 ;; This function uses a non-reentrant model
  8297 ;;
  8298                           
  8299                           
  8300                           ;psect for function _ADC_GetValue
  8301  1DC0                     _ADC_GetValue:
  8302                           
  8303                           ;incstack = 0
  8304                           ; Regs used in _ADC_GetValue: [wreg+status,2+status,0+btemp+1+pclath+cstack]
  8305                           ;ADC_GetValue@channel stored from wreg
  8306  1DC0  00F4               	movwf	ADC_GetValue@channel
  8307  1DC1                     l2907:
  8308                           
  8309                           ;adc.c: 18:     PORT_Choose_Mux(channel);
  8310  1DC1  0874               	movf	ADC_GetValue@channel,w
  8311  1DC2  160A  158A  25AE  160A  158A  	fcall	_PORT_Choose_Mux
  8312  1DC7                     l2909:
  8313                           
  8314                           ;adc.c: 19:     PORT_Start_ADC();
  8315  1DC7  160A  158A  258E  160A  158A  	fcall	_PORT_Start_ADC
  8316  1DCC                     l2911:
  8317                           
  8318                           ;adc.c: 20:     return PORT_Get_Value_Adc();
  8319  1DCC  160A  118A  20B9  160A  158A  	fcall	_PORT_Get_Value_Adc
  8320  1DD1                     l84:
  8321  1DD1  0008               	return
  8322  1DD2                     __end_of_ADC_GetValue:
  8323                           
  8324                           	psect	text31
  8325  1D8E                     __ptext31:	
  8326 ;; *************** function _PORT_Start_ADC *****************
  8327 ;; Defined at:
  8328 ;;		line 104 in file "port.c"
  8329 ;; Parameters:    Size  Location     Type
  8330 ;;		None
  8331 ;; Auto vars:     Size  Location     Type
  8332 ;;		None
  8333 ;; Return value:  Size  Location     Type
  8334 ;;                  1    wreg      void 
  8335 ;; Registers used:
  8336 ;;		None
  8337 ;; Tracked objects:
  8338 ;;		On entry : 0/0
  8339 ;;		On exit  : 0/0
  8340 ;;		Unchanged: 0/0
  8341 ;; Data sizes:     COMMON   BANK0   BANK1   BANK3   BANK2
  8342 ;;      Params:         0       0       0       0       0
  8343 ;;      Locals:         0       0       0       0       0
  8344 ;;      Temps:          0       0       0       0       0
  8345 ;;      Totals:         0       0       0       0       0
  8346 ;;Total ram usage:        0 bytes
  8347 ;; Hardware stack levels used:    1
  8348 ;; Hardware stack levels required when called:    1
  8349 ;; This function calls:
  8350 ;;		Nothing
  8351 ;; This function is called by:
  8352 ;;		_ADC_GetValue
  8353 ;; This function uses a non-reentrant model
  8354 ;;
  8355                           
  8356                           
  8357                           ;psect for function _PORT_Start_ADC
  8358  1D8E                     _PORT_Start_ADC:
  8359  1D8E                     l2121:	
  8360                           ;incstack = 0
  8361                           ; Regs used in _PORT_Start_ADC: []
  8362                           
  8363                           
  8364                           ;port.c: 105:     GO_nDONE=1;
  8365  1D8E  1283               	bcf	3,5	;RP0=0, select bank0
  8366  1D8F  1303               	bcf	3,6	;RP1=0, select bank0
  8367  1D90  149F               	bsf	31,1	;volatile
  8368  1D91                     l151:	
  8369                           ;port.c: 106:     while(GO_nDONE);
  8370                           
  8371  1D91  189F               	btfsc	31,1	;volatile
  8372  1D92  2D94               	goto	u2971
  8373  1D93  2D95               	goto	u2970
  8374  1D94                     u2971:
  8375  1D94  2D91               	goto	l151
  8376  1D95                     u2970:
  8377  1D95                     l154:
  8378  1D95  0008               	return
  8379  1D96                     __end_of_PORT_Start_ADC:
  8380                           
  8381                           	psect	text32
  8382  10B9                     __ptext32:	
  8383 ;; *************** function _PORT_Get_Value_Adc *****************
  8384 ;; Defined at:
  8385 ;;		line 118 in file "port.c"
  8386 ;; Parameters:    Size  Location     Type
  8387 ;;		None
  8388 ;; Auto vars:     Size  Location     Type
  8389 ;;		None
  8390 ;; Return value:  Size  Location     Type
  8391 ;;                  1    wreg      unsigned char 
  8392 ;; Registers used:
  8393 ;;		wreg
  8394 ;; Tracked objects:
  8395 ;;		On entry : 0/0
  8396 ;;		On exit  : 0/0
  8397 ;;		Unchanged: 0/0
  8398 ;; Data sizes:     COMMON   BANK0   BANK1   BANK3   BANK2
  8399 ;;      Params:         0       0       0       0       0
  8400 ;;      Locals:         0       0       0       0       0
  8401 ;;      Temps:          0       0       0       0       0
  8402 ;;      Totals:         0       0       0       0       0
  8403 ;;Total ram usage:        0 bytes
  8404 ;; Hardware stack levels used:    1
  8405 ;; Hardware stack levels required when called:    1
  8406 ;; This function calls:
  8407 ;;		Nothing
  8408 ;; This function is called by:
  8409 ;;		_ADC_GetValue
  8410 ;; This function uses a non-reentrant model
  8411 ;;
  8412                           
  8413                           
  8414                           ;psect for function _PORT_Get_Value_Adc
  8415  10B9                     _PORT_Get_Value_Adc:
  8416  10B9                     l2123:	
  8417                           ;incstack = 0
  8418                           ; Regs used in _PORT_Get_Value_Adc: [wreg]
  8419                           
  8420                           
  8421                           ;port.c: 119:     return ADRES;
  8422  10B9  1283               	bcf	3,5	;RP0=0, select bank0
  8423  10BA  1303               	bcf	3,6	;RP1=0, select bank0
  8424  10BB  081E               	movf	30,w	;volatile
  8425  10BC                     l157:
  8426  10BC  0008               	return
  8427  10BD                     __end_of_PORT_Get_Value_Adc:
  8428                           
  8429                           	psect	text33
  8430  1DAE                     __ptext33:	
  8431 ;; *************** function _PORT_Choose_Mux *****************
  8432 ;; Defined at:
  8433 ;;		line 94 in file "port.c"
  8434 ;; Parameters:    Size  Location     Type
  8435 ;;  _value          1    wreg     unsigned char 
  8436 ;; Auto vars:     Size  Location     Type
  8437 ;;  _value          1    2[COMMON] unsigned char 
  8438 ;; Return value:  Size  Location     Type
  8439 ;;                  1    wreg      void 
  8440 ;; Registers used:
  8441 ;;		wreg, status,2, status,0, btemp+1
  8442 ;; Tracked objects:
  8443 ;;		On entry : 0/0
  8444 ;;		On exit  : 0/0
  8445 ;;		Unchanged: 0/0
  8446 ;; Data sizes:     COMMON   BANK0   BANK1   BANK3   BANK2
  8447 ;;      Params:         0       0       0       0       0
  8448 ;;      Locals:         1       0       0       0       0
  8449 ;;      Temps:          0       0       0       0       0
  8450 ;;      Totals:         1       0       0       0       0
  8451 ;;Total ram usage:        1 bytes
  8452 ;; Hardware stack levels used:    1
  8453 ;; Hardware stack levels required when called:    1
  8454 ;; This function calls:
  8455 ;;		Nothing
  8456 ;; This function is called by:
  8457 ;;		_ADC_GetValue
  8458 ;; This function uses a non-reentrant model
  8459 ;;
  8460                           
  8461                           
  8462                           ;psect for function _PORT_Choose_Mux
  8463  1DAE                     _PORT_Choose_Mux:
  8464                           
  8465                           ;incstack = 0
  8466                           ; Regs used in _PORT_Choose_Mux: [wreg+status,2+status,0+btemp+1]
  8467                           ;PORT_Choose_Mux@_value stored from wreg
  8468  1DAE  00F3               	movwf	PORT_Choose_Mux@_value
  8469  1DAF                     l2117:
  8470                           
  8471                           ;port.c: 95:     if (_value <= 0x0F) {
  8472  1DAF  3010               	movlw	16
  8473  1DB0  0273               	subwf	PORT_Choose_Mux@_value,w
  8474  1DB1  1803               	skipnc
  8475  1DB2  2DB4               	goto	u2961
  8476  1DB3  2DB5               	goto	u2960
  8477  1DB4                     u2961:
  8478  1DB4  2DBF               	goto	l148
  8479  1DB5                     u2960:
  8480  1DB5                     l2119:
  8481                           
  8482                           ;port.c: 96:         PORTD &= 0xF0;
  8483  1DB5  30F0               	movlw	240
  8484  1DB6  00FF               	movwf	btemp+1
  8485  1DB7  087F               	movf	btemp+1,w
  8486  1DB8  1283               	bcf	3,5	;RP0=0, select bank0
  8487  1DB9  1303               	bcf	3,6	;RP1=0, select bank0
  8488  1DBA  0588               	andwf	8,f	;volatile
  8489                           
  8490                           ;port.c: 97:         PORTD |= _value;
  8491  1DBB  0873               	movf	PORT_Choose_Mux@_value,w	;volatile
  8492  1DBC  00FF               	movwf	btemp+1
  8493  1DBD  087F               	movf	btemp+1,w
  8494  1DBE  0488               	iorwf	8,f	;volatile
  8495  1DBF                     l148:
  8496  1DBF  0008               	return
  8497  1DC0                     __end_of_PORT_Choose_Mux:
  8498                           
  8499                           	psect	text34
  8500  10BD                     __ptext34:	
  8501 ;; *************** function _isr *****************
  8502 ;; Defined at:
  8503 ;;		line 78 in file "timer.c"
  8504 ;; Parameters:    Size  Location     Type
  8505 ;;		None
  8506 ;; Auto vars:     Size  Location     Type
  8507 ;;		None
  8508 ;; Return value:  Size  Location     Type
  8509 ;;                  1    wreg      void 
  8510 ;; Registers used:
  8511 ;;		None
  8512 ;; Tracked objects:
  8513 ;;		On entry : 0/0
  8514 ;;		On exit  : 0/0
  8515 ;;		Unchanged: 0/0
  8516 ;; Data sizes:     COMMON   BANK0   BANK1   BANK3   BANK2
  8517 ;;      Params:         0       0       0       0       0
  8518 ;;      Locals:         0       0       0       0       0
  8519 ;;      Temps:          2       0       0       0       0
  8520 ;;      Totals:         2       0       0       0       0
  8521 ;;Total ram usage:        2 bytes
  8522 ;; Hardware stack levels used:    1
  8523 ;; This function calls:
  8524 ;;		Nothing
  8525 ;; This function is called by:
  8526 ;;		Interrupt level 1
  8527 ;; This function uses a non-reentrant model
  8528 ;;
  8529                           
  8530                           
  8531                           ;psect for function _isr
  8532  10BD                     _isr:
  8533  10BD                     i1l3039:
  8534                           
  8535                           ;timer.c: 85: if (TMR1IF)
  8536  10BD  1283               	bcf	3,5	;RP0=0, select bank0
  8537  10BE  1303               	bcf	3,6	;RP1=0, select bank0
  8538  10BF  1C0C               	btfss	12,0	;volatile
  8539  10C0  28C2               	goto	u489_21
  8540  10C1  28C3               	goto	u489_20
  8541  10C2                     u489_21:
  8542  10C2  28CA               	goto	i1l217
  8543  10C3                     u489_20:
  8544  10C3                     i1l3041:
  8545                           
  8546                           ;timer.c: 86:      {;timer.c: 88:      Fincompt1 = 1;
  8547  10C3  1683               	bsf	3,5	;RP0=1, select bank1
  8548  10C4  1303               	bcf	3,6	;RP1=0, select bank1
  8549  10C5  01E5               	clrf	_Fincompt1^(0+128)
  8550  10C6  0AE5               	incf	_Fincompt1^(0+128),f
  8551                           
  8552                           ;timer.c: 91:      TMR1IF=0;
  8553  10C7  1283               	bcf	3,5	;RP0=0, select bank0
  8554  10C8  1303               	bcf	3,6	;RP1=0, select bank0
  8555  10C9  100C               	bcf	12,0	;volatile
  8556  10CA                     i1l217:	
  8557                           ;timer.c: 92:      }
  8558                           
  8559                           
  8560                           ;timer.c: 94: if (TMRAIF)
  8561  10CA  1E0D               	btfss	13,4	;volatile
  8562  10CB  28CD               	goto	u490_21
  8563  10CC  28CE               	goto	u490_20
  8564  10CD                     u490_21:
  8565  10CD  28CF               	goto	i1l219
  8566  10CE                     u490_20:
  8567  10CE                     i1l3043:
  8568                           
  8569                           ;timer.c: 95:      {;timer.c: 100:      TMRAIF=0;
  8570  10CE  120D               	bcf	13,4	;volatile
  8571  10CF                     i1l219:
  8572  10CF  0872               	movf	??_isr+1,w
  8573  10D0  008A               	movwf	10
  8574  10D1  0E71               	swapf	??_isr^(0+4294967168),w
  8575  10D2  0083               	movwf	3
  8576  10D3  0EFE               	swapf	btemp,f
  8577  10D4  0E7E               	swapf	btemp,w
  8578  10D5  0009               	retfie
  8579  10D6                     __end_of_isr:
  8580  007E                     btemp	set	126	;btemp
  8581  007E                     wtemp0	set	126
  8582                           
  8583                           	psect	intentry
  8584  0004                     __pintentry:	
  8585                           ;incstack = 0
  8586                           ; Regs used in _isr: []
  8587                           
  8588  0004                     interrupt_function:
  8589  007E                     saved_w	set	btemp
  8590  0004  00FE               	movwf	btemp
  8591  0005  0E03               	swapf	3,w
  8592  0006  00F1               	movwf	??_isr
  8593  0007  080A               	movf	10,w
  8594  0008  00F2               	movwf	??_isr+1
  8595  0009  160A  118A  28BD   	ljmp	_isr
  8596                           
  8597                           	psect	config
  8598                           
  8599                           ;Config register CONFIG @ 0x2007
  8600                           ;	Oscillator Selection bits
  8601                           ;	FOSC = INTOSC, INTOSC oscillator: CLKOUT function on RA6/OSC2/CLKOUT pin, I/O function
      +                            on RA7/OSC1/CLKIN
  8602                           ;	Watchdog Timer Enable bit
  8603                           ;	WDTE = OFF, WDT disabled and can be enabled by SWDTEN bit of the WDTCON register
  8604                           ;	Power-up Timer Enable bit
  8605                           ;	PWRTE = OFF, PWRT disabled
  8606                           ;	RE3/MCLR Pin Function Select bit
  8607                           ;	MCLRE = ON, RE3/MCLR pin function is MCLR
  8608                           ;	Code Protection bit
  8609                           ;	CP = OFF, Program memory code protection is disabled
  8610                           ;	Brown-out Reset Selection bits
  8611                           ;	BOREN = ON, BOR enabled
  8612                           ;	Brown-out Reset Voltage Selection bit
  8613                           ;	BORV = 19, Brown-out Reset Voltage (VBOR) set to 1.9 V nominal
  8614                           ;	INTOSC PLLEN Enable Bit
  8615                           ;	PLLEN = ON, INTOSC Frequency is 16 MHz (32x)
  8616  2007                     	org	8199
  8617  2007  3FF5               	dw	16373
  8618                           
  8619                           ;Config register CONFIG2 @ 0x2008
  8620                           ;	Voltage Regulator Capacitor Enable bits
  8621                           ;	VCAPEN = OFF, All VCAP pin functions are disabled
  8622  2008                     	org	8200
  8623  2008  FFFF               	dw	65535
  8624                           
  8625                           	psect	text13_split_1
  8626  0366                     l2835:
  8627  0366  301D               	movlw	low (((conversion_newton@R_tab+28)-__stringbase)| (0+32768))
  8628  0367  0084               	movwf	4
  8629  0368  160A  118A  2000  120A  118A  	fcall	stringdir
  8630  036D  1683               	bsf	3,5	;RP0=1, select bank1
  8631  036E  1303               	bcf	3,6	;RP1=0, select bank1
  8632  036F  00A4               	movwf	??_conversion_newton^(0+128)
  8633  0370  160A  118A  2000  120A  118A  	fcall	stringdir
  8634  0375  00A5               	movwf	(??_conversion_newton^(0+128)+1)
  8635  0376  160A  118A  2000  120A  118A  	fcall	stringdir
  8636  037B  00A6               	movwf	(??_conversion_newton^(0+128)+2)
  8637  037C  160A  118A  2000  120A  118A  	fcall	stringdir
  8638  0381  00A7               	movwf	(??_conversion_newton^(0+128)+3)
  8639  0382  0827               	movf	(??_conversion_newton+3)^(0+128),w
  8640  0383  00F6               	movwf	___flge@ff1+3
  8641  0384  0826               	movf	(??_conversion_newton+2)^(0+128),w
  8642  0385  00F5               	movwf	___flge@ff1+2
  8643  0386  0825               	movf	(??_conversion_newton+1)^(0+128),w
  8644  0387  00F4               	movwf	___flge@ff1+1
  8645  0388  0824               	movf	??_conversion_newton^(0+128),w
  8646  0389  00F3               	movwf	___flge@ff1
  8647  038A  0823               	movf	(conversion_newton@Rc+3)^(0+128),w
  8648  038B  00FA               	movwf	___flge@ff2+3
  8649  038C  0822               	movf	(conversion_newton@Rc+2)^(0+128),w
  8650  038D  00F9               	movwf	___flge@ff2+2
  8651  038E  0821               	movf	(conversion_newton@Rc+1)^(0+128),w
  8652  038F  00F8               	movwf	___flge@ff2+1
  8653  0390  0820               	movf	conversion_newton@Rc^(0+128),w
  8654  0391  00F7               	movwf	___flge@ff2
  8655  0392  160A  118A  2525  120A  118A  	fcall	___flge
  8656  0397  1C03               	btfss	3,0
  8657  0398  2B9A               	goto	u4611
  8658  0399  2B9B               	goto	u4610
  8659  039A                     u4611:
  8660  039A  2BD7               	goto	l2841
  8661  039B                     u4610:
  8662  039B                     l2837:
  8663  039B  3019               	movlw	low (((conversion_newton@R_tab+24)-__stringbase)| (0+32768))
  8664  039C  0084               	movwf	4
  8665  039D  160A  118A  2000  120A  118A  	fcall	stringdir
  8666  03A2  1683               	bsf	3,5	;RP0=1, select bank1
  8667  03A3  1303               	bcf	3,6	;RP1=0, select bank1
  8668  03A4  00A4               	movwf	??_conversion_newton^(0+128)
  8669  03A5  160A  118A  2000  120A  118A  	fcall	stringdir
  8670  03AA  00A5               	movwf	(??_conversion_newton^(0+128)+1)
  8671  03AB  160A  118A  2000  120A  118A  	fcall	stringdir
  8672  03B0  00A6               	movwf	(??_conversion_newton^(0+128)+2)
  8673  03B1  160A  118A  2000  120A  118A  	fcall	stringdir
  8674  03B6  00A7               	movwf	(??_conversion_newton^(0+128)+3)
  8675  03B7  0827               	movf	(??_conversion_newton+3)^(0+128),w
  8676  03B8  00F6               	movwf	___flge@ff1+3
  8677  03B9  0826               	movf	(??_conversion_newton+2)^(0+128),w
  8678  03BA  00F5               	movwf	___flge@ff1+2
  8679  03BB  0825               	movf	(??_conversion_newton+1)^(0+128),w
  8680  03BC  00F4               	movwf	___flge@ff1+1
  8681  03BD  0824               	movf	??_conversion_newton^(0+128),w
  8682  03BE  00F3               	movwf	___flge@ff1
  8683  03BF  0823               	movf	(conversion_newton@Rc+3)^(0+128),w
  8684  03C0  00FA               	movwf	___flge@ff2+3
  8685  03C1  0822               	movf	(conversion_newton@Rc+2)^(0+128),w
  8686  03C2  00F9               	movwf	___flge@ff2+2
  8687  03C3  0821               	movf	(conversion_newton@Rc+1)^(0+128),w
  8688  03C4  00F8               	movwf	___flge@ff2+1
  8689  03C5  0820               	movf	conversion_newton@Rc^(0+128),w
  8690  03C6  00F7               	movwf	___flge@ff2
  8691  03C7  160A  118A  2525  120A  118A  	fcall	___flge
  8692  03CC  1803               	btfsc	3,0
  8693  03CD  2BCF               	goto	u4621
  8694  03CE  2BD0               	goto	u4620
  8695  03CF                     u4621:
  8696  03CF  2BD7               	goto	l2841
  8697  03D0                     u4620:
  8698  03D0                     l2839:
  8699                           
  8700                           ;main.c: 159:          {;main.c: 160:          n = 6;
  8701  03D0  3006               	movlw	6
  8702  03D1  1683               	bsf	3,5	;RP0=1, select bank1
  8703  03D2  1303               	bcf	3,6	;RP1=0, select bank1
  8704  03D3  00C5               	movwf	conversion_newton@n^(0+128)
  8705  03D4  3000               	movlw	0
  8706  03D5  00C6               	movwf	(conversion_newton@n^(0+128)+1)
  8707                           
  8708                           ;main.c: 161:          }
  8709  03D6  2D66               	goto	l2863
  8710  03D7                     l2841:
  8711  03D7  3021               	movlw	low (((conversion_newton@R_tab+32)-__stringbase)| (0+32768))
  8712  03D8  0084               	movwf	4
  8713  03D9  160A  118A  2000  120A  118A  	fcall	stringdir
  8714  03DE  1683               	bsf	3,5	;RP0=1, select bank1
  8715  03DF  1303               	bcf	3,6	;RP1=0, select bank1
  8716  03E0  00A4               	movwf	??_conversion_newton^(0+128)
  8717  03E1  160A  118A  2000  120A  118A  	fcall	stringdir
  8718  03E6  00A5               	movwf	(??_conversion_newton^(0+128)+1)
  8719  03E7  160A  118A  2000  120A  118A  	fcall	stringdir
  8720  03EC  00A6               	movwf	(??_conversion_newton^(0+128)+2)
  8721  03ED  160A  118A  2000  120A  118A  	fcall	stringdir
  8722  03F2  00A7               	movwf	(??_conversion_newton^(0+128)+3)
  8723  03F3  0827               	movf	(??_conversion_newton+3)^(0+128),w
  8724  03F4  00F6               	movwf	___flge@ff1+3
  8725  03F5  0826               	movf	(??_conversion_newton+2)^(0+128),w
  8726  03F6  00F5               	movwf	___flge@ff1+2
  8727  03F7  0825               	movf	(??_conversion_newton+1)^(0+128),w
  8728  03F8  00F4               	movwf	___flge@ff1+1
  8729  03F9  0824               	movf	??_conversion_newton^(0+128),w
  8730  03FA  00F3               	movwf	___flge@ff1
  8731  03FB  0823               	movf	(conversion_newton@Rc+3)^(0+128),w
  8732  03FC  00FA               	movwf	___flge@ff2+3
  8733  03FD  0822               	movf	(conversion_newton@Rc+2)^(0+128),w
  8734  03FE  00F9               	movwf	___flge@ff2+2
  8735  03FF  0821               	movf	(conversion_newton@Rc+1)^(0+128),w
  8736  0400  00F8               	movwf	___flge@ff2+1
  8737  0401  0820               	movf	conversion_newton@Rc^(0+128),w
  8738  0402  00F7               	movwf	___flge@ff2
  8739  0403  160A  118A  2525  120A  118A  	fcall	___flge
  8740  0408  1C03               	btfss	3,0
  8741  0409  2C0B               	goto	u4631
  8742  040A  2C0C               	goto	u4630
  8743  040B                     u4631:
  8744  040B  2C48               	goto	l2847
  8745  040C                     u4630:
  8746  040C                     l2843:
  8747  040C  301D               	movlw	low (((conversion_newton@R_tab+28)-__stringbase)| (0+32768))
  8748  040D  0084               	movwf	4
  8749  040E  160A  118A  2000  120A  118A  	fcall	stringdir
  8750  0413  1683               	bsf	3,5	;RP0=1, select bank1
  8751  0414  1303               	bcf	3,6	;RP1=0, select bank1
  8752  0415  00A4               	movwf	??_conversion_newton^(0+128)
  8753  0416  160A  118A  2000  120A  118A  	fcall	stringdir
  8754  041B  00A5               	movwf	(??_conversion_newton^(0+128)+1)
  8755  041C  160A  118A  2000  120A  118A  	fcall	stringdir
  8756  0421  00A6               	movwf	(??_conversion_newton^(0+128)+2)
  8757  0422  160A  118A  2000  120A  118A  	fcall	stringdir
  8758  0427  00A7               	movwf	(??_conversion_newton^(0+128)+3)
  8759  0428  0827               	movf	(??_conversion_newton+3)^(0+128),w
  8760  0429  00F6               	movwf	___flge@ff1+3
  8761  042A  0826               	movf	(??_conversion_newton+2)^(0+128),w
  8762  042B  00F5               	movwf	___flge@ff1+2
  8763  042C  0825               	movf	(??_conversion_newton+1)^(0+128),w
  8764  042D  00F4               	movwf	___flge@ff1+1
  8765  042E  0824               	movf	??_conversion_newton^(0+128),w
  8766  042F  00F3               	movwf	___flge@ff1
  8767  0430  0823               	movf	(conversion_newton@Rc+3)^(0+128),w
  8768  0431  00FA               	movwf	___flge@ff2+3
  8769  0432  0822               	movf	(conversion_newton@Rc+2)^(0+128),w
  8770  0433  00F9               	movwf	___flge@ff2+2
  8771  0434  0821               	movf	(conversion_newton@Rc+1)^(0+128),w
  8772  0435  00F8               	movwf	___flge@ff2+1
  8773  0436  0820               	movf	conversion_newton@Rc^(0+128),w
  8774  0437  00F7               	movwf	___flge@ff2
  8775  0438  160A  118A  2525  120A  118A  	fcall	___flge
  8776  043D  1803               	btfsc	3,0
  8777  043E  2C40               	goto	u4641
  8778  043F  2C41               	goto	u4640
  8779  0440                     u4641:
  8780  0440  2C48               	goto	l2847
  8781  0441                     u4640:
  8782  0441                     l2845:
  8783                           
  8784                           ;main.c: 163:          {;main.c: 164:          n = 7;
  8785  0441  3007               	movlw	7
  8786  0442  1683               	bsf	3,5	;RP0=1, select bank1
  8787  0443  1303               	bcf	3,6	;RP1=0, select bank1
  8788  0444  00C5               	movwf	conversion_newton@n^(0+128)
  8789  0445  3000               	movlw	0
  8790  0446  00C6               	movwf	(conversion_newton@n^(0+128)+1)
  8791                           
  8792                           ;main.c: 165:          }
  8793  0447  2D66               	goto	l2863
  8794  0448                     l2847:
  8795  0448  3025               	movlw	low (((conversion_newton@R_tab+36)-__stringbase)| (0+32768))
  8796  0449  0084               	movwf	4
  8797  044A  160A  118A  2000  120A  118A  	fcall	stringdir
  8798  044F  1683               	bsf	3,5	;RP0=1, select bank1
  8799  0450  1303               	bcf	3,6	;RP1=0, select bank1
  8800  0451  00A4               	movwf	??_conversion_newton^(0+128)
  8801  0452  160A  118A  2000  120A  118A  	fcall	stringdir
  8802  0457  00A5               	movwf	(??_conversion_newton^(0+128)+1)
  8803  0458  160A  118A  2000  120A  118A  	fcall	stringdir
  8804  045D  00A6               	movwf	(??_conversion_newton^(0+128)+2)
  8805  045E  160A  118A  2000  120A  118A  	fcall	stringdir
  8806  0463  00A7               	movwf	(??_conversion_newton^(0+128)+3)
  8807  0464  0827               	movf	(??_conversion_newton+3)^(0+128),w
  8808  0465  00F6               	movwf	___flge@ff1+3
  8809  0466  0826               	movf	(??_conversion_newton+2)^(0+128),w
  8810  0467  00F5               	movwf	___flge@ff1+2
  8811  0468  0825               	movf	(??_conversion_newton+1)^(0+128),w
  8812  0469  00F4               	movwf	___flge@ff1+1
  8813  046A  0824               	movf	??_conversion_newton^(0+128),w
  8814  046B  00F3               	movwf	___flge@ff1
  8815  046C  0823               	movf	(conversion_newton@Rc+3)^(0+128),w
  8816  046D  00FA               	movwf	___flge@ff2+3
  8817  046E  0822               	movf	(conversion_newton@Rc+2)^(0+128),w
  8818  046F  00F9               	movwf	___flge@ff2+2
  8819  0470  0821               	movf	(conversion_newton@Rc+1)^(0+128),w
  8820  0471  00F8               	movwf	___flge@ff2+1
  8821  0472  0820               	movf	conversion_newton@Rc^(0+128),w
  8822  0473  00F7               	movwf	___flge@ff2
  8823  0474  160A  118A  2525  120A  118A  	fcall	___flge
  8824  0479  1C03               	btfss	3,0
  8825  047A  2C7C               	goto	u4651
  8826  047B  2C7D               	goto	u4650
  8827  047C                     u4651:
  8828  047C  2CB9               	goto	l2853
  8829  047D                     u4650:
  8830  047D                     l2849:
  8831  047D  3021               	movlw	low (((conversion_newton@R_tab+32)-__stringbase)| (0+32768))
  8832  047E  0084               	movwf	4
  8833  047F  160A  118A  2000  120A  118A  	fcall	stringdir
  8834  0484  1683               	bsf	3,5	;RP0=1, select bank1
  8835  0485  1303               	bcf	3,6	;RP1=0, select bank1
  8836  0486  00A4               	movwf	??_conversion_newton^(0+128)
  8837  0487  160A  118A  2000  120A  118A  	fcall	stringdir
  8838  048C  00A5               	movwf	(??_conversion_newton^(0+128)+1)
  8839  048D  160A  118A  2000  120A  118A  	fcall	stringdir
  8840  0492  00A6               	movwf	(??_conversion_newton^(0+128)+2)
  8841  0493  160A  118A  2000  120A  118A  	fcall	stringdir
  8842  0498  00A7               	movwf	(??_conversion_newton^(0+128)+3)
  8843  0499  0827               	movf	(??_conversion_newton+3)^(0+128),w
  8844  049A  00F6               	movwf	___flge@ff1+3
  8845  049B  0826               	movf	(??_conversion_newton+2)^(0+128),w
  8846  049C  00F5               	movwf	___flge@ff1+2
  8847  049D  0825               	movf	(??_conversion_newton+1)^(0+128),w
  8848  049E  00F4               	movwf	___flge@ff1+1
  8849  049F  0824               	movf	??_conversion_newton^(0+128),w
  8850  04A0  00F3               	movwf	___flge@ff1
  8851  04A1  0823               	movf	(conversion_newton@Rc+3)^(0+128),w
  8852  04A2  00FA               	movwf	___flge@ff2+3
  8853  04A3  0822               	movf	(conversion_newton@Rc+2)^(0+128),w
  8854  04A4  00F9               	movwf	___flge@ff2+2
  8855  04A5  0821               	movf	(conversion_newton@Rc+1)^(0+128),w
  8856  04A6  00F8               	movwf	___flge@ff2+1
  8857  04A7  0820               	movf	conversion_newton@Rc^(0+128),w
  8858  04A8  00F7               	movwf	___flge@ff2
  8859  04A9  160A  118A  2525  120A  118A  	fcall	___flge
  8860  04AE  1803               	btfsc	3,0
  8861  04AF  2CB1               	goto	u4661
  8862  04B0  2CB2               	goto	u4660
  8863  04B1                     u4661:
  8864  04B1  2CB9               	goto	l2853
  8865  04B2                     u4660:
  8866  04B2                     l2851:
  8867                           
  8868                           ;main.c: 167:          {;main.c: 168:          n = 8;
  8869  04B2  3008               	movlw	8
  8870  04B3  1683               	bsf	3,5	;RP0=1, select bank1
  8871  04B4  1303               	bcf	3,6	;RP1=0, select bank1
  8872  04B5  00C5               	movwf	conversion_newton@n^(0+128)
  8873  04B6  3000               	movlw	0
  8874  04B7  00C6               	movwf	(conversion_newton@n^(0+128)+1)
  8875                           
  8876                           ;main.c: 169:          }
  8877  04B8  2D66               	goto	l2863
  8878  04B9                     l2853:
  8879  04B9  3029               	movlw	low (((conversion_newton@R_tab+40)-__stringbase)| (0+32768))
  8880  04BA  0084               	movwf	4
  8881  04BB  160A  118A  2000  120A  118A  	fcall	stringdir
  8882  04C0  1683               	bsf	3,5	;RP0=1, select bank1
  8883  04C1  1303               	bcf	3,6	;RP1=0, select bank1
  8884  04C2  00A4               	movwf	??_conversion_newton^(0+128)
  8885  04C3  160A  118A  2000  120A  118A  	fcall	stringdir
  8886  04C8  00A5               	movwf	(??_conversion_newton^(0+128)+1)
  8887  04C9  160A  118A  2000  120A  118A  	fcall	stringdir
  8888  04CE  00A6               	movwf	(??_conversion_newton^(0+128)+2)
  8889  04CF  160A  118A  2000  120A  118A  	fcall	stringdir
  8890  04D4  00A7               	movwf	(??_conversion_newton^(0+128)+3)
  8891  04D5  0827               	movf	(??_conversion_newton+3)^(0+128),w
  8892  04D6  00F6               	movwf	___flge@ff1+3
  8893  04D7  0826               	movf	(??_conversion_newton+2)^(0+128),w
  8894  04D8  00F5               	movwf	___flge@ff1+2
  8895  04D9  0825               	movf	(??_conversion_newton+1)^(0+128),w
  8896  04DA  00F4               	movwf	___flge@ff1+1
  8897  04DB  0824               	movf	??_conversion_newton^(0+128),w
  8898  04DC  00F3               	movwf	___flge@ff1
  8899  04DD  0823               	movf	(conversion_newton@Rc+3)^(0+128),w
  8900  04DE  00FA               	movwf	___flge@ff2+3
  8901  04DF  0822               	movf	(conversion_newton@Rc+2)^(0+128),w
  8902  04E0  00F9               	movwf	___flge@ff2+2
  8903  04E1  0821               	movf	(conversion_newton@Rc+1)^(0+128),w
  8904  04E2  00F8               	movwf	___flge@ff2+1
  8905  04E3  0820               	movf	conversion_newton@Rc^(0+128),w
  8906  04E4  00F7               	movwf	___flge@ff2
  8907  04E5  160A  118A  2525  120A  118A  	fcall	___flge
  8908  04EA  1C03               	btfss	3,0
  8909  04EB  2CED               	goto	u4671
  8910  04EC  2CEE               	goto	u4670
  8911  04ED                     u4671:
  8912  04ED  2D2A               	goto	l2859
  8913  04EE                     u4670:
  8914  04EE                     l2855:
  8915  04EE  3025               	movlw	low (((conversion_newton@R_tab+36)-__stringbase)| (0+32768))
  8916  04EF  0084               	movwf	4
  8917  04F0  160A  118A  2000  120A  118A  	fcall	stringdir
  8918  04F5  1683               	bsf	3,5	;RP0=1, select bank1
  8919  04F6  1303               	bcf	3,6	;RP1=0, select bank1
  8920  04F7  00A4               	movwf	??_conversion_newton^(0+128)
  8921  04F8  160A  118A  2000  120A  118A  	fcall	stringdir
  8922  04FD  00A5               	movwf	(??_conversion_newton^(0+128)+1)
  8923  04FE  160A  118A  2000  120A  118A  	fcall	stringdir
  8924  0503  00A6               	movwf	(??_conversion_newton^(0+128)+2)
  8925  0504  160A  118A  2000  120A  118A  	fcall	stringdir
  8926  0509  00A7               	movwf	(??_conversion_newton^(0+128)+3)
  8927  050A  0827               	movf	(??_conversion_newton+3)^(0+128),w
  8928  050B  00F6               	movwf	___flge@ff1+3
  8929  050C  0826               	movf	(??_conversion_newton+2)^(0+128),w
  8930  050D  00F5               	movwf	___flge@ff1+2
  8931  050E  0825               	movf	(??_conversion_newton+1)^(0+128),w
  8932  050F  00F4               	movwf	___flge@ff1+1
  8933  0510  0824               	movf	??_conversion_newton^(0+128),w
  8934  0511  00F3               	movwf	___flge@ff1
  8935  0512  0823               	movf	(conversion_newton@Rc+3)^(0+128),w
  8936  0513  00FA               	movwf	___flge@ff2+3
  8937  0514  0822               	movf	(conversion_newton@Rc+2)^(0+128),w
  8938  0515  00F9               	movwf	___flge@ff2+2
  8939  0516  0821               	movf	(conversion_newton@Rc+1)^(0+128),w
  8940  0517  00F8               	movwf	___flge@ff2+1
  8941  0518  0820               	movf	conversion_newton@Rc^(0+128),w
  8942  0519  00F7               	movwf	___flge@ff2
  8943  051A  160A  118A  2525  120A  118A  	fcall	___flge
  8944  051F  1803               	btfsc	3,0
  8945  0520  2D22               	goto	u4681
  8946  0521  2D23               	goto	u4680
  8947  0522                     u4681:
  8948  0522  2D2A               	goto	l2859
  8949  0523                     u4680:
  8950  0523                     l2857:
  8951                           
  8952                           ;main.c: 171:          {;main.c: 172:          n = 9;
  8953  0523  3009               	movlw	9
  8954  0524  1683               	bsf	3,5	;RP0=1, select bank1
  8955  0525  1303               	bcf	3,6	;RP1=0, select bank1
  8956  0526  00C5               	movwf	conversion_newton@n^(0+128)
  8957  0527  3000               	movlw	0
  8958  0528  00C6               	movwf	(conversion_newton@n^(0+128)+1)
  8959                           
  8960                           ;main.c: 173:          }
  8961  0529  2D66               	goto	l2863
  8962  052A                     l2859:
  8963  052A  3029               	movlw	low (((conversion_newton@R_tab+40)-__stringbase)| (0+32768))
  8964  052B  0084               	movwf	4
  8965  052C  160A  118A  2000  120A  118A  	fcall	stringdir
  8966  0531  1683               	bsf	3,5	;RP0=1, select bank1
  8967  0532  1303               	bcf	3,6	;RP1=0, select bank1
  8968  0533  00A4               	movwf	??_conversion_newton^(0+128)
  8969  0534  160A  118A  2000  120A  118A  	fcall	stringdir
  8970  0539  00A5               	movwf	(??_conversion_newton^(0+128)+1)
  8971  053A  160A  118A  2000  120A  118A  	fcall	stringdir
  8972  053F  00A6               	movwf	(??_conversion_newton^(0+128)+2)
  8973  0540  160A  118A  2000  120A  118A  	fcall	stringdir
  8974  0545  00A7               	movwf	(??_conversion_newton^(0+128)+3)
  8975  0546  0827               	movf	(??_conversion_newton+3)^(0+128),w
  8976  0547  00F6               	movwf	___flge@ff1+3
  8977  0548  0826               	movf	(??_conversion_newton+2)^(0+128),w
  8978  0549  00F5               	movwf	___flge@ff1+2
  8979  054A  0825               	movf	(??_conversion_newton+1)^(0+128),w
  8980  054B  00F4               	movwf	___flge@ff1+1
  8981  054C  0824               	movf	??_conversion_newton^(0+128),w
  8982  054D  00F3               	movwf	___flge@ff1
  8983  054E  0823               	movf	(conversion_newton@Rc+3)^(0+128),w
  8984  054F  00FA               	movwf	___flge@ff2+3
  8985  0550  0822               	movf	(conversion_newton@Rc+2)^(0+128),w
  8986  0551  00F9               	movwf	___flge@ff2+2
  8987  0552  0821               	movf	(conversion_newton@Rc+1)^(0+128),w
  8988  0553  00F8               	movwf	___flge@ff2+1
  8989  0554  0820               	movf	conversion_newton@Rc^(0+128),w
  8990  0555  00F7               	movwf	___flge@ff2
  8991  0556  160A  118A  2525  120A  118A  	fcall	___flge
  8992  055B  1803               	btfsc	3,0
  8993  055C  2D5E               	goto	u4691
  8994  055D  2D5F               	goto	u4690
  8995  055E                     u4691:
  8996  055E  2D66               	goto	l64
  8997  055F                     u4690:
  8998  055F                     l2861:
  8999                           
  9000                           ;main.c: 175:          {;main.c: 176:          n = 10;
  9001  055F  300A               	movlw	10
  9002  0560  1683               	bsf	3,5	;RP0=1, select bank1
  9003  0561  1303               	bcf	3,6	;RP1=0, select bank1
  9004  0562  00C5               	movwf	conversion_newton@n^(0+128)
  9005  0563  3000               	movlw	0
  9006  0564  00C6               	movwf	(conversion_newton@n^(0+128)+1)
  9007  0565  2D66               	goto	l2863
  9008  0566                     l64:
  9009  0566                     l2863:
  9010                           
  9011                           ;main.c: 178:      F = (((F_tab[n]-F_tab[n+1])/(R_tab[n+1]-R_tab[n]))*(Rc-R_tab[n]))+F_t
      +                          ab[n];
  9012  0566  1683               	bsf	3,5	;RP0=1, select bank1
  9013  0567  1303               	bcf	3,6	;RP1=0, select bank1
  9014  0568  0845               	movf	conversion_newton@n^(0+128),w
  9015  0569  00A4               	movwf	??_conversion_newton^(0+128)
  9016  056A  3001               	movlw	1
  9017  056B                     u4705:
  9018  056B  1003               	clrc
  9019  056C  0DA4               	rlf	??_conversion_newton^(0+128),f
  9020  056D  3EFF               	addlw	-1
  9021  056E  1D03               	skipz
  9022  056F  2D6B               	goto	u4705
  9023  0570  1003               	clrc
  9024  0571  0D24               	rlf	??_conversion_newton^(0+128),w
  9025  0572  3E01               	addlw	low ((conversion_newton@R_tab-__stringbase)| (0+32768))
  9026  0573  0084               	movwf	4
  9027  0574  160A  118A  2000  120A  118A  	fcall	stringdir
  9028  0579  00A5               	movwf	(??_conversion_newton+1)^(0+128)
  9029  057A  160A  118A  2000  120A  118A  	fcall	stringdir
  9030  057F  00A6               	movwf	((??_conversion_newton+1)^(0+128)+1)
  9031  0580  160A  118A  2000  120A  118A  	fcall	stringdir
  9032  0585  00A7               	movwf	((??_conversion_newton+1)^(0+128)+2)
  9033  0586  160A  118A  2000  120A  118A  	fcall	stringdir
  9034  058B  00A8               	movwf	((??_conversion_newton+1)^(0+128)+3)
  9035  058C  0828               	movf	(??_conversion_newton+4)^(0+128),w
  9036  058D  1283               	bcf	3,5	;RP0=0, select bank0
  9037  058E  1303               	bcf	3,6	;RP1=0, select bank0
  9038  058F  00B7               	movwf	___flsub@a+3
  9039  0590  1683               	bsf	3,5	;RP0=1, select bank1
  9040  0591  1303               	bcf	3,6	;RP1=0, select bank1
  9041  0592  0827               	movf	(??_conversion_newton+3)^(0+128),w
  9042  0593  1283               	bcf	3,5	;RP0=0, select bank0
  9043  0594  1303               	bcf	3,6	;RP1=0, select bank0
  9044  0595  00B6               	movwf	___flsub@a+2
  9045  0596  1683               	bsf	3,5	;RP0=1, select bank1
  9046  0597  1303               	bcf	3,6	;RP1=0, select bank1
  9047  0598  0826               	movf	(??_conversion_newton+2)^(0+128),w
  9048  0599  1283               	bcf	3,5	;RP0=0, select bank0
  9049  059A  1303               	bcf	3,6	;RP1=0, select bank0
  9050  059B  00B5               	movwf	___flsub@a+1
  9051  059C  1683               	bsf	3,5	;RP0=1, select bank1
  9052  059D  1303               	bcf	3,6	;RP1=0, select bank1
  9053  059E  0825               	movf	(??_conversion_newton+1)^(0+128),w
  9054  059F  1283               	bcf	3,5	;RP0=0, select bank0
  9055  05A0  1303               	bcf	3,6	;RP1=0, select bank0
  9056  05A1  00B4               	movwf	___flsub@a
  9057  05A2  1683               	bsf	3,5	;RP0=1, select bank1
  9058  05A3  1303               	bcf	3,6	;RP1=0, select bank1
  9059  05A4  0823               	movf	(conversion_newton@Rc+3)^(0+128),w
  9060  05A5  1283               	bcf	3,5	;RP0=0, select bank0
  9061  05A6  1303               	bcf	3,6	;RP1=0, select bank0
  9062  05A7  00BB               	movwf	___flsub@b+3
  9063  05A8  1683               	bsf	3,5	;RP0=1, select bank1
  9064  05A9  1303               	bcf	3,6	;RP1=0, select bank1
  9065  05AA  0822               	movf	(conversion_newton@Rc+2)^(0+128),w
  9066  05AB  1283               	bcf	3,5	;RP0=0, select bank0
  9067  05AC  1303               	bcf	3,6	;RP1=0, select bank0
  9068  05AD  00BA               	movwf	___flsub@b+2
  9069  05AE  1683               	bsf	3,5	;RP0=1, select bank1
  9070  05AF  1303               	bcf	3,6	;RP1=0, select bank1
  9071  05B0  0821               	movf	(conversion_newton@Rc+1)^(0+128),w
  9072  05B1  1283               	bcf	3,5	;RP0=0, select bank0
  9073  05B2  1303               	bcf	3,6	;RP1=0, select bank0
  9074  05B3  00B9               	movwf	___flsub@b+1
  9075  05B4  1683               	bsf	3,5	;RP0=1, select bank1
  9076  05B5  1303               	bcf	3,6	;RP1=0, select bank1
  9077  05B6  0820               	movf	conversion_newton@Rc^(0+128),w
  9078  05B7  1283               	bcf	3,5	;RP0=0, select bank0
  9079  05B8  1303               	bcf	3,6	;RP1=0, select bank0
  9080  05B9  00B8               	movwf	___flsub@b
  9081  05BA  160A  158A  25D2  120A  118A  	fcall	___flsub
  9082  05BF  1283               	bcf	3,5	;RP0=0, select bank0
  9083  05C0  1303               	bcf	3,6	;RP1=0, select bank0
  9084  05C1  0837               	movf	?___flsub+3,w
  9085  05C2  00D9               	movwf	___flmul@b+3
  9086  05C3  0836               	movf	?___flsub+2,w
  9087  05C4  00D8               	movwf	___flmul@b+2
  9088  05C5  0835               	movf	?___flsub+1,w
  9089  05C6  00D7               	movwf	___flmul@b+1
  9090  05C7  0834               	movf	?___flsub,w
  9091  05C8  00D6               	movwf	___flmul@b
  9092  05C9  1683               	bsf	3,5	;RP0=1, select bank1
  9093  05CA  1303               	bcf	3,6	;RP1=0, select bank1
  9094  05CB  0845               	movf	conversion_newton@n^(0+128),w
  9095  05CC  00A9               	movwf	(??_conversion_newton+5)^(0+128)
  9096  05CD  3001               	movlw	1
  9097  05CE                     u4715:
  9098  05CE  1003               	clrc
  9099  05CF  0DA9               	rlf	(??_conversion_newton+5)^(0+128),f
  9100  05D0  3EFF               	addlw	-1
  9101  05D1  1D03               	skipz
  9102  05D2  2DCE               	goto	u4715
  9103  05D3  1003               	clrc
  9104  05D4  0D29               	rlf	(??_conversion_newton+5)^(0+128),w
  9105  05D5  3E01               	addlw	low ((conversion_newton@R_tab-__stringbase)| (0+32768))
  9106  05D6  0084               	movwf	4
  9107  05D7  160A  118A  2000  120A  118A  	fcall	stringdir
  9108  05DC  00AA               	movwf	(??_conversion_newton+6)^(0+128)
  9109  05DD  160A  118A  2000  120A  118A  	fcall	stringdir
  9110  05E2  00AB               	movwf	((??_conversion_newton+6)^(0+128)+1)
  9111  05E3  160A  118A  2000  120A  118A  	fcall	stringdir
  9112  05E8  00AC               	movwf	((??_conversion_newton+6)^(0+128)+2)
  9113  05E9  160A  118A  2000  120A  118A  	fcall	stringdir
  9114  05EE  00AD               	movwf	((??_conversion_newton+6)^(0+128)+3)
  9115  05EF  082D               	movf	(??_conversion_newton+9)^(0+128),w
  9116  05F0  1283               	bcf	3,5	;RP0=0, select bank0
  9117  05F1  1303               	bcf	3,6	;RP1=0, select bank0
  9118  05F2  00B7               	movwf	___flsub@a+3
  9119  05F3  1683               	bsf	3,5	;RP0=1, select bank1
  9120  05F4  1303               	bcf	3,6	;RP1=0, select bank1
  9121  05F5  082C               	movf	(??_conversion_newton+8)^(0+128),w
  9122  05F6  1283               	bcf	3,5	;RP0=0, select bank0
  9123  05F7  1303               	bcf	3,6	;RP1=0, select bank0
  9124  05F8  00B6               	movwf	___flsub@a+2
  9125  05F9  1683               	bsf	3,5	;RP0=1, select bank1
  9126  05FA  1303               	bcf	3,6	;RP1=0, select bank1
  9127  05FB  082B               	movf	(??_conversion_newton+7)^(0+128),w
  9128  05FC  1283               	bcf	3,5	;RP0=0, select bank0
  9129  05FD  1303               	bcf	3,6	;RP1=0, select bank0
  9130  05FE  00B5               	movwf	___flsub@a+1
  9131  05FF  1683               	bsf	3,5	;RP0=1, select bank1
  9132  0600  1303               	bcf	3,6	;RP1=0, select bank1
  9133  0601  082A               	movf	(??_conversion_newton+6)^(0+128),w
  9134  0602  1283               	bcf	3,5	;RP0=0, select bank0
  9135  0603  1303               	bcf	3,6	;RP1=0, select bank0
  9136  0604  00B4               	movwf	___flsub@a
  9137  0605  1683               	bsf	3,5	;RP0=1, select bank1
  9138  0606  1303               	bcf	3,6	;RP1=0, select bank1
  9139  0607  0845               	movf	conversion_newton@n^(0+128),w
  9140  0608  00AE               	movwf	(??_conversion_newton+10)^(0+128)
  9141  0609  3001               	movlw	1
  9142  060A                     u4725:
  9143  060A  1003               	clrc
  9144  060B  0DAE               	rlf	(??_conversion_newton+10)^(0+128),f
  9145  060C  3EFF               	addlw	-1
  9146  060D  1D03               	skipz
  9147  060E  2E0A               	goto	u4725
  9148  060F  1003               	clrc
  9149  0610  0D2E               	rlf	(??_conversion_newton+10)^(0+128),w
  9150  0611  3E05               	addlw	low (((conversion_newton@R_tab-__stringbase)| (0+32768)+4))
  9151  0612  0084               	movwf	4
  9152  0613  160A  118A  2000  120A  118A  	fcall	stringdir
  9153  0618  00AF               	movwf	(??_conversion_newton+11)^(0+128)
  9154  0619  160A  118A  2000  120A  118A  	fcall	stringdir
  9155  061E  00B0               	movwf	((??_conversion_newton+11)^(0+128)+1)
  9156  061F  160A  118A  2000  120A  118A  	fcall	stringdir
  9157  0624  00B1               	movwf	((??_conversion_newton+11)^(0+128)+2)
  9158  0625  160A  118A  2000  120A  118A  	fcall	stringdir
  9159  062A  00B2               	movwf	((??_conversion_newton+11)^(0+128)+3)
  9160  062B  0832               	movf	(??_conversion_newton+14)^(0+128),w
  9161  062C  1283               	bcf	3,5	;RP0=0, select bank0
  9162  062D  1303               	bcf	3,6	;RP1=0, select bank0
  9163  062E  00BB               	movwf	___flsub@b+3
  9164  062F  1683               	bsf	3,5	;RP0=1, select bank1
  9165  0630  1303               	bcf	3,6	;RP1=0, select bank1
  9166  0631  0831               	movf	(??_conversion_newton+13)^(0+128),w
  9167  0632  1283               	bcf	3,5	;RP0=0, select bank0
  9168  0633  1303               	bcf	3,6	;RP1=0, select bank0
  9169  0634  00BA               	movwf	___flsub@b+2
  9170  0635  1683               	bsf	3,5	;RP0=1, select bank1
  9171  0636  1303               	bcf	3,6	;RP1=0, select bank1
  9172  0637  0830               	movf	(??_conversion_newton+12)^(0+128),w
  9173  0638  1283               	bcf	3,5	;RP0=0, select bank0
  9174  0639  1303               	bcf	3,6	;RP1=0, select bank0
  9175  063A  00B9               	movwf	___flsub@b+1
  9176  063B  1683               	bsf	3,5	;RP0=1, select bank1
  9177  063C  1303               	bcf	3,6	;RP1=0, select bank1
  9178  063D  082F               	movf	(??_conversion_newton+11)^(0+128),w
  9179  063E  1283               	bcf	3,5	;RP0=0, select bank0
  9180  063F  1303               	bcf	3,6	;RP1=0, select bank0
  9181  0640  00B8               	movwf	___flsub@b
  9182  0641  160A  158A  25D2  120A  118A  	fcall	___flsub
  9183  0646  1283               	bcf	3,5	;RP0=0, select bank0
  9184  0647  1303               	bcf	3,6	;RP1=0, select bank0
  9185  0648  0837               	movf	?___flsub+3,w
  9186  0649  00BF               	movwf	___fldiv@a+3
  9187  064A  0836               	movf	?___flsub+2,w
  9188  064B  00BE               	movwf	___fldiv@a+2
  9189  064C  0835               	movf	?___flsub+1,w
  9190  064D  00BD               	movwf	___fldiv@a+1
  9191  064E  0834               	movf	?___flsub,w
  9192  064F  00BC               	movwf	___fldiv@a
  9193  0650  1683               	bsf	3,5	;RP0=1, select bank1
  9194  0651  1303               	bcf	3,6	;RP1=0, select bank1
  9195  0652  0845               	movf	conversion_newton@n^(0+128),w
  9196  0653  00B3               	movwf	(??_conversion_newton+15)^(0+128)
  9197  0654  3001               	movlw	1
  9198  0655                     u4735:
  9199  0655  1003               	clrc
  9200  0656  0DB3               	rlf	(??_conversion_newton+15)^(0+128),f
  9201  0657  3EFF               	addlw	-1
  9202  0658  1D03               	skipz
  9203  0659  2E55               	goto	u4735
  9204  065A  1003               	clrc
  9205  065B  0D33               	rlf	(??_conversion_newton+15)^(0+128),w
  9206  065C  3E55               	addlw	low (((conversion_newton@F_tab-__stringbase)| (0+32768)+4))
  9207  065D  0084               	movwf	4
  9208  065E  160A  118A  2000  120A  118A  	fcall	stringdir
  9209  0663  00B4               	movwf	(??_conversion_newton+16)^(0+128)
  9210  0664  160A  118A  2000  120A  118A  	fcall	stringdir
  9211  0669  00B5               	movwf	((??_conversion_newton+16)^(0+128)+1)
  9212  066A  160A  118A  2000  120A  118A  	fcall	stringdir
  9213  066F  00B6               	movwf	((??_conversion_newton+16)^(0+128)+2)
  9214  0670  160A  118A  2000  120A  118A  	fcall	stringdir
  9215  0675  00B7               	movwf	((??_conversion_newton+16)^(0+128)+3)
  9216  0676  0837               	movf	(??_conversion_newton+19)^(0+128),w
  9217  0677  1283               	bcf	3,5	;RP0=0, select bank0
  9218  0678  1303               	bcf	3,6	;RP1=0, select bank0
  9219  0679  00B7               	movwf	___flsub@a+3
  9220  067A  1683               	bsf	3,5	;RP0=1, select bank1
  9221  067B  1303               	bcf	3,6	;RP1=0, select bank1
  9222  067C  0836               	movf	(??_conversion_newton+18)^(0+128),w
  9223  067D  1283               	bcf	3,5	;RP0=0, select bank0
  9224  067E  1303               	bcf	3,6	;RP1=0, select bank0
  9225  067F  00B6               	movwf	___flsub@a+2
  9226  0680  1683               	bsf	3,5	;RP0=1, select bank1
  9227  0681  1303               	bcf	3,6	;RP1=0, select bank1
  9228  0682  0835               	movf	(??_conversion_newton+17)^(0+128),w
  9229  0683  1283               	bcf	3,5	;RP0=0, select bank0
  9230  0684  1303               	bcf	3,6	;RP1=0, select bank0
  9231  0685  00B5               	movwf	___flsub@a+1
  9232  0686  1683               	bsf	3,5	;RP0=1, select bank1
  9233  0687  1303               	bcf	3,6	;RP1=0, select bank1
  9234  0688  0834               	movf	(??_conversion_newton+16)^(0+128),w
  9235  0689  1283               	bcf	3,5	;RP0=0, select bank0
  9236  068A  1303               	bcf	3,6	;RP1=0, select bank0
  9237  068B  00B4               	movwf	___flsub@a
  9238  068C  1683               	bsf	3,5	;RP0=1, select bank1
  9239  068D  1303               	bcf	3,6	;RP1=0, select bank1
  9240  068E  0845               	movf	conversion_newton@n^(0+128),w
  9241  068F  00B8               	movwf	(??_conversion_newton+20)^(0+128)
  9242  0690  3001               	movlw	1
  9243  0691                     u4745:
  9244  0691  1003               	clrc
  9245  0692  0DB8               	rlf	(??_conversion_newton+20)^(0+128),f
  9246  0693  3EFF               	addlw	-1
  9247  0694  1D03               	skipz
  9248  0695  2E91               	goto	u4745
  9249  0696  1003               	clrc
  9250  0697  0D38               	rlf	(??_conversion_newton+20)^(0+128),w
  9251  0698  3E51               	addlw	low ((conversion_newton@F_tab-__stringbase)| (0+32768))
  9252  0699  0084               	movwf	4
  9253  069A  160A  118A  2000  120A  118A  	fcall	stringdir
  9254  069F  00B9               	movwf	(??_conversion_newton+21)^(0+128)
  9255  06A0  160A  118A  2000  120A  118A  	fcall	stringdir
  9256  06A5  00BA               	movwf	((??_conversion_newton+21)^(0+128)+1)
  9257  06A6  160A  118A  2000  120A  118A  	fcall	stringdir
  9258  06AB  00BB               	movwf	((??_conversion_newton+21)^(0+128)+2)
  9259  06AC  160A  118A  2000  120A  118A  	fcall	stringdir
  9260  06B1  00BC               	movwf	((??_conversion_newton+21)^(0+128)+3)
  9261  06B2  083C               	movf	(??_conversion_newton+24)^(0+128),w
  9262  06B3  1283               	bcf	3,5	;RP0=0, select bank0
  9263  06B4  1303               	bcf	3,6	;RP1=0, select bank0
  9264  06B5  00BB               	movwf	___flsub@b+3
  9265  06B6  1683               	bsf	3,5	;RP0=1, select bank1
  9266  06B7  1303               	bcf	3,6	;RP1=0, select bank1
  9267  06B8  083B               	movf	(??_conversion_newton+23)^(0+128),w
  9268  06B9  1283               	bcf	3,5	;RP0=0, select bank0
  9269  06BA  1303               	bcf	3,6	;RP1=0, select bank0
  9270  06BB  00BA               	movwf	___flsub@b+2
  9271  06BC  1683               	bsf	3,5	;RP0=1, select bank1
  9272  06BD  1303               	bcf	3,6	;RP1=0, select bank1
  9273  06BE  083A               	movf	(??_conversion_newton+22)^(0+128),w
  9274  06BF  1283               	bcf	3,5	;RP0=0, select bank0
  9275  06C0  1303               	bcf	3,6	;RP1=0, select bank0
  9276  06C1  00B9               	movwf	___flsub@b+1
  9277  06C2  1683               	bsf	3,5	;RP0=1, select bank1
  9278  06C3  1303               	bcf	3,6	;RP1=0, select bank1
  9279  06C4  0839               	movf	(??_conversion_newton+21)^(0+128),w
  9280  06C5  1283               	bcf	3,5	;RP0=0, select bank0
  9281  06C6  1303               	bcf	3,6	;RP1=0, select bank0
  9282  06C7  00B8               	movwf	___flsub@b
  9283  06C8  160A  158A  25D2  120A  118A  	fcall	___flsub
  9284  06CD  1283               	bcf	3,5	;RP0=0, select bank0
  9285  06CE  1303               	bcf	3,6	;RP1=0, select bank0
  9286  06CF  0837               	movf	?___flsub+3,w
  9287  06D0  00C3               	movwf	___fldiv@b+3
  9288  06D1  0836               	movf	?___flsub+2,w
  9289  06D2  00C2               	movwf	___fldiv@b+2
  9290  06D3  0835               	movf	?___flsub+1,w
  9291  06D4  00C1               	movwf	___fldiv@b+1
  9292  06D5  0834               	movf	?___flsub,w
  9293  06D6  00C0               	movwf	___fldiv@b
  9294  06D7  120A  158A  2050  120A  118A  	fcall	___fldiv
  9295  06DC  1283               	bcf	3,5	;RP0=0, select bank0
  9296  06DD  1303               	bcf	3,6	;RP1=0, select bank0
  9297  06DE  083F               	movf	?___fldiv+3,w
  9298  06DF  00DD               	movwf	___flmul@a+3
  9299  06E0  083E               	movf	?___fldiv+2,w
  9300  06E1  00DC               	movwf	___flmul@a+2
  9301  06E2  083D               	movf	?___fldiv+1,w
  9302  06E3  00DB               	movwf	___flmul@a+1
  9303  06E4  083C               	movf	?___fldiv,w
  9304  06E5  00DA               	movwf	___flmul@a
  9305  06E6  120A  158A  249F  120A  118A  	fcall	___flmul
  9306  06EB  1283               	bcf	3,5	;RP0=0, select bank0
  9307  06EC  1303               	bcf	3,6	;RP1=0, select bank0
  9308  06ED  0859               	movf	?___flmul+3,w
  9309  06EE  1683               	bsf	3,5	;RP0=1, select bank1
  9310  06EF  1303               	bcf	3,6	;RP1=0, select bank1
  9311  06F0  00C0               	movwf	(_conversion_newton$778+3)^(0+128)
  9312  06F1  1283               	bcf	3,5	;RP0=0, select bank0
  9313  06F2  1303               	bcf	3,6	;RP1=0, select bank0
  9314  06F3  0858               	movf	?___flmul+2,w
  9315  06F4  1683               	bsf	3,5	;RP0=1, select bank1
  9316  06F5  1303               	bcf	3,6	;RP1=0, select bank1
  9317  06F6  00BF               	movwf	(_conversion_newton$778+2)^(0+128)
  9318  06F7  1283               	bcf	3,5	;RP0=0, select bank0
  9319  06F8  1303               	bcf	3,6	;RP1=0, select bank0
  9320  06F9  0857               	movf	?___flmul+1,w
  9321  06FA  1683               	bsf	3,5	;RP0=1, select bank1
  9322  06FB  1303               	bcf	3,6	;RP1=0, select bank1
  9323  06FC  00BE               	movwf	(_conversion_newton$778+1)^(0+128)
  9324  06FD  1283               	bcf	3,5	;RP0=0, select bank0
  9325  06FE  1303               	bcf	3,6	;RP1=0, select bank0
  9326  06FF  0856               	movf	?___flmul,w
  9327  0700  1683               	bsf	3,5	;RP0=1, select bank1
  9328  0701  1303               	bcf	3,6	;RP1=0, select bank1
  9329  0702  00BD               	movwf	_conversion_newton$778^(0+128)
  9330  0703                     l2865:
  9331                           
  9332                           ;main.c: 178:      F = (((F_tab[n]-F_tab[n+1])/(R_tab[n+1]-R_tab[n]))*(Rc-R_tab[n]))+F_t
      +                          ab[n];
  9333  0703  0845               	movf	conversion_newton@n^(0+128),w
  9334  0704  00A4               	movwf	??_conversion_newton^(0+128)
  9335  0705  3001               	movlw	1
  9336  0706                     u4755:
  9337  0706  1003               	clrc
  9338  0707  0DA4               	rlf	??_conversion_newton^(0+128),f
  9339  0708  3EFF               	addlw	-1
  9340  0709  1D03               	skipz
  9341  070A  2F06               	goto	u4755
  9342  070B  1003               	clrc
  9343  070C  0D24               	rlf	??_conversion_newton^(0+128),w
  9344  070D  3E51               	addlw	low ((conversion_newton@F_tab-__stringbase)| (0+32768))
  9345  070E  0084               	movwf	4
  9346  070F  160A  118A  2000  120A  118A  	fcall	stringdir
  9347  0714  00A5               	movwf	(??_conversion_newton+1)^(0+128)
  9348  0715  160A  118A  2000  120A  118A  	fcall	stringdir
  9349  071A  00A6               	movwf	((??_conversion_newton+1)^(0+128)+1)
  9350  071B  160A  118A  2000  120A  118A  	fcall	stringdir
  9351  0720  00A7               	movwf	((??_conversion_newton+1)^(0+128)+2)
  9352  0721  160A  118A  2000  120A  118A  	fcall	stringdir
  9353  0726  00A8               	movwf	((??_conversion_newton+1)^(0+128)+3)
  9354  0727  0828               	movf	(??_conversion_newton+4)^(0+128),w
  9355  0728  1283               	bcf	3,5	;RP0=0, select bank0
  9356  0729  1303               	bcf	3,6	;RP1=0, select bank0
  9357  072A  00A3               	movwf	___fladd@b+3
  9358  072B  1683               	bsf	3,5	;RP0=1, select bank1
  9359  072C  1303               	bcf	3,6	;RP1=0, select bank1
  9360  072D  0827               	movf	(??_conversion_newton+3)^(0+128),w
  9361  072E  1283               	bcf	3,5	;RP0=0, select bank0
  9362  072F  1303               	bcf	3,6	;RP1=0, select bank0
  9363  0730  00A2               	movwf	___fladd@b+2
  9364  0731  1683               	bsf	3,5	;RP0=1, select bank1
  9365  0732  1303               	bcf	3,6	;RP1=0, select bank1
  9366  0733  0826               	movf	(??_conversion_newton+2)^(0+128),w
  9367  0734  1283               	bcf	3,5	;RP0=0, select bank0
  9368  0735  1303               	bcf	3,6	;RP1=0, select bank0
  9369  0736  00A1               	movwf	___fladd@b+1
  9370  0737  1683               	bsf	3,5	;RP0=1, select bank1
  9371  0738  1303               	bcf	3,6	;RP1=0, select bank1
  9372  0739  0825               	movf	(??_conversion_newton+1)^(0+128),w
  9373  073A  1283               	bcf	3,5	;RP0=0, select bank0
  9374  073B  1303               	bcf	3,6	;RP1=0, select bank0
  9375  073C  00A0               	movwf	___fladd@b
  9376  073D  1683               	bsf	3,5	;RP0=1, select bank1
  9377  073E  1303               	bcf	3,6	;RP1=0, select bank1
  9378  073F  0840               	movf	(_conversion_newton$778+3)^(0+128),w
  9379  0740  1283               	bcf	3,5	;RP0=0, select bank0
  9380  0741  1303               	bcf	3,6	;RP1=0, select bank0
  9381  0742  00A7               	movwf	___fladd@a+3
  9382  0743  1683               	bsf	3,5	;RP0=1, select bank1
  9383  0744  1303               	bcf	3,6	;RP1=0, select bank1
  9384  0745  083F               	movf	(_conversion_newton$778+2)^(0+128),w
  9385  0746  1283               	bcf	3,5	;RP0=0, select bank0
  9386  0747  1303               	bcf	3,6	;RP1=0, select bank0
  9387  0748  00A6               	movwf	___fladd@a+2
  9388  0749  1683               	bsf	3,5	;RP0=1, select bank1
  9389  074A  1303               	bcf	3,6	;RP1=0, select bank1
  9390  074B  083E               	movf	(_conversion_newton$778+1)^(0+128),w
  9391  074C  1283               	bcf	3,5	;RP0=0, select bank0
  9392  074D  1303               	bcf	3,6	;RP1=0, select bank0
  9393  074E  00A5               	movwf	___fladd@a+1
  9394  074F  1683               	bsf	3,5	;RP0=1, select bank1
  9395  0750  1303               	bcf	3,6	;RP1=0, select bank1
  9396  0751  083D               	movf	_conversion_newton$778^(0+128),w
  9397  0752  1283               	bcf	3,5	;RP0=0, select bank0
  9398  0753  1303               	bcf	3,6	;RP1=0, select bank0
  9399  0754  00A4               	movwf	___fladd@a
  9400  0755  120A  118A  20DE  120A  118A  	fcall	___fladd
  9401  075A  1283               	bcf	3,5	;RP0=0, select bank0
  9402  075B  1303               	bcf	3,6	;RP1=0, select bank0
  9403  075C  0823               	movf	?___fladd+3,w
  9404  075D  1683               	bsf	3,5	;RP0=1, select bank1
  9405  075E  1303               	bcf	3,6	;RP1=0, select bank1
  9406  075F  00C4               	movwf	(conversion_newton@F+3)^(0+128)
  9407  0760  1283               	bcf	3,5	;RP0=0, select bank0
  9408  0761  1303               	bcf	3,6	;RP1=0, select bank0
  9409  0762  0822               	movf	?___fladd+2,w
  9410  0763  1683               	bsf	3,5	;RP0=1, select bank1
  9411  0764  1303               	bcf	3,6	;RP1=0, select bank1
  9412  0765  00C3               	movwf	(conversion_newton@F+2)^(0+128)
  9413  0766  1283               	bcf	3,5	;RP0=0, select bank0
  9414  0767  1303               	bcf	3,6	;RP1=0, select bank0
  9415  0768  0821               	movf	?___fladd+1,w
  9416  0769  1683               	bsf	3,5	;RP0=1, select bank1
  9417  076A  1303               	bcf	3,6	;RP1=0, select bank1
  9418  076B  00C2               	movwf	(conversion_newton@F+1)^(0+128)
  9419  076C  1283               	bcf	3,5	;RP0=0, select bank0
  9420  076D  1303               	bcf	3,6	;RP1=0, select bank0
  9421  076E  0820               	movf	?___fladd,w
  9422  076F  1683               	bsf	3,5	;RP0=1, select bank1
  9423  0770  1303               	bcf	3,6	;RP1=0, select bank1
  9424  0771  00C1               	movwf	conversion_newton@F^(0+128)
  9425  0772                     l2867:
  9426                           
  9427                           ;main.c: 181:      if (Rc <= R_tab[10])
  9428  0772  3029               	movlw	low (((conversion_newton@R_tab+40)-__stringbase)| (0+32768))
  9429  0773  0084               	movwf	4
  9430  0774  160A  118A  2000  120A  118A  	fcall	stringdir
  9431  0779  00A4               	movwf	??_conversion_newton^(0+128)
  9432  077A  160A  118A  2000  120A  118A  	fcall	stringdir
  9433  077F  00A5               	movwf	(??_conversion_newton^(0+128)+1)
  9434  0780  160A  118A  2000  120A  118A  	fcall	stringdir
  9435  0785  00A6               	movwf	(??_conversion_newton^(0+128)+2)
  9436  0786  160A  118A  2000  120A  118A  	fcall	stringdir
  9437  078B  00A7               	movwf	(??_conversion_newton^(0+128)+3)
  9438  078C  0827               	movf	(??_conversion_newton+3)^(0+128),w
  9439  078D  00F6               	movwf	___flge@ff1+3
  9440  078E  0826               	movf	(??_conversion_newton+2)^(0+128),w
  9441  078F  00F5               	movwf	___flge@ff1+2
  9442  0790  0825               	movf	(??_conversion_newton+1)^(0+128),w
  9443  0791  00F4               	movwf	___flge@ff1+1
  9444  0792  0824               	movf	??_conversion_newton^(0+128),w
  9445  0793  00F3               	movwf	___flge@ff1
  9446  0794  0823               	movf	(conversion_newton@Rc+3)^(0+128),w
  9447  0795  00FA               	movwf	___flge@ff2+3
  9448  0796  0822               	movf	(conversion_newton@Rc+2)^(0+128),w
  9449  0797  00F9               	movwf	___flge@ff2+2
  9450  0798  0821               	movf	(conversion_newton@Rc+1)^(0+128),w
  9451  0799  00F8               	movwf	___flge@ff2+1
  9452  079A  0820               	movf	conversion_newton@Rc^(0+128),w
  9453  079B  00F7               	movwf	___flge@ff2
  9454  079C  160A  118A  2525  120A  118A  	fcall	___flge
  9455  07A1  1C03               	btfss	3,0
  9456  07A2  2FA4               	goto	u4761
  9457  07A3  2FA5               	goto	u4760
  9458  07A4                     u4761:
  9459  07A4  2FAF               	goto	l2871
  9460  07A5                     u4760:
  9461  07A5                     l2869:
  9462                           
  9463                           ;main.c: 182:          {;main.c: 183:          F = 70;
  9464  07A5  3042               	movlw	66
  9465  07A6  1683               	bsf	3,5	;RP0=1, select bank1
  9466  07A7  1303               	bcf	3,6	;RP1=0, select bank1
  9467  07A8  00C4               	movwf	(conversion_newton@F+3)^(0+128)
  9468  07A9  308C               	movlw	140
  9469  07AA  00C3               	movwf	(conversion_newton@F+2)^(0+128)
  9470  07AB  3000               	movlw	0
  9471  07AC  00C2               	movwf	(conversion_newton@F+1)^(0+128)
  9472  07AD  3000               	movlw	0
  9473  07AE  00C1               	movwf	conversion_newton@F^(0+128)
  9474  07AF                     l2871:
  9475                           
  9476                           ;main.c: 185:      if (Rc > R_tab[10])
  9477  07AF  3029               	movlw	low (((conversion_newton@R_tab+40)-__stringbase)| (0+32768))
  9478  07B0  0084               	movwf	4
  9479  07B1  160A  118A  2000  120A  118A  	fcall	stringdir
  9480  07B6  1683               	bsf	3,5	;RP0=1, select bank1
  9481  07B7  1303               	bcf	3,6	;RP1=0, select bank1
  9482  07B8  00A4               	movwf	??_conversion_newton^(0+128)
  9483  07B9  160A  118A  2000  120A  118A  	fcall	stringdir
  9484  07BE  00A5               	movwf	(??_conversion_newton^(0+128)+1)
  9485  07BF  160A  118A  2000  120A  118A  	fcall	stringdir
  9486  07C4  00A6               	movwf	(??_conversion_newton^(0+128)+2)
  9487  07C5  160A  118A  2000  120A  118A  	fcall	stringdir
  9488  07CA  00A7               	movwf	(??_conversion_newton^(0+128)+3)
  9489  07CB  0827               	movf	(??_conversion_newton+3)^(0+128),w
  9490  07CC  00F6               	movwf	___flge@ff1+3
  9491  07CD  0826               	movf	(??_conversion_newton+2)^(0+128),w
  9492  07CE  00F5               	movwf	___flge@ff1+2
  9493  07CF  0825               	movf	(??_conversion_newton+1)^(0+128),w
  9494  07D0  00F4               	movwf	___flge@ff1+1
  9495  07D1  0824               	movf	??_conversion_newton^(0+128),w
  9496  07D2  00F3               	movwf	___flge@ff1
  9497  07D3  0823               	movf	(conversion_newton@Rc+3)^(0+128),w
  9498  07D4  00FA               	movwf	___flge@ff2+3
  9499  07D5  0822               	movf	(conversion_newton@Rc+2)^(0+128),w
  9500  07D6  00F9               	movwf	___flge@ff2+2
  9501  07D7  0821               	movf	(conversion_newton@Rc+1)^(0+128),w
  9502  07D8  00F8               	movwf	___flge@ff2+1
  9503  07D9  0820               	movf	conversion_newton@Rc^(0+128),w
  9504  07DA  00F7               	movwf	___flge@ff2
  9505  07DB  160A  118A  2525  120A  118A  	fcall	___flge
  9506  07E0  1803               	btfsc	3,0
  9507  07E1  2FE3               	goto	u4771
  9508  07E2  2FE4               	goto	u4770
  9509  07E3                     u4771:
  9510  07E3  2FEE               	goto	l71
  9511  07E4                     u4770:
  9512  07E4                     l2873:
  9513                           
  9514                           ;main.c: 186:          {;main.c: 187:          F = 0.12;
  9515  07E4  303D               	movlw	61
  9516  07E5  1683               	bsf	3,5	;RP0=1, select bank1
  9517  07E6  1303               	bcf	3,6	;RP1=0, select bank1
  9518  07E7  00C4               	movwf	(conversion_newton@F+3)^(0+128)
  9519  07E8  30F5               	movlw	245
  9520  07E9  00C3               	movwf	(conversion_newton@F+2)^(0+128)
  9521  07EA  30C2               	movlw	194
  9522  07EB  00C2               	movwf	(conversion_newton@F+1)^(0+128)
  9523  07EC  308F               	movlw	143
  9524  07ED  00C1               	movwf	conversion_newton@F^(0+128)
  9525  07EE                     l71:	
  9526                           ;main.c: 188:          }
  9527                           
  9528                           
  9529                           ;main.c: 190:      return F;
  9530  07EE  1683               	bsf	3,5	;RP0=1, select bank1
  9531  07EF  1303               	bcf	3,6	;RP1=0, select bank1
  9532  07F0  0844               	movf	(conversion_newton@F+3)^(0+128),w
  9533  07F1  00A3               	movwf	(?_conversion_newton+3)^(0+128)
  9534  07F2  0843               	movf	(conversion_newton@F+2)^(0+128),w
  9535  07F3  00A2               	movwf	(?_conversion_newton+2)^(0+128)
  9536  07F4  0842               	movf	(conversion_newton@F+1)^(0+128),w
  9537  07F5  00A1               	movwf	(?_conversion_newton+1)^(0+128)
  9538  07F6  0841               	movf	conversion_newton@F^(0+128),w
  9539  07F7  00A0               	movwf	?_conversion_newton^(0+128)
  9540  07F8                     l72:
  9541  07F8  0008               	return
  9542  07F9                     __end_of_conversion_newton:

Data Sizes:
    Strings     17
    Constant    160
    Data        0
    BSS         1
    Persistent  0
    Stack       0

Auto Spaces:
    Space          Size  Autos    Used
    COMMON           13     11      11
    BANK0            80     80      80
    BANK1            80     69      70
    BANK3            85      0       0
    BANK2            91      0       0

Pointer List with Targets:

    PORT_putString@chaine	PTR unsigned char  size(1) Largest target is 15
		 -> STR_2(CODE[2]), STR_1(CODE[15]), 


Critical Paths under _main in COMMON

    _puts_float->___aldiv
    _puts_float->___almod
    ___xxtofl->___wmul
    ___flsub->__Umul8_16
    ___fladd->__Umul8_16
    ___flmul->__Umul8_16
    ___fldiv->__Umul8_16
    _PORT_putString->_PORT_putchar
    _Affichage_brut->___awdiv
    _ADC_GetValue->_PORT_Choose_Mux

Critical Paths under _isr in COMMON

    None.

Critical Paths under _main in BANK0

    _puts_float->___flmul
    _conversion_newton->___flmul
    _Voltage_Value->___flmul
    _Resistance_Value->___flmul
    ___flsub->___fladd
    ___flmul->___fldiv
    ___fldiv->___flsub

Critical Paths under _isr in BANK0

    None.

Critical Paths under _main in BANK1

    _main->_Get_Newton
    _Get_Newton->_conversion_newton

Critical Paths under _isr in BANK1

    None.

Critical Paths under _main in BANK3

    None.

Critical Paths under _isr in BANK3

    None.

Critical Paths under _main in BANK2

    None.

Critical Paths under _isr in BANK2

    None.

Call Graph Tables:

 ---------------------------------------------------------------------------------
 (Depth) Function   	        Calls       Base Space   Used Autos Params    Refs
 ---------------------------------------------------------------------------------
 (0) _main                                                 8     8      0   36186
                                             61 BANK1      8     8      0
                         _Get_Newton
                     _PORT_Blink_LED
                          _PORT_Init
                   _PORT_Select_Mux0
                  _TIMER_init_timer1
 ---------------------------------------------------------------------------------
 (1) _TIMER_init_timer1                                    0     0      0       0
 ---------------------------------------------------------------------------------
 (1) _PORT_Select_Mux0                                     0     0      0       0
 ---------------------------------------------------------------------------------
 (1) _PORT_Init                                            1     1      0       0
                                              2 COMMON     1     1      0
                   _PORT_Init_Serial
 ---------------------------------------------------------------------------------
 (2) _PORT_Init_Serial                                     0     0      0       0
 ---------------------------------------------------------------------------------
 (1) _PORT_Blink_LED                                       0     0      0       0
 ---------------------------------------------------------------------------------
 (1) _Get_Newton                                          22    18      4   36162
                                             39 BANK1     22    18      4
                       _ADC_GetValue
                     _Affichage_brut
                   _PORT_Change_Gain
                     _PORT_putString
                       _PORT_putchar
                   _Resistance_Value
                      _Voltage_Value
                  _conversion_newton
                         _puts_float
 ---------------------------------------------------------------------------------
 (2) _puts_float                                          12     8      4    6264
                                              0 BANK1     12     8      4
                       _PORT_putchar
                            ___aldiv
                            ___almod
                            ___flmul
                            ___fltol
                            ___lwdiv
                            ___lwmod
 ---------------------------------------------------------------------------------
 (3) ___lwmod                                              5     1      4     767
                                              2 COMMON     5     1      4
 ---------------------------------------------------------------------------------
 (3) ___lwdiv                                              7     3      4     770
                                              2 COMMON     7     3      4
 ---------------------------------------------------------------------------------
 (3) ___fltol                                             10     6      4     305
                                              2 COMMON     8     4      4
                                              0 BANK0      2     2      0
 ---------------------------------------------------------------------------------
 (3) ___almod                                             11     3      8     448
                                              2 COMMON     9     1      8
                                              0 BANK0      2     2      0
 ---------------------------------------------------------------------------------
 (3) ___aldiv                                             15     7      8     452
                                              2 COMMON     9     1      8
                                              0 BANK0      6     6      0
 ---------------------------------------------------------------------------------
 (2) _conversion_newton                                   39    35      4   13978
                                              0 BANK1     39    35      4
                            ___fladd
                            ___fldiv
                             ___flge
                            ___flmul
                            ___flsub
 ---------------------------------------------------------------------------------
 (3) ___flge                                              12     4      8    3526
                                              2 COMMON     8     0      8
                                              0 BANK0      4     4      0
 ---------------------------------------------------------------------------------
 (2) _Voltage_Value                                        9     5      4    4946
                                              0 BANK1      9     5      4
                            ___fldiv
                            ___flmul
                           ___xxtofl
 ---------------------------------------------------------------------------------
 (2) _Resistance_Value                                     6     0      6    8305
                                              0 BANK1      6     0      6
                            ___fldiv
                            ___flmul
                            ___flsub
                             ___wmul
                           ___xxtofl
 ---------------------------------------------------------------------------------
 (3) ___xxtofl                                            14    10      4     474
                                              0 BANK0     14    10      4
                             ___wmul (ARG)
 ---------------------------------------------------------------------------------
 (3) ___wmul                                               6     2      4     244
                                              2 COMMON     6     2      4
 ---------------------------------------------------------------------------------
 (3) ___flsub                                              8     0      8    2941
                                             20 BANK0      8     0      8
                          __Umul8_16 (ARG)
                            ___fladd
 ---------------------------------------------------------------------------------
 (4) ___fladd                                             20    12      8    2288
                                              0 BANK0     20    12      8
                          __Umul8_16 (ARG)
 ---------------------------------------------------------------------------------
 (3) ___flmul                                             26    18      8    2873
                                             54 BANK0     26    18      8
                          __Umul8_16
                            ___fladd (ARG)
                            ___fldiv (ARG)
                            ___flsub (ARG)
                           ___xxtofl (ARG)
 ---------------------------------------------------------------------------------
 (4) __Umul8_16                                            9     7      2     799
                                              2 COMMON     9     7      2
 ---------------------------------------------------------------------------------
 (3) ___fldiv                                             26    18      8    1577
                                             28 BANK0     26    18      8
                          __Umul8_16 (ARG)
                            ___fladd (ARG)
                            ___flsub (ARG)
                             ___wmul (ARG)
                           ___xxtofl (ARG)
 ---------------------------------------------------------------------------------
 (2) _PORT_putString                                       3     3      0     178
                                              3 COMMON     3     3      0
                       _PORT_putchar
 ---------------------------------------------------------------------------------
 (2) _PORT_Change_Gain                                     4     1      3     252
                                              2 COMMON     4     1      3
 ---------------------------------------------------------------------------------
 (2) _Affichage_brut                                      11     9      2    1730
                                              0 BANK0     11     9      2
                       _PORT_putchar
                            ___awdiv
                            ___awmod
 ---------------------------------------------------------------------------------
 (3) ___awmod                                              6     2      4     600
                                              2 COMMON     6     2      4
 ---------------------------------------------------------------------------------
 (3) ___awdiv                                              8     4      4     604
                                              2 COMMON     8     4      4
 ---------------------------------------------------------------------------------
 (3) _PORT_putchar                                         1     1      0      22
                                              2 COMMON     1     1      0
 ---------------------------------------------------------------------------------
 (2) _ADC_GetValue                                         1     1      0      66
                                              3 COMMON     1     1      0
                    _PORT_Choose_Mux
                 _PORT_Get_Value_Adc
                     _PORT_Start_ADC
 ---------------------------------------------------------------------------------
 (3) _PORT_Start_ADC                                       0     0      0       0
 ---------------------------------------------------------------------------------
 (3) _PORT_Get_Value_Adc                                   0     0      0       0
 ---------------------------------------------------------------------------------
 (3) _PORT_Choose_Mux                                      1     1      0      44
                                              2 COMMON     1     1      0
 ---------------------------------------------------------------------------------
 Estimated maximum stack depth 4
 ---------------------------------------------------------------------------------
 (Depth) Function   	        Calls       Base Space   Used Autos Params    Refs
 ---------------------------------------------------------------------------------
 (5) _isr                                                  2     2      0       0
                                              0 COMMON     2     2      0
 ---------------------------------------------------------------------------------
 Estimated maximum stack depth 5
 ---------------------------------------------------------------------------------

 Call Graph Graphs:

 _main (ROOT)
   _Get_Newton
     _ADC_GetValue
       _PORT_Choose_Mux
       _PORT_Get_Value_Adc
       _PORT_Start_ADC
     _Affichage_brut
       _PORT_putchar
       ___awdiv
       ___awmod
     _PORT_Change_Gain
     _PORT_putString
       _PORT_putchar
     _PORT_putchar
     _Resistance_Value
       ___fldiv
         __Umul8_16 (ARG)
         ___fladd (ARG)
           __Umul8_16 (ARG)
         ___flsub (ARG)
           __Umul8_16 (ARG)
           ___fladd (ARG)
             __Umul8_16 (ARG)
         ___wmul (ARG)
         ___xxtofl (ARG)
           ___wmul (ARG)
       ___flmul
         __Umul8_16
         ___fladd (ARG)
           __Umul8_16 (ARG)
         ___fldiv (ARG)
           __Umul8_16 (ARG)
           ___fladd (ARG)
             __Umul8_16 (ARG)
           ___flsub (ARG)
             __Umul8_16 (ARG)
             ___fladd (ARG)
               __Umul8_16 (ARG)
           ___wmul (ARG)
           ___xxtofl (ARG)
             ___wmul (ARG)
         ___flsub (ARG)
           __Umul8_16 (ARG)
           ___fladd (ARG)
             __Umul8_16 (ARG)
         ___xxtofl (ARG)
           ___wmul (ARG)
       ___flsub
         __Umul8_16 (ARG)
         ___fladd (ARG)
           __Umul8_16 (ARG)
       ___wmul
       ___xxtofl
         ___wmul (ARG)
     _Voltage_Value
       ___fldiv
         __Umul8_16 (ARG)
         ___fladd (ARG)
           __Umul8_16 (ARG)
         ___flsub (ARG)
           __Umul8_16 (ARG)
           ___fladd (ARG)
             __Umul8_16 (ARG)
         ___wmul (ARG)
         ___xxtofl (ARG)
           ___wmul (ARG)
       ___flmul
         __Umul8_16
         ___fladd (ARG)
           __Umul8_16 (ARG)
         ___fldiv (ARG)
           __Umul8_16 (ARG)
           ___fladd (ARG)
             __Umul8_16 (ARG)
           ___flsub (ARG)
             __Umul8_16 (ARG)
             ___fladd (ARG)
               __Umul8_16 (ARG)
           ___wmul (ARG)
           ___xxtofl (ARG)
             ___wmul (ARG)
         ___flsub (ARG)
           __Umul8_16 (ARG)
           ___fladd (ARG)
             __Umul8_16 (ARG)
         ___xxtofl (ARG)
           ___wmul (ARG)
       ___xxtofl
         ___wmul (ARG)
     _conversion_newton
       ___fladd
         __Umul8_16 (ARG)
       ___fldiv
         __Umul8_16 (ARG)
         ___fladd (ARG)
           __Umul8_16 (ARG)
         ___flsub (ARG)
           __Umul8_16 (ARG)
           ___fladd (ARG)
             __Umul8_16 (ARG)
         ___wmul (ARG)
         ___xxtofl (ARG)
           ___wmul (ARG)
       ___flge
       ___flmul
         __Umul8_16
         ___fladd (ARG)
           __Umul8_16 (ARG)
         ___fldiv (ARG)
           __Umul8_16 (ARG)
           ___fladd (ARG)
             __Umul8_16 (ARG)
           ___flsub (ARG)
             __Umul8_16 (ARG)
             ___fladd (ARG)
               __Umul8_16 (ARG)
           ___wmul (ARG)
           ___xxtofl (ARG)
             ___wmul (ARG)
         ___flsub (ARG)
           __Umul8_16 (ARG)
           ___fladd (ARG)
             __Umul8_16 (ARG)
         ___xxtofl (ARG)
           ___wmul (ARG)
       ___flsub
         __Umul8_16 (ARG)
         ___fladd (ARG)
           __Umul8_16 (ARG)
     _puts_float
       _PORT_putchar
       ___aldiv
       ___almod
       ___flmul
         __Umul8_16
         ___fladd (ARG)
           __Umul8_16 (ARG)
         ___fldiv (ARG)
           __Umul8_16 (ARG)
           ___fladd (ARG)
             __Umul8_16 (ARG)
           ___flsub (ARG)
             __Umul8_16 (ARG)
             ___fladd (ARG)
               __Umul8_16 (ARG)
           ___wmul (ARG)
           ___xxtofl (ARG)
             ___wmul (ARG)
         ___flsub (ARG)
           __Umul8_16 (ARG)
           ___fladd (ARG)
             __Umul8_16 (ARG)
         ___xxtofl (ARG)
           ___wmul (ARG)
       ___fltol
       ___lwdiv
       ___lwmod
   _PORT_Blink_LED
   _PORT_Init
     _PORT_Init_Serial
   _PORT_Select_Mux0
   _TIMER_init_timer1

 _isr (ROOT)

 Address spaces:
Name               Size   Autos  Total    Cost      Usage
BITCOMMON            D      0       0       0        0.0%
NULL                 0      0       0       0        0.0%
CODE                 0      0       0       0        0.0%
COMMON               D      B       B       1       84.6%
BITSFR0              0      0       0       1        0.0%
SFR0                 0      0       0       1        0.0%
BITSFR1              0      0       0       2        0.0%
SFR1                 0      0       0       2        0.0%
STACK                0      0       0       2        0.0%
ABS                  0      0      A1       3        0.0%
BITBANK0            50      0       0       4        0.0%
BITSFR3              0      0       0       4        0.0%
SFR3                 0      0       0       4        0.0%
BANK0               50     50      50       5      100.0%
BITSFR2              0      0       0       5        0.0%
SFR2                 0      0       0       5        0.0%
DATA                 0      0      A1       6        0.0%
BITBANK1            50      0       0       7        0.0%
BANK1               50     45      46       8       87.5%
BITBANK3            55      0       0       9        0.0%
BANK3               55      0       0      10        0.0%
BITBANK2            5B      0       0      11        0.0%
BANK2               5B      0       0      12        0.0%


Microchip Technology PIC Macro Assembler V2.20 build 20200408173844 
Symbol Table                                                                                   Thu Jun 08 16:38:55 2023

                   ___fldiv@aexp 0055                     ___fldiv@bexp 0054                                pc 0002  
                   ___fldiv@sign 004D                               l40 1278                               l34 12F4  
                             l43 1487                               l37 17FF                               l71 07EE  
                             l72 07F8                               l64 0566                               l75 16A2  
                             l84 1DD1                     ___awdiv@sign 0078                               fsr 0004  
            ___wmul@multiplicand 0075              __Umul8_16@word_mpld 0079                 ??_PORT_Blink_LED 0073  
                            l212 0021                              l301 1385                              l141 1EFF  
                            l151 1D91                              l223 1E27                              l311 13F7  
                            l135 1E91                              l160 0801                              l400 15AF  
                            l144 1DAD                              l225 1E3F                              l401 15C8  
                            l154 1D95                              l163 080B                              l148 1DBF  
                            l172 1D9D                              l157 10BC                              l520 01E8  
                            l416 135B                              l169 1E1A                              l409 1370  
                            l505 1149                              l522 01BF                              l179 110F  
                            l419 1370                              l612 0FFF                              l516 0141  
                            l541 02D7                              l631 1E54                              l376 1209  
                            l624 0FF3                              l288 149C                              l633 1E66  
                            l537 02B3                              l529 0365                              l618 0F6B  
                            l562 1DF5                              l298 1524                              l547 02F9  
                            l572 08AC                              l389 11A2                              l397 1543  
                            l574 0A2C                              l558 0359                              l670 00B3  
                            l559 0365                              l495 084F                              l656 0046  
                            l658 00DD                              l596 0A20                              l588 099E  
                            l669 00A7        __end_of_TIMER_init_timer1 0022                              _isr 10BD  
                            fsr0 0004                     ___awmod@sign 0078                ?_PORT_Change_Gain 0073  
                   ___flmul@aexp 0068                     ___flmul@bexp 0069                     ___flmul@sign 0063  
                   ___flmul@temp 006E                     ___flmul@prod 006A               ??_PORT_Change_Gain 0076  
       __end_of_PORT_Select_Mux0 1D9E                     ___fltol@exp1 0021                             l2001 01F1  
                           l2011 0219                             l2101 1E43                             l2021 0232  
                           l2013 0222                             l2005 01FA                             l2103 1E4A  
                           l2031 0291                             l2015 0224                             l2007 0211  
                           l2023 0237                             l2121 1D8E                             l2113 0801  
                           l2105 1E4E                             l2033 0296                             l2025 024D  
                           l2017 0228                             l2009 0215                             l2201 13B0  
                           l3001 1D9E                             l2123 10B9                             l2115 0807  
                           l2107 1E5D                             l2051 02DE                             l2043 02C9  
                           l2027 028B                             l2035 02A5                             l2019 0229  
                           l2131 1E21                             l2211 13E4                             l2203 13C2  
                           l3011 1649                             l3003 15CC                             l2117 1DAF  
                           l2221 11A8                             l2109 1E62                             l2061 02EC  
                           l2053 02E0                             l2045 02D2                             l2037 02BB  
                           l2029 028F                             l2133 1E2E                             l2301 153B  
                           l2141 1488                             l2213 13EF                             l2205 13D0  
                           l3021 1698                             l3013 165E                             l3005 1612  
                           l2119 1DB5                             l2231 11BC                             l2223 11AD  
                           l2071 0303                             l2063 02F0                             l2055 02E5  
                           l2047 02D6                             l2039 02C0                             l2135 1E35  
                           l2127 1E1B                             l2311 158B                             l2303 1557  
                           l2151 14AF                             l2143 148B                             l2207 13D9  
                           l3015 1664                             l3007 1629                             l3031 1EA8  
                           l2241 11D2                             l2233 11BE                             l2225 11AF  
                           l2217 11A3                             l2081 033C                             l2073 0311  
                           l2065 02F6                             l2049 02DB                             l2057 02E7  
                           l2137 1E3B                             l2129 1E1D                             l2313 15C5  
                           l2305 155F                             l2161 14CF                             l2153 14B7  
                           l2145 148F                             l2209 13DF                             l2321 1302  
                           l2401 1145                             l3017 167E                             l3009 1635  
                           l3033 1EA9                             l3025 1E92                             l2251 11F5  
                           l2243 11D6                             l2235 11C4                             l2227 11B3  
                           l2219 11A4                             l2411 0850                             l2091 0353  
                           l2083 0341                             l2075 0315                             l2059 02EB  
                           l2315 15C7                             l2307 1563                             l2171 14FD  
                           l2163 14D3                             l2155 14BF                             l2147 14A0  
                           l2331 1329                             l3019 1692                             l3035 1EAE  
                           l3027 1E9C                             l2245 11E7                             l2237 11C7  
                           l2253 11FB                             l2229 11B8                             l2261 114A  
                           l2501 096A                             l2421 0867                             l2413 0857  
                           l2093 0355                             l2085 0349                             l2077 0333  
                           l2069 02FE                             l2405 1DD2                             l2309 1587  
                           l2173 1506                             l2165 14DC                             l2157 14C2  
                           l2149 14AB                             l2341 1337                             l2333 132B  
                           l2325 130B                             l3037 1EC3                             l3029 1EA1  
                           l2255 1200                             l2247 11ED                             l2239 11CE  
                           l2271 115A                             l2263 114B                             l2511 0982  
                           l2503 096E                             l2431 087F                             l2423 086C  
                           l2415 085D                             l2095 0360                             l2087 034E  
                           l2079 0337                             l2407 1DD6                             l2167 14EE  
                           l2159 14CB                             l2175 150C                             l2191 1394  
                           l2183 1371                             l2351 1350                             l2343 1340  
                           l2335 132F                             l2327 1320                             l2319 12F5  
                           l2257 1205                             l2249 11EE                             l2281 1173  
                           l2273 115F                             l2265 114F                             l2521 09A3  
                           l2513 0983                             l2505 096F                             l2441 0894  
                           l2433 0884                             l2425 0874                             l2417 0861  
                           l2601 0D1C                             l2097 0364                             l2089 034F  
                           l2177 1511                             l2169 14FC                             l2193 139C  
                           l2185 1374                             l2353 1360                             l2345 1349  
                           l2329 1321                             l2361 0814                             l2283 1177  
                           l2275 1165                             l2291 1194                             l2267 1154  
                           l2523 09A8                             l2531 09D9                             l2515 0987  
                           l2507 0978                             l2451 08B4                             l2443 0899  
                           l2435 088A                             l2427 0875                             l2419 0862  
                           l2099 1E41                             l2611 0DAA                             l2603 0D29  
                           l2179 151C                             l2195 139F                             l2187 1378  
                           l2355 1365                             l2371 0837                             l2363 0817  
                           l2293 1199                             l2285 1181                             l2277 1168  
                           l2269 1156                             l2541 0A0F                             l2533 09E6  
                           l2525 09B6                             l2517 099B                             l2509 097E  
                           l2461 08D2                             l2453 08C0                             l2445 08A1  
                           l2437 088E                             l2429 0877                             l2621 0E0C  
                           l2613 0DC6                             l2605 0D46                             l1901 00EB  
                           l2701 002E                             l2197 13A8                             l2189 1389  
                           l2373 083D                             l2365 081E                             l2357 080C  
                           l2295 119E                             l2287 1187                             l2279 116F  
                           l2543 0A10                             l2535 09F4                             l2527 09BA  
                           l2471 08FD                             l2455 08C4                             l2447 08A2  
                           l2439 088F                             l2631 0E9C                             l2623 0E29  
                           l2615 0DCF                             l2607 0D62                             l1911 0102  
                           l1903 00EF                             l2711 005C                             l2703 003E  
                           l2199 13AC                             l2375 083E                             l2367 0822  
                           l2359 080E                             l2391 1124                             l2383 1110  
                           l2289 118E                             l2545 0A16                             l2537 0A03  
                           l2529 09D3                             l2481 0922                             l2473 0905  
                           l2465 08DB                             l2449 08A4                             l2641 0F2E  
                           l2633 0EC9                             l2625 0E42                             l2617 0DDF  
                           l2609 0D8E                             l2561 0CB0                             l1921 0118  
                           l1913 0103                             l1905 00F0                             l2721 0082  
                           l2713 0060                             l2705 004E                             l2801 0A2D  
                           l2377 0845                             l2369 0826                             l2393 1128  
                           l2385 1116                             l2547 0A1A                             l2539 0A07  
                           l2491 094D                             l2483 0923                             l2475 0907  
                           l2467 08ED                             l2459 08CD                             l2643 0F37  
                           l2651 0F4B                             l2635 0EEF                             l2627 0E5F  
                           l2619 0DFC                             l2571 0CC5                             l2563 0CB1  
                           l2555 0C9F                             l1931 0129                             l1923 0119  
                           l1907 00F5                             l1915 0105                             l2731 00AB  
                           l2723 008B                             l2715 0069                             l2299 1525  
                           l2811 0AD9                             l2803 0A62                             l2379 084B  
                           l2395 1132                             l2387 1119                             l2901 1106  
                           l2549 0A1C                             l2477 090C                             l2485 092C  
                           l2493 0951                             l2469 08F5                             l2653 0F4F  
                           l2645 0F3B                             l2637 0F17                             l2629 0E8C  
                           l2581 0CDD                             l2573 0CCD                             l2565 0CB6  
                           l2557 0CA6                             l1941 0147                             l1933 012E  
                           l1925 011F                             l1917 010D                             l1909 00FA  
                           l2741 00D5                             l2733 00B5                             l2725 0092  
                           l2717 0070                             l2709 0057                             l2821 0BB4  
                           l2813 0B0E                             l2805 0A66                             l2397 1138  
                           l2389 1120                             l2911 1DCC                             l2751 129C  
                           l2903 110B                             l2495 0957                             l2487 093E  
                           l2479 091E                             l2671 0FA0                             l2663 0F70  
                           l2655 0F50                             l2647 0F3C                             l2639 0F20  
                           l2591 0CF9                             l2583 0CE2                             l2575 0CD2  
                           l2567 0CBB                             l2559 0CAC                             l1951 015B  
                           l1943 014B                             l1935 0136                             l1927 0123  
                           l1919 0112                             l2735 00CB                             l2727 009D  
                           l2719 0074                             l2831 0C63                             l2823 0BBB  
                           l2815 0B43                             l2807 0A9B                             l2399 113F  
                           l2761 12EE                             l2753 12B4                             l2745 1279  
                           l2921 1E0D                             l2497 095F                             l2489 093F  
                           l2681 0FD7                             l2665 0F75                             l2673 0FA6  
                           l2657 0F54                             l2649 0F45                             l2593 0CFE  
                           l2585 0CE7                             l2577 0CD8                             l2569 0CC3  
                           l1961 016F                             l1953 015F                             l1945 014F  
                           l1937 0137                             l1929 0124                             l2737 00D0  
                           l2729 00A1                             l2841 03D7                             l2833 0C98  
                           l2825 0BF0                             l2817 0B4A                             l2809 0AD0  
                           l2907 1DC1                             l2755 12CB                             l2747 127F  
                           l2915 1DF7                             l2499 0961                             l2691 0FEC  
                           l2683 0FD9                             l2675 0FB3                             l2667 0F83  
                           l2659 0F68                             l2595 0D03                             l2587 0CEF  
                           l2579 0CDC                             l1971 0183                             l1963 0173  
                           l1955 0163                             l1947 0153                             l1939 0139  
                           l2739 00D4                             l2851 04B2                             l2843 040C  
                           l2835 0366                             l2827 0C25                             l2819 0B7F  
                           l2771 1744                             l2763 16A3                             l2931 1E76  
                           l2923 1E67                             l2909 1DC7                             l2757 12D1  
                           l2749 1296                             l2917 1DFA                             l2693 0FF7  
                           l2685 0FDF                             l2677 0FBE                             l2669 0F87  
                           l2589 0CF1                             l1981 01B2                             l1973 0187  
                           l1965 0177                             l1957 0167                             l1949 0157  
                           l2861 055F                             l2853 04B9                             l2845 0441  
                           l2837 039B                             l2829 0C2C                             l2781 17A8  
                           l2773 1773                             l2765 170F                             l2941 1E89  
                           l2933 1E7B                             l2925 1E6D                             l2759 12E9  
                           l2919 1E07                             l2687 0FE7                             l2679 0FCD  
                           l2599 0D0C                             l1991 01D2                             l1983 01BA  
                           l1967 017B                             l1959 016B                             l1975 018B  
                           l2871 07AF                             l2855 04EE                             l2847 0448  
                           l2839 03D0                             l2863 0566                             l2791 17F9  
                           l2783 17B0                             l2775 1779                             l2767 1715  
                           l2943 1E8C                             l2935 1E7E                             l2927 1E70  
                           l2951 1ED3                             l2881 10E8                             l2689 0FEB  
                           l1993 01D3                             l1985 01C3                             l1977 018C  
                           l1969 017F                             l1897 00DE                             l2697 0025  
                           l2793 120D                             l2873 07E4                             l2865 0703  
                           l2857 0523                             l2849 047D                             l2785 17C5  
                           l2777 178E                             l2769 1730                             l2937 1E81  
                           l2929 1E73                             l2961 1EEA                             l2953 1EDC  
                           l2945 1EC7                             l2891 10F7                             l2883 10ED  
                           l1995 01DC                             l1987 01CC                             l1979 01A3  
                           l1899 00E5                             l2699 002A                             l2867 0772  
                           l2859 052A                             l2787 17D9                             l2779 17A2  
                           l2939 1E84                             l2971 1EFA                             l2963 1EEE  
                           l2955 1EDF                             l2947 1ECD                             l2893 10FC  
                           l2877 10D7                             l1989 01CE                             l1997 01E0  
                           l2797 13F8                             l2869 07A5                             l2789 17F4  
                           l2973 1EFC                             l2965 1EF2                             l2957 1EE3  
                           l2949 1ED1                             l2981 0017                             l2879 10E3  
                           l1999 01EC                             l2975 1EFD                             l2967 1EF6  
                           l2959 1EE5                             l2991 001C                             l2983 0018  
                           l2889 10F2                             l2969 1EF7                             l2993 001D  
                           l2985 0019                             l2977 0010                             l2899 1101  
                           l2995 0020                             l2987 001A                             l2979 0014  
                           l2997 1D96                             l2989 001B                             l2999 1D99  
                           ?_isr 0071                             STR_1 10A6                             STR_2 10B5  
                           u3010 1E3B                             u3011 1E3A                             u3100 150C  
                           u3020 148F                             u3005 1E2F                             u3101 150B  
                           u3021 148E                             u3110 1511                             u3030 14A0  
                           u3111 1510                             u3031 149F                             u4000 0CB6  
                           u3040 14BF                             u3200 13E4                             u3120 1378  
                           u4001 0CB5                             u3041 14BE                             u3201 13E3  
                           u3121 1377                             u3210 11A8                             u4010 0CBB  
                           u3130 1389                             u3211 11A7                             u4011 0CBA  
                           u3131 1388                             u3300 1200                             u3220 11B3  
                           u4020 0CDC                             u2500 0123                             u3060 14D3  
                           u3140 139C                             u3301 11FF                             u3221 11B2  
                           u4101 0DB8                             u4021 0CDB                             u2501 0122  
                           u3061 14D2                             u3141 139B                             u3230 11C4  
                           u3310 114F                             u4102 0DBF                             u4030 0CE2  
                           u2510 0129                             u3231 11C3                             u3311 114E  
                           u4103 0DC6                             u4031 0CE1                             u2511 0128  
                           u3055 14C4                             u3320 115A                             u4200 0EFD  
                           u4040 0CE7                             u2520 012E                             u3400 153B  
                           u3080 14EE                             u3160 13B0                             u3321 1159  
                           u4121 0DEE                             u4041 0CE6                             u2521 012D  
                           u3401 153A                             u3081 14ED                             u3161 13AF  
                           u3250 11D6                             u3330 1165                             u4122 0DF5  
                           u4050 0CFE                             u2610 01E8                             u2530 0147  
                           u3410 1557                             u3170 13C2                             u3251 11D5  
                           u3331 1164                             u4211 0F09                             u4131 0E1B  
                           u4123 0DFC                             u4115 0DC8                             u4051 0CFD  
                           u2611 01E7                             u2531 0146                             u3411 1556  
                           u3075 14D5                             u3171 13C1                             u3155 13A1  
                           u4300 0F75                             u4212 0F10                             u4132 0E22  
                           u4060 0D03                             u2620 01EC                             u2540 014B  
                           u2460 00EF                             u3420 1563                             u3500 1336  
                           u3245 11C8                             u4301 0F74                             u4213 0F17  
                           u4205 0EF8                             u4133 0E29                             u4061 0D02  
                           u2701 0264                             u2621 01EB                             u2605 01D5  
                           u2541 014A                             u2461 00EE                             u3421 1562  
                           u3085 14EA                             u3501 1335                             u3270 11E7  
                           u3350 1177                             u4310 0F87                             u2710 0278  
                           u2702 0265                             u2630 01F1                             u2550 01A3  
                           u2470 00F5                             u3190 13DF                             u3271 11E6  
                           u3351 1176                             u4311 0F86                             u4151 0E51  
                           u4071 0D54                             u2711 0279                             u2703 026A  
                           u2631 01F0                             u2551 01A2                             u2471 00F4  
                           u3431 1572                             u3095 14FE                             u3191 13DE  
                           u3175 13BE                             u3360 1181                             u4320 0F96  
                           u4240 0F3B                             u4152 0E58                             u4072 0D5B  
                           u2800 02F0                             u2720 0296                             u2712 027E  
                           u2704 026B                             u2560 01AE                             u2480 00FA  
                           u4400 006F                             u3440 158B                             u3432 1573  
                           u3520 1348                             u3265 11D7                             u3361 1180  
                           u3345 1169                             u4241 0F3A                             u4225 0F19  
                           u4161 0E7E                             u4153 0E5F                             u4145 0E2B  
                           u4081 0D70                             u4073 0D62                             u2801 02EF  
                           u2721 0295                             u2713 027F                             u2705 0270  
                           u2641 0203                             u2561 01AC                             u2481 00F9  
                           u4401 006E                             u3441 158A                             u3433 1578  
                           u3185 13D1                             u3521 1347                             u3290 11FB  
                           u4330 0FB3                             u4162 0E85                             u4082 0D77  
                           u2810 02F6                             u2730 02BB                             u2706 0271  
                           u2650 0215                             u2642 020A                             u2570 01AF  
                           u2490 0118                             u3434 1579                             u3530 134F  
                           u3610 0837                             u3291 11FA                             u3275 11E3  
                           u4331 0FB2                             u4235 0F30                             u4171 0EAB  
                           u4163 0E8C                             u4091 0D9C                             u4083 0D7E  
                           u2811 02F5                             u2731 02BA                             u2651 0214  
                           u2643 0211                             u2555 019F                             u2491 0117  
                           u3451 159A                             u3435 157E                             u3531 134E  
                           u3515 1338                             u3611 0836                             u3380 1194  
                           u3700 0861                             u4340 0FCD                             u4260 0F4F  
                           u4180 0ED5                             u4172 0EB2                             u4092 0DA3  
                           u2900 0353                             u2820 02FD                             u2740 02C0  
                           u2660 0219                             u2580 01C3                             u4420 0091  
                           u3460 15C5                             u3452 159B                             u3436 157F  
                           u4500 0A62                             u3285 11EF                             u3381 1193  
                           u3365 117D                             u3701 0860                             u4341 0FCC  
                           u4325 0F91                             u4261 0F4E                             u4173 0EB9  
                           u4093 0DAA                             u2901 0352                             u2821 02FC  
                           u2741 02BF                             u2661 0218                             u2581 01C2  
                           u4421 0090                             u3461 15C4                             u3453 15A0  
                           u4501 0A61                             u3605 0827                             u3390 1199  
                           u3710 0867                             u4350 0FEB                             u4270 0F54  
                           u2910 0364                             u2830 0303                             u2670 0228  
                           u2590 01D2                             u3454 15A1                             u4510 0A9B  
                           u3550 1360                             u3470 1302                             u3630 084B  
                           u3391 1198                             u3375 1188                             u3711 0866  
                           u4351 0FEA                             u4335 0FAF                             u4271 0F53  
                           u4255 0F3E                             u4191 0EE1                             u2911 0363  
                           u2831 0302                             u2671 0227                             u2591 01D1  
                           u4415 0083                             u3455 15A6                             u4511 0A9A  
                           u3551 135F                             u3471 1301                             u3631 084A  
                           u3615 0833                             u3720 086C                             u2920 1E4E  
                           u4280 0F68                             u4192 0EE8                             u2840 0315  
                           u2760 02D6                             u4440 00A1                             u4360 002A  
                           u3456 15A7                             u4600 0C98                             u4520 0AD0  
                           u3560 1365                             u3480 1319                             u3640 1116  
                           u3721 086B                             u2921 1E4D                             u4345 0FC9  
                           u4281 0F67                             u4193 0EEF                             u4185 0ED0  
                           u2841 0314                             u2761 02D5                             u4441 00A0  
                           u4361 0029                             u3465 15C1                             u4601 0C97  
                           u4521 0ACF                             u3561 1364                             u3545 1352  
                           u3625 083F                             u3641 1115                             u3810 0922  
                           u3730 088E                             u4290 0F6F                             u2850 0324  
                           u2770 02DB                             u2690 024D                             u4450 00A7  
                           u4370 002E                             u4610 039B                             u4530 0B0E  
                           u3490 132F                             u3570 0814                             u3811 0921  
                           u3731 088D                             u4291 0F6E                             u2771 02DA  
                           u2755 02CB                             u2691 024C                             u4451 00A6  
                           u4435 0096                             u4371 002D                             u4611 039A  
                           u4531 0B0D                             u3491 132E                             u3571 0813  
                           u3900 0987                             u3740 0894                             u2940 1E62  
                           u2860 0333                             u2780 02E5                             u4460 00AB  
                           u4380 004E                             u4620 03D0                             u4540 0B43  
                           u3660 1128                             u3901 0986                             u3805 0917  
                           u3741 0893                             u2941 1E61                             u2861 0332  
                           u2781 02E4                             u2693 0249                             u2685 022B  
                           u4461 00AA                             u4381 004D                             u4621 03CF  
                           u4541 0B42                             u3485 1314                             u3661 1127  
                           u2950 0807                             u3910 099B                             u3830 093E  
                           u3750 0899                             u2870 033C                             u2790 02EB  
                           u4470 00C0                             u4630 040C                             u4550 0B7F  
                           u3590 0826                             u3670 1132                             u2951 0806  
                           u3911 099A                             u3831 093D                             u3751 0898  
                           u2935 1E55                             u2871 033B                             u2855 031F  
                           u2791 02EA                             u4631 040B                             u4551 0B7E  
                           u3591 0825                             u3671 1131                             u3655 111A  
                           u2960 1DB5                             u4800 10F7                             u3920 09A2  
                           u3840 0957                             u3760 08B4                             u2880 0341  
                           u4480 00D0                             u4640 0441                             u4560 0BB4  
                           u2961 1DB4                             u4801 10F6                             u3921 09A1  
                           u3841 0956                             u3825 0925                             u3761 08B3  
                           u2881 0340                             u4481 00CF                             u4705 056B  
                           u4641 0440                             u4561 0BB3                             u3585 0818  
                           u2970 1D95                             u4810 10FC                             u3930 09A8  
                           u3850 095F                             u3770 08D2                             u2890 034E  
                           u4490 00D4                             u4650 047D                             u4570 0BF0  
                           u3690 1145                             u2971 1D94                             u4811 10FB  
                           u3931 09A7                             u3851 095E                             u3835 093A  
                           u3771 08D1                             u2891 034D                             u4491 00D3  
                           u4475 00BB                             u4395 0061                             u4715 05CE  
                           u4651 047C                             u4571 0BEF                             u3691 1144  
                           u3675 112E                             u4820 1106                             u3940 09BA  
                           u3780 090C                             u2980 1E21                             u4660 04B2  
                           u4580 0C25                             u4821 1105                             u3941 09B9  
                           u3781 090B                             u2981 1E20                             u4725 060A  
                           u4661 04B1                             u4581 0C24                             u3685 1139  
                           u4830 110B                             u3950 09C9                             u3870 096E  
                           u4670 04EE                             u4590 0C63                             u4831 110A  
                           u3871 096D                             u4735 0655                             u4671 04ED  
                           u4591 0C60                             u4840 1E1A                             u3960 09E6  
                           u4760 07A5                             u4680 0523                             u4841 1E19  
                           u3961 09E5                             u3865 0963                             u4761 07A4  
                           u4745 0691                             u4681 0522                             u3970 0A03  
                           u3890 0982                             u4770 07E4                             u4690 055F  
                           u4850 1EDC                             u3971 0A02                             u3955 09C4  
                           u3891 0981                             u3795 090E                             u2995 1E28  
                           u4771 07E3                             u4755 0706                             u4691 055E  
                           u4851 1EDB                             u4780 10E8                             u3980 0A1A  
                           u4860 1DAA                             u4781 10E7                             u3981 0A19  
                           u3965 09E2                             u3885 0971                             u4861 1DA6  
                           u4790 10ED                             u3990 0CB0                             u4791 10EC  
                           u3975 09FF                             u3991 0CAF                             u4880 1EA8  
                           u4881 1EA7                             u4874 1DAD                             _TMRA 0110  
                           _WPUB 0095                             _main 1E92                             btemp 007E  
              ??_PORT_Choose_Mux 0073                             start 000C                  ___fldiv@new_exp 004E  
              Resistance_Value@R 00A4            __size_of_ADC_GetValue 0012                            ??_isr 0071  
                     _Get_Newton 15C9            _conversion_newton$778 00BD                    ___fltol@sign1 0020  
                __end_of___aldiv 1525                  __end_of___almod 13F8                  __end_of___fladd 0366  
                          ?_main 0071                  __end_of___fldiv 0A2D                  __end_of___awdiv 120A  
                          _ADRES 001E                  __end_of___awmod 11A3                  __end_of___flmul 1000  
                __end_of___flsub 1DF6                  __end_of___fltol 1371                  ___awdiv@divisor 0073  
                __end_of___lwdiv 0850                            i1l217 10CA                            i1l219 10CF  
                __end_of___lwmod 114A                  ___awdiv@counter 0077                    _Voltage_Value 120A  
                          _RCSTA 0018                            _SPBRG 0099                            _PORTD 0008  
                          _TRISA 0085                            _TRISB 0086                            _TRISC 0087  
                          _TRISD 0088                            _TXREG 0019                            _TXSTA 0098  
               ??_PORT_Start_ADC 0073               __size_of_PORT_Init 0039                            main@F 00E1  
                          pclath 000A                            status 0003                            wtemp0 007E  
                   _ADC_GetValue 1DC0       __end_of_PORT_Get_Value_Adc 10BD                  __initialization 07F9  
                  PORT_putchar@c 0073                     __end_of_main 1EC7                           ??_main 007C  
                 ?_Voltage_Value 00A0       __size_of_TIMER_init_timer1 0012         __end_of_Resistance_Value 1488  
        __size_of_Affichage_brut 007C                           _ADCON0 001F                           _ADCON1 009F  
               ___awdiv@dividend 0075                           _ANSELA 0185                           _ANSELB 0186  
                         _ANSELD 0188                           i1l3041 10C3                           i1l3043 10CE  
                         i1l3039 10BD                           _T1SYNC 0082                           _FVRCON 009D  
               puts_float@Valeur 00A0                           u490_20 10CE                           _OSCCON 0090  
                         u490_21 10CD                           u489_20 10C3                           u489_21 10C2  
                         _TMR1GE 047F                           _TMR1IE 0460                           _TMR1IF 0060  
                         _TMR1ON 0080                           _TMRAIF 006C                           _TMRCS0 0086  
                         _TMRCS1 0087                 __end_of___xxtofl 00DE                           ___flge 1525  
     Affichage_brut@valueMetrics 0025                        ??___aldiv 007B                        ??___almod 007B  
                      ??___fladd 0028                           ___wmul 1E1B                        ??___fldiv 0044  
                      ??___awdiv 0077                        ??___awmod 0077                        ??___flmul 005E  
                      ??___flsub 007C                        ??___fltol 0077                        ??___lwdiv 0077  
                      ??___lwmod 0077                __end_of_PORT_Init 1F00                      ?_Get_Newton 00C7  
               ___awdiv@quotient 0079                  ___awmod@divisor 0073                  ___awmod@counter 0077  
              ?_PORT_Init_Serial 0071               ??_PORT_Init_Serial 0073               __size_of__Umul8_16 0027  
                         saved_w 007E                 ??_PORT_putString 0074                       ___flge@ff1 0073  
                     ___flge@ff2 0077                     ___xxtofl@arg 002A                     ___xxtofl@exp 0029  
                   ___xxtofl@val 0020          __end_of__initialization 07FC                       ___fltol@f1 0073  
                 __pcstackCOMMON 0071                  ??_Voltage_Value 00A4            Affichage_brut@affiche 0024  
                _PORT_Choose_Mux 1DAE                ?_PORT_Select_Mux0 0071                       __pbssBANK1 00E5  
             ??_PORT_Select_Mux0 0073              __size_of_Get_Newton 00DA        __size_of_PORT_Change_Gain 003A  
              __end_of__Umul8_16 1E67                       __pmaintext 1E92                          ?___flge 0073  
                        ?___wmul 0073              ADC_GetValue@channel 0074                       __pintentry 0004  
                        _DACCON0 0113                          _DACCON1 0114                          _T1CKPS0 0084  
                        _T1CKPS1 0085                          _T1OSCEN 0083                        ?___xxtofl 0020  
                 _Affichage_brut 1279                puts_float@affiche 00A4                       __stringtab 1000  
                        ___aldiv 1488                  __size_of___flge 00A4                          ___almod 1371  
                        ___fladd 00DE                          ___fldiv 0850                          ___awdiv 11A3  
                        ___awmod 114A                          ___flmul 0C9F                          ___flsub 1DD2  
                        ___fltol 12F5                  __size_of___wmul 0025                          ___lwdiv 080C  
                        ___lwmod 1110               conversion_newton@F 00C1               conversion_newton@n 00C5  
        __end_of_PORT_Choose_Mux 1DC0                          __ptext1 0010                          __ptext2 1D96  
                        __ptext3 1EC7                          __ptext4 1E67                          __ptext5 1D9E  
                        __ptext6 15C9                          __ptext7 16A3                          __ptext8 1110  
                        __ptext9 080C               _PORT_Get_Value_Adc 10B9           __end_of_Affichage_brut 12F5  
                   __size_of_isr 0019                       ??___xxtofl 0024                 ___awmod@dividend 0075  
               ___aldiv@dividend 0077                ?_Resistance_Value 00A0              ?_PORT_Get_Value_Adc 0071  
              _conversion_newton 0A2D             end_of_initialization 07FC          __size_of_PORT_Blink_LED 0010  
             ??_Resistance_Value 007C               ?_conversion_newton 00A0                 Get_Newton@INTER0 00DB  
               Get_Newton@INTER1 00C7              ??_conversion_newton 00A4                 ___aldiv@quotient 0022  
                        psplit$0 15002D             ??_PORT_Get_Value_Adc 0073                     ??_Get_Newton 00CB  
                      _PORTBbits 0006                        _PORTCbits 0007                        _PORT_Init 1EC7  
                    ___fladd@grs 0033                  ?_Affichage_brut 0020                    ___xxtofl@sign 0028  
                  ?_PORT_putchar 0071        __end_of_conversion_newton 07F9                      ___fldiv@grs 0050  
                    ___fldiv@rem 0049        __size_of_PORT_Init_Serial 002B                      ___flmul@grs 0064  
             __end_of_Get_Newton 16A3                       _puts_float 16A3                 _PORT_Change_Gain 10D6  
        __size_of_PORT_Start_ADC 0008                  PORT_putString@i 0074                   __end_of___flge 15C9  
                 __end_of___wmul 1E40  Affichage_brut@valeur_a_afficher 0020                        _Fincompt1 00E5  
               ?_PORT_Choose_Mux 0071                       ?_PORT_Init 0071                   ??_PORT_putchar 0073  
            start_initialization 07F9                      __end_of_isr 10D6                         ??___flge 0020  
      __size_of_PORT_Select_Mux0 0008                         ??___wmul 0077                        __Umul8_16 1E40  
          __end_of_Voltage_Value 1279                        ___fladd@a 0024                        ___fladd@b 0020  
                      ___fldiv@a 003C                        ___fldiv@b 0040                        ___flmul@a 005A  
                      ___flmul@b 0056                        ___flsub@a 0034                        ___flsub@b 0038  
                      ___latbits 0002                    __pcstackBANK0 0020                    __pcstackBANK1 00A0  
     __size_of_conversion_newton FDCC           conversion_newton@F_tab 1056                __size_of___xxtofl 00BC  
         conversion_newton@R_tab 1006                   _PORT_Blink_LED 1D9E                    ?_ADC_GetValue 0071  
                    ?_puts_float 00A0                 ___lwdiv@dividend 0075          __size_of_PORT_putString 0025  
                       ?___aldiv 0073                         ?___almod 0073                         ?___fladd 0020  
                       ?___fldiv 003C                         ?___awdiv 0073                         ?___awmod 0073  
                       ?___flmul 0056                         ?___flsub 0034                         ?___fltol 0073  
                     ?__Umul8_16 0073                         ?___lwdiv 0073                         ?___lwmod 0073  
         PORT_Change_Gain@INTER0 0076           PORT_Change_Gain@INTER1 0073           puts_float@valueMetrics 00A6  
               ___almod@dividend 0077                        __pstrings 1000                      ??_PORT_Init 0073  
         __end_of_PORT_Blink_LED 1DAE                 ___lwdiv@quotient 0077                       pnum$text13 0015  
         Get_Newton@sensor_value 00DC                 _PORT_Init_Serial 1E67                   ??_ADC_GetValue 0074  
                ___aldiv@divisor 0073                interrupt_function 0004                  ___aldiv@counter 0020  
                 ___wmul@product 0077                   _PORT_Start_ADC 1D8E             __end_of_PORT_putchar 080C  
          PORT_Choose_Mux@_value 0073                         _GO_nDONE 00F9        __size_of_Resistance_Value 0090  
               ??_Affichage_brut 0022                      __stringbase 1005                ___wmul@multiplier 0073  
       __end_of_PORT_Change_Gain 1110              __size_of_puts_float 015D                  ?_PORT_Blink_LED 0071  
                   Get_Newton@Rc 00D7                     Get_Newton@Vs 00CD           __end_of_PORT_Start_ADC 1D96  
       Get_Newton@sensor_Channel 00C8                 _PORT_Select_Mux0 1D96                      ??__Umul8_16 0075  
    __size_of_PORT_Get_Value_Adc 0004                 __size_of___aldiv 009D                 __size_of___almod 0087  
               __size_of___fladd 0288                 __size_of___fldiv 01DD                 __size_of___awdiv 0067  
               __size_of___awmod 0059                 __size_of___flmul 0361                 __size_of___flsub 0024  
               __size_of___fltol 007C                 __size_of___lwdiv 0044                 __size_of___lwmod 003A  
             __end_of__stringtab 1006                         ___xxtofl 0022              conversion_newton@Rc 00A0  
                ___lwdiv@divisor 0073                  ___lwdiv@counter 0079                         __ptext10 12F5  
                       __ptext11 1371                         __ptext20 00DE                         __ptext12 1488  
                       __ptext21 0C9F                         __ptext13 0A2D                         __ptext30 1DC0  
                       __ptext22 1E40                         __ptext14 1525                         __ptext31 1D8E  
                       __ptext23 0850                         __ptext15 120A                         __ptext32 10B9  
                       __ptext24 1DF6                         __ptext16 13F8                         __ptext33 1DAE  
                       __ptext25 10D6                         __ptext17 0022                         __ptext34 10BD  
                       __ptext26 1279                         __ptext18 1E1B                         __ptext27 114A  
                       __ptext19 1DD2                         __ptext28 11A3                         __ptext29 0800  
                ___almod@divisor 0073                  ___almod@counter 0020                  ?_PORT_Start_ADC 0071  
                  __size_of_main 0035                   _PORT_putString 1DF6               pnum$text13_split_1 002D  
           __end_of_ADC_GetValue 1DD2                      Get_Newton@F 00D1                      Get_Newton@R 00D5  
       __size_of_PORT_Choose_Mux 0012                         intlevel1 0000            __size_of_PORT_putchar 000C  
               ___lwmod@dividend 0075           __end_of_PORT_putString 1E1B                     ??_puts_float 007C  
                      stringcode 1000                 _Resistance_Value 13F8         __end_of_PORT_Init_Serial 1E92  
           PORT_putString@chaine 0076   __end_ofconversion_newton@F_tab 10A6           __Umul8_16@multiplicand 0073  
 __end_ofconversion_newton@R_tab 1056              Voltage_Value@sensor 00A8                  ___lwmod@divisor 0073  
                ___lwmod@counter 0077                         stringdir 1000               __end_of_puts_float 1800  
                       stringtab 1000                     ___aldiv@sign 0021                     _PORT_putchar 0800  
              _TIMER_init_timer1 0010          Resistance_Value@Voltage 00A0                    ___fladd@signs 0030  
             ?_TIMER_init_timer1 0071                     ___almod@sign 0021                     ___fladd@aexp 0031  
                   ___fladd@bexp 0032                  ?_PORT_putString 0071             __Umul8_16@multiplier 007B  
            ??_TIMER_init_timer1 0073           __size_of_Voltage_Value 006F                __Umul8_16@product 0077  
